 ConEmu

 Timestamp is 5d0fedaf (Mon Jun 24 00:22:55 2019)

 Preferred load address is 00400000

 Start         Length     Name                   Class
 0001:00000000 000000c0H .text$di                CODE
 0001:000000c0 0012a339H .text$mn                CODE
 0001:0012a3f9 0000785aH .text$x                 CODE
 0001:00131c53 000000e3H .text$yd                CODE
 0002:00000000 00000858H .idata$5                DATA
 0002:00000858 00000004H .00cfg                  DATA
 0002:0000085c 00000004H .CRT$XCA                DATA
 0002:00000860 00000004H .CRT$XCAA               DATA
 0002:00000864 00000008H .CRT$XCC                DATA
 0002:0000086c 00000028H .CRT$XCU                DATA
 0002:00000894 00000004H .CRT$XCZ                DATA
 0002:00000898 00000004H .CRT$XIA                DATA
 0002:0000089c 00000004H .CRT$XIAA               DATA
 0002:000008a0 00000004H .CRT$XIAC               DATA
 0002:000008a4 00000014H .CRT$XIC                DATA
 0002:000008b8 00000004H .CRT$XIZ                DATA
 0002:000008bc 00000004H .CRT$XLA                DATA
 0002:000008c0 00000004H .CRT$XLZ                DATA
 0002:000008c4 00000004H .CRT$XPA                DATA
 0002:000008c8 00000004H .CRT$XPB                DATA
 0002:000008cc 00000008H .CRT$XPX                DATA
 0002:000008d4 00000004H .CRT$XPXA               DATA
 0002:000008d8 00000004H .CRT$XPZ                DATA
 0002:000008dc 00000004H .CRT$XTA                DATA
 0002:000008e0 00000010H .CRT$XTZ                DATA
 0002:000008e4 00000000H .gfids$x                DATA
 0002:000008e4 00000000H .gfids$y                DATA
 0002:000008f0 00062c38H .rdata                  DATA
 0002:00063528 00000018H .rdata$T                DATA
 0002:00063540 000044b0H .rdata$r                DATA
 0002:000679f0 00000910H .rdata$sxdata           DATA
 0002:00068300 000003f0H .rdata$zzzdbg           DATA
 0002:000686f0 00000004H .rtc$IAA                DATA
 0002:000686f4 00000004H .rtc$IZZ                DATA
 0002:000686f8 00000004H .rtc$TAA                DATA
 0002:000686fc 00000004H .rtc$TZZ                DATA
 0002:00068700 00000004H .tls                    DATA
 0002:00068704 00000004H .tls$                   DATA
 0002:00068708 00000008H .tls$ZZZ                DATA
 0002:00068710 00008644H .xdata$x                DATA
 0002:00070d54 00000000H .edata                  DATA
 0002:00070d54 00000104H .idata$2                DATA
 0002:00070e58 00000014H .idata$3                DATA
 0002:00070e6c 00000858H .idata$4                DATA
 0002:000716c4 00002580H .idata$6                DATA
 0003:00000000 00002f70H .data                   DATA
 0003:00002f70 000023b0H .data$r                 DATA
 0003:00005320 0002e9b8H .bss                    DATA
 0004:00000000 00001250H .rsrc$01                DATA
 0004:00001250 000457e8H .rsrc$02                DATA

  Address         Publics by Value              Rva+Base       Lib:Object

 0000:00000000       ___dynamic_value_reloc_table 00000000     <absolute>
 0000:00000000       ___guard_fids_count        00000000     <absolute>
 0000:00000000       ___hybrid_code_map_count   00000000     <absolute>
 0000:00000000       ___hybrid_code_map         00000000     <absolute>
 0000:00000000       ___guard_iat_count         00000000     <absolute>
 0000:00000000       ___guard_fids_table        00000000     <absolute>
 0000:00000000       ___guard_iat_table         00000000     <absolute>
 0000:00000000       ___guard_longjmp_table     00000000     <absolute>
 0000:00000000       ___guard_longjmp_count     00000000     <absolute>
 0000:00000000       ___enclave_config          00000000     <absolute>
 0000:00000000       __except_list              00000000     <absolute>
 0000:00000000       ___hybrid_auxiliary_iat    00000000     <absolute>
 0000:00000000       ___volatile_metadata       00000000     <absolute>
 0000:0000002c       __tls_array                0000002c     <absolute>
 0000:00000100       ___guard_flags             00000100     <absolute>
 0000:00000244       ___safe_se_handler_count   00000244     <absolute>
 0000:00000000       ___ImageBase               00400000     <linker-defined>
 0001:000000c0       ??$GetProcAddress@$$A6GHXZ@MModule@@QBE_NPBDAAP6GHXZ@Z 004010c0 f i AboutDlg.obj
 0001:000000c0       ??$GetProcAddress@$$A6GKPB_WKK@Z@MModule@@QBE_NPBDAAP6GKPB_WKK@Z@Z 004010c0 f i TaskScheduler.obj
 0001:000000c0       ??$GetProcAddress@$$A6GKXZ@MModule@@QBE_NPBDAAP6GKXZ@Z 004010c0 f i common-user32:WSession.obj
 0001:000000c0       ??$GetProcAddress@$$A6GHPAXPAU_OVERLAPPED@@@Z@MModule@@QBE_NPBDAAP6GHPAXPAU_OVERLAPPED@@@Z@Z 004010c0 f i RealConsole.obj
 0001:000000c0       ??$GetProcAddress@$$A6GHPAU_OSVERSIONINFOEXW@@K_K@Z@MModule@@QBE_NPBDAAP6GHPAU_OSVERSIONINFOEXW@@K_K@Z@Z 004010c0 f i common-kernel32:WObjects.obj
 0001:000000c0       ??$GetProcAddress@$$A6GJPAH@Z@MModule@@QBE_NPBDAAP6GJPAH@Z@Z 004010c0 f i AboutDlg.obj
 0001:000000c0       ??$GetProcAddress@$$A6GHKPAK@Z@MModule@@QBE_NPBDAAP6GHKPAK@Z@Z 004010c0 f i common-user32:WSession.obj
 0001:000000c0       ??$GetProcAddress@$$A6GKPB_WPAEPAK@Z@MModule@@QBE_NPBDAAP6GKPB_WPAEPAK@Z@Z 004010c0 f i TaskScheduler.obj
 0001:000000c0       ??$GetProcAddress@$$A6GHPAX@Z@MModule@@QBE_NPBDAAP6GHPAX@Z@Z 004010c0 f i RealConsole.obj
 0001:000000c0       ??$GetProcAddress@$$A6GHPAXPAH@Z@MModule@@QBE_NPBDAAP6GHPAXPAH@Z@Z 004010c0 f i common-kernel32:MProcessBits.obj
 0001:000000c0       ??$GetProcAddress@$$A6GJPBU_TASKDIALOGCONFIG@@PAH11@Z@MModule@@QBE_NPBDAAP6GJPBU_TASKDIALOGCONFIG@@PAH22@Z@Z 004010c0 f i ConfirmDlg.obj
 0001:000000c0       ??$GetProcAddress@$$A6GJPAUHWND__@@HPAXKPA_W@Z@MModule@@QBE_NPBDAAP6GJPAUHWND__@@HPAXKPA_W@Z@Z 004010c0 f i common-kernel32:MFileLog.obj
 0001:000000e7       ??$SafeDelete@VCImgButtons@@@@YAXAAPAVCImgButtons@@@Z 004010e7 f i AboutDlg.obj
 0001:00000124       ??$swprintf_c@$0BE@@@YAHAAY0BE@_WPB_WZZ 00401124 f i AboutDlg.obj
 0001:0000013a       ??$swprintf_c@$0BI@@@YAHAAY0BI@_WPB_WZZ 0040113a f i AboutDlg.obj
 0001:00000150       ??$swprintf_c@$0CA@@@YAHAAY0CA@_WPB_WZZ 00401150 f i AboutDlg.obj
 0001:00000166       ??$swprintf_c@$0EBA@@@YAHAAY0EBA@_WPB_WZZ 00401166 f i AboutDlg.obj
 0001:0000017f       ??$swprintf_c@$0IA@@@YAHAAY0IA@_WPB_WZZ 0040117f f i AboutDlg.obj
 0001:00000198       ??$ultow_s@$0CA@@@YAPB_WIAAY0CA@_WH@Z 00401198 f i AboutDlg.obj
 0001:000001c0       ?InitCommCtrls@ConEmuAbout@@YAXXZ 004011c0 f   AboutDlg.obj
 0001:000001ef       ?LoadWindowsBuild@LoadStartupEnvEx@@KAPA_WABU_OSVERSIONINFOEXW@@@Z 004011ef f i AboutDlg.obj
 0001:00000402       ?LogStartEnvInt@ConEmuAbout@@YAXPB_WJ_N1@Z 00401402 f   AboutDlg.obj
 0001:0000045f       ?OnInfo_About@ConEmuAbout@@YAXPB_W@Z 0040145f f   AboutDlg.obj
 0001:000005bc       ?OnInfo_Donate@ConEmuAbout@@YAXXZ 004015bc f   AboutDlg.obj
 0001:000005db       ?OnInfo_DonateLink@ConEmuAbout@@YAXXZ 004015db f   AboutDlg.obj
 0001:00000610       ?OnInfo_DownloadPage@ConEmuAbout@@YAXXZ 00401610 f   AboutDlg.obj
 0001:00000646       ?OnInfo_FirstStartPage@ConEmuAbout@@YAXXZ 00401646 f   AboutDlg.obj
 0001:0000067c       ?OnInfo_Help@ConEmuAbout@@YAXXZ 0040167c f   AboutDlg.obj
 0001:00000706       ?OnInfo_HomePage@ConEmuAbout@@YAXXZ 00401706 f   AboutDlg.obj
 0001:0000073c       ?OnInfo_OnlineWiki@ConEmuAbout@@YAXPB_W@Z 0040173c f   AboutDlg.obj
 0001:000007b4       ?OnInfo_ReportBug@ConEmuAbout@@YAXXZ 004017b4 f   AboutDlg.obj
 0001:000007ea       ?OnInfo_ReportCrash@ConEmuAbout@@YAXPB_W@Z 004017ea f   AboutDlg.obj
 0001:00000872       ?OnInfo_ThrowTrapException@ConEmuAbout@@YAX_N@Z 00401872 f   AboutDlg.obj
 0001:00000904       ?OnInfo_WhatsNew@ConEmuAbout@@YAX_N@Z 00401904 f   AboutDlg.obj
 0001:000009bc       ?ReloadSysInfo@ConEmuAbout@@YAXXZ 004019bc f   AboutDlg.obj
 0001:00000a09       ?StringCchCatW@@YGJPA_WIPB_W@Z 00401a09 f i AboutDlg.obj
 0001:00000a47       ?StringCchCopyW@@YGJPA_WIPB_W@Z 00401a47 f i AboutDlg.obj
 0001:00000a7b       ?StringCchVPrintfW@@YGJPA_WIPB_WPAD@Z 00401a7b f i AboutDlg.obj
 0001:00000bb4       ?TabSelected@ConEmuAbout@@YAXPAUHWND__@@H@Z 00401bb4 f   AboutDlg.obj
 0001:00000c5b       ?ToString@LoadStartupEnvEx@@SAXPAUCEStartupEnv@@P6AXPB_WJ_N2@ZJ@Z 00401c5b f i AboutDlg.obj
 0001:000019e2       ?aboutProc@ConEmuAbout@@YGHPAUHWND__@@IIJ@Z 004029e2 f   AboutDlg.obj
 0001:00001f92       ?searchProc@ConEmuAbout@@YAXPAUHWND__@@0_N@Z 00402f92 f   AboutDlg.obj
 0001:0000222e       ___local_stdio_printf_options 0040322e f i AboutDlg.obj
 0001:00002234       __vsnwprintf_l             00403234 f i AboutDlg.obj
 0001:00002266       ??$swprintf_c@$0FA@@@YAHAAY0FA@_WPB_WZZ 00403266 f i AltNumpad.obj
 0001:0000227c       ??$swprintf_c@$0HI@@@YAHAAY0HI@_WPB_WZZ 0040327c f i AltNumpad.obj
 0001:00002292       ??0CAltNumpad@@QAE@PAVCConEmuMain@@@Z 00403292 f   AltNumpad.obj
 0001:000022c0       ??1HandleMonitor@@QAE@XZ   004032c0 f   GdiObjects.obj
 0001:000022c0       ?ResetCache@CRConFiles@@QAEXXZ 004032c0 f   RConFiles.obj
 0001:000022c0       __initialize_denormal_control 004032c0 f   LIBCMT:denormal_control.obj
 0001:000022c0       ?PrintRecentStack@CTabBarClass@@QAEXXZ 004032c0 f   TabBar.obj
 0001:000022c0       ?OnTaskbarCreated@CDragDropData@@QAEXXZ 004032c0 f   DragDropData.obj
 0001:000022c0       ??1CRConFiles@@QAE@XZ      004032c0 f   RConFiles.obj
 0001:000022c0       ?destroy@stl_condition_variable_vista@details@Concurrency@@UAEXXZ 004032c0 f   libcpmt:cond.obj
 0001:000022c0       @_guard_check_icall_nop@4  004032c0 f   LIBCMT:guard_support.obj
 0001:000022c0       ?PostCreateThreadFinished@CDefaultTerminal@@MAEXXZ 004032c0 f   DefaultTerm.obj
 0001:000022c0       ?SyncWindowToConsole@CVConGroup@@SAXXZ 004032c0 f   VConGroup.obj
 0001:000022c0       ?destroy@stl_condition_variable_win7@details@Concurrency@@UAEXXZ 004032c0 f   libcpmt:cond.obj
 0001:000022c0       ??1critical_section@Concurrency@@QAE@XZ 004032c0 f   libconcrt:rtlocks.obj
 0001:000022c0       ?NotifyAffinitizedWork@FairScheduleGroupSegment@details@Concurrency@@UAEXXZ 004032c0 f   libconcrt:SchedulerBase.obj
 0001:000022c0       ?Destroy@WaitAnyBlock@details@Concurrency@@UAEXXZ 004032c0 f   libconcrt:event.obj
 0001:000022c0       ?RMAwaken@InternalContextBase@details@Concurrency@@EAEXXZ 004032c0 f   libconcrt:InternalContextBase.obj
 0001:000022c0       ?PostCreateThreadFinished@CDefTermBase@@MAEXXZ 004032c0 f   DefaultTerm.obj
 0001:000022c0       ??1CAltNumpad@@QAE@XZ      004032c0 f   AltNumpad.obj
 0001:000022c0       ?ResetOnStart@CVirtualConsole@@QAEXXZ 004032c0 f   VirtualConsole.obj
 0001:000022c0       ?_Doraise@exception@stdext@@MBEXXZ 004032c0 f   common-kernel32:CEStr.obj
 0001:000022c0       ??1CPushInfo@@QAE@XZ       004032c0 f   PushInfo.obj
 0001:000022c0       ?destroy@stl_critical_section_win7@details@Concurrency@@UAEXXZ 004032c0 f   libcpmt:mutex.obj
 0001:000022c0       ?ReleaseBuffer@MPipeBase@@UAEXXZ 004032c0 f   RealConsole.obj
 0001:000022c0       ?PreCreateThread@CDefTermBase@@MAEXXZ 004032c0 f   DefaultTerm.obj
 0001:000022c0       __initialize_invalid_parameter_handler 004032c0 f   LIBCMT:invalid_parameter_handler.obj
 0001:000022c1       ?ClearAltNumber@CAltNumpad@@IAEX_N@Z 004032c1 f   AltNumpad.obj
 0001:00002345       ?DumpAltNumber@CAltNumpad@@IAE?AW4AltCharAction@@XZ 00403345 f   AltNumpad.obj
 0001:0000243b       ?DumpChars@CAltNumpad@@IAEXPA_W@Z 0040343b f   AltNumpad.obj
 0001:000024c4       ?DumpStatus@CAltNumpad@@IAEXXZ 004034c4 f   AltNumpad.obj
 0001:000025d7       ?GetChars@CAltNumpad@@IAEHAAY02_W@Z 004035d7 f   AltNumpad.obj
 0001:00002662       ?OnKeyboard@CAltNumpad@@QAE_NPAUHWND__@@IIJ@Z 00403662 f   AltNumpad.obj
 0001:000029fe       ?StartCapture@CAltNumpad@@QAEXII_N@Z 004039fe f   AltNumpad.obj
 0001:00002af9       ?isAltNumpad@CAltNumpad@@IAE_NXZ 00403af9 f   AltNumpad.obj
 0001:00002b4a       ?isUseAltGrayPlus@CAltNumpad@@IAE_NXZ 00403b4a f   AltNumpad.obj
 0001:00002bad       ??$SafeDelete@VCDpiForDialog@@@@YAXAAPAVCDpiForDialog@@@Z 00403bad f i Attach.obj
 0001:00002bed       ??$SafeDelete@VMFileLogEx@@@@YAXAAPAVMFileLogEx@@@Z 00403bed f i ConEmu.obj
 0001:00002bed       ??$SafeDelete@VCToolTip@@@@YAXAAPAVCToolTip@@@Z 00403bed f i ConEmu.obj
 0001:00002bed       ??$SafeDelete@VCSetPgBase@@@@YAXAAPAVCSetPgBase@@@Z 00403bed f i OptionsClass.obj
 0001:00002bed       ??$SafeDelete@VCStatus@@@@YAXAAPAVCStatus@@@Z 00403bed f i ConEmu.obj
 0001:00002bed       ??$SafeDelete@VCVConGuard@@@@YAXAAPAVCVConGuard@@@Z 00403bed f i VConGroup.obj
 0001:00002bed       ??$SafeDelete@VCSettings@@@@YAXAAPAVCSettings@@@Z 00403bed f i ConEmuApp.obj
 0001:00002bed       ??$SafeDelete@VCConEmuInside@@@@YAXAAPAVCConEmuInside@@@Z 00403bed f i ConEmu.obj
 0001:00002bed       ??$SafeDelete@VCTabBarClass@@@@YAXAAPAVCTabBarClass@@@Z 00403bed f i ConEmu.obj
 0001:00002bed       ??$SafeDelete@URConStartArgsEx@@@@YAXAAPAURConStartArgsEx@@@Z 00403bed f i GuiServer.obj
 0001:00002bed       ??$SafeDelete@VCRConPalette@@@@YAXAAPAVCRConPalette@@@Z 00403bed f i RealConsole.obj
 0001:00002bed       ??$SafeDelete@VCFormatCopy@@@@YAXAAPAVCFormatCopy@@@Z 00403bed f i RealBuffer.obj
 0001:00002bed       ??$SafeDelete@VCTabPanelBase@@@@YAXAAPAVCTabPanelBase@@@Z 00403bed f i TabBar.obj
 0001:00002bed       ??$SafeDelete@VCTaskSchedulerBase@@@@YAXAAPAVCTaskSchedulerBase@@@Z 00403bed f i TaskScheduler.obj
 0001:00002bed       ??$SafeDelete@VMFileLog@@@@YAXAAPAVMFileLog@@@Z 00403bed f i RealConsole.obj
 0001:00002bed       ??$SafeDelete@VCBackground@@@@YAXAAPAVCBackground@@@Z 00403bed f i VirtualConsole.obj
 0001:00002bed       ??$SafeDelete@VCDynDialog@@@@YAXAAPAVCDynDialog@@@Z 00403bed f i Attach.obj
 0001:00002c1d       ??$_Emplace_reallocate@ABUAttachParm@@@?$vector@UAttachParm@@V?$MArrayAllocator@UAttachParm@@@@@std@@QAEPAUAttachParm@@QAU2@ABU2@@Z 00403c1d f i Attach.obj
 0001:00002c1d       ??$_Emplace_reallocate@ABUHighlightRect@CVirtualConsole@@@?$vector@UHighlightRect@CVirtualConsole@@V?$MArrayAllocator@UHighlightRect@CVirtualConsole@@@@@std@@QAEPAUHighlightRect@CVirtualConsole@@QAU23@ABU23@@Z 00403c1d f i VirtualConsole.obj
 0001:00002cda       ??$emplace_back@ABUHighlightRect@CVirtualConsole@@@?$vector@UHighlightRect@CVirtualConsole@@V?$MArrayAllocator@UHighlightRect@CVirtualConsole@@@@@std@@QAEXABUHighlightRect@CVirtualConsole@@@Z 00403cda f i VirtualConsole.obj
 0001:00002cda       ??$emplace_back@ABUAttachParm@@@?$vector@UAttachParm@@V?$MArrayAllocator@UAttachParm@@@@@std@@QAEXABUAttachParm@@@Z 00403cda f i Attach.obj
 0001:00002d08       ??$swprintf_c@$0BAE@@@YAHAAY0BAE@_WPB_WZZ 00403d08 f i Attach.obj
 0001:00002d21       ??$swprintf_c@$0CAD@@@YAHAAY0CAD@_WPB_WZZ 00403d21 f i Attach.obj
 0001:00002d3a       ??$swprintf_c@$0DAM@@@YAHAAY0DAM@_WPB_WZZ 00403d3a f i Attach.obj
 0001:00002d53       ??$swprintf_c@$0EAA@@@YAHAAY0EAA@_WPB_WZZ 00403d53 f i Attach.obj
 0001:00002d6c       ??$wcscat_c@$0BEE@@@YAHAAY0BEE@_WPB_W@Z 00403d6c f i Attach.obj
 0001:00002d81       ??$wcscpy_c@$0BAE@@@YAHAAY0BAE@_WPB_W@Z 00403d81 f i Attach.obj
 0001:00002d96       ??$wcscpy_c@$0PP@@@YAHAAY0PP@_WPB_W@Z 00403d96 f i Attach.obj
 0001:00002dab       ??0CAttachDlg@@QAE@XZ      00403dab f   Attach.obj
 0001:00002ddc       ??0CProcessData@@QAE@XZ    00403ddc f i Attach.obj
 0001:00002e3b       ??0bad_alloc@std@@QAE@ABV01@@Z 00403e3b f i Attach.obj
 0001:00002e56       ??0bad_alloc@std@@QAE@XZ   00403e56 f i Attach.obj
 0001:00002e6e       ??0exception@std@@QAE@ABV01@@Z 00403e6e f i Attach.obj
 0001:00002e9a       ??1CAttachDlg@@QAE@XZ      00403e9a f   Attach.obj
 0001:00002ece       ??1CProcessData@@QAE@XZ    00403ece f i Attach.obj
 0001:00002f36       ??1invalid_scheduler_policy_thread_specification@Concurrency@@UAE@XZ 00403f36 f i libconcrt:Exceptions.obj
 0001:00002f36       ??1system_error@std@@UAE@XZ 00403f36 f i libcpmt:thread0.obj
 0001:00002f36       ??1context_unblock_unbalanced@Concurrency@@UAE@XZ 00403f36 f i libconcrt:Exceptions.obj
 0001:00002f36       ??1bad_alloc@std@@UAE@XZ   00403f36 f i Attach.obj
 0001:00002f36       ??1invalid_operation@Concurrency@@UAE@XZ 00403f36 f i libconcrt:ResourceManager.obj
 0001:00002f36       ??1invalid_scheduler_policy_value@Concurrency@@UAE@XZ 00403f36 f i libconcrt:Exceptions.obj
 0001:00002f36       ??1improper_scheduler_attach@Concurrency@@UAE@XZ 00403f36 f i libconcrt:Exceptions.obj
 0001:00002f36       ??1improper_lock@Concurrency@@UAE@XZ 00403f36 f i libconcrt:rtlocks.obj
 0001:00002f36       ??1missing_wait@Concurrency@@UAE@XZ 00403f36 f i libconcrt:Exceptions.obj
 0001:00002f36       ??1improper_scheduler_reference@Concurrency@@UAE@XZ 00403f36 f i libconcrt:Exceptions.obj
 0001:00002f36       ??1length_error@std@@UAE@XZ 00403f36 f i libcpmt:xthrow.obj
 0001:00002f36       ??1bad_cast@std@@UAE@XZ    00403f36 f i libvcruntime:rtti.obj
 0001:00002f36       ??1context_self_unblock@Concurrency@@UAE@XZ 00403f36 f i libconcrt:Exceptions.obj
 0001:00002f36       ??1bad_exception@std@@UAE@XZ 00403f36 f i libvcruntime:frame.obj
 0001:00002f36       ??1parse_error@rapidxml@@UAE@XZ 00403f36 f i Registry.obj
 0001:00002f36       ??1scheduler_resource_allocation_error@Concurrency@@UAE@XZ 00403f36 f i libconcrt:Platform.obj
 0001:00002f36       ??1invalid_oversubscribe_operation@Concurrency@@UAE@XZ 00403f36 f i libconcrt:Exceptions.obj
 0001:00002f36       ??1scheduler_worker_creation_error@Concurrency@@UAE@XZ 00403f36 f i libconcrt:Exceptions.obj
 0001:00002f36       ??1unsupported_os@Concurrency@@UAE@XZ 00403f36 f i libconcrt:Exceptions.obj
 0001:00002f36       ??1invalid_scheduler_policy_key@Concurrency@@UAE@XZ 00403f36 f i libconcrt:Exceptions.obj
 0001:00002f36       ??1out_of_range@std@@UAE@XZ 00403f36 f i libcpmt:xthrow.obj
 0001:00002f36       ??1nested_scheduler_missing_detach@Concurrency@@UAE@XZ 00403f36 f i libconcrt:Exceptions.obj
 0001:00002f36       ??1invalid_argument@std@@UAE@XZ 00403f36 f i libcpmt:xthrow.obj
 0001:00002f36       ??1_Interruption_exception@details@Concurrency@@UAE@XZ 00403f36 f i libconcrt:TaskCollection.obj
 0001:00002f36       ??1bad_function_call@std@@UAE@XZ 00403f36 f i libcpmt:xthrow.obj
 0001:00002f36       ??1__non_rtti_object@std@@UAE@XZ 00403f36 f i libvcruntime:rtti.obj
 0001:00002f47       ??_Eimproper_scheduler_attach@Concurrency@@UAEPAXI@Z 00403f47 f i libconcrt:Exceptions.obj
 0001:00002f47       ??_Elogic_error@std@@UAEPAXI@Z 00403f47 f i libcpmt:xthrow.obj
 0001:00002f47       ??_Einvalid_oversubscribe_operation@Concurrency@@UAEPAXI@Z 00403f47 f i libconcrt:Exceptions.obj
 0001:00002f47       ??_Eruntime_error@std@@UAEPAXI@Z 00403f47 f i libcpmt:xthrow.obj
 0001:00002f47       ??_Gbad_typeid@std@@UAEPAXI@Z 00403f47 f i libvcruntime:rtti.obj
 0001:00002f47       ??_Gnested_scheduler_missing_detach@Concurrency@@UAEPAXI@Z 00403f47 f i libconcrt:Exceptions.obj
 0001:00002f47       ??_Gbad_alloc@std@@UAEPAXI@Z 00403f47 f i Attach.obj
 0001:00002f47       ??_Econtext_unblock_unbalanced@Concurrency@@UAEPAXI@Z 00403f47 f i libconcrt:Exceptions.obj
 0001:00002f47       ??_Gimproper_scheduler_attach@Concurrency@@UAEPAXI@Z 00403f47 f i libconcrt:Exceptions.obj
 0001:00002f47       ??_Gimproper_scheduler_reference@Concurrency@@UAEPAXI@Z 00403f47 f i libconcrt:Exceptions.obj
 0001:00002f47       ??_Gbad_function_call@std@@UAEPAXI@Z 00403f47 f i libcpmt:xthrow.obj
 0001:00002f47       ??_Ebad_cast@std@@UAEPAXI@Z 00403f47 f i libvcruntime:rtti.obj
 0001:00002f47       ??_Glogic_error@std@@UAEPAXI@Z 00403f47 f i libcpmt:xthrow.obj
 0001:00002f47       ??_Gbad_exception@std@@UAEPAXI@Z 00403f47 f i libvcruntime:frame.obj
 0001:00002f47       ??_Eunsupported_os@Concurrency@@UAEPAXI@Z 00403f47 f i libconcrt:Exceptions.obj
 0001:00002f47       ??_Eout_of_range@std@@UAEPAXI@Z 00403f47 f i libcpmt:xthrow.obj
 0001:00002f47       ??_Eimproper_scheduler_reference@Concurrency@@UAEPAXI@Z 00403f47 f i libconcrt:Exceptions.obj
 0001:00002f47       ??_Eimproper_lock@Concurrency@@UAEPAXI@Z 00403f47 f i libconcrt:rtlocks.obj
 0001:00002f47       ??_Einvalid_argument@std@@UAEPAXI@Z 00403f47 f i libcpmt:xthrow.obj
 0001:00002f47       ??_Econtext_self_unblock@Concurrency@@UAEPAXI@Z 00403f47 f i libconcrt:Exceptions.obj
 0001:00002f47       ??_Ebad_function_call@std@@UAEPAXI@Z 00403f47 f i libcpmt:xthrow.obj
 0001:00002f47       ??_Gunsupported_os@Concurrency@@UAEPAXI@Z 00403f47 f i libconcrt:Exceptions.obj
 0001:00002f47       ??_Ginvalid_scheduler_policy_thread_specification@Concurrency@@UAEPAXI@Z 00403f47 f i libconcrt:Exceptions.obj
 0001:00002f47       ??_G__non_rtti_object@std@@UAEPAXI@Z 00403f47 f i libvcruntime:rtti.obj
 0001:00002f47       ??_Einvalid_scheduler_policy_value@Concurrency@@UAEPAXI@Z 00403f47 f i libconcrt:Exceptions.obj
 0001:00002f47       ??_Emissing_wait@Concurrency@@UAEPAXI@Z 00403f47 f i libconcrt:Exceptions.obj
 0001:00002f47       ??_G_Interruption_exception@details@Concurrency@@UAEPAXI@Z 00403f47 f i libconcrt:TaskCollection.obj
 0001:00002f47       ??_Ginvalid_scheduler_policy_value@Concurrency@@UAEPAXI@Z 00403f47 f i libconcrt:Exceptions.obj
 0001:00002f47       ??_Ebad_exception@std@@UAEPAXI@Z 00403f47 f i libvcruntime:frame.obj
 0001:00002f47       ??_Ebad_typeid@std@@UAEPAXI@Z 00403f47 f i libvcruntime:rtti.obj
 0001:00002f47       ??_Glength_error@std@@UAEPAXI@Z 00403f47 f i libcpmt:xthrow.obj
 0001:00002f47       ??_Ginvalid_oversubscribe_operation@Concurrency@@UAEPAXI@Z 00403f47 f i libconcrt:Exceptions.obj
 0001:00002f47       ??_Ginvalid_scheduler_policy_key@Concurrency@@UAEPAXI@Z 00403f47 f i libconcrt:Exceptions.obj
 0001:00002f47       ??_Gcontext_self_unblock@Concurrency@@UAEPAXI@Z 00403f47 f i libconcrt:Exceptions.obj
 0001:00002f47       ??_Gbad_cast@std@@UAEPAXI@Z 00403f47 f i libvcruntime:rtti.obj
 0001:00002f47       ??_Eexception@std@@UAEPAXI@Z 00403f47 f i Attach.obj
 0001:00002f47       ??_Elength_error@std@@UAEPAXI@Z 00403f47 f i libcpmt:xthrow.obj
 0001:00002f47       ??_Einvalid_operation@Concurrency@@UAEPAXI@Z 00403f47 f i libconcrt:ResourceManager.obj
 0001:00002f47       ??_Ginvalid_operation@Concurrency@@UAEPAXI@Z 00403f47 f i libconcrt:ResourceManager.obj
 0001:00002f47       ??_Gout_of_range@std@@UAEPAXI@Z 00403f47 f i libcpmt:xthrow.obj
 0001:00002f47       ??_Gmissing_wait@Concurrency@@UAEPAXI@Z 00403f47 f i libconcrt:Exceptions.obj
 0001:00002f47       ??_Einvalid_scheduler_policy_key@Concurrency@@UAEPAXI@Z 00403f47 f i libconcrt:Exceptions.obj
 0001:00002f47       ??_Gcontext_unblock_unbalanced@Concurrency@@UAEPAXI@Z 00403f47 f i libconcrt:Exceptions.obj
 0001:00002f47       ??_Ginvalid_argument@std@@UAEPAXI@Z 00403f47 f i libcpmt:xthrow.obj
 0001:00002f47       ??_E_Interruption_exception@details@Concurrency@@UAEPAXI@Z 00403f47 f i libconcrt:TaskCollection.obj
 0001:00002f47       ??_Gimproper_lock@Concurrency@@UAEPAXI@Z 00403f47 f i libconcrt:rtlocks.obj
 0001:00002f47       ??_Enested_scheduler_missing_detach@Concurrency@@UAEPAXI@Z 00403f47 f i libconcrt:Exceptions.obj
 0001:00002f47       ??_Gruntime_error@std@@UAEPAXI@Z 00403f47 f i libcpmt:xthrow.obj
 0001:00002f47       ??_E__non_rtti_object@std@@UAEPAXI@Z 00403f47 f i libvcruntime:rtti.obj
 0001:00002f47       ??_Einvalid_scheduler_policy_thread_specification@Concurrency@@UAEPAXI@Z 00403f47 f i libconcrt:Exceptions.obj
 0001:00002f47       ??_Gexception@std@@UAEPAXI@Z 00403f47 f i Attach.obj
 0001:00002f47       ??_Ebad_alloc@std@@UAEPAXI@Z 00403f47 f i Attach.obj
 0001:00002f74       ?AttachDlg@CAttachDlg@@QAEXXZ 00403f74 f   Attach.obj
 0001:00003011       ?AttachDlgEnumWin@CAttachDlg@@SGHPAUHWND__@@J@Z 00404011 f   Attach.obj
 0001:00003205       ?AttachDlgProc@CAttachDlg@@SGHPAUHWND__@@IIJ@Z 00404205 f   Attach.obj
 0001:00003c16       ?AttachFromMacro@CAttachDlg@@SA?AW4AttachMacroRet@1@K_N@Z 00404c16 f   Attach.obj
 0001:00003e57       ?CanAttachWindow@CAttachDlg@@KA_NPAUHWND__@@KPAVCProcessData@@AAUAttachWndInfo@1@@Z 00404e57 f   Attach.obj
 0001:00004272       ?Close@CAttachDlg@@QAEXXZ  00405272 f   Attach.obj
 0001:000042d2       ?FindProcessName@CProcessData@@IAE_NKPA_WK@Z 004052d2 f i Attach.obj
 0001:00004394       ?GetHWND@CAttachDlg@@QAEPAUHWND__@@XZ 00405394 f   Attach.obj
 0001:0000439e       ?GetInternalProcessData@CProcessData@@IAEHPAXPAUModuleData@1@AAPAUPROCESS_PARAMETERS@1@AAPAD_N@Z 0040539e f i Attach.obj
 0001:000044d8       ?GetOpenProcessData@CProcessData@@IAEXPAXPA_WK1K1K@Z 004054d8 f i Attach.obj
 0001:000046b8       ?GetProcessName@CProcessData@@QAE_NKPA_WK0KPAH@Z 004056b8 f i Attach.obj
 0001:000048b7       ?LoadPerfData@CProcessData@@IAE_NXZ 004058b7 f i Attach.obj
 0001:00004b06       ?OnStartAttach@CAttachDlg@@IAE_NXZ 00405b06 f   Attach.obj
 0001:00004e5b       ?StartAttach@CAttachDlg@@KA_NPAUHWND__@@KKW4AttachProcessType@@HH@Z 00405e5b f   Attach.obj
 0001:000054bc       ?StartAttachThread@CAttachDlg@@SGKPAV?$MArray@UAttachParm@@@@@Z 004064bc f   Attach.obj
 0001:00005538       ?_Calculate_growth@?$vector@UHighlightRect@CVirtualConsole@@V?$MArrayAllocator@UHighlightRect@CVirtualConsole@@@@@std@@ABEII@Z 00406538 f i VirtualConsole.obj
 0001:00005538       ?_Calculate_growth@?$vector@UAttachParm@@V?$MArrayAllocator@UAttachParm@@@@@std@@ABEII@Z 00406538 f i Attach.obj
 0001:00005563       ?_Change_array@?$vector@UAttachParm@@V?$MArrayAllocator@UAttachParm@@@@@std@@AAEXQAUAttachParm@@II@Z 00406563 f i Attach.obj
 0001:00005563       ?_Change_array@?$vector@UHighlightRect@CVirtualConsole@@V?$MArrayAllocator@UHighlightRect@CVirtualConsole@@@@@std@@AAEXQAUHighlightRect@CVirtualConsole@@II@Z 00406563 f i VirtualConsole.obj
 0001:0000559f       ?_Tidy@?$vector@UAttachParm@@V?$MArrayAllocator@UAttachParm@@@@@std@@AAEXXZ 0040659f f i Attach.obj
 0001:0000559f       ?_Tidy@?$vector@UHighlightRect@CVirtualConsole@@V?$MArrayAllocator@UHighlightRect@CVirtualConsole@@@@@std@@AAEXXZ 0040659f f i VirtualConsole.obj
 0001:000055c8       ?_Xlength@?$vector@PAUCommand@CProcessEnvCmd@@V?$MArrayAllocator@PAUCommand@CProcessEnvCmd@@@@@std@@CAXXZ 004065c8 f i common-user32:ProcessSetEnv.obj
 0001:000055c8       ?_Xlength@?$vector@UtagPROCESSENTRY32W@@V?$MArrayAllocator@UtagPROCESSENTRY32W@@@@@std@@CAXXZ 004065c8 f i RealConsole.obj
 0001:000055c8       ?_Xlength@?$vector@PAVCFont@@V?$MArrayAllocator@PAVCFont@@@@@std@@CAXXZ 004065c8 f i FontMgr.obj
 0001:000055c8       ?_Xlength@?$vector@PAVCustomFont@@V?$MArrayAllocator@PAVCustomFont@@@@@std@@CAXXZ 004065c8 f i CustomFonts.obj
 0001:000055c8       ?_Xlength@?$vector@UThreadHandle@CDefTermBase@@V?$MArrayAllocator@UThreadHandle@CDefTermBase@@@@@std@@CAXXZ 004065c8 f i ConEmu.obj
 0001:000055c8       ?_Xlength@?$vector@UMonitorInfoCache@CConEmuSize@@V?$MArrayAllocator@UMonitorInfoCache@CConEmuSize@@@@@std@@CAXXZ 004065c8 f i ConEmuSize.obj
 0001:000055c8       ?_Xlength@?$vector@UConEmuHotKey@@V?$MArrayAllocator@UConEmuHotKey@@@@@std@@CAXXZ 004065c8 f i HotkeyList.obj
 0001:000055c8       ?_Xlength@?$vector@HV?$MArrayAllocator@H@@@std@@CAXXZ 004065c8 f i CmdHistory.obj
 0001:000055c8       ?_Xlength@?$vector@PAXV?$MArrayAllocator@PAX@@@std@@CAXXZ 004065c8 f i TaskBar.obj
 0001:000055c8       ?_Xlength@?$vector@U?$pair@HUCEStr@@@std@@V?$MArrayAllocator@U?$pair@HUCEStr@@@std@@@@@std@@CAXXZ 004065c8 f i common-kernel32:CEStr.obj
 0001:000055c8       ?_Xlength@?$vector@UFontHeightInfo@@V?$MArrayAllocator@UFontHeightInfo@@@@@std@@CAXXZ 004065c8 f i FontMgr.obj
 0001:000055c8       ?_Xlength@?$vector@UProcessInfo@CDefTermBase@@V?$MArrayAllocator@UProcessInfo@CDefTermBase@@@@@std@@CAXXZ 004065c8 f i ConEmu.obj
 0001:000055c8       ?_Xlength@?$vector@PAVCVConGroup@@V?$MArrayAllocator@PAVCVConGroup@@@@@std@@CAXXZ 004065c8 f i VConGroup.obj
 0001:000055c8       ?_Xlength@?$vector@UConProcess@@V?$MArrayAllocator@UConProcess@@@@@std@@CAXXZ 004065c8 f i RealConsole.obj
 0001:000055c8       ?_Xlength@?$vector@UDlgItem@CDpiForDialog@@V?$MArrayAllocator@UDlgItem@CDpiForDialog@@@@@std@@CAXXZ 004065c8 f i DpiAware.obj
 0001:000055c8       ?_Xlength@?$vector@UBtnInfo@@V?$MArrayAllocator@UBtnInfo@@@@@std@@CAXXZ 004065c8 f i ImgButton.obj
 0001:000055c8       ?_Xlength@?$vector@UDragData@CDataObject@@V?$MArrayAllocator@UDragData@CDataObject@@@@@std@@CAXXZ 004065c8 f i BaseDragDrops.obj
 0001:000055c8       ?_Xlength@?$vector@UVarDef@CVarDefs@FastConfig@@V?$MArrayAllocator@UVarDef@CVarDefs@FastConfig@@@@@std@@CAXXZ 004065c8 f i OptionsFast.obj
 0001:000055c8       ?_Xlength@?$vector@Utxt@CFormatCopy@@V?$MArrayAllocator@Utxt@CFormatCopy@@@@@std@@CAXXZ 004065c8 f i RealBuffer.obj
 0001:000055c8       ?_Xlength@?$vector@V?$_List_unchecked_iterator@V?$_List_val@U?$_List_simple_types@U?$pair@$$CBV?$basic_string@_WU?$char_traits@_W@std@@V?$allocator@_W@2@@std@@UVariableData@SystemEnvironment@@@std@@@std@@@std@@@std@@V?$allocator@V?$_List_unchecked_iterator@V?$_List_val@U?$_List_simple_types@U?$pair@$$CBV?$basic_string@_WU?$char_traits@_W@std@@V?$allocator@_W@2@@std@@UVariableData@SystemEnvironment@@@std@@@std@@@std@@@std@@@2@@std@@CAXXZ 004065c8 f i ConEmu.obj
 0001:000055c8       ?_Xlength@?$vector@PAUSwitch@@V?$MArrayAllocator@PAUSwitch@@@@@std@@CAXXZ 004065c8 f i SetPgIntegr.obj
 0001:000055c8       ?_Xlength@?$vector@URunQueueItem@CRunQueue@@V?$MArrayAllocator@URunQueueItem@CRunQueue@@@@@std@@CAXXZ 004065c8 f i RunQueue.obj
 0001:000055c8       ?_Xlength@?$vector@PA_WV?$MArrayAllocator@PA_W@@@std@@CAXXZ 004065c8 f i CmdHistory.obj
 0001:000055c8       ?_Xlength@?$vector@PAVCBackgroundInfo@@V?$MArrayAllocator@PAVCBackgroundInfo@@@@@std@@CAXXZ 004065c8 f i Background.obj
 0001:000055c8       ?_Xlength@?$vector@PAVCTabID@@V?$MArrayAllocator@PAVCTabID@@@@@std@@CAXXZ 004065c8 f i TabBar.obj
 0001:000055c8       ?_Xlength@?$vector@UCmdTaskPopupItem@CConEmuMenu@@V?$MArrayAllocator@UCmdTaskPopupItem@CConEmuMenu@@@@@std@@CAXXZ 004065c8 f i Menu.obj
 0001:000055c8       ?_Xlength@?$vector@ULngDefinition@CLngRc@@V?$MArrayAllocator@ULngDefinition@CLngRc@@@@@std@@CAXXZ 004065c8 f i LngRc.obj
 0001:000055c8       ?_Xlength@?$vector@URegFont@@V?$MArrayAllocator@URegFont@@@@@std@@CAXXZ 004065c8 f i FontMgr.obj
 0001:000055c8       ?_Xlength@?$vector@PB_WV?$MArrayAllocator@PB_W@@@std@@CAXXZ 004065c8 f i ConEmu.obj
 0001:000055c8       ?_Xlength@?$vector@ULngRcItem@CLngRc@@V?$MArrayAllocator@ULngRcItem@CLngRc@@@@@std@@CAXXZ 004065c8 f i LngRc.obj
 0001:000055c8       ?_Xlength@?$vector@V?$_List_unchecked_iterator@V?$_List_val@U?$_List_simple_types@U?$pair@$$CBHG@std@@@std@@@std@@@std@@V?$allocator@V?$_List_unchecked_iterator@V?$_List_val@U?$_List_simple_types@U?$pair@$$CBHG@std@@@std@@@std@@@std@@@2@@std@@CAXXZ 004065c8 f i Font.obj
 0001:000055c8       ?_Xlength@?$vector@USshAgent@CConEmuMain@@V?$MArrayAllocator@USshAgent@CConEmuMain@@@@@std@@CAXXZ 004065c8 f i ConEmu.obj
 0001:000055c8       ?_Xlength@?$vector@U_FindAllMonitorsItem@@V?$MArrayAllocator@U_FindAllMonitorsItem@@@@@std@@CAXXZ 004065c8 f i common-user32:Monitors.obj
 0001:000055c8       ?_Xlength@?$vector@UItemInfo@CDynDialog@@V?$MArrayAllocator@UItemInfo@CDynDialog@@@@@std@@CAXXZ 004065c8 f i DynDialog.obj
 0001:000055c8       ?_Xlength@?$vector@U_ThInfo@CDragDrop@@V?$MArrayAllocator@U_ThInfo@CDragDrop@@@@@std@@CAXXZ 004065c8 f i DragDrop.obj
 0001:000055c8       ?_Xlength@?$vector@UGuiMacroArg@@V?$MArrayAllocator@UGuiMacroArg@@@@@std@@CAXXZ 004065c8 f i Macro.obj
 0001:000055c8       ?_Xlength@?$vector@DV?$MArrayAllocator@D@@@std@@CAXXZ 004065c8 f i Registry.obj
 0001:000055c8       ?_Xlength@?$vector@PAUHWND__@@V?$MArrayAllocator@PAUHWND__@@@@@std@@CAXXZ 004065c8 f i ConEmu.obj
 0001:000055c8       ?_Xlength@?$vector@UTabIconCache@CIconList@@V?$MArrayAllocator@UTabIconCache@CIconList@@@@@std@@CAXXZ 004065c8 f i IconList.obj
 0001:000055c8       ?_Xlength@?$vector@UAppInfo@AppFoundList@FastConfig@@V?$MArrayAllocator@UAppInfo@AppFoundList@FastConfig@@@@@std@@CAXXZ 004065c8 f i OptionsFast.obj
 0001:000055c8       ?_Xlength@?$vector@UFoundFile@FastConfig@@V?$MArrayAllocator@UFoundFile@FastConfig@@@@@std@@CAXXZ 004065c8 f i OptionsFast.obj
 0001:000055c8       ?_Xlength@?$vector@UHighlightRect@CVirtualConsole@@V?$MArrayAllocator@UHighlightRect@CVirtualConsole@@@@@std@@CAXXZ 004065c8 f i VirtualConsole.obj
 0001:000055c8       ?_Xlength@?$vector@PAVCVConGuard@@V?$MArrayAllocator@PAVCVConGuard@@@@@std@@CAXXZ 004065c8 f i VConGroup.obj
 0001:000055c8       ?_Xlength@?$vector@UAttachParm@@V?$MArrayAllocator@UAttachParm@@@@@std@@CAXXZ 004065c8 f i Attach.obj
 0001:000055d3       ?allocate@?$MArrayAllocator@UHighlightRect@CVirtualConsole@@@@QAEPAUHighlightRect@CVirtualConsole@@I@Z 004065d3 f i VirtualConsole.obj
 0001:000055d3       ?allocate@?$MArrayAllocator@UAttachParm@@@@QAEPAUAttachParm@@I@Z 004065d3 f i Attach.obj
 0001:0000560c       ?deallocate@?$MArrayAllocator@UFoundFile@FastConfig@@@@QAEXPAUFoundFile@FastConfig@@I@Z 0040660c f i OptionsFast.obj
 0001:0000560c       ?deallocate@?$MArrayAllocator@PAVCBackgroundInfo@@@@QAEXPAPAVCBackgroundInfo@@I@Z 0040660c f i Background.obj
 0001:0000560c       ?deallocate@?$MArrayAllocator@PAVCVConGroup@@@@QAEXPAPAVCVConGroup@@I@Z 0040660c f i VConGroup.obj
 0001:0000560c       ?deallocate@?$MArrayAllocator@UMonitorInfoCache@CConEmuSize@@@@QAEXPAUMonitorInfoCache@CConEmuSize@@I@Z 0040660c f i ConEmuSize.obj
 0001:0000560c       ?deallocate@?$MArrayAllocator@U_ThInfo@CDragDrop@@@@QAEXPAU_ThInfo@CDragDrop@@I@Z 0040660c f i DragDrop.obj
 0001:0000560c       ?deallocate@?$MArrayAllocator@UVarDef@CVarDefs@FastConfig@@@@QAEXPAUVarDef@CVarDefs@FastConfig@@I@Z 0040660c f i OptionsFast.obj
 0001:0000560c       ?deallocate@?$MArrayAllocator@PAUCommand@CProcessEnvCmd@@@@QAEXPAPAUCommand@CProcessEnvCmd@@I@Z 0040660c f i common-user32:ProcessSetEnv.obj
 0001:0000560c       ?deallocate@?$MArrayAllocator@PAUSwitch@@@@QAEXPAPAUSwitch@@I@Z 0040660c f i SetPgIntegr.obj
 0001:0000560c       ?deallocate@?$MArrayAllocator@URegFont@@@@QAEXPAURegFont@@I@Z 0040660c f i FontMgr.obj
 0001:0000560c       ?deallocate@?$MArrayAllocator@UtagPROCESSENTRY32W@@@@QAEXPAUtagPROCESSENTRY32W@@I@Z 0040660c f i RealConsole.obj
 0001:0000560c       ?deallocate@?$MArrayAllocator@PAVCVConGuard@@@@QAEXPAPAVCVConGuard@@I@Z 0040660c f i Macro.obj
 0001:0000560c       ?deallocate@?$MArrayAllocator@UAppInfo@AppFoundList@FastConfig@@@@QAEXPAUAppInfo@AppFoundList@FastConfig@@I@Z 0040660c f i OptionsFast.obj
 0001:0000560c       ?deallocate@?$MArrayAllocator@D@@QAEXPADI@Z 0040660c f i Registry.obj
 0001:0000560c       ?deallocate@?$MArrayAllocator@UFontHeightInfo@@@@QAEXPAUFontHeightInfo@@I@Z 0040660c f i FontMgr.obj
 0001:0000560c       ?deallocate@?$MArrayAllocator@PAVCFont@@@@QAEXPAPAVCFont@@I@Z 0040660c f i FontMgr.obj
 0001:0000560c       ?deallocate@?$MArrayAllocator@PAVCTabID@@@@QAEXPAPAVCTabID@@I@Z 0040660c f i TabBar.obj
 0001:0000560c       ?deallocate@?$MArrayAllocator@PAX@@QAEXPAPAXI@Z 0040660c f i TaskBar.obj
 0001:0000560c       ?deallocate@?$MArrayAllocator@UThreadHandle@CDefTermBase@@@@QAEXPAUThreadHandle@CDefTermBase@@I@Z 0040660c f i ConEmu.obj
 0001:0000560c       ?deallocate@?$MArrayAllocator@U_FindAllMonitorsItem@@@@QAEXPAU_FindAllMonitorsItem@@I@Z 0040660c f i common-user32:Monitors.obj
 0001:0000560c       ?deallocate@?$MArrayAllocator@PA_W@@QAEXPAPA_WI@Z 0040660c f i CmdHistory.obj
 0001:0000560c       ?deallocate@?$MArrayAllocator@U?$pair@HUCEStr@@@std@@@@QAEXPAU?$pair@HUCEStr@@@std@@I@Z 0040660c f i Macro.obj
 0001:0000560c       ?deallocate@?$MArrayAllocator@H@@QAEXPAHI@Z 0040660c f i CmdHistory.obj
 0001:0000560c       ?deallocate@?$MArrayAllocator@UDlgItem@CDpiForDialog@@@@QAEXPAUDlgItem@CDpiForDialog@@I@Z 0040660c f i DpiAware.obj
 0001:0000560c       ?deallocate@?$MArrayAllocator@ULngDefinition@CLngRc@@@@QAEXPAULngDefinition@CLngRc@@I@Z 0040660c f i LngRc.obj
 0001:0000560c       ?deallocate@?$MArrayAllocator@UAttachParm@@@@QAEXPAUAttachParm@@I@Z 0040660c f i Attach.obj
 0001:0000560c       ?deallocate@?$MArrayAllocator@USshAgent@CConEmuMain@@@@QAEXPAUSshAgent@CConEmuMain@@I@Z 0040660c f i ConEmu.obj
 0001:0000560c       ?deallocate@?$MArrayAllocator@UTabIconCache@CIconList@@@@QAEXPAUTabIconCache@CIconList@@I@Z 0040660c f i IconList.obj
 0001:0000560c       ?deallocate@?$MArrayAllocator@UHighlightRect@CVirtualConsole@@@@QAEXPAUHighlightRect@CVirtualConsole@@I@Z 0040660c f i VirtualConsole.obj
 0001:0000560c       ?deallocate@?$MArrayAllocator@UConProcess@@@@QAEXPAUConProcess@@I@Z 0040660c f i RealConsole.obj
 0001:0000560c       ?deallocate@?$MArrayAllocator@UDragData@CDataObject@@@@QAEXPAUDragData@CDataObject@@I@Z 0040660c f i BaseDragDrops.obj
 0001:0000560c       ?deallocate@?$MArrayAllocator@PAUHWND__@@@@QAEXPAPAUHWND__@@I@Z 0040660c f i ConEmu.obj
 0001:0000560c       ?deallocate@?$MArrayAllocator@UCmdTaskPopupItem@CConEmuMenu@@@@QAEXPAUCmdTaskPopupItem@CConEmuMenu@@I@Z 0040660c f i Menu.obj
 0001:0000560c       ?deallocate@?$MArrayAllocator@UConEmuHotKey@@@@QAEXPAUConEmuHotKey@@I@Z 0040660c f i ConEmuApp.obj
 0001:0000560c       ?deallocate@?$MArrayAllocator@PAVCustomFont@@@@QAEXPAPAVCustomFont@@I@Z 0040660c f i CustomFonts.obj
 0001:0000560c       ?deallocate@?$MArrayAllocator@PB_W@@QAEXPAPB_WI@Z 0040660c f i ConEmu.obj
 0001:0000560c       ?deallocate@?$MArrayAllocator@PAUtag_CEDragSource@CDragDropData@@@@QAEXPAPAUtag_CEDragSource@CDragDropData@@I@Z 0040660c f i DragDropData.obj
 0001:0000560c       ?deallocate@?$MArrayAllocator@UProcessInfo@CDefTermBase@@@@QAEXPAUProcessInfo@CDefTermBase@@I@Z 0040660c f i ConEmu.obj
 0001:0000560c       ?deallocate@?$MArrayAllocator@ULngRcItem@CLngRc@@@@QAEXPAULngRcItem@CLngRc@@I@Z 0040660c f i LngRc.obj
 0001:0000560c       ?deallocate@?$MArrayAllocator@UBtnInfo@@@@QAEXPAUBtnInfo@@I@Z 0040660c f i ImgButton.obj
 0001:0000560c       ?deallocate@?$MArrayAllocator@URunQueueItem@CRunQueue@@@@QAEXPAURunQueueItem@CRunQueue@@I@Z 0040660c f i RunQueue.obj
 0001:0000560c       ?deallocate@?$MArrayAllocator@UGuiMacroArg@@@@QAEXPAUGuiMacroArg@@I@Z 0040660c f i Macro.obj
 0001:0000560c       ?deallocate@?$MArrayAllocator@UItemInfo@CDynDialog@@@@QAEXPAUItemInfo@CDynDialog@@I@Z 0040660c f i DynDialog.obj
 0001:0000560c       ?deallocate@?$MArrayAllocator@Utxt@CFormatCopy@@@@QAEXPAUtxt@CFormatCopy@@I@Z 0040660c f i RealBuffer.obj
 0001:0000562b       ?fNtQueryInformationProcess@CProcessData@@KGJPAXW4_PROCESSINFOCLASS@1@0KPAK@Z 0040662b f i Attach.obj
 0001:00005633       ?getModuleFileNameEx@CProcessData@@IAEKPAXPAUHINSTANCE__@@PA_WK@Z 00406633 f i Attach.obj
 0001:000056a1       ?getcounter@CProcessData@@KAHPA_W@Z 004066a1 f i Attach.obj
 0001:000056e4       ?queryFullProcessImageName@CProcessData@@IAE_NPAXKPA_WK@Z 004066e4 f i Attach.obj
 0001:00005722       ?what@exception@std@@UBEPBDXZ 00406722 f i Attach.obj
 0001:00005730       ??$SafeDelete@VMSection@@@@YAXAAPAVMSection@@@Z 00406730 f i Background.obj
 0001:00005770       ??$_Emplace_reallocate@ABH@?$vector@HV?$MArrayAllocator@H@@@std@@QAEPAHQAHABH@Z 00406770 f i CmdHistory.obj
 0001:00005770       ??$_Emplace_reallocate@ABQAVCustomFont@@@?$vector@PAVCustomFont@@V?$MArrayAllocator@PAVCustomFont@@@@@std@@QAEPAPAVCustomFont@@QAPAV2@ABQAV2@@Z 00406770 f i CustomFonts.obj
 0001:00005770       ??$_Emplace_reallocate@ABQAVCBackgroundInfo@@@?$vector@PAVCBackgroundInfo@@V?$MArrayAllocator@PAVCBackgroundInfo@@@@@std@@QAEPAPAVCBackgroundInfo@@QAPAV2@ABQAV2@@Z 00406770 f i Background.obj
 0001:00005770       ??$_Emplace_reallocate@ABQAX@?$vector@PAXV?$MArrayAllocator@PAX@@@std@@QAEPAPAXQAPAXABQAX@Z 00406770 f i TaskBar.obj
 0001:00005770       ??$_Emplace_reallocate@ABQAVCVConGuard@@@?$vector@PAVCVConGuard@@V?$MArrayAllocator@PAVCVConGuard@@@@@std@@QAEPAPAVCVConGuard@@QAPAV2@ABQAV2@@Z 00406770 f i VConGroup.obj
 0001:00005770       ??$_Emplace_reallocate@PAVCTabID@@@?$vector@PAVCTabID@@V?$MArrayAllocator@PAVCTabID@@@@@std@@QAEPAPAVCTabID@@QAPAV2@$$QAPAV2@@Z 00406770 f i TabBar.obj
 0001:00005770       ??$_Emplace_reallocate@ABQAVCVConGroup@@@?$vector@PAVCVConGroup@@V?$MArrayAllocator@PAVCVConGroup@@@@@std@@QAEPAPAVCVConGroup@@QAPAV2@ABQAV2@@Z 00406770 f i VConGroup.obj
 0001:00005770       ??$_Emplace_reallocate@ABQAVCFont@@@?$vector@PAVCFont@@V?$MArrayAllocator@PAVCFont@@@@@std@@QAEPAPAVCFont@@QAPAV2@ABQAV2@@Z 00406770 f i FontMgr.obj
 0001:00005770       ??$_Emplace_reallocate@ABQA_W@?$vector@PA_WV?$MArrayAllocator@PA_W@@@std@@QAEPAPA_WQAPA_WABQA_W@Z 00406770 f i CmdHistory.obj
 0001:00005770       ??$_Emplace_reallocate@ABURunQueueItem@CRunQueue@@@?$vector@URunQueueItem@CRunQueue@@V?$MArrayAllocator@URunQueueItem@CRunQueue@@@@@std@@QAEPAURunQueueItem@CRunQueue@@QAU23@ABU23@@Z 00406770 f i RunQueue.obj
 0001:00005770       ??$_Emplace_reallocate@ABQAUSwitch@@@?$vector@PAUSwitch@@V?$MArrayAllocator@PAUSwitch@@@@@std@@QAEPAPAUSwitch@@QAPAU2@ABQAU2@@Z 00406770 f i SetPgIntegr.obj
 0001:00005770       ??$_Emplace_reallocate@PA_W@?$vector@PA_WV?$MArrayAllocator@PA_W@@@std@@QAEPAPA_WQAPA_W$$QAPA_W@Z 00406770 f i ConEmuCtrl.obj
 0001:00005770       ??$_Emplace_reallocate@ABQAUHWND__@@@?$vector@PAUHWND__@@V?$MArrayAllocator@PAUHWND__@@@@@std@@QAEPAPAUHWND__@@QAPAU2@ABQAU2@@Z 00406770 f i ConEmu.obj
 0001:00005770       ??$_Emplace_reallocate@ABQB_W@?$vector@PB_WV?$MArrayAllocator@PB_W@@@std@@QAEPAPB_WQAPB_WABQB_W@Z 00406770 f i ConEmu.obj
 0001:00005824       ??$emplace_back@ABQAVCustomFont@@@?$vector@PAVCustomFont@@V?$MArrayAllocator@PAVCustomFont@@@@@std@@QAEXABQAVCustomFont@@@Z 00406824 f i CustomFonts.obj
 0001:00005824       ??$emplace_back@PA_W@?$vector@PA_WV?$MArrayAllocator@PA_W@@@std@@QAEX$$QAPA_W@Z 00406824 f i ConEmuCtrl.obj
 0001:00005824       ??$emplace_back@ABQA_W@?$vector@PA_WV?$MArrayAllocator@PA_W@@@std@@QAEXABQA_W@Z 00406824 f i CmdHistory.obj
 0001:00005824       ??$emplace_back@ABQAVCVConGroup@@@?$vector@PAVCVConGroup@@V?$MArrayAllocator@PAVCVConGroup@@@@@std@@QAEXABQAVCVConGroup@@@Z 00406824 f i VConGroup.obj
 0001:00005824       ??$emplace_back@ABQAVCFont@@@?$vector@PAVCFont@@V?$MArrayAllocator@PAVCFont@@@@@std@@QAEXABQAVCFont@@@Z 00406824 f i FontMgr.obj
 0001:00005824       ??$emplace_back@ABQAUHWND__@@@?$vector@PAUHWND__@@V?$MArrayAllocator@PAUHWND__@@@@@std@@QAEXABQAUHWND__@@@Z 00406824 f i ConEmu.obj
 0001:00005824       ??$emplace_back@ABQB_W@?$vector@PB_WV?$MArrayAllocator@PB_W@@@std@@QAEXABQB_W@Z 00406824 f i ConEmu.obj
 0001:00005824       ??$emplace_back@ABQAVCVConGuard@@@?$vector@PAVCVConGuard@@V?$MArrayAllocator@PAVCVConGuard@@@@@std@@QAEXABQAVCVConGuard@@@Z 00406824 f i VConGroup.obj
 0001:00005824       ??$emplace_back@ABQAVCBackgroundInfo@@@?$vector@PAVCBackgroundInfo@@V?$MArrayAllocator@PAVCBackgroundInfo@@@@@std@@QAEXABQAVCBackgroundInfo@@@Z 00406824 f i Background.obj
 0001:00005824       ??$emplace_back@ABH@?$vector@HV?$MArrayAllocator@H@@@std@@QAEXABH@Z 00406824 f i CmdHistory.obj
 0001:00005824       ??$emplace_back@ABQAUSwitch@@@?$vector@PAUSwitch@@V?$MArrayAllocator@PAUSwitch@@@@@std@@QAEXABQAUSwitch@@@Z 00406824 f i SetPgIntegr.obj
 0001:00005824       ??$emplace_back@ABQAX@?$vector@PAXV?$MArrayAllocator@PAX@@@std@@QAEXABQAX@Z 00406824 f i TaskBar.obj
 0001:00005824       ??$emplace_back@ABURunQueueItem@CRunQueue@@@?$vector@URunQueueItem@CRunQueue@@V?$MArrayAllocator@URunQueueItem@CRunQueue@@@@@std@@QAEXABURunQueueItem@CRunQueue@@@Z 00406824 f i RunQueue.obj
 0001:00005824       ??$emplace_back@PAVCTabID@@@?$vector@PAVCTabID@@V?$MArrayAllocator@PAVCTabID@@@@@std@@QAEX$$QAPAVCTabID@@@Z 00406824 f i TabBar.obj
 0001:00005849       ??$swprintf_c@$0CAI@@@YAHAAY0CAI@_WPB_WZZ 00406849 f i Background.obj
 0001:00005862       ??0CBackground@@QAE@XZ     00406862 f   Background.obj
 0001:000058c2       ??0CBackgroundInfo@@IAE@PB_W@Z 004068c2 f   Background.obj
 0001:0000593c       ??1CBackground@@UAE@XZ     0040693c f   Background.obj
 0001:000059f6       ??1CBackgroundInfo@@MAE@XZ 004069f6 f   Background.obj
 0001:00005a93       ??1CVConRelease@@UAE@XZ    00406a93 f i VirtualConsole.obj
 0001:00005a93       ??1CRefRelease@@MAE@XZ     00406a93 f i Background.obj
 0001:00005a9a       ??_ECBackground@@UAEPAXI@Z 00406a9a f i Background.obj
 0001:00005a9a       ??_GCBackground@@UAEPAXI@Z 00406a9a f i Background.obj
 0001:00005abc       ??_GCBackgroundInfo@@MAEPAXI@Z 00406abc f i Background.obj
 0001:00005abc       ??_ECBackgroundInfo@@MAEPAXI@Z 00406abc f i Background.obj
 0001:00005ae1       ??_ECRefRelease@@MAEPAXI@Z 00406ae1 f i Background.obj
 0001:00005ae1       ??_GCRefRelease@@MAEPAXI@Z 00406ae1 f i Background.obj
 0001:00005b04       ?BgImage@CBackgroundInfo@@QAEPB_WXZ 00406b04 f   Background.obj
 0001:00005b11       ?CreateBackgroundObject@CBackgroundInfo@@SAPAV1@PB_W_N@Z 00406b11 f   Background.obj
 0001:00005c29       ?CreateField@CBackground@@QAE_NHH@Z 00406c29 f   Background.obj
 0001:00005d26       ?Destroy@CBackground@@AAEXXZ 00406d26 f   Background.obj
 0001:00005d6d       ?FillBackground@CBackground@@QAE_NPBUtagBITMAPFILEHEADER@@JJJJW4BackgroundOp@@_N@Z 00406d6d f   Background.obj
 0001:00006182       ?FinalRelease@CVConGroup@@MAEXXZ 00407182 f   VConGroup.obj
 0001:00006182       ?FinalRelease@CTabID@@MAEXXZ 00407182 f   TabID.obj
 0001:00006182       ?FinalRelease@CRConData@@MAEXXZ 00407182 f   RConData.obj
 0001:00006182       ?FinalRelease@CFont@@MAEXXZ 00407182 f   Font.obj
 0001:00006182       ?FinalRelease@CBackgroundInfo@@UAEXXZ 00407182 f   Background.obj
 0001:0000618e       ?GetBgImgData@CBackgroundInfo@@QAEPBUtagBITMAPFILEHEADER@@XZ 0040718e f   Background.obj
 0001:0000619c       ?HasPluginBackgroundImage@CBackground@@QAE_NPAJ0@Z 0040719c f   Background.obj
 0001:000061ea       ?IsBackgroundValid@CBackground@@SAIPBUCESERVER_REQ_SETBACKGROUND@@PA_N@Z 004071ea f   Background.obj
 0001:00006265       ?LoadBackgroundFile@CBackgroundInfo@@QAE_N_N@Z 00407265 f   Background.obj
 0001:000063e5       ?NeedBackgroundUpdate@CBackground@@QAEXXZ 004073e5 f   Background.obj
 0001:000063ee       ?PollBackgroundFile@CBackgroundInfo@@QAE_NXZ 004073ee f   Background.obj
 0001:000064bd       ?PrepareBackground@CBackground@@QAE_NPAVCVirtualConsole@@AAPAUHDC__@@AAU_COORD@@@Z 004074bd f   Background.obj
 0001:000068bf       ?PutPluginBackgroundImage@CBackground@@AAE_NJJJJ@Z 004078bf f   Background.obj
 0001:00006aff       ?Release@CRefRelease@@QAEHXZ 00407aff f i Background.obj
 0001:00006b32       ?SetPluginBackgroundImageData@CBackground@@QAEHPAUCESERVER_REQ_SETBACKGROUND@@AA_N@Z 00407b32 f   Background.obj
 0001:00006d02       ?_Calculate_growth@?$vector@PAUSwitch@@V?$MArrayAllocator@PAUSwitch@@@@@std@@ABEII@Z 00407d02 f i SetPgIntegr.obj
 0001:00006d02       ?_Calculate_growth@?$vector@PAVCVConGroup@@V?$MArrayAllocator@PAVCVConGroup@@@@@std@@ABEII@Z 00407d02 f i VConGroup.obj
 0001:00006d02       ?_Calculate_growth@?$vector@HV?$MArrayAllocator@H@@@std@@ABEII@Z 00407d02 f i CmdHistory.obj
 0001:00006d02       ?_Calculate_growth@?$vector@V?$_List_unchecked_iterator@V?$_List_val@U?$_List_simple_types@U?$pair@$$CBV?$basic_string@_WU?$char_traits@_W@std@@V?$allocator@_W@2@@std@@UVariableData@SystemEnvironment@@@std@@@std@@@std@@@std@@V?$allocator@V?$_List_unchecked_iterator@V?$_List_val@U?$_List_simple_types@U?$pair@$$CBV?$basic_string@_WU?$char_traits@_W@std@@V?$allocator@_W@2@@std@@UVariableData@SystemEnvironment@@@std@@@std@@@std@@@std@@@2@@std@@ABEII@Z 00407d02 f i ConEmu.obj
 0001:00006d02       ?_Calculate_growth@?$vector@PAXV?$MArrayAllocator@PAX@@@std@@ABEII@Z 00407d02 f i TaskBar.obj
 0001:00006d02       ?_Calculate_growth@?$vector@PAUHWND__@@V?$MArrayAllocator@PAUHWND__@@@@@std@@ABEII@Z 00407d02 f i ConEmu.obj
 0001:00006d02       ?_Calculate_growth@?$vector@PB_WV?$MArrayAllocator@PB_W@@@std@@ABEII@Z 00407d02 f i ConEmu.obj
 0001:00006d02       ?_Calculate_growth@?$vector@PAVCTabID@@V?$MArrayAllocator@PAVCTabID@@@@@std@@ABEII@Z 00407d02 f i TabBar.obj
 0001:00006d02       ?_Calculate_growth@?$vector@PAVCVConGuard@@V?$MArrayAllocator@PAVCVConGuard@@@@@std@@ABEII@Z 00407d02 f i VConGroup.obj
 0001:00006d02       ?_Calculate_growth@?$vector@URunQueueItem@CRunQueue@@V?$MArrayAllocator@URunQueueItem@CRunQueue@@@@@std@@ABEII@Z 00407d02 f i RunQueue.obj
 0001:00006d02       ?_Calculate_growth@?$vector@V?$_List_unchecked_iterator@V?$_List_val@U?$_List_simple_types@U?$pair@$$CBHG@std@@@std@@@std@@@std@@V?$allocator@V?$_List_unchecked_iterator@V?$_List_val@U?$_List_simple_types@U?$pair@$$CBHG@std@@@std@@@std@@@std@@@2@@std@@ABEII@Z 00407d02 f i Font.obj
 0001:00006d02       ?_Calculate_growth@?$vector@PAVCFont@@V?$MArrayAllocator@PAVCFont@@@@@std@@ABEII@Z 00407d02 f i FontMgr.obj
 0001:00006d02       ?_Calculate_growth@?$vector@PAVCustomFont@@V?$MArrayAllocator@PAVCustomFont@@@@@std@@ABEII@Z 00407d02 f i CustomFonts.obj
 0001:00006d02       ?_Calculate_growth@?$vector@PAVCBackgroundInfo@@V?$MArrayAllocator@PAVCBackgroundInfo@@@@@std@@ABEII@Z 00407d02 f i Background.obj
 0001:00006d02       ?_Calculate_growth@?$vector@PAUCommand@CProcessEnvCmd@@V?$MArrayAllocator@PAUCommand@CProcessEnvCmd@@@@@std@@ABEII@Z 00407d02 f i common-user32:ProcessSetEnv.obj
 0001:00006d02       ?_Calculate_growth@?$vector@PA_WV?$MArrayAllocator@PA_W@@@std@@ABEII@Z 00407d02 f i CmdHistory.obj
 0001:00006d2b       ?_Change_array@?$vector@PAUSwitch@@V?$MArrayAllocator@PAUSwitch@@@@@std@@AAEXQAPAUSwitch@@II@Z 00407d2b f i SetPgIntegr.obj
 0001:00006d2b       ?_Change_array@?$vector@PAVCVConGuard@@V?$MArrayAllocator@PAVCVConGuard@@@@@std@@AAEXQAPAVCVConGuard@@II@Z 00407d2b f i VConGroup.obj
 0001:00006d2b       ?_Change_array@?$vector@HV?$MArrayAllocator@H@@@std@@AAEXQAHII@Z 00407d2b f i CmdHistory.obj
 0001:00006d2b       ?_Change_array@?$vector@PAVCBackgroundInfo@@V?$MArrayAllocator@PAVCBackgroundInfo@@@@@std@@AAEXQAPAVCBackgroundInfo@@II@Z 00407d2b f i Background.obj
 0001:00006d2b       ?_Change_array@?$vector@PAVCVConGroup@@V?$MArrayAllocator@PAVCVConGroup@@@@@std@@AAEXQAPAVCVConGroup@@II@Z 00407d2b f i VConGroup.obj
 0001:00006d2b       ?_Change_array@?$vector@PAUCommand@CProcessEnvCmd@@V?$MArrayAllocator@PAUCommand@CProcessEnvCmd@@@@@std@@AAEXQAPAUCommand@CProcessEnvCmd@@II@Z 00407d2b f i common-user32:ProcessSetEnv.obj
 0001:00006d2b       ?_Change_array@?$vector@PA_WV?$MArrayAllocator@PA_W@@@std@@AAEXQAPA_WII@Z 00407d2b f i CmdHistory.obj
 0001:00006d2b       ?_Change_array@?$vector@PAXV?$MArrayAllocator@PAX@@@std@@AAEXQAPAXII@Z 00407d2b f i TaskBar.obj
 0001:00006d2b       ?_Change_array@?$vector@URunQueueItem@CRunQueue@@V?$MArrayAllocator@URunQueueItem@CRunQueue@@@@@std@@AAEXQAURunQueueItem@CRunQueue@@II@Z 00407d2b f i RunQueue.obj
 0001:00006d2b       ?_Change_array@?$vector@PAVCTabID@@V?$MArrayAllocator@PAVCTabID@@@@@std@@AAEXQAPAVCTabID@@II@Z 00407d2b f i TabBar.obj
 0001:00006d2b       ?_Change_array@?$vector@PAUHWND__@@V?$MArrayAllocator@PAUHWND__@@@@@std@@AAEXQAPAUHWND__@@II@Z 00407d2b f i ConEmu.obj
 0001:00006d2b       ?_Change_array@?$vector@PB_WV?$MArrayAllocator@PB_W@@@std@@AAEXQAPB_WII@Z 00407d2b f i ConEmu.obj
 0001:00006d2b       ?_Change_array@?$vector@PAVCustomFont@@V?$MArrayAllocator@PAVCustomFont@@@@@std@@AAEXQAPAVCustomFont@@II@Z 00407d2b f i CustomFonts.obj
 0001:00006d2b       ?_Change_array@?$vector@PAVCFont@@V?$MArrayAllocator@PAVCFont@@@@@std@@AAEXQAPAVCFont@@II@Z 00407d2b f i FontMgr.obj
 0001:00006d62       ?_Tidy@?$vector@PAVCVConGuard@@V?$MArrayAllocator@PAVCVConGuard@@@@@std@@AAEXXZ 00407d62 f i Macro.obj
 0001:00006d62       ?_Tidy@?$vector@PAUCommand@CProcessEnvCmd@@V?$MArrayAllocator@PAUCommand@CProcessEnvCmd@@@@@std@@AAEXXZ 00407d62 f i common-user32:ProcessSetEnv.obj
 0001:00006d62       ?_Tidy@?$vector@PAUHWND__@@V?$MArrayAllocator@PAUHWND__@@@@@std@@AAEXXZ 00407d62 f i ConEmu.obj
 0001:00006d62       ?_Tidy@?$vector@PAUtag_CEDragSource@CDragDropData@@V?$MArrayAllocator@PAUtag_CEDragSource@CDragDropData@@@@@std@@AAEXXZ 00407d62 f i DragDropData.obj
 0001:00006d62       ?_Tidy@?$vector@URunQueueItem@CRunQueue@@V?$MArrayAllocator@URunQueueItem@CRunQueue@@@@@std@@AAEXXZ 00407d62 f i RunQueue.obj
 0001:00006d62       ?_Tidy@?$vector@HV?$MArrayAllocator@H@@@std@@AAEXXZ 00407d62 f i CmdHistory.obj
 0001:00006d62       ?_Tidy@?$vector@PAVCBackgroundInfo@@V?$MArrayAllocator@PAVCBackgroundInfo@@@@@std@@AAEXXZ 00407d62 f i Background.obj
 0001:00006d62       ?_Tidy@?$vector@PAVCVConGroup@@V?$MArrayAllocator@PAVCVConGroup@@@@@std@@AAEXXZ 00407d62 f i VConGroup.obj
 0001:00006d62       ?_Tidy@?$vector@PAVCustomFont@@V?$MArrayAllocator@PAVCustomFont@@@@@std@@AAEXXZ 00407d62 f i CustomFonts.obj
 0001:00006d62       ?_Tidy@?$vector@PAUSwitch@@V?$MArrayAllocator@PAUSwitch@@@@@std@@AAEXXZ 00407d62 f i SetPgIntegr.obj
 0001:00006d62       ?_Tidy@?$vector@PA_WV?$MArrayAllocator@PA_W@@@std@@AAEXXZ 00407d62 f i CmdHistory.obj
 0001:00006d62       ?_Tidy@?$vector@PAXV?$MArrayAllocator@PAX@@@std@@AAEXXZ 00407d62 f i TaskBar.obj
 0001:00006d62       ?_Tidy@?$vector@PAVCFont@@V?$MArrayAllocator@PAVCFont@@@@@std@@AAEXXZ 00407d62 f i FontMgr.obj
 0001:00006d62       ?_Tidy@?$vector@PB_WV?$MArrayAllocator@PB_W@@@std@@AAEXXZ 00407d62 f i ConEmu.obj
 0001:00006d62       ?_Tidy@?$vector@PAVCTabID@@V?$MArrayAllocator@PAVCTabID@@@@@std@@AAEXXZ 00407d62 f i TabBar.obj
 0001:00006d86       ?allocate@?$MArrayAllocator@PAVCTabID@@@@QAEPAPAVCTabID@@I@Z 00407d86 f i TabBar.obj
 0001:00006d86       ?allocate@?$MArrayAllocator@PA_W@@QAEPAPA_WI@Z 00407d86 f i CmdHistory.obj
 0001:00006d86       ?allocate@?$MArrayAllocator@H@@QAEPAHI@Z 00407d86 f i CmdHistory.obj
 0001:00006d86       ?allocate@?$MArrayAllocator@PAVCVConGroup@@@@QAEPAPAVCVConGroup@@I@Z 00407d86 f i VConGroup.obj
 0001:00006d86       ?allocate@?$MArrayAllocator@PB_W@@QAEPAPB_WI@Z 00407d86 f i ConEmu.obj
 0001:00006d86       ?allocate@?$MArrayAllocator@PAVCBackgroundInfo@@@@QAEPAPAVCBackgroundInfo@@I@Z 00407d86 f i Background.obj
 0001:00006d86       ?allocate@?$MArrayAllocator@URunQueueItem@CRunQueue@@@@QAEPAURunQueueItem@CRunQueue@@I@Z 00407d86 f i RunQueue.obj
 0001:00006d86       ?allocate@?$MArrayAllocator@PAVCFont@@@@QAEPAPAVCFont@@I@Z 00407d86 f i FontMgr.obj
 0001:00006d86       ?allocate@?$MArrayAllocator@PAUSwitch@@@@QAEPAPAUSwitch@@I@Z 00407d86 f i SetPgIntegr.obj
 0001:00006d86       ?allocate@?$MArrayAllocator@PAVCVConGuard@@@@QAEPAPAVCVConGuard@@I@Z 00407d86 f i VConGroup.obj
 0001:00006d86       ?allocate@?$MArrayAllocator@PAVCustomFont@@@@QAEPAPAVCustomFont@@I@Z 00407d86 f i CustomFonts.obj
 0001:00006d86       ?allocate@?$MArrayAllocator@PAX@@QAEPAPAXI@Z 00407d86 f i TaskBar.obj
 0001:00006d86       ?allocate@?$MArrayAllocator@PAUCommand@CProcessEnvCmd@@@@QAEPAPAUCommand@CProcessEnvCmd@@I@Z 00407d86 f i common-user32:ProcessSetEnv.obj
 0001:00006d86       ?allocate@?$MArrayAllocator@PAUHWND__@@@@QAEPAPAUHWND__@@I@Z 00407d86 f i ConEmu.obj
 0001:00006dc1       ?erase@?$MArray@PAVCTabID@@@@QAEXHH@Z 00407dc1 f i TabBar.obj
 0001:00006dc1       ?erase@?$MArray@PA_W@@QAEXHH@Z 00407dc1 f i CmdHistory.obj
 0001:00006dc1       ?erase@?$MArray@PAVCVConGuard@@@@QAEXHH@Z 00407dc1 f i VConGroup.obj
 0001:00006dc1       ?erase@?$MArray@PAVCFont@@@@QAEXHH@Z 00407dc1 f i FontMgr.obj
 0001:00006dc1       ?erase@?$MArray@PAVCBackgroundInfo@@@@QAEXHH@Z 00407dc1 f i Background.obj
 0001:00006dc1       ?erase@?$MArray@PAUtag_CEDragSource@CDragDropData@@@@QAEXHH@Z 00407dc1 f i DragDropData.obj
 0001:00006dc1       ?erase@?$MArray@PAX@@QAEXHH@Z 00407dc1 f i TaskBar.obj
 0001:00006e02       ?erase@?$vector@U_ThInfo@CDragDrop@@V?$MArrayAllocator@U_ThInfo@CDragDrop@@@@@std@@QAE?AV?$_Vector_iterator@V?$_Vector_val@U?$_Simple_types@U_ThInfo@CDragDrop@@@std@@@std@@@2@V?$_Vector_const_iterator@V?$_Vector_val@U?$_Simple_types@U_ThInfo@CDragDrop@@@std@@@std@@@2@0@Z 00407e02 f i DragDrop.obj
 0001:00006e02       ?erase@?$vector@PAUtag_CEDragSource@CDragDropData@@V?$MArrayAllocator@PAUtag_CEDragSource@CDragDropData@@@@@std@@QAE?AV?$_Vector_iterator@V?$_Vector_val@U?$_Simple_types@PAUtag_CEDragSource@CDragDropData@@@std@@@std@@@2@V?$_Vector_const_iterator@V?$_Vector_val@U?$_Simple_types@PAUtag_CEDragSource@CDragDropData@@@std@@@std@@@2@0@Z 00407e02 f i DragDropData.obj
 0001:00006e02       ?erase@?$vector@PAVCFont@@V?$MArrayAllocator@PAVCFont@@@@@std@@QAE?AV?$_Vector_iterator@V?$_Vector_val@U?$_Simple_types@PAVCFont@@@std@@@std@@@2@V?$_Vector_const_iterator@V?$_Vector_val@U?$_Simple_types@PAVCFont@@@std@@@std@@@2@0@Z 00407e02 f i FontMgr.obj
 0001:00006e02       ?erase@?$vector@UThreadHandle@CDefTermBase@@V?$MArrayAllocator@UThreadHandle@CDefTermBase@@@@@std@@QAE?AV?$_Vector_iterator@V?$_Vector_val@U?$_Simple_types@UThreadHandle@CDefTermBase@@@std@@@std@@@2@V?$_Vector_const_iterator@V?$_Vector_val@U?$_Simple_types@UThreadHandle@CDefTermBase@@@std@@@std@@@2@0@Z 00407e02 f i DefaultTerm.obj
 0001:00006e02       ?erase@?$vector@PAVCTabID@@V?$MArrayAllocator@PAVCTabID@@@@@std@@QAE?AV?$_Vector_iterator@V?$_Vector_val@U?$_Simple_types@PAVCTabID@@@std@@@std@@@2@V?$_Vector_const_iterator@V?$_Vector_val@U?$_Simple_types@PAVCTabID@@@std@@@std@@@2@0@Z 00407e02 f i TabBar.obj
 0001:00006e02       ?erase@?$vector@PAVCVConGuard@@V?$MArrayAllocator@PAVCVConGuard@@@@@std@@QAE?AV?$_Vector_iterator@V?$_Vector_val@U?$_Simple_types@PAVCVConGuard@@@std@@@std@@@2@V?$_Vector_const_iterator@V?$_Vector_val@U?$_Simple_types@PAVCVConGuard@@@std@@@std@@@2@0@Z 00407e02 f i VConGroup.obj
 0001:00006e02       ?erase@?$vector@UAppInfo@AppFoundList@FastConfig@@V?$MArrayAllocator@UAppInfo@AppFoundList@FastConfig@@@@@std@@QAE?AV?$_Vector_iterator@V?$_Vector_val@U?$_Simple_types@UAppInfo@AppFoundList@FastConfig@@@std@@@std@@@2@V?$_Vector_const_iterator@V?$_Vector_val@U?$_Simple_types@UAppInfo@AppFoundList@FastConfig@@@std@@@std@@@2@0@Z 00407e02 f i OptionsFast.obj
 0001:00006e02       ?erase@?$vector@URegFont@@V?$MArrayAllocator@URegFont@@@@@std@@QAE?AV?$_Vector_iterator@V?$_Vector_val@U?$_Simple_types@URegFont@@@std@@@std@@@2@V?$_Vector_const_iterator@V?$_Vector_val@U?$_Simple_types@URegFont@@@std@@@std@@@2@0@Z 00407e02 f i FontMgr.obj
 0001:00006e02       ?erase@?$vector@PA_WV?$MArrayAllocator@PA_W@@@std@@QAE?AV?$_Vector_iterator@V?$_Vector_val@U?$_Simple_types@PA_W@std@@@std@@@2@V?$_Vector_const_iterator@V?$_Vector_val@U?$_Simple_types@PA_W@std@@@std@@@2@0@Z 00407e02 f i CmdHistory.obj
 0001:00006e02       ?erase@?$vector@PAVCBackgroundInfo@@V?$MArrayAllocator@PAVCBackgroundInfo@@@@@std@@QAE?AV?$_Vector_iterator@V?$_Vector_val@U?$_Simple_types@PAVCBackgroundInfo@@@std@@@std@@@2@V?$_Vector_const_iterator@V?$_Vector_val@U?$_Simple_types@PAVCBackgroundInfo@@@std@@@std@@@2@0@Z 00407e02 f i Background.obj
 0001:00006e02       ?erase@?$vector@UProcessInfo@CDefTermBase@@V?$MArrayAllocator@UProcessInfo@CDefTermBase@@@@@std@@QAE?AV?$_Vector_iterator@V?$_Vector_val@U?$_Simple_types@UProcessInfo@CDefTermBase@@@std@@@std@@@2@V?$_Vector_const_iterator@V?$_Vector_val@U?$_Simple_types@UProcessInfo@CDefTermBase@@@std@@@std@@@2@0@Z 00407e02 f i ConEmu.obj
 0001:00006e02       ?erase@?$vector@UTabIconCache@CIconList@@V?$MArrayAllocator@UTabIconCache@CIconList@@@@@std@@QAE?AV?$_Vector_iterator@V?$_Vector_val@U?$_Simple_types@UTabIconCache@CIconList@@@std@@@std@@@2@V?$_Vector_const_iterator@V?$_Vector_val@U?$_Simple_types@UTabIconCache@CIconList@@@std@@@std@@@2@0@Z 00407e02 f i IconList.obj
 0001:00006e02       ?erase@?$vector@PAXV?$MArrayAllocator@PAX@@@std@@QAE?AV?$_Vector_iterator@V?$_Vector_val@U?$_Simple_types@PAX@std@@@std@@@2@V?$_Vector_const_iterator@V?$_Vector_val@U?$_Simple_types@PAX@std@@@std@@@2@0@Z 00407e02 f i TaskBar.obj
 0001:00006e02       ?erase@?$vector@UConProcess@@V?$MArrayAllocator@UConProcess@@@@@std@@QAE?AV?$_Vector_iterator@V?$_Vector_val@U?$_Simple_types@UConProcess@@@std@@@std@@@2@V?$_Vector_const_iterator@V?$_Vector_val@U?$_Simple_types@UConProcess@@@std@@@std@@@2@0@Z 00407e02 f i RealConsole.obj
 0001:00006e3a       ??$_Emplace_reallocate@ABUItemInfo@CDynDialog@@@?$vector@UItemInfo@CDynDialog@@V?$MArrayAllocator@UItemInfo@CDynDialog@@@@@std@@QAEPAUItemInfo@CDynDialog@@QAU23@ABU23@@Z 00407e3a f i DynDialog.obj
 0001:00006e3a       ??$_Emplace_reallocate@ABUDragData@CDataObject@@@?$vector@UDragData@CDataObject@@V?$MArrayAllocator@UDragData@CDataObject@@@@@std@@QAEPAUDragData@CDataObject@@QAU23@ABU23@@Z 00407e3a f i BaseDragDrops.obj
 0001:00006ef7       ??$emplace_back@ABUItemInfo@CDynDialog@@@?$vector@UItemInfo@CDynDialog@@V?$MArrayAllocator@UItemInfo@CDynDialog@@@@@std@@QAEXABUItemInfo@CDynDialog@@@Z 00407ef7 f i DynDialog.obj
 0001:00006ef7       ??$emplace_back@ABUDragData@CDataObject@@@?$vector@UDragData@CDataObject@@V?$MArrayAllocator@UDragData@CDataObject@@@@@std@@QAEXABUDragData@CDataObject@@@Z 00407ef7 f i BaseDragDrops.obj
 0001:00006f25       ??0CBaseDropTarget@@QAE@XZ 00407f25 f   BaseDragDrops.obj
 0001:00006f35       ??0CDataObject@@QAE@PAUtagFORMATETC@@PAUtagSTGMEDIUM@@H@Z 00407f35 f   BaseDragDrops.obj
 0001:00006fd7       ??0CDropSource@@QAE@PAVCDragDropData@@@Z 00407fd7 f   BaseDragDrops.obj
 0001:00006ffe       ??0CEnumFormatEtc@@QAE@PAUtagFORMATETC@@H@Z 00407ffe f   BaseDragDrops.obj
 0001:00007066       ??1?$MArray@UDragData@CDataObject@@@@QAE@XZ 00408066 f i BaseDragDrops.obj
 0001:0000709e       ??1CBaseDropTarget@@UAE@XZ 0040809e f   BaseDragDrops.obj
 0001:000070a5       ??1CDataObject@@UAE@XZ     004080a5 f   BaseDragDrops.obj
 0001:0000714e       ??1CEnumFormatEtc@@UAE@XZ  0040814e f   BaseDragDrops.obj
 0001:000071d7       ??_GCBaseDropTarget@@UAEPAXI@Z 004081d7 f i BaseDragDrops.obj
 0001:000071d7       ??_ECBaseDropTarget@@UAEPAXI@Z 004081d7 f i BaseDragDrops.obj
 0001:000071fa       ??_GCDataObject@@UAEPAXI@Z 004081fa f i BaseDragDrops.obj
 0001:000071fa       ??_ECDataObject@@UAEPAXI@Z 004081fa f i BaseDragDrops.obj
 0001:0000721c       ??_GCDropSource@@UAEPAXI@Z 0040821c f i BaseDragDrops.obj
 0001:0000721c       ??_ECDropSource@@UAEPAXI@Z 0040821c f i BaseDragDrops.obj
 0001:0000723f       ??_ECEnumFormatEtc@@UAEPAXI@Z 0040823f f i BaseDragDrops.obj
 0001:0000723f       ??_GCEnumFormatEtc@@UAEPAXI@Z 0040823f f i BaseDragDrops.obj
 0001:00007261       ?AddRef@CEnumFormatEtc@@UAGKXZ 00408261 f   BaseDragDrops.obj
 0001:00007261       ?AddRef@CDataObject@@UAGKXZ 00408261 f   BaseDragDrops.obj
 0001:00007261       ?AddRef@CBaseDropTarget@@UAGKXZ 00408261 f   BaseDragDrops.obj
 0001:00007275       ?AddRef@CDropSource@@UAGKXZ 00408275 f   BaseDragDrops.obj
 0001:00007289       ?Clone@CEnumFormatEtc@@UAGJPAPAUIEnumFORMATETC@@@Z 00408289 f   BaseDragDrops.obj
 0001:000072b5       ?CreateDataObject@@YAJPAUtagFORMATETC@@PAUtagSTGMEDIUM@@IPAPAVCDataObject@@@Z 004082b5 f   BaseDragDrops.obj
 0001:00007309       ?CreateDropSource@@YAJPAPAUIDropSource@@PAVCDragDropData@@@Z 00408309 f   BaseDragDrops.obj
 0001:0000734b       ?CreateEnumFormatEtc@@YAJIPAUtagFORMATETC@@PAPAUIEnumFORMATETC@@@Z 0040834b f   BaseDragDrops.obj
 0001:000073a8       ?DAdvise@CDataObject@@UAGJPAUtagFORMATETC@@KPAUIAdviseSink@@PAK@Z 004083a8 f   BaseDragDrops.obj
 0001:000073b0       ?DUnadvise@CDataObject@@UAGJK@Z 004083b0 f   BaseDragDrops.obj
 0001:000073b0       ?EnumDAdvise@CDataObject@@UAGJPAPAUIEnumSTATDATA@@@Z 004083b0 f   BaseDragDrops.obj
 0001:000073f1       ?Drop@CBaseDropTarget@@UAGJPAUIDataObject@@KU_POINTL@@PAK@Z 004083f1 f   BaseDragDrops.obj
 0001:000073f1       ?DragEnter@CBaseDropTarget@@UAGJPAUIDataObject@@KU_POINTL@@PAK@Z 004083f1 f   BaseDragDrops.obj
 0001:000073f6       ?ChCp@CStartEnvTitle@@UAEXPB_W@Z 004083f6 f i common-user32:ProcessSetEnv.obj
 0001:000073f6       ?OnUseDwm@CConEmuMain@@MAEX_N@Z 004083f6 f i ConEmu.obj
 0001:000073f6       ?ExecuteProcessFinished@CConEmuMain@@IAEX_N@Z 004083f6 f i ConEmu.obj
 0001:000073f6       ?OnPostLocalize@CSetPgBase@@UAEXPAUHWND__@@@Z 004083f6 f i SetPgANSI.obj
 0001:000073f6       ?DeleteKey@SettingsINI@@UAEXPB_W@Z 004083f6 f i Registry.obj
 0001:000073f6       ?OnUseGlass@CConEmuMain@@MAEX_N@Z 004083f6 f i ConEmu.obj
 0001:000073f6       ?DragFeedBack@CBaseDropTarget@@UAEXK@Z 004083f6 f i BaseDragDrops.obj
 0001:000073f6       ?OnUseTheming@CConEmuMain@@MAEX_N@Z 004083f6 f i ConEmu.obj
 0001:000073f9       ?DragLeave@CBaseDropTarget@@UAGJXZ 004083f9 f   BaseDragDrops.obj
 0001:000073f9       ?_Get_deleter@_Ref_count_base@std@@UBEPAXABVtype_info@@@Z 004083f9 f   ConEmu.obj
 0001:000073fe       ?DragOver@CBaseDropTarget@@UAGJKU_POINTL@@PAK@Z 004083fe f   BaseDragDrops.obj
 0001:00007403       ?DupMem@@YAPAXPAX@Z        00408403 f   BaseDragDrops.obj
 0001:0000744d       ?EnumFormatEtc@CDataObject@@UAGJKPAPAUIEnumFORMATETC@@@Z 0040844d f   BaseDragDrops.obj
 0001:00007505       ?GetCanonicalFormatEtc@CDataObject@@UAGJPAUtagFORMATETC@@0@Z 00408505 f   BaseDragDrops.obj
 0001:00007518       ?GetData@CDataObject@@UAGJPAUtagFORMATETC@@PAUtagSTGMEDIUM@@@Z 00408518 f   BaseDragDrops.obj
 0001:000075b8       ?GetDataHere@CDataObject@@UAGJPAUtagFORMATETC@@PAUtagSTGMEDIUM@@@Z 004085b8 f   BaseDragDrops.obj
 0001:000075c0       ?GiveFeedback@CDropSource@@UAGJK@Z 004085c0 f   BaseDragDrops.obj
 0001:0000765b       ?LookupFormatEtc@CDataObject@@AAEHPAUtagFORMATETC@@@Z 0040865b f   BaseDragDrops.obj
 0001:000076b1       ?Next@CEnumFormatEtc@@UAGJKPAUtagFORMATETC@@PAK@Z 004086b1 f   BaseDragDrops.obj
 0001:00007711       ?QueryContinueDrag@CDropSource@@UAGJHK@Z 00408711 f   BaseDragDrops.obj
 0001:0000777a       ?QueryGetData@CDataObject@@UAGJPAUtagFORMATETC@@@Z 0040877a f   BaseDragDrops.obj
 0001:0000779b       ?QueryInterface@CBaseDropTarget@@UAGJABU_GUID@@PAPAX@Z 0040879b f   BaseDragDrops.obj
 0001:000077f0       ?QueryInterface@CDataObject@@UAGJABU_GUID@@PAPAX@Z 004087f0 f   BaseDragDrops.obj
 0001:00007845       ?QueryInterface@CDropSource@@UAGJABU_GUID@@PAPAX@Z 00408845 f   BaseDragDrops.obj
 0001:0000789a       ?QueryInterface@CEnumFormatEtc@@UAGJABU_GUID@@PAPAX@Z 0040889a f   BaseDragDrops.obj
 0001:000078ef       ?Release@CEnumFormatEtc@@UAGKXZ 004088ef f   BaseDragDrops.obj
 0001:000078ef       ?Release@CBaseDropTarget@@UAGKXZ 004088ef f   BaseDragDrops.obj
 0001:00007918       ?Release@CDataObject@@UAGKXZ 00408918 f   BaseDragDrops.obj
 0001:00007941       ?Release@CDropSource@@UAGKXZ 00408941 f   BaseDragDrops.obj
 0001:0000796a       ?Reset@CEnumFormatEtc@@UAGJXZ 0040896a f   BaseDragDrops.obj
 0001:0000797a       ?SetData@CDataObject@@UAGJPAUtagFORMATETC@@PAUtagSTGMEDIUM@@H@Z 0040897a f   BaseDragDrops.obj
 0001:00007a54       ?SetDataInt@CDataObject@@QAEJPB_WPBXK@Z 00408a54 f   BaseDragDrops.obj
 0001:00007ac5       ?Skip@CEnumFormatEtc@@UAGJK@Z 00408ac5 f   BaseDragDrops.obj
 0001:00007adf       ?_Calculate_growth@?$vector@UDragData@CDataObject@@V?$MArrayAllocator@UDragData@CDataObject@@@@@std@@ABEII@Z 00408adf f i BaseDragDrops.obj
 0001:00007adf       ?_Calculate_growth@?$vector@UItemInfo@CDynDialog@@V?$MArrayAllocator@UItemInfo@CDynDialog@@@@@std@@ABEII@Z 00408adf f i DynDialog.obj
 0001:00007b0a       ?_Change_array@?$vector@UItemInfo@CDynDialog@@V?$MArrayAllocator@UItemInfo@CDynDialog@@@@@std@@AAEXQAUItemInfo@CDynDialog@@II@Z 00408b0a f i DynDialog.obj
 0001:00007b0a       ?_Change_array@?$vector@UDragData@CDataObject@@V?$MArrayAllocator@UDragData@CDataObject@@@@@std@@AAEXQAUDragData@CDataObject@@II@Z 00408b0a f i BaseDragDrops.obj
 0001:00007b46       ?_Reallocate_exactly@?$vector@UDragData@CDataObject@@V?$MArrayAllocator@UDragData@CDataObject@@@@@std@@AAEXI@Z 00408b46 f i BaseDragDrops.obj
 0001:00007b8b       ?_Tidy@?$vector@UDragData@CDataObject@@V?$MArrayAllocator@UDragData@CDataObject@@@@@std@@AAEXXZ 00408b8b f i BaseDragDrops.obj
 0001:00007b8b       ?_Tidy@?$vector@UItemInfo@CDynDialog@@V?$MArrayAllocator@UItemInfo@CDynDialog@@@@@std@@AAEXXZ 00408b8b f i DynDialog.obj
 0001:00007bb4       ?allocate@?$MArrayAllocator@UDragData@CDataObject@@@@QAEPAUDragData@CDataObject@@I@Z 00408bb4 f i BaseDragDrops.obj
 0001:00007bb4       ?allocate@?$MArrayAllocator@UItemInfo@CDynDialog@@@@QAEPAUItemInfo@CDynDialog@@I@Z 00408bb4 f i DynDialog.obj
 0001:00007bed       ?reserve@?$vector@UDragData@CDataObject@@V?$MArrayAllocator@UDragData@CDataObject@@@@@std@@QAEXI@Z 00408bed f i BaseDragDrops.obj
 0001:00007c1b       ??$_Fill_unchecked1@PAPAUCommand@CProcessEnvCmd@@PAU12@@std@@YAXPAPAUCommand@CProcessEnvCmd@@0ABQAU12@U?$integral_constant@_N$0A@@0@@Z 00408c1b f i common-user32:ProcessSetEnv.obj
 0001:00007c1b       ??$_Fill_unchecked1@PAPAVCTabID@@PAV1@@std@@YAXPAPAVCTabID@@0ABQAV1@U?$integral_constant@_N$0A@@0@@Z 00408c1b f i TabBar.obj
 0001:00007c1b       ??$_Fill_unchecked1@PAPA_WPA_W@std@@YAXPAPA_W0ABQA_WU?$integral_constant@_N$0A@@0@@Z 00408c1b f i CmdHistory.obj
 0001:00007c90       ??$_Uninit_alloc_fill_n1@PAPA_WIV?$MArrayAllocator@PA_W@@@std@@YAPAPA_WQAPA_WIABQA_WAAV?$MArrayAllocator@PA_W@@U?$integral_constant@_N$0A@@0@@Z 00408c90 f i CmdHistory.obj
 0001:00007c90       ??$_Uninit_alloc_fill_n1@PAPAUCommand@CProcessEnvCmd@@IV?$MArrayAllocator@PAUCommand@CProcessEnvCmd@@@@@std@@YAPAPAUCommand@CProcessEnvCmd@@QAPAU12@IABQAU12@AAV?$MArrayAllocator@PAUCommand@CProcessEnvCmd@@@@U?$integral_constant@_N$0A@@0@@Z 00408c90 f i common-user32:ProcessSetEnv.obj
 0001:00007c90       ??$_Uninit_alloc_fill_n1@PAV?$_List_unchecked_iterator@V?$_List_val@U?$_List_simple_types@U?$pair@$$CBV?$basic_string@_WU?$char_traits@_W@std@@V?$allocator@_W@2@@std@@UVariableData@SystemEnvironment@@@std@@@std@@@std@@@std@@IV?$allocator@V?$_List_unchecked_iterator@V?$_List_val@U?$_List_simple_types@U?$pair@$$CBV?$basic_string@_WU?$char_traits@_W@std@@V?$allocator@_W@2@@std@@UVariableData@SystemEnvironment@@@std@@@std@@@std@@@std@@@2@@std@@YAPAV?$_List_unchecked_iterator@V?$_List_val@U?$_List_simple_types@U?$pair@$$CBV?$basic_string@_WU?$char_traits@_W@std@@V?$allocator@_W@2@@std@@UVariableData@SystemEnvironment@@@std@@@std@@@std@@@0@QAV10@IABV10@AAV?$allocator@V?$_List_unchecked_iterator@V?$_List_val@U?$_List_simple_types@U?$pair@$$CBV?$basic_string@_WU?$char_traits@_W@std@@V?$allocator@_W@2@@std@@UVariableData@SystemEnvironment@@@std@@@std@@@std@@@std@@@0@U?$integral_constant@_N$0A@@0@@Z 00408c90 f i ConEmu.obj
 0001:00007c90       ??$_Uninit_alloc_fill_n1@PAPAVCTabID@@IV?$MArrayAllocator@PAVCTabID@@@@@std@@YAPAPAVCTabID@@QAPAV1@IABQAV1@AAV?$MArrayAllocator@PAVCTabID@@@@U?$integral_constant@_N$0A@@0@@Z 00408c90 f i TabBar.obj
 0001:00007c90       ??$_Uninit_alloc_fill_n1@PAV?$_List_unchecked_iterator@V?$_List_val@U?$_List_simple_types@U?$pair@$$CBHG@std@@@std@@@std@@@std@@IV?$allocator@V?$_List_unchecked_iterator@V?$_List_val@U?$_List_simple_types@U?$pair@$$CBHG@std@@@std@@@std@@@std@@@2@@std@@YAPAV?$_List_unchecked_iterator@V?$_List_val@U?$_List_simple_types@U?$pair@$$CBHG@std@@@std@@@std@@@0@QAV10@IABV10@AAV?$allocator@V?$_List_unchecked_iterator@V?$_List_val@U?$_List_simple_types@U?$pair@$$CBHG@std@@@std@@@std@@@std@@@0@U?$integral_constant@_N$0A@@0@@Z 00408c90 f i Font.obj
 0001:00007cb0       ??$_Uninitialized_fill_n@PAV?$_List_unchecked_iterator@V?$_List_val@U?$_List_simple_types@U?$pair@$$CBHG@std@@@std@@@std@@@std@@IV?$allocator@V?$_List_unchecked_iterator@V?$_List_val@U?$_List_simple_types@U?$pair@$$CBHG@std@@@std@@@std@@@std@@@2@@std@@YAPAV?$_List_unchecked_iterator@V?$_List_val@U?$_List_simple_types@U?$pair@$$CBHG@std@@@std@@@std@@@0@QAV10@IABV10@AAV?$allocator@V?$_List_unchecked_iterator@V?$_List_val@U?$_List_simple_types@U?$pair@$$CBHG@std@@@std@@@std@@@std@@@0@@Z 00408cb0 f i Font.obj
 0001:00007cb0       ??$_Uninitialized_fill_n@PAPA_WIV?$MArrayAllocator@PA_W@@@std@@YAPAPA_WQAPA_WIABQA_WAAV?$MArrayAllocator@PA_W@@@Z 00408cb0 f i CmdHistory.obj
 0001:00007cb0       ??$_Uninitialized_fill_n@PAV?$_List_unchecked_iterator@V?$_List_val@U?$_List_simple_types@U?$pair@$$CBV?$basic_string@_WU?$char_traits@_W@std@@V?$allocator@_W@2@@std@@UVariableData@SystemEnvironment@@@std@@@std@@@std@@@std@@IV?$allocator@V?$_List_unchecked_iterator@V?$_List_val@U?$_List_simple_types@U?$pair@$$CBV?$basic_string@_WU?$char_traits@_W@std@@V?$allocator@_W@2@@std@@UVariableData@SystemEnvironment@@@std@@@std@@@std@@@std@@@2@@std@@YAPAV?$_List_unchecked_iterator@V?$_List_val@U?$_List_simple_types@U?$pair@$$CBV?$basic_string@_WU?$char_traits@_W@std@@V?$allocator@_W@2@@std@@UVariableData@SystemEnvironment@@@std@@@std@@@std@@@0@QAV10@IABV10@AAV?$allocator@V?$_List_unchecked_iterator@V?$_List_val@U?$_List_simple_types@U?$pair@$$CBV?$basic_string@_WU?$char_traits@_W@std@@V?$allocator@_W@2@@std@@UVariableData@SystemEnvironment@@@std@@@std@@@std@@@std@@@0@@Z 00408cb0 f i ConEmu.obj
 0001:00007cb0       ??$_Uninitialized_fill_n@PAPAVCTabID@@IV?$MArrayAllocator@PAVCTabID@@@@@std@@YAPAPAVCTabID@@QAPAV1@IABQAV1@AAV?$MArrayAllocator@PAVCTabID@@@@@Z 00408cb0 f i TabBar.obj
 0001:00007cb0       ??$_Uninitialized_fill_n@PAPAUCommand@CProcessEnvCmd@@IV?$MArrayAllocator@PAUCommand@CProcessEnvCmd@@@@@std@@YAPAPAUCommand@CProcessEnvCmd@@QAPAU12@IABQAU12@AAV?$MArrayAllocator@PAUCommand@CProcessEnvCmd@@@@@Z 00408cb0 f i common-user32:ProcessSetEnv.obj
 0001:00007cd1       ??0CommandHistory@@QAE@H@Z 00408cd1 f   CmdHistory.obj
 0001:00007cf7       ??1?$MArray@PA_W@@QAE@XZ   00408cf7 f i ConEmuCtrl.obj
 0001:00007cf7       ??1?$MArray@PAVCVConGroup@@@@QAE@XZ 00408cf7 f i VConGroup.obj
 0001:00007cf7       ??1?$MArray@PAVCVConGuard@@@@QAE@XZ 00408cf7 f i Macro.obj
 0001:00007cf7       ??1?$MArray@PAVCTabID@@@@QAE@XZ 00408cf7 f i TabBar.obj
 0001:00007cf7       ??1?$MArray@PAUHWND__@@@@QAE@XZ 00408cf7 f i ConEmu.obj
 0001:00007cf7       ??1?$MArray@H@@QAE@XZ      00408cf7 f i CmdHistory.obj
 0001:00007cf7       ??1?$MArray@PB_W@@QAE@XZ   00408cf7 f i ConEmu.obj
 0001:00007cf7       ??1?$MArray@PAUSwitch@@@@QAE@XZ 00408cf7 f i SetPgIntegr.obj
 0001:00007cf7       ??1?$MArray@URunQueueItem@CRunQueue@@@@QAE@XZ 00408cf7 f i RunQueue.obj
 0001:00007cf7       ??1?$MArray@PAVCFont@@@@QAE@XZ 00408cf7 f i FontMgr.obj
 0001:00007d2f       ??1CommandHistory@@QAE@XZ  00408d2f f   CmdHistory.obj
 0001:00007d72       ?Add@CommandHistory@@QAEXPB_W_N@Z 00408d72 f   CmdHistory.obj
 0001:00007e87       ?Compare@CommandHistory@@QAEHHPB_W@Z 00408e87 f   CmdHistory.obj
 0001:00007ec3       ?CreateMSZ@CommandHistory@@QAEIAAPA_W@Z 00408ec3 f   CmdHistory.obj
 0001:00007ff3       ?FreeItems@CommandHistory@@QAEXXZ 00408ff3 f   CmdHistory.obj
 0001:00008070       ?Get@CommandHistory@@QAEPB_WH@Z 00409070 f   CmdHistory.obj
 0001:000080a1       ?ParseMSZ@CommandHistory@@QAEXPB_W@Z 004090a1 f   CmdHistory.obj
 0001:000080f7       ?_Reallocate_exactly@?$vector@PAXV?$MArrayAllocator@PAX@@@std@@AAEXI@Z 004090f7 f i TaskBar.obj
 0001:000080f7       ?_Reallocate_exactly@?$vector@HV?$MArrayAllocator@H@@@std@@AAEXI@Z 004090f7 f i CmdHistory.obj
 0001:00008135       ?insert@?$MArray@PA_W@@QAEHHABQA_WH@Z 00409135 f i CmdHistory.obj
 0001:00008135       ?insert@?$MArray@PAUCommand@CProcessEnvCmd@@@@QAEHHABQAUCommand@CProcessEnvCmd@@H@Z 00409135 f i common-user32:ProcessSetEnv.obj
 0001:00008135       ?insert@?$MArray@PAVCTabID@@@@QAEHHABQAVCTabID@@H@Z 00409135 f i TabBar.obj
 0001:00008185       ?insert@?$vector@PAUCommand@CProcessEnvCmd@@V?$MArrayAllocator@PAUCommand@CProcessEnvCmd@@@@@std@@QAE?AV?$_Vector_iterator@V?$_Vector_val@U?$_Simple_types@PAUCommand@CProcessEnvCmd@@@std@@@std@@@2@V?$_Vector_const_iterator@V?$_Vector_val@U?$_Simple_types@PAUCommand@CProcessEnvCmd@@@std@@@std@@@2@IABQAUCommand@CProcessEnvCmd@@@Z 00409185 f i common-user32:ProcessSetEnv.obj
 0001:00008185       ?insert@?$vector@PA_WV?$MArrayAllocator@PA_W@@@std@@QAE?AV?$_Vector_iterator@V?$_Vector_val@U?$_Simple_types@PA_W@std@@@std@@@2@V?$_Vector_const_iterator@V?$_Vector_val@U?$_Simple_types@PA_W@std@@@std@@@2@IABQA_W@Z 00409185 f i CmdHistory.obj
 0001:00008185       ?insert@?$vector@PAVCTabID@@V?$MArrayAllocator@PAVCTabID@@@@@std@@QAE?AV?$_Vector_iterator@V?$_Vector_val@U?$_Simple_types@PAVCTabID@@@std@@@std@@@2@V?$_Vector_const_iterator@V?$_Vector_val@U?$_Simple_types@PAVCTabID@@@std@@@std@@@2@IABQAVCTabID@@@Z 00409185 f i TabBar.obj
 0001:00008341       ?reserve@?$vector@HV?$MArrayAllocator@H@@@std@@QAEXI@Z 00409341 f i CmdHistory.obj
 0001:00008341       ?reserve@?$vector@PAXV?$MArrayAllocator@PAX@@@std@@QAEXI@Z 00409341 f i TaskBar.obj
 0001:0000836a       ?swap@?$vector@PA_WV?$MArrayAllocator@PA_W@@@std@@QAEXAAV12@@Z 0040936a f i CmdHistory.obj
 0001:0000836a       ?swap@?$vector@UtagPROCESSENTRY32W@@V?$MArrayAllocator@UtagPROCESSENTRY32W@@@@@std@@QAEXAAV12@@Z 0040936a f i common-kernel32:MProcess.obj
 0001:0000839e       ??$_abs@N@@YA?BNABN@Z      0040939e f i ColorFix.obj
 0001:000083c5       ??0ColorFix@@QAE@K@Z       004093c5 f   ColorFix.obj
 0001:000083dc       ??0ColorFix@@QAE@XZ        004093dc f   ColorFix.obj
 0001:000083ee       ??0dE00@@QAE@UColorFix@@0NNN@Z 004093ee f i ColorFix.obj
 0001:00008650       ?DeltaE@ColorFix@@QAENU1@@Z 00409650 f   ColorFix.obj
 0001:000086b2       ?DeltaE@ColorSpace@@YANUColorFix@@0@Z 004096b2 f   ColorFix.obj
 0001:00008735       ?PerceivableColor@ColorFix@@QAE_NKAAU1@PAN1@Z 00409735 f   ColorFix.obj
 0001:00008880       ?ToLab@ColorFix@@QAEXXZ    00409880 f   ColorFix.obj
 0001:000088cc       ?ToRGB@ColorFix@@QAEXXZ    004098cc f   ColorFix.obj
 0001:000088ec       ?_gethPrimeFn@dE00@@QAENNN@Z 004098ec f i ColorFix.obj
 0001:0000894b       ?getDeltaE@dE00@@QAENXZ    0040994b f i ColorFix.obj
 0001:00008afa       ?getDeltahPrime@dE00@@QAENXZ 00409afa f i ColorFix.obj
 0001:00008ba1       ?getHBarPrime@dE00@@QAENXZ 00409ba1 f i ColorFix.obj
 0001:00008bf9       ?getRsubT@dE00@@QAENXZ     00409bf9 f i ColorFix.obj
 0001:00008cb3       ?getT@dE00@@QAENXZ         00409cb3 f i ColorFix.obj
 0001:00008d9f       ?lab2rgb@ColorSpace@@YAXNNNAAK@Z 00409d9f f   ColorFix.obj
 0001:00008e3b       ?lab2rgb@ColorSpace@@YAXNNNAAN00@Z 00409e3b f   ColorFix.obj
 0001:000090d4       ?min_max@ColorSpace@@YAEN@Z 0040a0d4 f   ColorFix.obj
 0001:000090fd       ?rgb2lab@ColorSpace@@YAXNNNAAN00@Z 0040a0fd f   ColorFix.obj
 0001:00009387       ??$?0$$V@?$_Ref_count_obj@USystemEnvironment@@@std@@QAE@XZ 0040a387 f i ConEmu.obj
 0001:000093c6       ??$?H_WU?$char_traits@_W@std@@V?$allocator@_W@1@@std@@YA?AV?$basic_string@_WU?$char_traits@_W@std@@V?$allocator@_W@2@@0@QB_WABV10@@Z 0040a3c6 f i ConEmu.obj
 0001:00009432       ??$GetPageObj@VCSetPgInfo@@@CSettings@@QAE_NAAPAVCSetPgInfo@@@Z 0040a432 f i ConEmu.obj
 0001:00009461       ??$SafeDelete@UCEFindDlg@@@@YAXAAPAUCEFindDlg@@@Z 0040a461 f i ConEmu.obj
 0001:00009490       ??$SafeDelete@UHandleMonitor@@@@YAXAAPAUHandleMonitor@@@Z 0040a490 f i ConEmu.obj
 0001:000094cd       ??$SafeDelete@UMSectionLockSimple@@@@YAXAAPAUMSectionLockSimple@@@Z 0040a4cd f i ConEmu.obj
 0001:0000950a       ??$SafeDelete@UMSectionSimple@@@@YAXAAPAUMSectionSimple@@@Z 0040a50a f i ConEmu.obj
 0001:00009547       ??$SafeDelete@VCAltNumpad@@@@YAXAAPAVCAltNumpad@@@Z 0040a547 f i ConEmu.obj
 0001:00009584       ??$SafeDelete@VCAttachDlg@@@@YAXAAPAVCAttachDlg@@@Z 0040a584 f i ConEmu.obj
 0001:000095c1       ??$SafeDelete@VCConEmuMenu@@@@YAXAAPAVCConEmuMenu@@@Z 0040a5c1 f i ConEmu.obj
 0001:000095fe       ??$SafeDelete@VCDefaultTerminal@@@@YAXAAPAVCDefaultTerminal@@@Z 0040a5fe f i ConEmu.obj
 0001:0000962f       ??$SafeDelete@VCDragDrop@@@@YAXAAPAVCDragDrop@@@Z 0040a62f f i ConEmu.obj
 0001:00009660       ??$SafeDelete@VCPushInfo@@@@YAXAAPAVCPushInfo@@@Z 0040a660 f i ConEmu.obj
 0001:00009660       ??$SafeDelete@VCRConFiles@@@@YAXAAPAVCRConFiles@@@Z 0040a660 f i RealConsole.obj
 0001:0000969d       ??$SafeDelete@VCRecreateDlg@@@@YAXAAPAVCRecreateDlg@@@Z 0040a69d f i ConEmu.obj
 0001:000096dd       ??$SafeDelete@VCRunQueue@@@@YAXAAPAVCRunQueue@@@Z 0040a6dd f i ConEmu.obj
 0001:0000971a       ??$_Allocate@$07U_Default_allocate_traits@std@@$0A@@std@@YAPAXI@Z 0040a71a f i ConEmu.obj
 0001:00009740       ??$_Allocate_manually_vector_aligned@U_Default_allocate_traits@std@@@std@@YAPAXI@Z 0040a740 f i ConEmu.obj
 0001:0000976e       ??$_Copy_construct_from@V__ExceptionPtr@@@?$_Ptr_base@V__ExceptionPtr@@@std@@IAEXABV?$shared_ptr@V__ExceptionPtr@@@1@@Z 0040a76e f i libcpmt:excptptr.obj
 0001:0000976e       ??$_Copy_construct_from@USystemEnvironment@@@?$_Ptr_base@USystemEnvironment@@@std@@IAEXABV?$shared_ptr@USystemEnvironment@@@1@@Z 0040a76e f i ConEmu.obj
 0001:0000978d       ??$_Deallocate@$07$0A@@std@@YAXPAXI@Z 0040a78d f i ConEmu.obj
 0001:000097b9       ??$_Emplace_reallocate@ABUProcessInfo@CDefTermBase@@@?$vector@UProcessInfo@CDefTermBase@@V?$MArrayAllocator@UProcessInfo@CDefTermBase@@@@@std@@QAEPAUProcessInfo@CDefTermBase@@QAU23@ABU23@@Z 0040a7b9 f i ConEmu.obj
 0001:000097b9       ??$_Emplace_reallocate@ABUDlgItem@CDpiForDialog@@@?$vector@UDlgItem@CDpiForDialog@@V?$MArrayAllocator@UDlgItem@CDpiForDialog@@@@@std@@QAEPAUDlgItem@CDpiForDialog@@QAU23@ABU23@@Z 0040a7b9 f i DpiAware.obj
 0001:00009876       ??$_Emplace_reallocate@ABUSshAgent@CConEmuMain@@@?$vector@USshAgent@CConEmuMain@@V?$MArrayAllocator@USshAgent@CConEmuMain@@@@@std@@QAEPAUSshAgent@CConEmuMain@@QAU23@ABU23@@Z 0040a876 f i ConEmu.obj
 0001:00009876       ??$_Emplace_reallocate@ABUThreadHandle@CDefTermBase@@@?$vector@UThreadHandle@CDefTermBase@@V?$MArrayAllocator@UThreadHandle@CDefTermBase@@@@@std@@QAEPAUThreadHandle@CDefTermBase@@QAU23@ABU23@@Z 0040a876 f i ConEmu.obj
 0001:00009876       ??$_Emplace_reallocate@ABULngDefinition@CLngRc@@@?$vector@ULngDefinition@CLngRc@@V?$MArrayAllocator@ULngDefinition@CLngRc@@@@@std@@QAEPAULngDefinition@CLngRc@@QAU23@ABU23@@Z 0040a876 f i LngRc.obj
 0001:00009876       ??$_Emplace_reallocate@ABUTabIconCache@CIconList@@@?$vector@UTabIconCache@CIconList@@V?$MArrayAllocator@UTabIconCache@CIconList@@@@@std@@QAEPAUTabIconCache@CIconList@@QAU23@ABU23@@Z 0040a876 f i IconList.obj
 0001:00009931       ??$_Fill_unchecked1@PAV?$_List_unchecked_iterator@V?$_List_val@U?$_List_simple_types@U?$pair@$$CBV?$basic_string@_WU?$char_traits@_W@std@@V?$allocator@_W@2@@std@@UVariableData@SystemEnvironment@@@std@@@std@@@std@@@std@@V12@@std@@YAXPAV?$_List_unchecked_iterator@V?$_List_val@U?$_List_simple_types@U?$pair@$$CBV?$basic_string@_WU?$char_traits@_W@std@@V?$allocator@_W@2@@std@@UVariableData@SystemEnvironment@@@std@@@std@@@std@@@0@0ABV10@U?$integral_constant@_N$0A@@0@@Z 0040a931 f i ConEmu.obj
 0001:00009931       ??$_Fill_unchecked1@PAV?$_List_unchecked_iterator@V?$_List_val@U?$_List_simple_types@U?$pair@$$CBHG@std@@@std@@@std@@@std@@V12@@std@@YAXPAV?$_List_unchecked_iterator@V?$_List_val@U?$_List_simple_types@U?$pair@$$CBHG@std@@@std@@@std@@@0@0ABV10@U?$integral_constant@_N$0A@@0@@Z 0040a931 f i Font.obj
 0001:000099a1       ??$_Fill_unchecked@PAV?$_List_unchecked_iterator@V?$_List_val@U?$_List_simple_types@U?$pair@$$CBV?$basic_string@_WU?$char_traits@_W@std@@V?$allocator@_W@2@@std@@UVariableData@SystemEnvironment@@@std@@@std@@@std@@@std@@V12@@std@@YAXPAV?$_List_unchecked_iterator@V?$_List_val@U?$_List_simple_types@U?$pair@$$CBV?$basic_string@_WU?$char_traits@_W@std@@V?$allocator@_W@2@@std@@UVariableData@SystemEnvironment@@@std@@@std@@@std@@@0@0ABV10@@Z 0040a9a1 f i ConEmu.obj
 0001:000099a1       ??$_Fill_unchecked@PAV?$_List_unchecked_iterator@V?$_List_val@U?$_List_simple_types@U?$pair@$$CBHG@std@@@std@@@std@@@std@@V12@@std@@YAXPAV?$_List_unchecked_iterator@V?$_List_val@U?$_List_simple_types@U?$pair@$$CBHG@std@@@std@@@std@@@0@0ABV10@@Z 0040a9a1 f i Font.obj
 0001:000099bf       ??$_Reallocate_for@V<lambda_03628ca18370b1f44a99b655e704819b>@@PB_W@?$basic_string@_WU?$char_traits@_W@std@@V?$allocator@_W@2@@std@@QAEAAV01@IV<lambda_03628ca18370b1f44a99b655e704819b>@@PB_W@Z 0040a9bf f i ConEmu.obj
 0001:00009a37       ??$_Reallocate_grow_by@V<lambda_2fb699096920f2dc628cb0826b07831d>@@PB_WI@?$basic_string@_WU?$char_traits@_W@std@@V?$allocator@_W@2@@std@@QAEAAV01@IV<lambda_2fb699096920f2dc628cb0826b07831d>@@PB_WI@Z 0040aa37 f i ConEmu.obj
 0001:00009ac6       ??$_Reallocate_grow_by@V<lambda_4755c59c3a9e60a5b049353a7584df55>@@$$V@?$basic_string@_WU?$char_traits@_W@std@@V?$allocator@_W@2@@std@@QAEAAV01@IV<lambda_4755c59c3a9e60a5b049353a7584df55>@@@Z 0040aac6 f i ConEmu.obj
 0001:00009b58       ??$_Reset@P6A_NPAVCVirtualConsole@@J@Z@?$_Func_class@_NPAVCVirtualConsole@@J@std@@IAEX$$QAP6A_NPAVCVirtualConsole@@J@Z@Z 0040ab58 f i ConEmu.obj
 0001:00009b75       ??$_Traits_equal@U?$char_traits@_W@std@@@std@@YA_NQB_WI0I@Z 0040ab75 f i ConEmu.obj
 0001:00009b9b       ??$_Uninitialized_move_al_unchecked@PAV?$_List_unchecked_iterator@V?$_List_val@U?$_List_simple_types@U?$pair@$$CBV?$basic_string@_WU?$char_traits@_W@std@@V?$allocator@_W@2@@std@@UVariableData@SystemEnvironment@@@std@@@std@@@std@@@std@@PAV12@V?$allocator@V?$_List_unchecked_iterator@V?$_List_val@U?$_List_simple_types@U?$pair@$$CBV?$basic_string@_WU?$char_traits@_W@std@@V?$allocator@_W@2@@std@@UVariableData@SystemEnvironment@@@std@@@std@@@std@@@std@@@2@@std@@YAPAV?$_List_unchecked_iterator@V?$_List_val@U?$_List_simple_types@U?$pair@$$CBV?$basic_string@_WU?$char_traits@_W@std@@V?$allocator@_W@2@@std@@UVariableData@SystemEnvironment@@@std@@@std@@@std@@@0@PAV10@QAV10@1AAV?$allocator@V?$_List_unchecked_iterator@V?$_List_val@U?$_List_simple_types@U?$pair@$$CBV?$basic_string@_WU?$char_traits@_W@std@@V?$allocator@_W@2@@std@@UVariableData@SystemEnvironment@@@std@@@std@@@std@@@std@@@0@U_General_ptr_iterator_tag@0@U_Unused_parameter@0@@Z 0040ab9b f i ConEmu.obj
 0001:00009b9b       ??$_Uninitialized_move_al_unchecked@PAV?$_List_unchecked_iterator@V?$_List_val@U?$_List_simple_types@U?$pair@$$CBHG@std@@@std@@@std@@@std@@PAV12@V?$allocator@V?$_List_unchecked_iterator@V?$_List_val@U?$_List_simple_types@U?$pair@$$CBHG@std@@@std@@@std@@@std@@@2@@std@@YAPAV?$_List_unchecked_iterator@V?$_List_val@U?$_List_simple_types@U?$pair@$$CBHG@std@@@std@@@std@@@0@PAV10@QAV10@1AAV?$allocator@V?$_List_unchecked_iterator@V?$_List_val@U?$_List_simple_types@U?$pair@$$CBHG@std@@@std@@@std@@@std@@@0@U_General_ptr_iterator_tag@0@U_Unused_parameter@0@@Z 0040ab9b f i Font.obj
 0001:00009bd2       ??$emplace_back@ABUDlgItem@CDpiForDialog@@@?$vector@UDlgItem@CDpiForDialog@@V?$MArrayAllocator@UDlgItem@CDpiForDialog@@@@@std@@QAEXABUDlgItem@CDpiForDialog@@@Z 0040abd2 f i DpiAware.obj
 0001:00009bd2       ??$emplace_back@ABUProcessInfo@CDefTermBase@@@?$vector@UProcessInfo@CDefTermBase@@V?$MArrayAllocator@UProcessInfo@CDefTermBase@@@@@std@@QAEXABUProcessInfo@CDefTermBase@@@Z 0040abd2 f i ConEmu.obj
 0001:00009c00       ??$emplace_back@ABULngDefinition@CLngRc@@@?$vector@ULngDefinition@CLngRc@@V?$MArrayAllocator@ULngDefinition@CLngRc@@@@@std@@QAEXABULngDefinition@CLngRc@@@Z 0040ac00 f i LngRc.obj
 0001:00009c00       ??$emplace_back@ABUThreadHandle@CDefTermBase@@@?$vector@UThreadHandle@CDefTermBase@@V?$MArrayAllocator@UThreadHandle@CDefTermBase@@@@@std@@QAEXABUThreadHandle@CDefTermBase@@@Z 0040ac00 f i ConEmu.obj
 0001:00009c00       ??$emplace_back@ABUTabIconCache@CIconList@@@?$vector@UTabIconCache@CIconList@@V?$MArrayAllocator@UTabIconCache@CIconList@@@@@std@@QAEXABUTabIconCache@CIconList@@@Z 0040ac00 f i IconList.obj
 0001:00009c00       ??$emplace_back@ABUSshAgent@CConEmuMain@@@?$vector@USshAgent@CConEmuMain@@V?$MArrayAllocator@USshAgent@CConEmuMain@@@@@std@@QAEXABUSshAgent@CConEmuMain@@@Z 0040ac00 f i ConEmu.obj
 0001:00009c2a       ??$make_shared@USystemEnvironment@@$$V@std@@YA?AV?$shared_ptr@USystemEnvironment@@@0@XZ 0040ac2a f i ConEmu.obj
 0001:00009c64       ??$sprintf_c@$0CAA@@@YAHAAY0CAA@DPBDZZ 0040ac64 f i ConEmu.obj
 0001:00009c7d       ??$sprintf_c@$0GE@@@YAHAAY0GE@DPBDZZ 0040ac7d f i ConEmu.obj
 0001:00009c93       ??$sprintf_c@$0IA@@@YAHAAY0IA@DPBDZZ 0040ac93 f i ConEmu.obj
 0001:00009cac       ??$swprintf_c@$09@@YAHAAY09_WPB_WZZ 0040acac f i ConEmu.obj
 0001:00009cc2       ??$swprintf_c@$0BA@@@YAHAAY0BA@_WPB_WZZ 0040acc2 f i ConEmu.obj
 0001:00009cd8       ??$swprintf_c@$0BFE@@@YAHAAY0BFE@_WPB_WZZ 0040acd8 f i ConEmu.obj
 0001:00009cf1       ??$swprintf_c@$0CAA@@@YAHAAY0CAA@_WPB_WZZ 0040acf1 f i ConEmu.obj
 0001:00009d0a       ??$swprintf_c@$0EA@@@YAHAAY0EA@_WPB_WZZ 0040ad0a f i ConEmu.obj
 0001:00009d20       ??$swprintf_c@$0GE@@@YAHAAY0GE@_WPB_WZZ 0040ad20 f i ConEmu.obj
 0001:00009d36       ??$swprintf_c@$0IM@@@YAHAAY0IM@_WPB_WZZ 0040ad36 f i ConEmu.obj
 0001:00009d4f       ??$swprintf_c@$0KA@@@YAHAAY0KA@_WPB_WZZ 0040ad4f f i ConEmu.obj
 0001:00009d68       ??$swprintf_c@$0MI@@@YAHAAY0MI@_WPB_WZZ 0040ad68 f i ConEmu.obj
 0001:00009d81       ??$swprintf_c@$0PP@@@YAHAAY0PP@_WPB_WZZ 0040ad81 f i ConEmu.obj
 0001:00009d9a       ??$ultow_s@$0BE@@@YAPB_WIAAY0BE@_WH@Z 0040ad9a f i ConEmu.obj
 0001:00009dc2       ??$wcscat_c@$0BAE@@@YAHAAY0BAE@_WPB_W@Z 0040adc2 f i ConEmu.obj
 0001:00009dd7       ??$wcscat_c@$0BAF@@@YAHAAY0BAF@_WPB_W@Z 0040add7 f i ConEmu.obj
 0001:00009dec       ??$wcscpy_c@$0BAF@@@YAHAAY0BAF@_WPB_W@Z 0040adec f i ConEmu.obj
 0001:00009e01       ??$wcscpy_c@$0BBA@@@YAHAAY0BBA@_WPB_W@Z 0040ae01 f i ConEmu.obj
 0001:00009e16       ??$wcscpy_c@$0BCE@@@YAHAAY0BCE@_WPB_W@Z 0040ae16 f i ConEmu.obj
 0001:00009e2b       ??0?$MFileMapping@UConEmuGuiMapping@@@@QAE@XZ 0040ae2b f i ConEmu.obj
 0001:00009e2b       ??0?$MFileMapping@UCESERVER_CONSOLE_MAPPING_HDR@@@@QAE@XZ 0040ae2b f i RealConsole.obj
 0001:00009e2b       ??0?$MFileMapping@UCESERVER_CONSOLE_APP_MAPPING@@@@QAE@XZ 0040ae2b f i RealConsole.obj
 0001:00009e2b       ??0?$MFileMapping@UAnnotationHeader@@@@QAE@XZ 0040ae2b f i RealConsole.obj
 0001:00009e2b       ??0?$MFileMapping@UCESERVER_CONSAVE_MAPHDR@@@@QAE@XZ 0040ae2b f i RealConsole.obj
 0001:00009e2b       ??0?$MFileMapping@UPanelViewSetMapping@@@@QAE@XZ 0040ae2b f i OptionsClass.obj
 0001:00009e2b       ??0?$MFileMapping@$$CBUCEFAR_INFO_MAPPING@@@@QAE@XZ 0040ae2b f i RealConsole.obj
 0001:00009e2b       ??0?$MFileMapping@Utag_DetectedDialog@@@@QAE@XZ 0040ae2b f i VirtualConsole.obj
 0001:00009e2b       ??0?$MFileMapping@UCESERVER_CONSAVE_MAP@@@@QAE@XZ 0040ae2b f i RealConsole.obj
 0001:00009e4f       ??0?$_Hash@V?$_Umap_traits@V?$basic_string@_WU?$char_traits@_W@std@@V?$allocator@_W@2@@std@@UVariableData@SystemEnvironment@@V?$_Uhash_compare@V?$basic_string@_WU?$char_traits@_W@std@@V?$allocator@_W@2@@std@@U?$hash@V?$basic_string@_WU?$char_traits@_W@std@@V?$allocator@_W@2@@std@@@2@U?$equal_to@V?$basic_string@_WU?$char_traits@_W@std@@V?$allocator@_W@2@@std@@@2@@2@V?$allocator@U?$pair@$$CBV?$basic_string@_WU?$char_traits@_W@std@@V?$allocator@_W@2@@std@@UVariableData@SystemEnvironment@@@std@@@2@$0A@@std@@@std@@QAE@ABV?$_Uhash_compare@V?$basic_string@_WU?$char_traits@_W@std@@V?$allocator@_W@2@@std@@U?$hash@V?$basic_string@_WU?$char_traits@_W@std@@V?$allocator@_W@2@@std@@@2@U?$equal_to@V?$basic_string@_WU?$char_traits@_W@std@@V?$allocator@_W@2@@std@@@2@@1@ABV?$allocator@U?$pair@$$CBV?$basic_string@_WU?$char_traits@_W@std@@V?$allocator@_W@2@@std@@UVariableData@SystemEnvironment@@@std@@@1@@Z 0040ae4f f i ConEmu.obj
 0001:00009ea8       ??0?$basic_string@_WU?$char_traits@_W@std@@V?$allocator@_W@2@@std@@QAE@$$QAV01@@Z 0040aea8 f i ConEmu.obj
 0001:00009edb       ??0CConEmuMain@@QAE@XZ     0040aedb f   ConEmu.obj
 0001:0000afaf       ??0CallMainThreadArg@@QAE@JH@Z 0040bfaf f i ConEmu.obj
 0001:0000afe4       ??0MWow64Disable@@QAE@XZ   0040bfe4 f i ConEmu.obj
 0001:0000b029       ??1?$MArray@UTabIconCache@CIconList@@@@QAE@XZ 0040c029 f i IconList.obj
 0001:0000b029       ??1?$MArray@ULngDefinition@CLngRc@@@@QAE@XZ 0040c029 f i LngRc.obj
 0001:0000b029       ??1?$MArray@UThreadHandle@CDefTermBase@@@@QAE@XZ 0040c029 f i DefaultTerm.obj
 0001:0000b029       ??1?$MArray@USshAgent@CConEmuMain@@@@QAE@XZ 0040c029 f i ConEmu.obj
 0001:0000b061       ??1?$MFileMapping@Utag_DetectedDialog@@@@QAE@XZ 0040c061 f i VirtualConsole.obj
 0001:0000b061       ??1?$MFileMapping@UCESERVER_CONSOLE_APP_MAPPING@@@@QAE@XZ 0040c061 f i RealConsole.obj
 0001:0000b061       ??1?$MFileMapping@UCESERVER_CONSAVE_MAP@@@@QAE@XZ 0040c061 f i RealConsole.obj
 0001:0000b061       ??1?$MFileMapping@UCESERVER_CONSAVE_MAPHDR@@@@QAE@XZ 0040c061 f i RealConsole.obj
 0001:0000b061       ??1?$MFileMapping@UCESERVER_CONSOLE_MAPPING_HDR@@@@QAE@XZ 0040c061 f i RealConsole.obj
 0001:0000b061       ??1?$MFileMapping@UConEmuGuiMapping@@@@QAE@XZ 0040c061 f i ConEmu.obj
 0001:0000b061       ??1?$MFileMapping@UPanelViewSetMapping@@@@QAE@XZ 0040c061 f i OptionsClass.obj
 0001:0000b061       ??1?$MFileMapping@$$CBUCEFAR_INFO_MAPPING@@@@QAE@XZ 0040c061 f i RealConsole.obj
 0001:0000b06b       ??1?$MMap@PAVCVConGroup@@PAVCVirtualConsole@@$0A@@@QAE@XZ 0040c06b f i TabBar.obj
 0001:0000b06b       ??1?$MMap@KH$0A@@@QAE@XZ   0040c06b f i RealConsole.obj
 0001:0000b06b       ??1?$MMap@IPBD$0A@@@QAE@XZ 0040c06b f i ConEmu.obj
 0001:0000b0a8       ??1?$_Hash@V?$_Umap_traits@V?$basic_string@_WU?$char_traits@_W@std@@V?$allocator@_W@2@@std@@UVariableData@SystemEnvironment@@V?$_Uhash_compare@V?$basic_string@_WU?$char_traits@_W@std@@V?$allocator@_W@2@@std@@U?$hash@V?$basic_string@_WU?$char_traits@_W@std@@V?$allocator@_W@2@@std@@@2@U?$equal_to@V?$basic_string@_WU?$char_traits@_W@std@@V?$allocator@_W@2@@std@@@2@@2@V?$allocator@U?$pair@$$CBV?$basic_string@_WU?$char_traits@_W@std@@V?$allocator@_W@2@@std@@UVariableData@SystemEnvironment@@@std@@@2@$0A@@std@@@std@@QAE@XZ 0040c0a8 f i ConEmu.obj
 0001:0000b0c9       ??1?$basic_string@_WU?$char_traits@_W@std@@V?$allocator@_W@2@@std@@QAE@XZ 0040c0c9 f i ConEmu.obj
 0001:0000b0ce       ??1?$list@U?$pair@$$CBV?$basic_string@_WU?$char_traits@_W@std@@V?$allocator@_W@2@@std@@UVariableData@SystemEnvironment@@@std@@V?$allocator@U?$pair@$$CBV?$basic_string@_WU?$char_traits@_W@std@@V?$allocator@_W@2@@std@@UVariableData@SystemEnvironment@@@std@@@2@@std@@QAE@XZ 0040c0ce f i ConEmu.obj
 0001:0000b0e3       ??1?$pair@$$CBV?$basic_string@_WU?$char_traits@_W@std@@V?$allocator@_W@2@@std@@UVariableData@SystemEnvironment@@@std@@QAE@XZ 0040c0e3 f i ConEmu.obj
 0001:0000b0fe       ??1?$shared_ptr@USystemEnvironment@@@std@@QAE@XZ 0040c0fe f i ConEmu.obj
 0001:0000b10a       ??1?$vector@V?$_List_unchecked_iterator@V?$_List_val@U?$_List_simple_types@U?$pair@$$CBV?$basic_string@_WU?$char_traits@_W@std@@V?$allocator@_W@2@@std@@UVariableData@SystemEnvironment@@@std@@@std@@@std@@@std@@V?$allocator@V?$_List_unchecked_iterator@V?$_List_val@U?$_List_simple_types@U?$pair@$$CBV?$basic_string@_WU?$char_traits@_W@std@@V?$allocator@_W@2@@std@@UVariableData@SystemEnvironment@@@std@@@std@@@std@@@std@@@2@@std@@QAE@XZ 0040c10a f i ConEmu.obj
 0001:0000b10a       ??1?$vector@V?$_List_unchecked_iterator@V?$_List_val@U?$_List_simple_types@U?$pair@$$CBHG@std@@@std@@@std@@@std@@V?$allocator@V?$_List_unchecked_iterator@V?$_List_val@U?$_List_simple_types@U?$pair@$$CBHG@std@@@std@@@std@@@std@@@2@@std@@QAE@XZ 0040c10a f i Font.obj
 0001:0000b10f       ??1CConEmuMain@@UAE@XZ     0040c10f f   ConEmu.obj
 0001:0000b3fb       ??1MWow64Disable@@QAE@XZ   0040c3fb f i ConEmu.obj
 0001:0000b42f       ??1mutex@std@@QAE@XZ       0040c42f f i ConEmu.obj
 0001:0000b437       ??4?$shared_ptr@USystemEnvironment@@@std@@QAEAAV01@$$QAV01@@Z 0040c437 f i ConEmu.obj
 0001:0000b466       ??4?$shared_ptr@USystemEnvironment@@@std@@QAEAAV01@ABV01@@Z 0040c466 f i ConEmu.obj
 0001:0000b49f       ??R<lambda_2fb699096920f2dc628cb0826b07831d>@@QBEXQA_WQB_WI1I@Z 0040c49f f i ConEmu.obj
 0001:0000b507       ??R?$hash@V?$basic_string@_WU?$char_traits@_W@std@@V?$allocator@_W@2@@std@@@std@@QBEIABV?$basic_string@_WU?$char_traits@_W@std@@V?$allocator@_W@2@@1@@Z 0040c507 f i ConEmu.obj
 0001:0000b52d       ??_ECConEmuMain@@WBBA@AEPAXI@Z 0040c52d f i ConEmu.obj
 0001:0000b538       ??_ECConEmuMain@@WBEA@AEPAXI@Z 0040c538 f i ConEmu.obj
 0001:0000b543       ??_ECConEmuMain@@WBHM@AEPAXI@Z 0040c543 f i ConEmu.obj
 0001:0000b54e       ??_ECConEmuMain@@WDKI@AEPAXI@Z 0040c54e f i ConEmu.obj
 0001:0000b559       ??_ECConEmuMain@@WJM@AEPAXI@Z 0040c559 f i ConEmu.obj
 0001:0000b564       ??_ECConEmuMain@@WMM@AEPAXI@Z 0040c564 f i ConEmu.obj
 0001:0000b56f       ??_G?$_Ref_count_obj@USystemEnvironment@@@std@@UAEPAXI@Z 0040c56f f i ConEmu.obj
 0001:0000b56f       ??_E?$_Ref_count_obj@USystemEnvironment@@@std@@UAEPAXI@Z 0040c56f f i ConEmu.obj
 0001:0000b58c       ??_GCConEmuMain@@UAEPAXI@Z 0040c58c f i ConEmu.obj
 0001:0000b58c       ??_ECConEmuMain@@UAEPAXI@Z 0040c58c f i ConEmu.obj
 0001:0000b5b1       ?Activate@CConEmuMain@@QAEHPAVCVirtualConsole@@@Z 0040c5b1 f   ConEmu.obj
 0001:0000b613       ?ActiveConNum@CConEmuMain@@QAEHXZ 0040c613 f   ConEmu.obj
 0001:0000b618       ?AddPostGuiRConMacro@CConEmuMain@@QAEXPB_W@Z 0040c618 f   ConEmu.obj
 0001:0000b630       ?AllocateBlock@?$MMap@PAVCVConGroup@@PAVCVirtualConsole@@$0A@@@IAEPAUMapItems@1@XZ 0040c630 f i TabBar.obj
 0001:0000b630       ?AllocateBlock@?$MMap@HPAV?$MArray@UDlgItem@CDpiForDialog@@@@$0A@@@IAEPAUMapItems@1@XZ 0040c630 f i DpiAware.obj
 0001:0000b630       ?AllocateBlock@?$MMap@IPBD$0A@@@IAEPAUMapItems@1@XZ 0040c630 f i ConEmu.obj
 0001:0000b630       ?AllocateBlock@?$MMap@PAUHWND__@@PAVCDynDialog@@$0A@@@IAEPAUMapItems@1@XZ 0040c630 f i DynDialog.obj
 0001:0000b630       ?AllocateBlock@?$MMap@PAUHWND__@@PAVCVirtualConsole@@$0A@@@IAEPAUMapItems@1@XZ 0040c630 f i ConEmuApp.obj
 0001:0000b630       ?AllocateBlock@?$MMap@PAUHWND__@@PAVCFindPanel@@$0A@@@IAEPAUMapItems@1@XZ 0040c630 f i FindPanel.obj
 0001:0000b630       ?AllocateBlock@?$MMap@PAUHWND__@@P6GJPAU1@IIJ@Z$0A@@@IAEPAUMapItems@1@XZ 0040c630 f i SetDlgColors.obj
 0001:0000b630       ?AllocateBlock@?$MMap@KH$0A@@@IAEPAUMapItems@1@XZ 0040c630 f i RealConsole.obj
 0001:0000b663       ?AppendExtraArgs@CConEmuMain@@QAEXPB_W0@Z 0040c663 f   ConEmu.obj
 0001:0000b6d2       ?AppendHKL@CConEmuMain@@IAEXPA_WIPAPAUHKL__@@H@Z 0040c6d2 f   ConEmu.obj
 0001:0000b745       ?AppendRegisteredLayouts@CConEmuMain@@IAEXPA_WI@Z 0040c745 f   ConEmu.obj
 0001:0000b7ce       ?AskChangeAlternative@CConEmuMain@@QAEXXZ 0040c7ce f   ConEmu.obj
 0001:0000b856       ?AskChangeBufferHeight@CConEmuMain@@QAEXXZ 0040c856 f   ConEmu.obj
 0001:0000b91a       ?AttachToDialog@CConEmuMain@@QAEXXZ 0040c91a f   ConEmu.obj
 0001:0000b964       ?CallMainThread@CConEmuMain@@QAEJ_NP6AJJ@ZJ@Z 0040c964 f   ConEmu.obj
 0001:0000b9fb       ?CanSetChildFocus@CConEmuMain@@QAE_NXZ 0040c9fb f   ConEmu.obj
 0001:0000ba07       ?ChangeWorkDir@CConEmuMain@@QAE_NPB_W@Z 0040ca07 f   ConEmu.obj
 0001:0000ba42       ?CheckActiveLayoutName@CConEmuMain@@IAEXXZ 0040ca42 f   ConEmu.obj
 0001:0000bbe2       ?CheckAllowAutoChildFocus@CConEmuMain@@QAEXK@Z 0040cbe2 f   ConEmu.obj
 0001:0000bc82       ?CheckBaseDir@CConEmuMain@@AAE_NXZ 0040cc82 f   ConEmu.obj
 0001:0000bd07       ?CheckDosBoxExists@CConEmuMain@@QAE_NXZ 0040cd07 f   ConEmu.obj
 0001:0000bd8c       ?CheckFocus@CConEmuMain@@QAEXPB_W@Z 0040cd8c f   ConEmu.obj
 0001:0000c04c       ?CheckForeground@CDefTermBase@@QAE_NPAUHWND__@@K_N1@Z 0040d04c f i ConEmu.obj
 0001:0000c480       ?CheckNeedRepaint@CConEmuMain@@QAEXXZ 0040d480 f   ConEmu.obj
 0001:0000c4f1       ?CheckNeedUpdateTitle@CConEmuMain@@QAEXPB_W@Z 0040d4f1 f   ConEmu.obj
 0001:0000c54c       ?CheckPanelDrag@CConEmuMain@@QAE?AW4DragPanelBorder@@U_COORD@@@Z 0040d54c f   ConEmu.obj
 0001:0000c78f       ?CheckRequiredFiles@CConEmuMain@@QAE_NXZ 0040d78f f   ConEmu.obj
 0001:0000cb63       ?CheckShellWindow@CDefTermBase@@IAE_NXZ 0040db63 f i ConEmu.obj
 0001:0000ccb6       ?CheckUpdates@CConEmuMain@@QAE_NI@Z 0040dcb6 f   ConEmu.obj
 0001:0000cd16       ?ClearProcessed@CDefTermBase@@IAEX_N@Z 0040dd16 f i ConEmu.obj
 0001:0000cde6       ?CloseConfirmFlags@CConEmuMain@@QAEEXZ 0040dde6 f   ConEmu.obj
 0001:0000cdfe       ?CloseMap@?$MFileMapping@UCESERVER_CONSAVE_MAPHDR@@@@QAEXXZ 0040ddfe f i RealConsole.obj
 0001:0000cdfe       ?CloseMap@?$MFileMapping@UPanelViewSetMapping@@@@QAEXXZ 0040ddfe f i OptionsClass.obj
 0001:0000cdfe       ?CloseMap@?$MFileMapping@UConEmuGuiMapping@@@@QAEXXZ 0040ddfe f i ConEmu.obj
 0001:0000cdfe       ?CloseMap@?$MFileMapping@UCESERVER_CONSAVE_MAP@@@@QAEXXZ 0040ddfe f i RealConsole.obj
 0001:0000cdfe       ?CloseMap@?$MFileMapping@UCESERVER_CONSOLE_APP_MAPPING@@@@QAEXXZ 0040ddfe f i RealConsole.obj
 0001:0000cdfe       ?CloseMap@?$MFileMapping@UAnnotationHeader@@@@QAEXXZ 0040ddfe f i RealConsole.obj
 0001:0000cdfe       ?CloseMap@?$MFileMapping@UCESERVER_CONSOLE_MAPPING_HDR@@@@QAEXXZ 0040ddfe f i RealConsole.obj
 0001:0000cdfe       ?CloseMap@?$MFileMapping@Utag_DetectedDialog@@@@QAEXXZ 0040ddfe f i VirtualConsole.obj
 0001:0000cdfe       ?CloseMap@?$MFileMapping@$$CBUCEFAR_INFO_MAPPING@@@@QAEXXZ 0040ddfe f i RealConsole.obj
 0001:0000ce2f       ?ClosePtr@?$MFileMapping@UPanelViewSetMapping@@@@QAEXXZ 0040de2f f i OptionsClass.obj
 0001:0000ce2f       ?ClosePtr@?$MFileMapping@UCESERVER_CONSOLE_APP_MAPPING@@@@QAEXXZ 0040de2f f i RealConsole.obj
 0001:0000ce2f       ?ClosePtr@?$MFileMapping@UConEmuGuiMapping@@@@QAEXXZ 0040de2f f i ConEmu.obj
 0001:0000ce2f       ?ClosePtr@?$MFileMapping@UCESERVER_CONSOLE_MAPPING_HDR@@@@QAEXXZ 0040de2f f i RealConsole.obj
 0001:0000ce2f       ?ClosePtr@?$MFileMapping@UAnnotationHeader@@@@QAEXXZ 0040de2f f i RealConsole.obj
 0001:0000ce2f       ?ClosePtr@?$MFileMapping@Utag_DetectedDialog@@@@QAEXXZ 0040de2f f i VirtualConsole.obj
 0001:0000ce2f       ?ClosePtr@?$MFileMapping@$$CBUCEFAR_INFO_MAPPING@@@@QAEXXZ 0040de2f f i RealConsole.obj
 0001:0000ce2f       ?ClosePtr@?$MFileMapping@UCESERVER_CONSAVE_MAP@@@@QAEXXZ 0040de2f f i RealConsole.obj
 0001:0000ce2f       ?ClosePtr@?$MFileMapping@UCESERVER_CONSAVE_MAPHDR@@@@QAEXXZ 0040de2f f i RealConsole.obj
 0001:0000ce47       ?ConActivate@CConEmuMain@@QAE_NH@Z 0040de47 f   ConEmu.obj
 0001:0000ce57       ?ConActivateByName@CConEmuMain@@QAE_NPB_W@Z 0040de57 f   ConEmu.obj
 0001:0000ce67       ?ConActivateNext@CConEmuMain@@QAE_N_N@Z 0040de67 f   ConEmu.obj
 0001:0000ce77       ?ConEmuCExeFull@CConEmuMain@@QAEPB_WPB_W@Z 0040de77 f   ConEmu.obj
 0001:0000d2c3       ?ConEmuIni@CConEmuMain@@QAEPA_WXZ 0040e2c3 f   ConEmu.obj
 0001:0000d3a8       ?ConEmuXml@CConEmuMain@@QAEPA_WPA_N@Z 0040e3a8 f   ConEmu.obj
 0001:0000d455       ?CreateCon@CConEmuMain@@QAEPAVCVirtualConsole@@PAURConStartArgsEx@@_N1@Z 0040e455 f   ConEmu.obj
 0001:0000d47a       ?CreateConGroup@CConEmuMain@@QAEPAVCVirtualConsole@@PB_W_N0PBURConStartArgsEx@@@Z 0040e47a f   ConEmu.obj
 0001:0000d8fa       ?CreateGhostVCon@CConEmuMain@@QAEXPAVCVirtualConsole@@@Z 0040e8fa f   ConEmu.obj
 0001:0000d918       ?CreateGuiAttachMapping@CConEmuMain@@QAEXK@Z 0040e918 f   ConEmu.obj
 0001:0000d964       ?CreateLog@CConEmuMain@@QAE_NXZ 0040e964 f   ConEmu.obj
 0001:0000da7b       ?CreateMainWindow@CConEmuMain@@QAEHXZ 0040ea7b f   ConEmu.obj
 0001:0000e0c7       ?CreateStartupConsoles@CConEmuMain@@IAE_NXZ 0040f0c7 f   ConEmu.obj
 0001:0000e457       ?CreateWnd@CConEmuMain@@QAE_NPAURConStartArgsEx@@@Z 0040f457 f   ConEmu.obj
 0001:0000e702       ?CreateWorkWindow@CConEmuMain@@QAEHXZ 0040f702 f   ConEmu.obj
 0001:0000e7b1       ?CtrlWinAltSpace@CConEmuMain@@QAEXXZ 0040f7b1 f   ConEmu.obj
 0001:0000e803       ?DebugStep@CConEmuMain@@QAEXPB_WH@Z 0040f803 f   ConEmu.obj
 0001:0000e8a4       ?DeinitOnDestroy@CConEmuMain@@AAEXPAUHWND__@@_N@Z 0040f8a4 f   ConEmu.obj
 0001:0000ea2a       ?DeleteVConMainThread@CConEmuMain@@QAEXPAVCVirtualConsole@@@Z 0040fa2a f   ConEmu.obj
 0001:0000ea48       ?Destroy@CConEmuMain@@QAEX_N@Z 0040fa48 f   ConEmu.obj
 0001:0000eafc       ?DestroyAllChildWindows@CConEmuMain@@AAEXXZ 0040fafc f   ConEmu.obj
 0001:0000eb65       ?Disable@MWow64Disable@@QAEXXZ 0040fb65 f i ConEmu.obj
 0001:0000eb7f       ?DoFlashWindow@CConEmuMain@@QAEXPAUCESERVER_REQ_FLASHWINFO@@_N@Z 0040fb7f f   ConEmu.obj
 0001:0000ec06       ?EnterAltNumpadMode@CConEmuMain@@QAEXI@Z 0040fc06 f   ConEmu.obj
 0001:0000ec4c       ?EnumKeysValues@?$MMap@IPBD$0A@@@QAE_NP6A_NABIABQBDJ@ZJ@Z 0040fc4c f i ConEmu.obj
 0001:0000ecce       ?EnumWindowsOverQuake@CConEmuMain@@KGHPAUHWND__@@J@Z 0040fcce f   ConEmu.obj
 0001:0000edd4       ?ExecPostGuiMacro@CConEmuMain@@QAEXXZ 0040fdd4 f   ConEmu.obj
 0001:0000eef6       ?ExecuteProcessPrepare@CConEmuMain@@IAE_NXZ 0040fef6 f   ConEmu.obj
 0001:0000eef6       ?isLogging@CDefTermBase@@UAE_NXZ 0040fef6 f   DefaultTerm.obj
 0001:0000efa3       ?FillConEmuMainFont@CConEmuMain@@AAEXPAUConEmuMainFont@@@Z 0040ffa3 f   ConEmu.obj
 0001:0000f055       ?FindBlockItem@?$MMap@PAUHWND__@@PAVCDynDialog@@$0A@@@IAE_NABQAUHWND__@@AAPAUMapItems@1@AAPAUMapItem@1@@Z 00410055 f i DynDialog.obj
 0001:0000f055       ?FindBlockItem@?$MMap@KH$0A@@@IAE_NABKAAPAUMapItems@1@AAPAUMapItem@1@@Z 00410055 f i RealConsole.obj
 0001:0000f055       ?FindBlockItem@?$MMap@PAUHWND__@@PAVCVirtualConsole@@$0A@@@IAE_NABQAUHWND__@@AAPAUMapItems@1@AAPAUMapItem@1@@Z 00410055 f i VConChild.obj
 0001:0000f055       ?FindBlockItem@?$MMap@HPAV?$MArray@UDlgItem@CDpiForDialog@@@@$0A@@@IAE_NABHAAPAUMapItems@1@AAPAUMapItem@1@@Z 00410055 f i DpiAware.obj
 0001:0000f055       ?FindBlockItem@?$MMap@PAUHWND__@@PAVCFindPanel@@$0A@@@IAE_NABQAUHWND__@@AAPAUMapItems@1@AAPAUMapItem@1@@Z 00410055 f i FindPanel.obj
 0001:0000f055       ?FindBlockItem@?$MMap@IPBD$0A@@@IAE_NABIAAPAUMapItems@1@AAPAUMapItem@1@@Z 00410055 f i ConEmu.obj
 0001:0000f055       ?FindBlockItem@?$MMap@PAUHWND__@@P6GJPAU1@IIJ@Z$0A@@@IAE_NABQAUHWND__@@AAPAUMapItems@1@AAPAUMapItem@1@@Z 00410055 f i SetDlgColors.obj
 0001:0000f055       ?FindBlockItem@?$MMap@PAVCVConGroup@@PAVCVirtualConsole@@$0A@@@IAE_NABQAVCVConGroup@@AAPAUMapItems@1@AAPAUMapItem@1@@Z 00410055 f i TabBar.obj
 0001:0000f0b5       ?FindConEmuXml@CConEmuMain@@QAEPB_WAAUCEStr@@@Z 004100b5 f   ConEmu.obj
 0001:0000f238       ?FixWindowStyle@CConEmuMain@@QAEKKW4ConEmuWindowMode@@@Z 00410238 f   ConEmu.obj
 0001:0000f2ef       ?ForceSelectionModifierPressed@CConEmuMain@@QAEXK@Z 004102ef f   ConEmu.obj
 0001:0000f309       ?ForceShowTabs@CConEmuMain@@QAEXH@Z 00410309 f   ConEmu.obj
 0001:0000f36a       ?Get@?$MMap@PAVCVConGroup@@PAVCVirtualConsole@@$0A@@@QAE_NABQAVCVConGroup@@PAPAVCVirtualConsole@@_N@Z 0041036a f i TabBar.obj
 0001:0000f36a       ?Get@?$MMap@IPBD$0A@@@QAE_NABIPAPBD_N@Z 0041036a f i ConEmu.obj
 0001:0000f36a       ?Get@?$MMap@HPAV?$MArray@UDlgItem@CDpiForDialog@@@@$0A@@@QAE_NABHPAPAV?$MArray@UDlgItem@CDpiForDialog@@@@_N@Z 0041036a f i DpiAware.obj
 0001:0000f36a       ?Get@?$MMap@PAUHWND__@@PAVCFindPanel@@$0A@@@QAE_NABQAUHWND__@@PAPAVCFindPanel@@_N@Z 0041036a f i FindPanel.obj
 0001:0000f36a       ?Get@?$MMap@PAUHWND__@@P6GJPAU1@IIJ@Z$0A@@@QAE_NABQAUHWND__@@PAP6GJPAU2@IIJ@Z_N@Z 0041036a f i SetDlgColors.obj
 0001:0000f36a       ?Get@?$MMap@PAUHWND__@@PAVCVirtualConsole@@$0A@@@QAE_NABQAUHWND__@@PAPAVCVirtualConsole@@_N@Z 0041036a f i VConChild.obj
 0001:0000f36a       ?Get@?$MMap@PAUHWND__@@PAVCDynDialog@@$0A@@@QAE_NABQAUHWND__@@PAPAVCDynDialog@@_N@Z 0041036a f i DynDialog.obj
 0001:0000f36a       ?Get@?$MMap@KH$0A@@@QAE_NABKPAH_N@Z 0041036a f i RealConsole.obj
 0001:0000f3c3       ?GetActiveKeyboardLayout@CConEmuMain@@QAEKXZ 004103c3 f   ConEmu.obj
 0001:0000f3d0       ?GetActiveVCon@CConEmuMain@@QAEHPAVCVConGuard@@PAH@Z 004103d0 f   ConEmu.obj
 0001:0000f3e4       ?GetComSpecCopy@CConEmuMain@@QAEXAAUConEmuComspec@@@Z 004103e4 f   ConEmu.obj
 0001:0000f3ff       ?GetConCount@CConEmuMain@@QAEHXZ 004103ff f   ConEmu.obj
 0001:0000f408       ?GetCurrentVConIcon@CConEmuMain@@QAEPAUHICON__@@XZ 00410408 f   ConEmu.obj
 0001:0000f46c       ?GetDefaultTabLabel@CConEmuMain@@QAEPB_WXZ 0041046c f   ConEmu.obj
 0001:0000f472       ?GetDefaultTitle@CConEmuMain@@QAEPB_WXZ 00410472 f   ConEmu.obj
 0001:0000f479       ?GetEnvironmentVariables@CConEmuMain@@QBE?AV?$shared_ptr@USystemEnvironment@@@std@@XZ 00410479 f   ConEmu.obj
 0001:0000f4c1       ?GetFarPID@CConEmuMain@@QAEK_N@Z 004104c1 f   ConEmu.obj
 0001:0000f4d1       ?GetGuiInfo@CConEmuMain@@QAEXAAUConEmuGuiMapping@@@Z 004104d1 f   ConEmu.obj
 0001:0000f4ef       ?GetLastTitle@CConEmuMain@@QAEPB_W_N@Z 004104ef f   ConEmu.obj
 0001:0000f519       ?GetRegisteredMessage@CConEmuMain@@QAEIPBDPB_W@Z 00410519 f   ConEmu.obj
 0001:0000f55a       ?GetRootHWND@CConEmuMain@@QAEPAUHWND__@@XZ 0041055a f   ConEmu.obj
 0001:0000f578       ?GetStartupStage@CConEmuMain@@QBE?AW4StartupStage@1@XZ 00410578 f   ConEmu.obj
 0001:0000f57f       ?GetWindowStyle@CConEmuMain@@QAEKXZ 0041057f f   ConEmu.obj
 0001:0000f59b       ?GetWindowStyleEx@CConEmuMain@@QAEKXZ 0041059b f   ConEmu.obj
 0001:0000f5de       ?GlobalHotKeyChanged@CConEmuMain@@QAEXXZ 004105de f   ConEmu.obj
 0001:0000f606       ?InCreateWindow@CConEmuMain@@QAE_NXZ 00410606 f   ConEmu.obj
 0001:0000f611       ?InQuakeAnimation@CConEmuMain@@QAE_NXZ 00410611 f   ConEmu.obj
 0001:0000f61c       ?Init@?$MMap@PAVCVConGroup@@PAVCVirtualConsole@@$0A@@@QAE_NI_N@Z 0041061c f i TabBar.obj
 0001:0000f61c       ?Init@?$MMap@PAUHWND__@@PAVCDynDialog@@$0A@@@QAE_NI_N@Z 0041061c f i DynDialog.obj
 0001:0000f61c       ?Init@?$MMap@IPBD$0A@@@QAE_NI_N@Z 0041061c f i ConEmu.obj
 0001:0000f61c       ?Init@?$MMap@PAUHWND__@@PAVCVirtualConsole@@$0A@@@QAE_NI_N@Z 0041061c f i ConEmuApp.obj
 0001:0000f654       ?Init@CConEmuMain@@QAEHXZ  00410654 f   ConEmu.obj
 0001:0000f6fe       ?InitComSpecStr@CConEmuMain@@QAEXAAUConEmuComspec@@@Z 004106fe f   ConEmu.obj
 0001:0000f737       ?InitInactiveDC@CConEmuMain@@QAEXPAVCVirtualConsole@@@Z 00410737 f   ConEmu.obj
 0001:0000f755       ?InitName@?$MFileMapping@$$CBUCEFAR_INFO_MAPPING@@@@QAEPB_WPB_WKK@Z 00410755 f i RealConsole.obj
 0001:0000f755       ?InitName@?$MFileMapping@UConEmuGuiMapping@@@@QAEPB_WPB_WKK@Z 00410755 f i ConEmu.obj
 0001:0000f755       ?InitName@?$MFileMapping@UCESERVER_CONSOLE_MAPPING_HDR@@@@QAEPB_WPB_WKK@Z 00410755 f i RealConsole.obj
 0001:0000f755       ?InitName@?$MFileMapping@UAnnotationHeader@@@@QAEPB_WPB_WKK@Z 00410755 f i RealConsole.obj
 0001:0000f755       ?InitName@?$MFileMapping@UCESERVER_CONSAVE_MAPHDR@@@@QAEPB_WPB_WKK@Z 00410755 f i RealConsole.obj
 0001:0000f755       ?InitName@?$MFileMapping@UCESERVER_CONSOLE_APP_MAPPING@@@@QAEPB_WPB_WKK@Z 00410755 f i RealConsole.obj
 0001:0000f755       ?InitName@?$MFileMapping@UCESERVER_CONSAVE_MAP@@@@QAEPB_WPB_WKK@Z 00410755 f i RealConsole.obj
 0001:0000f755       ?InitName@?$MFileMapping@UPanelViewSetMapping@@@@QAEPB_WPB_WKK@Z 00410755 f i OptionsClass.obj
 0001:0000f755       ?InitName@?$MFileMapping@Utag_DetectedDialog@@@@QAEPB_WPB_WKK@Z 00410755 f i VirtualConsole.obj
 0001:0000f786       ?InternalOpenCreate@?$MFileMapping@UConEmuGuiMapping@@@@IAEPAUConEmuGuiMapping@@HHH@Z 00410786 f i ConEmu.obj
 0001:0000f8a0       ?Invalidate@CConEmuMain@@QAEXPAUtagRECT@@H@Z 004108a0 f   ConEmu.obj
 0001:0000f8b9       ?InvalidateAll@CConEmuMain@@QAEXXZ 004108b9 f   ConEmu.obj
 0001:0000f8e6       ?InvalidateFrame@CConEmuMain@@QAEXXZ 004108e6 f   ConEmu.obj
 0001:0000f984       ?InvalidateGaps@CConEmuMain@@QAEXXZ 00410984 f   ConEmu.obj
 0001:0000f99a       ?IsActiveConAdmin@CConEmuMain@@QAE_NXZ 0041099a f   ConEmu.obj
 0001:0000f9ee       ?IsAllowSaveSettingsOnExit@CConEmuMain@@QAE_NXZ 004109ee f   ConEmu.obj
 0001:0000fa16       ?IsAppMonitored@CDefTermBase@@QAE_NPAUHWND__@@K_NPAUtagPROCESSENTRY32W@@PA_W@Z 00410a16 f i ConEmu.obj
 0001:0000fc0f       ?IsAppMonitored@CDefTermBase@@QAE_NPB_W@Z 00410c0f f i ConEmu.obj
 0001:0000fc4b       ?IsChildFocusAllowed@CConEmuMain@@QAE_NPAUHWND__@@@Z 00410c4b f   ConEmu.obj
 0001:0000fcd1       ?IsConsoleBatchOrTask@CConEmuMain@@SA_WPB_W@Z 00410cd1 f   ConEmu.obj
 0001:0000fd54       ?IsExplorerWindowClass@CDefTermBase@@SA_NPB_W@Z 00410d54 f i ConEmu.obj
 0001:0000fd89       ?IsFastSetupDisabled@CConEmuMain@@QAE_NXZ 00410d89 f   ConEmu.obj
 0001:0000fda6       ?IsKeyboardHookRegistered@CConEmuMain@@QAE_NXZ 00410da6 f   ConEmu.obj
 0001:0000fdb1       ?IsQuakeVisible@CConEmuMain@@QAEIXZ 00410db1 f   ConEmu.obj
 0001:0000ff29       ?IsReady@CDefTermBase@@QAE_NXZ 00410f29 f i ConEmu.obj
 0001:0000ff3f       ?IsResetBasicSettings@CConEmuMain@@QAE_NXZ 00410f3f f   ConEmu.obj
 0001:0000ff4b       ?IsShellTrayWindowClass@CDefTermBase@@SA_NPB_W@Z 00410f4b f i ConEmu.obj
 0001:0000ff6e       ?IsWindowResponsive@CDefTermBase@@SA_NPAUHWND__@@@Z 00410f6e f i ConEmu.obj
 0001:0000ff94       ?LoadConEmuCD@CConEmuMain@@IAEPAUHINSTANCE__@@XZ 00410f94 f   ConEmu.obj
 0001:00010029       ?LoadConsoleBatch@CConEmuMain@@QAEPA_WPB_WPAURConStartArgsEx@@@Z 00411029 f   ConEmu.obj
 0001:00010109       ?LoadConsoleBatch_Drops@CConEmuMain@@AAEPA_WPB_W@Z 00411109 f   ConEmu.obj
 0001:0001061a       ?LoadConsoleBatch_File@CConEmuMain@@AAEPA_WPB_W@Z 0041161a f   ConEmu.obj
 0001:00010847       ?LoadConsoleBatch_Task@CConEmuMain@@AAEPA_WPB_WPAURConStartArgsEx@@@Z 00411847 f   ConEmu.obj
 0001:00010c3a       ?LoadIcons@CConEmuMain@@QAEXXZ 00411c3a f   ConEmu.obj
 0001:00010f1b       ?LockConhostStart@CConEmuMain@@QAE_NXZ 00411f1b f   ConEmu.obj
 0001:00010f62       ?Log@ConEmuMsgLogger@@YAXABUtagMSG@@W4Source@1@@Z 00411f62 f i ConEmu.obj
 0001:00010fbf       ?Log@SessionInfo@CConEmuMain@@QAEXIJ@Z 00411fbf f   ConEmu.obj
 0001:00011001       ?LogFocusInfo@@YAXPB_WH@Z  00412001 f   ConEmu.obj
 0001:000110aa       ?LogMessage@CConEmuMain@@QAE_NPAUHWND__@@IIJ@Z 004120aa f   ConEmu.obj
 0001:00011499       ?LogPos@ConEmuMsgLogger@@YAXABUtagMSG@@W4Source@1@@Z 00412499 f   ConEmu.obj
 0001:000115f6       ?LogString@CConEmuMain@@QAE_NPBD_N1@Z 004125f6 f   ConEmu.obj
 0001:00011623       ?LogString@CConEmuMain@@QAE_NPB_W_N1@Z 00412623 f   ConEmu.obj
 0001:0001164e       ?LogWindowPos@CConEmuMain@@QAE_NPB_WPAUtagRECT@@@Z 0041264e f   ConEmu.obj
 0001:00011801       ?MainWndProc@CConEmuMain@@SGJPAUHWND__@@IIJ@Z 00412801 f   ConEmu.obj
 0001:000118d5       ?MakeConEmuStartArgs@CConEmuMain@@QAEPB_WAAUCEStr@@PB_W@Z 004128d5 f   ConEmu.obj
 0001:00011aaa       ?MemoryDumpActiveProcess@CConEmuMain@@QAE_N_N@Z 00412aaa f   ConEmu.obj
 0001:00011b54       ?MoveActiveTab@CConEmuMain@@QAEXPAVCVirtualConsole@@_N@Z 00412b54 f   ConEmu.obj
 0001:00011b68       ?OnActivateByMouse@CConEmuMain@@QAEJPAUHWND__@@IIJ@Z 00412b68 f   ConEmu.obj
 0001:00011e2b       ?OnActivateSplitChanged@CConEmuMain@@QAEXXZ 00412e2b f   ConEmu.obj
 0001:00011e9f       ?OnActiveConWndStore@CConEmuMain@@QAEXPAUHWND__@@@Z 00412e9f f   ConEmu.obj
 0001:00011ef2       ?OnAllGhostClosed@CConEmuMain@@QAEXXZ 00412ef2 f   ConEmu.obj
 0001:00011f64       ?OnAllVConClosed@CConEmuMain@@QAEXXZ 00412f64 f   ConEmu.obj
 0001:0001202a       ?OnAlwaysShowScrollbar@CConEmuMain@@QAEX_N@Z 0041302a f   ConEmu.obj
 0001:0001203a       ?OnBufferHeight@CConEmuMain@@QAEXXZ 0041303a f   ConEmu.obj
 0001:000120f9       ?OnCreate@CConEmuMain@@QAEJPAUHWND__@@PAUtagCREATESTRUCTW@@@Z 004130f9 f   ConEmu.obj
 0001:00012227       ?OnCreateFinished@CConEmuMain@@QAEXXZ 00413227 f   ConEmu.obj
 0001:00012350       ?OnDefaultTermChanged@CConEmuMain@@QAEXXZ 00413350 f   ConEmu.obj
 0001:00012378       ?OnDestroy@CConEmuMain@@QAEJPAUHWND__@@@Z 00413378 f   ConEmu.obj
 0001:0001241a       ?OnFlashWindow@CConEmuMain@@QAEJIJ@Z 0041341a f   ConEmu.obj
 0001:00012446       ?OnFocus@CConEmuMain@@QAEJPAUHWND__@@IIJPB_W_N@Z 00413446 f   ConEmu.obj
 0001:00013119       ?OnGhostCreated@CConEmuMain@@QAEXPAVCVirtualConsole@@PAUHWND__@@@Z 00414119 f   ConEmu.obj
 0001:0001319c       ?OnGlobalSettingsChanged@CConEmuMain@@QAEXXZ 0041419c f   ConEmu.obj
 0001:000131b7       ?OnHookedListChanged@CDefTermBase@@QAEXXZ 004141b7 f i ConEmu.obj
 0001:00013215       ?OnKeyboard@CConEmuMain@@QAEJPAUHWND__@@IIJ@Z 00414215 f   ConEmu.obj
 0001:0001397e       ?OnKeyboardHook@CConEmuMain@@QAEJK@Z 0041497e f   ConEmu.obj
 0001:00013a0b       ?OnKeyboardIme@CConEmuMain@@QAEJPAUHWND__@@IIJ@Z 00414a0b f   ConEmu.obj
 0001:00013c10       ?OnLangChange@CConEmuMain@@QAEJIIJ@Z 00414c10 f   ConEmu.obj
 0001:00013e0c       ?OnLangChangeConsole@CConEmuMain@@QAEJPAVCVirtualConsole@@K@Z 00414e0c f   ConEmu.obj
 0001:000143fa       ?OnMainCreateFinished@CConEmuMain@@IAEXXZ 004153fa f   ConEmu.obj
 0001:00014604       ?OnMouse@CConEmuMain@@QAEJPAUHWND__@@IIJ@Z 00415604 f   ConEmu.obj
 0001:00015554       ?OnMouse_LBtnDblClk@CConEmuMain@@QAEJPAVCVirtualConsole@@PAUHWND__@@AAIIJUtagPOINT@@U_COORD@@@Z 00416554 f   ConEmu.obj
 0001:00015688       ?OnMouse_LBtnDown@CConEmuMain@@QAEJPAVCVirtualConsole@@PAUHWND__@@IIJUtagPOINT@@U_COORD@@@Z 00416688 f   ConEmu.obj
 0001:000158c0       ?OnMouse_LBtnUp@CConEmuMain@@QAEJPAVCVirtualConsole@@PAUHWND__@@IIJUtagPOINT@@U_COORD@@@Z 004168c0 f   ConEmu.obj
 0001:00015958       ?OnMouse_Move@CConEmuMain@@QAEJPAVCVirtualConsole@@PAUHWND__@@IIJUtagPOINT@@U_COORD@@@Z 00416958 f   ConEmu.obj
 0001:00015d6c       ?OnMouse_NCBtnDblClk@CConEmuMain@@QAEHPAUHWND__@@AAIIJ@Z 00416d6c f   ConEmu.obj
 0001:00015db7       ?OnMouse_RBtnDblClk@CConEmuMain@@QAEJPAVCVirtualConsole@@PAUHWND__@@AAIIJUtagPOINT@@U_COORD@@@Z 00416db7 f   ConEmu.obj
 0001:00015dde       ?OnMouse_RBtnDown@CConEmuMain@@QAEJPAVCVirtualConsole@@PAUHWND__@@IIJUtagPOINT@@U_COORD@@@Z 00416dde f   ConEmu.obj
 0001:0001601c       ?OnMouse_RBtnUp@CConEmuMain@@QAEJPAVCVirtualConsole@@PAUHWND__@@IIJUtagPOINT@@U_COORD@@@Z 0041701c f   ConEmu.obj
 0001:00016591       ?OnOurDialogClosed@CConEmuMain@@QAEXXZ 00417591 f   ConEmu.obj
 0001:00016599       ?OnOurDialogOpened@CConEmuMain@@QAEXXZ 00417599 f   ConEmu.obj
 0001:000165a1       ?OnPanelViewSettingsChanged@CConEmuMain@@QAEXH@Z 004175a1 f   ConEmu.obj
 0001:00016673       ?OnQueryEndSession@CConEmuMain@@QAEJPAUHWND__@@IIJ@Z 00417673 f   ConEmu.obj
 0001:00016701       ?OnRConStartedSuccess@CConEmuMain@@QAEXPAVCRealConsole@@@Z 00417701 f   ConEmu.obj
 0001:0001671c       ?OnScClose@CConEmuMain@@QAE_NXZ 0041771c f   ConEmu.obj
 0001:0001674d       ?OnSessionChanged@CConEmuMain@@QAEJPAUHWND__@@IIJ@Z 0041774d f   ConEmu.obj
 0001:000168e1       ?OnSetCursor@CConEmuMain@@QAEJIJ@Z 004178e1 f   ConEmu.obj
 0001:00016d85       ?OnShellHook@CConEmuMain@@QAEJIJ@Z 00417d85 f   ConEmu.obj
 0001:00016ea5       ?OnSwitchGuiFocus@CConEmuMain@@QAEXW4SwitchGuiFocusOp@@@Z 00417ea5 f   ConEmu.obj
 0001:00016f79       ?OnTabbarActivated@CConEmuMain@@QAEX_N0@Z 00417f79 f   ConEmu.obj
 0001:00017182       ?OnTaskbarButtonCreated@CConEmuMain@@QAEXXZ 00418182 f   ConEmu.obj
 0001:000171fd       ?OnTaskbarCreated@CConEmuMain@@QAEXXZ 004181fd f   ConEmu.obj
 0001:00017248       ?OnTaskbarSettingsChanged@CConEmuMain@@QAEXXZ 00418248 f   ConEmu.obj
 0001:000172f4       ?OnTimer@CConEmuMain@@QAEJIJ@Z 004182f4 f   ConEmu.obj
 0001:000173cf       ?OnTimer_ActivateSplit@CConEmuMain@@QAEXXZ 004183cf f   ConEmu.obj
 0001:000175ef       ?OnTimer_AdmShield@CConEmuMain@@QAEXXZ 004185ef f   ConEmu.obj
 0001:00017658       ?OnTimer_Background@CConEmuMain@@QAEXXZ 00418658 f   ConEmu.obj
 0001:00017680       ?OnTimer_ConRedraw@CConEmuMain@@QAEXPAVCVirtualConsole@@@Z 00418680 f   ConEmu.obj
 0001:000176a9       ?OnTimer_FrameAppearDisappear@CConEmuMain@@QAEXI@Z 004186a9 f   ConEmu.obj
 0001:000176e6       ?OnTimer_Main@CConEmuMain@@QAEXPAVCVirtualConsole@@@Z 004186e6 f   ConEmu.obj
 0001:00017c13       ?OnTimer_QuakeFocus@CConEmuMain@@QAEXXZ 00418c13 f   ConEmu.obj
 0001:00017caf       ?OnTransparent@CConEmuMain@@QAEXXZ 00418caf f   ConEmu.obj
 0001:00017cdd       ?OnTransparent@CConEmuMain@@QAEX_N0@Z 00418cdd f   ConEmu.obj
 0001:00017deb       ?OnTransparentSeparate@CConEmuMain@@QAEX_N@Z 00418deb f   ConEmu.obj
 0001:00017e28       ?OnUpdateScrollInfo@CConEmuMain@@QAEJH@Z 00418e28 f   ConEmu.obj
 0001:00017e54       ?OnVConCreated@CConEmuMain@@QAEXPAVCVirtualConsole@@PBURConStartArgsEx@@@Z 00418e54 f   ConEmu.obj
 0001:00017eab       ?OnWmHotkey@CConEmuMain@@QAEXIK@Z 00418eab f   ConEmu.obj
 0001:0001802a       ?ParseScriptLineOptions@CConEmuMain@@QAEPB_WPB_WPA_NPAURConStartArgsEx@@@Z 0041902a f   ConEmu.obj
 0001:00018392       ?PatchMouseEvent@CConEmuMain@@IAE_NIAAUtagPOINT@@0IAA_N@Z 00419392 f   ConEmu.obj
 0001:00018672       ?PostChangeCurPalette@CConEmuMain@@QAEXPB_W_N1@Z 00419672 f   ConEmu.obj
 0001:000186b5       ?PostCheckThread@CDefTermBase@@KGKPAX@Z 004196b5 f i ConEmu.obj
 0001:000186fe       ?PostCreate@CConEmuMain@@QAEX_N@Z 004196fe f   ConEmu.obj
 0001:00018b22       ?PostCreateCon@CConEmuMain@@QAEXPAURConStartArgsEx@@@Z 00419b22 f   ConEmu.obj
 0001:00018b4c       ?PostCreateView@CConEmuMain@@QAEPAUHWND__@@PAVCConEmuChild@@@Z 00419b4c f   ConEmu.obj
 0001:00018b86       ?PostDisplayRConError@CConEmuMain@@QAEXPAVCRealConsole@@PA_W@Z 00419b86 f   ConEmu.obj
 0001:00018bb7       ?PostDragCopy@CConEmuMain@@QAEX_N0@Z 00419bb7 f   ConEmu.obj
 0001:00018c23       ?PostFontSetSize@CConEmuMain@@QAEXHH@Z 00419c23 f   ConEmu.obj
 0001:00018c42       ?PostMacro@CConEmuMain@@QAEXPB_W@Z 00419c42 f   ConEmu.obj
 0001:00018c98       ?PostMacroFontSetName@CConEmuMain@@QAEXPA_WGGH@Z 00419c98 f   ConEmu.obj
 0001:00018d0a       ?PostScClose@CConEmuMain@@QAEXXZ 00419d0a f   ConEmu.obj
 0001:00018d21       ?PreWndProc@CConEmuMain@@QAEXI@Z 00419d21 f   ConEmu.obj
 0001:00018d2b       ?RecheckForegroundWindow@CConEmuMain@@IAE_NPB_WPAPAUHWND__@@PAU2@@Z 00419d2b f   ConEmu.obj
 0001:00019063       ?RecreateAction@CConEmuMain@@QAE_NW4RecreateActionParm@@HW4RConBoolArg@@@Z 0041a063 f   ConEmu.obj
 0001:00019428       ?RecreateDlg@CConEmuMain@@QAEHPAURConStartArgsEx@@_N@Z 0041a428 f   ConEmu.obj
 0001:000194b9       ?RefreshWindowStyles@CConEmuMain@@QAEXXZ 0041a4b9 f   ConEmu.obj
 0001:000197c9       ?RegisterGlobalHotKeys@CConEmuMain@@IAEX_N@Z 0041a7c9 f   ConEmu.obj
 0001:00019985       ?RegisterHooks@CConEmuMain@@QAEXXZ 0041a985 f   ConEmu.obj
 0001:00019b41       ?RegisterHotKeys@CConEmuMain@@IAEXXZ 0041ab41 f   ConEmu.obj
 0001:00019b82       ?RegisterMessage@CConEmuMain@@AAEIPBDPB_W@Z 0041ab82 f   ConEmu.obj
 0001:00019bc6       ?RegisterMessages@CConEmuMain@@AAEXXZ 0041abc6 f   ConEmu.obj
 0001:00019eda       ?RegisterMinRestore@CConEmuMain@@QAEX_N@Z 0041aeda f   ConEmu.obj
 0001:0001a1dd       ?RegisterSshAgent@CConEmuMain@@QAEXK@Z 0041b1dd f   ConEmu.obj
 0001:0001a2ae       ?Release@?$MMap@PAUHWND__@@PAVCDynDialog@@$0A@@@QAEXXZ 0041b2ae f i DynDialog.obj
 0001:0001a2ae       ?Release@?$MMap@PAUHWND__@@PAVCFindPanel@@$0A@@@QAEXXZ 0041b2ae f i FindPanel.obj
 0001:0001a2ae       ?Release@?$MMap@PAUHWND__@@PAVCVirtualConsole@@$0A@@@QAEXXZ 0041b2ae f i ConEmuApp.obj
 0001:0001a2ae       ?Release@?$MMap@PAVCVConGroup@@PAVCVirtualConsole@@$0A@@@QAEXXZ 0041b2ae f i TabBar.obj
 0001:0001a2ae       ?Release@?$MMap@IPBD$0A@@@QAEXXZ 0041b2ae f i ConEmu.obj
 0001:0001a2ae       ?Release@?$MMap@KH$0A@@@QAEXXZ 0041b2ae f i RealConsole.obj
 0001:0001a2ae       ?Release@?$MMap@HPAV?$MArray@UDlgItem@CDpiForDialog@@@@$0A@@@QAEXXZ 0041b2ae f i DpiAware.obj
 0001:0001a2ae       ?Release@?$MMap@PAUHWND__@@P6GJPAU1@IIJ@Z$0A@@@QAEXXZ 0041b2ae f i SetDlgColors.obj
 0001:0001a2dd       ?ReleaseConhostDelay@CConEmuMain@@QAEXXZ 0041b2dd f   ConEmu.obj
 0001:0001a2e5       ?ReloadEnvironmentVariables@CConEmuMain@@QAEXXZ 0041b2e5 f   ConEmu.obj
 0001:0001a7b7       ?ReloadWheelScroll@MouseState@CConEmuMain@@QAEXXZ 0041b7b7 f i ConEmu.obj
 0001:0001a7fc       ?ReportOldCmdVersion@CConEmuMain@@QAEXKKHKPAXK@Z 0041b7fc f   ConEmu.obj
 0001:0001abbb       ?RequestPostUpdateTabs@CConEmuMain@@QAEXXZ 0041bbbb f   ConEmu.obj
 0001:0001abe8       ?Restore@MWow64Disable@@QAEXXZ 0041bbe8 f i ConEmu.obj
 0001:0001abff       ?RightClickingPaint@CConEmuMain@@QAEXPAUHDC__@@PAVCVirtualConsole@@@Z 0041bbff f   ConEmu.obj
 0001:0001af77       ?RightClickingProc@CConEmuMain@@KGJPAUHWND__@@IIJ@Z 0041bf77 f   ConEmu.obj
 0001:0001afe6       ?RunSingleInstance@CConEmuMain@@QAEHPAUHWND__@@PB_W@Z 0041bfe6 f   ConEmu.obj
 0001:0001b568       ?SessionChanged@SessionInfo@CConEmuMain@@QAEXIJ@Z 0041c568 f   ConEmu.obj
 0001:0001b582       ?Set@?$MMap@PAVCVConGroup@@PAVCVirtualConsole@@$0A@@@QAE_NABQAVCVConGroup@@ABQAVCVirtualConsole@@@Z 0041c582 f i TabBar.obj
 0001:0001b582       ?Set@?$MMap@PAUHWND__@@P6GJPAU1@IIJ@Z$0A@@@QAE_NABQAUHWND__@@ABQ6GJPAU2@IIJ@Z@Z 0041c582 f i SetDlgColors.obj
 0001:0001b582       ?Set@?$MMap@PAUHWND__@@PAVCDynDialog@@$0A@@@QAE_NABQAUHWND__@@ABQAVCDynDialog@@@Z 0041c582 f i DynDialog.obj
 0001:0001b582       ?Set@?$MMap@IPBD$0A@@@QAE_NABIABQBD@Z 0041c582 f i ConEmu.obj
 0001:0001b582       ?Set@?$MMap@PAUHWND__@@PAVCVirtualConsole@@$0A@@@QAE_NABQAUHWND__@@ABQAVCVirtualConsole@@@Z 0041c582 f i VConChild.obj
 0001:0001b582       ?Set@?$MMap@KH$0A@@@QAE_NABKABH@Z 0041c582 f i RealConsole.obj
 0001:0001b582       ?Set@?$MMap@HPAV?$MArray@UDlgItem@CDpiForDialog@@@@$0A@@@QAE_NABHABQAV?$MArray@UDlgItem@CDpiForDialog@@@@@Z 0041c582 f i DpiAware.obj
 0001:0001b582       ?Set@?$MMap@PAUHWND__@@PAVCFindPanel@@$0A@@@QAE_NABQAUHWND__@@ABQAVCFindPanel@@@Z 0041c582 f i FindPanel.obj
 0001:0001b667       ?Set@CESize@@QAE_N_NW4CESizeStyle@@H@Z 0041c667 f i ConEmu.obj
 0001:0001b6da       ?SetAppID@CConEmuMain@@QAEXPB_W@Z 0041c6da f   ConEmu.obj
 0001:0001b90d       ?SetConfigFile@CConEmuMain@@QAE_NPB_W_N1@Z 0041c90d f   ConEmu.obj
 0001:0001bb84       ?SetDragCursor@CConEmuMain@@QAEXPAUHICON__@@@Z 0041cb84 f   ConEmu.obj
 0001:0001bbaa       ?SetForceUseRegistry@CConEmuMain@@QAEXXZ 0041cbaa f   ConEmu.obj
 0001:0001bbb2       ?SetFrom@?$MFileMapping@UConEmuGuiMapping@@@@QAE_NPBUConEmuGuiMapping@@H@Z 0041cbb2 f i ConEmu.obj
 0001:0001bbfe       ?SetFrom@?$MFileMapping@UPanelViewSetMapping@@@@QAE_NPBUPanelViewSetMapping@@H@Z 0041cbfe f i ConEmu.obj
 0001:0001bc4a       ?SetKillTimer@CConEmuMain@@QAEI_NII@Z 0041cc4a f   ConEmu.obj
 0001:0001bc7c       ?SetParent@CConEmuMain@@QAE_NPAUHWND__@@@Z 0041cc7c f   ConEmu.obj
 0001:0001bccb       ?SetPostGuiMacro@CConEmuMain@@QAEXPB_W@Z 0041cccb f   ConEmu.obj
 0001:0001bce3       ?SetScClosePending@CConEmuMain@@QAEX_N@Z 0041cce3 f   ConEmu.obj
 0001:0001bcf3       ?SetSessionNotification@SessionInfo@CConEmuMain@@QAEX_N@Z 0041ccf3 f   ConEmu.obj
 0001:0001bdc7       ?SetSkipMouseEvent@CConEmuMain@@QAEXIII@Z 0041cdc7 f   ConEmu.obj
 0001:0001bde9       ?SetSkipOnFocus@CConEmuMain@@QAE_N_N@Z 0041cde9 f   ConEmu.obj
 0001:0001bdff       ?SetTaskbarIcon@CConEmuMain@@QAEXPAUHICON__@@@Z 0041cdff f   ConEmu.obj
 0001:0001beaf       ?SetTitle@CConEmuMain@@QAEXPAUHWND__@@PB_W_N@Z 0041ceaf f   ConEmu.obj
 0001:0001bfd4       ?SetTitleTemplate@CConEmuMain@@QAEXPB_W@Z 0041cfd4 f   ConEmu.obj
 0001:0001bffb       ?SetTransparent@CConEmuMain@@QAE_NPAUHWND__@@I_NK1@Z 0041cffb f   ConEmu.obj
 0001:0001c2d8       ?SetWindowIcon@CConEmuMain@@QAEXPB_W@Z 0041d2d8 f   ConEmu.obj
 0001:0001c3d4       ?SetWindowStyle@CConEmuMain@@QAEXK@Z 0041d3d4 f   ConEmu.obj
 0001:0001c3ec       ?SetWindowStyle@CConEmuMain@@QAEXPAUHWND__@@K@Z 0041d3ec f   ConEmu.obj
 0001:0001c401       ?SetWindowStyleEx@CConEmuMain@@QAEXK@Z 0041d401 f   ConEmu.obj
 0001:0001c416       ?SetWindowStyleEx@CConEmuMain@@QAEXPAUHWND__@@K@Z 0041d416 f   ConEmu.obj
 0001:0001c499       ?StartDebugActiveProcess@CConEmuMain@@QAE_NXZ 0041d499 f   ConEmu.obj
 0001:0001c538       ?StartDebugLogConsole@CConEmuMain@@QAE_NXZ 0041d538 f   ConEmu.obj
 0001:0001c66f       ?StartDefTermHooker@CDefTermBase@@AAEHKAAPAXAAKPB_W1@Z 0041d66f f i ConEmu.obj
 0001:0001ca14       ?StartRightClickingPaint@CConEmuMain@@IAEXXZ 0041da14 f   ConEmu.obj
 0001:0001ca51       ?StopRightClickingPaint@CConEmuMain@@IAEXXZ 0041da51 f   ConEmu.obj
 0001:0001ca9b       ?StoreLayoutName@CConEmuMain@@IAEXHKPAUHKL__@@@Z 0041da9b f   ConEmu.obj
 0001:0001cb9d       ?StoreWorkDir@CConEmuMain@@QAEXPB_W@Z 0041db9d f   ConEmu.obj
 0001:0001cd82       ?StringCchVPrintfA@@YGJPADIPBD0@Z 0041dd82 f i ConEmu.obj
 0001:0001cdd7       ?SwitchKeyboardLayout@CConEmuMain@@QAEXK@Z 0041ddd7 f   ConEmu.obj
 0001:0001cf6e       ?SyncExecMacro@CConEmuMain@@QAEJIJ@Z 0041df6e f   ConEmu.obj
 0001:0001cf8d       ?SyncNtvdm@CConEmuMain@@QAEXXZ 0041df8d f   ConEmu.obj
 0001:0001cf9d       ?TerminateSshAgents@CConEmuMain@@IAEXXZ 0041df9d f   ConEmu.obj
 0001:0001d0f1       ?TrackMouse@CConEmuMain@@QAEHXZ 0041e0f1 f   ConEmu.obj
 0001:0001d13d       ?UnRegisterHooks@CConEmuMain@@QAEX_N@Z 0041e13d f   ConEmu.obj
 0001:0001d19f       ?UnlockConhostStart@CConEmuMain@@QAEXXZ 0041e19f f   ConEmu.obj
 0001:0001d1b9       ?Update@CConEmuMain@@QAEX_N@Z 0041e1b9 f   ConEmu.obj
 0001:0001d1c9       ?UpdateActiveGhost@CConEmuMain@@QAEXPAVCVirtualConsole@@@Z 0041e1c9 f   ConEmu.obj
 0001:0001d224       ?UpdateCaretPos@CConEmuMain@@QAEXAAVCVirtualConsole@@ABUtagRECT@@@Z 0041e224 f   ConEmu.obj
 0001:0001d282       ?UpdateCursorInfo@CConEmuMain@@QAEXPBUConsoleInfoArg@@@Z 0041e282 f   ConEmu.obj
 0001:0001d304       ?UpdateGuiInfoMapping@CConEmuMain@@AAEXXZ 0041e304 f   ConEmu.obj
 0001:0001d7d3       ?UpdateGuiInfoMappingActive@CConEmuMain@@AAEX_N0@Z 0041e7d3 f   ConEmu.obj
 0001:0001d91a       ?UpdateImeComposition@CConEmuMain@@IAEXXZ 0041e91a f   ConEmu.obj
 0001:0001da85       ?UpdateProcessDisplay@CConEmuMain@@QAEX_N@Z 0041ea85 f   ConEmu.obj
 0001:0001dd54       ?UpdateProgress@CConEmuMain@@QAEXXZ 0041ed54 f   ConEmu.obj
 0001:0001e09f       ?UpdateSizes@CConEmuMain@@QAEXXZ 0041f09f f   ConEmu.obj
 0001:0001e21f       ?UpdateTitle@CConEmuMain@@QAEXXZ 0041f21f f   ConEmu.obj
 0001:0001e31f       ?UpdateWinHookSettings@CConEmuMain@@QAEXXZ 0041f31f f   ConEmu.obj
 0001:0001e378       ?UpdateWindowChild@CConEmuMain@@QAEXPAVCVirtualConsole@@@Z 0041f378 f   ConEmu.obj
 0001:0001e388       ?WinEventProc@CConEmuMain@@KGXPAUHWINEVENTHOOK__@@KPAUHWND__@@JJKK@Z 0041f388 f   ConEmu.obj
 0001:0001e3c1       ?WndProc@CConEmuMain@@QAEJPAUHWND__@@IIJ@Z 0041f3c1 f   ConEmu.obj
 0001:0001f809       ?WorkDir@CConEmuMain@@QAEPB_WPB_W@Z 00420809 f   ConEmu.obj
 0001:0001f835       ?WorkWndProc@CConEmuMain@@SGJPAUHWND__@@IIJ@Z 00420835 f   ConEmu.obj
 0001:0001f98b       ?_Adjust_manually_vector_aligned@std@@YAXAAPAXAAI@Z 0042098b f i ConEmu.obj
 0001:0001f9af       ?_Become_small@?$basic_string@_WU?$char_traits@_W@std@@V?$allocator@_W@2@@std@@QAEXXZ 004209af f i ConEmu.obj
 0001:0001f9e5       ?_Buy@?$vector@V?$_List_unchecked_iterator@V?$_List_val@U?$_List_simple_types@U?$pair@$$CBHG@std@@@std@@@std@@@std@@V?$allocator@V?$_List_unchecked_iterator@V?$_List_val@U?$_List_simple_types@U?$pair@$$CBHG@std@@@std@@@std@@@std@@@2@@std@@AAE_NI@Z 004209e5 f i Font.obj
 0001:0001f9e5       ?_Buy@?$vector@V?$_List_unchecked_iterator@V?$_List_val@U?$_List_simple_types@U?$pair@$$CBV?$basic_string@_WU?$char_traits@_W@std@@V?$allocator@_W@2@@std@@UVariableData@SystemEnvironment@@@std@@@std@@@std@@@std@@V?$allocator@V?$_List_unchecked_iterator@V?$_List_val@U?$_List_simple_types@U?$pair@$$CBV?$basic_string@_WU?$char_traits@_W@std@@V?$allocator@_W@2@@std@@UVariableData@SystemEnvironment@@@std@@@std@@@std@@@std@@@2@@std@@AAE_NI@Z 004209e5 f i ConEmu.obj
 0001:0001fa2a       ?_Buynode0@?$_List_alloc@U?$_List_base_types@U?$pair@$$CBV?$basic_string@_WU?$char_traits@_W@std@@V?$allocator@_W@2@@std@@UVariableData@SystemEnvironment@@@std@@V?$allocator@U?$pair@$$CBV?$basic_string@_WU?$char_traits@_W@std@@V?$allocator@_W@2@@std@@UVariableData@SystemEnvironment@@@std@@@2@@std@@@std@@QAEPAU?$_List_node@U?$pair@$$CBV?$basic_string@_WU?$char_traits@_W@std@@V?$allocator@_W@2@@std@@UVariableData@SystemEnvironment@@@std@@PAX@2@PAU32@0@Z 00420a2a f i ConEmu.obj
 0001:0001fa4e       ?_Calculate_growth@?$basic_string@_WU?$char_traits@_W@std@@V?$allocator@_W@2@@std@@QBEII@Z 00420a4e f i ConEmu.obj
 0001:0001fa85       ?_Calculate_growth@?$vector@UDlgItem@CDpiForDialog@@V?$MArrayAllocator@UDlgItem@CDpiForDialog@@@@@std@@ABEII@Z 00420a85 f i DpiAware.obj
 0001:0001fa85       ?_Calculate_growth@?$vector@UProcessInfo@CDefTermBase@@V?$MArrayAllocator@UProcessInfo@CDefTermBase@@@@@std@@ABEII@Z 00420a85 f i ConEmu.obj
 0001:0001fab0       ?_Calculate_growth@?$vector@U?$pair@HUCEStr@@@std@@V?$MArrayAllocator@U?$pair@HUCEStr@@@std@@@@@std@@ABEII@Z 00420ab0 f i common-kernel32:CEStr.obj
 0001:0001fab0       ?_Calculate_growth@?$vector@USshAgent@CConEmuMain@@V?$MArrayAllocator@USshAgent@CConEmuMain@@@@@std@@ABEII@Z 00420ab0 f i ConEmu.obj
 0001:0001fab0       ?_Calculate_growth@?$vector@ULngDefinition@CLngRc@@V?$MArrayAllocator@ULngDefinition@CLngRc@@@@@std@@ABEII@Z 00420ab0 f i LngRc.obj
 0001:0001fab0       ?_Calculate_growth@?$vector@UTabIconCache@CIconList@@V?$MArrayAllocator@UTabIconCache@CIconList@@@@@std@@ABEII@Z 00420ab0 f i IconList.obj
 0001:0001fab0       ?_Calculate_growth@?$vector@UThreadHandle@CDefTermBase@@V?$MArrayAllocator@UThreadHandle@CDefTermBase@@@@@std@@ABEII@Z 00420ab0 f i ConEmu.obj
 0001:0001fadb       ?_Change_array@?$vector@UDlgItem@CDpiForDialog@@V?$MArrayAllocator@UDlgItem@CDpiForDialog@@@@@std@@AAEXQAUDlgItem@CDpiForDialog@@II@Z 00420adb f i DpiAware.obj
 0001:0001fadb       ?_Change_array@?$vector@UProcessInfo@CDefTermBase@@V?$MArrayAllocator@UProcessInfo@CDefTermBase@@@@@std@@AAEXQAUProcessInfo@CDefTermBase@@II@Z 00420adb f i ConEmu.obj
 0001:0001fb17       ?_Change_array@?$vector@ULngDefinition@CLngRc@@V?$MArrayAllocator@ULngDefinition@CLngRc@@@@@std@@AAEXQAULngDefinition@CLngRc@@II@Z 00420b17 f i LngRc.obj
 0001:0001fb17       ?_Change_array@?$vector@UTabIconCache@CIconList@@V?$MArrayAllocator@UTabIconCache@CIconList@@@@@std@@AAEXQAUTabIconCache@CIconList@@II@Z 00420b17 f i IconList.obj
 0001:0001fb17       ?_Change_array@?$vector@UThreadHandle@CDefTermBase@@V?$MArrayAllocator@UThreadHandle@CDefTermBase@@@@@std@@AAEXQAUThreadHandle@CDefTermBase@@II@Z 00420b17 f i ConEmu.obj
 0001:0001fb17       ?_Change_array@?$vector@USshAgent@CConEmuMain@@V?$MArrayAllocator@USshAgent@CConEmuMain@@@@@std@@AAEXQAUSshAgent@CConEmuMain@@II@Z 00420b17 f i ConEmu.obj
 0001:0001fb53       ?_Change_array@?$vector@V?$_List_unchecked_iterator@V?$_List_val@U?$_List_simple_types@U?$pair@$$CBV?$basic_string@_WU?$char_traits@_W@std@@V?$allocator@_W@2@@std@@UVariableData@SystemEnvironment@@@std@@@std@@@std@@@std@@V?$allocator@V?$_List_unchecked_iterator@V?$_List_val@U?$_List_simple_types@U?$pair@$$CBV?$basic_string@_WU?$char_traits@_W@std@@V?$allocator@_W@2@@std@@UVariableData@SystemEnvironment@@@std@@@std@@@std@@@std@@@2@@std@@AAEXQAV?$_List_unchecked_iterator@V?$_List_val@U?$_List_simple_types@U?$pair@$$CBV?$basic_string@_WU?$char_traits@_W@std@@V?$allocator@_W@2@@std@@UVariableData@SystemEnvironment@@@std@@@std@@@std@@@2@II@Z 00420b53 f i ConEmu.obj
 0001:0001fb53       ?_Change_array@?$vector@V?$_List_unchecked_iterator@V?$_List_val@U?$_List_simple_types@U?$pair@$$CBHG@std@@@std@@@std@@@std@@V?$allocator@V?$_List_unchecked_iterator@V?$_List_val@U?$_List_simple_types@U?$pair@$$CBHG@std@@@std@@@std@@@std@@@2@@std@@AAEXQAV?$_List_unchecked_iterator@V?$_List_val@U?$_List_simple_types@U?$pair@$$CBHG@std@@@std@@@std@@@2@II@Z 00420b53 f i Font.obj
 0001:0001fb8c       ?_Move@?$_Func_impl_no_alloc@P6A_NPAVCVirtualConsole@@J@Z_NPAV1@J@std@@EAEPAV?$_Func_base@_NPAVCVirtualConsole@@J@2@PAX@Z 00420b8c f i ConEmu.obj
 0001:0001fb8c       ?_Copy@?$_Func_impl_no_alloc@P6A_NPAVCVirtualConsole@@J@Z_NPAV1@J@std@@EBEPAV?$_Func_base@_NPAVCVirtualConsole@@J@2@PAX@Z 00420b8c f i ConEmu.obj
 0001:0001fba2       ?_Decref@_Ref_count_base@std@@QAEXXZ 00420ba2 f i ConEmu.obj
 0001:0001fbca       ?_Delete_this@?$_Func_impl_no_alloc@P6A_NPAVCVirtualConsole@@J@Z_NPAV1@J@std@@EAEX_N@Z 00420bca f i ConEmu.obj
 0001:0001fbe1       ?_Delete_this@?$_Ref_count_obj@USystemEnvironment@@@std@@EAEXXZ 00420be1 f i ConEmu.obj
 0001:0001fbed       ?_Destroy@?$_Ref_count_obj@USystemEnvironment@@@std@@EAEXXZ 00420bed f i ConEmu.obj
 0001:0001fbf5       ?_Do_call@?$_Func_impl_no_alloc@P6A_NPAVCVirtualConsole@@J@Z_NPAV1@J@std@@EAE_N$$QAPAVCVirtualConsole@@$$QAJ@Z 00420bf5 f i ConEmu.obj
 0001:0001fc0d       ?_Equal@?$basic_string@_WU?$char_traits@_W@std@@V?$allocator@_W@2@@std@@QBE_NABV12@@Z 00420c0d f i ConEmu.obj
 0001:0001fc3d       ?_Fnv1a_append_bytes@std@@YAIIQBEI@Z 00420c3d f i ConEmu.obj
 0001:0001fc65       ?_Freenode@?$_List_buy@U?$pair@$$CBV?$basic_string@_WU?$char_traits@_W@std@@V?$allocator@_W@2@@std@@UVariableData@SystemEnvironment@@@std@@V?$allocator@U?$pair@$$CBV?$basic_string@_WU?$char_traits@_W@std@@V?$allocator@_W@2@@std@@UVariableData@SystemEnvironment@@@std@@@2@@std@@QAEXPAU?$_List_node@U?$pair@$$CBV?$basic_string@_WU?$char_traits@_W@std@@V?$allocator@_W@2@@std@@UVariableData@SystemEnvironment@@@std@@PAX@2@@Z 00420c65 f i ConEmu.obj
 0001:0001fc83       ?Ptr@TabName@@QBEPB_WXZ    00420c83 f i TabID.obj
 0001:0001fc83       ?_Get@?$_Func_impl_no_alloc@P6A_NPAVCVirtualConsole@@J@Z_NPAV1@J@std@@EBEPBXXZ 00420c83 f i ConEmu.obj
 0001:0001fc87       ?_Init@?$_Hash@V?$_Umap_traits@HGV?$_Uhash_compare@HU?$hash@H@std@@U?$equal_to@H@2@@std@@V?$allocator@U?$pair@$$CBHG@std@@@2@$0A@@std@@@std@@IAEXI@Z 00420c87 f i Font.obj
 0001:0001fc87       ?_Init@?$_Hash@V?$_Umap_traits@V?$basic_string@_WU?$char_traits@_W@std@@V?$allocator@_W@2@@std@@UVariableData@SystemEnvironment@@V?$_Uhash_compare@V?$basic_string@_WU?$char_traits@_W@std@@V?$allocator@_W@2@@std@@U?$hash@V?$basic_string@_WU?$char_traits@_W@std@@V?$allocator@_W@2@@std@@@2@U?$equal_to@V?$basic_string@_WU?$char_traits@_W@std@@V?$allocator@_W@2@@std@@@2@@2@V?$allocator@U?$pair@$$CBV?$basic_string@_WU?$char_traits@_W@std@@V?$allocator@_W@2@@std@@UVariableData@SystemEnvironment@@@std@@@2@$0A@@std@@@std@@IAEXI@Z 00420c87 f i ConEmu.obj
 0001:0001fccc       ?_Mtx_lockX@std@@YAHPAU_Mtx_internal_imp_t@@@Z 00420ccc f i ConEmu.obj
 0001:0001fceb       ?_Mtx_unlockX@std@@YAHPAU_Mtx_internal_imp_t@@@Z 00420ceb f i ConEmu.obj
 0001:0001fd0a       ?_Reallocate_exactly@?$vector@V?$_List_unchecked_iterator@V?$_List_val@U?$_List_simple_types@U?$pair@$$CBV?$basic_string@_WU?$char_traits@_W@std@@V?$allocator@_W@2@@std@@UVariableData@SystemEnvironment@@@std@@@std@@@std@@@std@@V?$allocator@V?$_List_unchecked_iterator@V?$_List_val@U?$_List_simple_types@U?$pair@$$CBV?$basic_string@_WU?$char_traits@_W@std@@V?$allocator@_W@2@@std@@UVariableData@SystemEnvironment@@@std@@@std@@@std@@@std@@@2@@std@@AAEXI@Z 00420d0a f i ConEmu.obj
 0001:0001fd0a       ?_Reallocate_exactly@?$vector@V?$_List_unchecked_iterator@V?$_List_val@U?$_List_simple_types@U?$pair@$$CBHG@std@@@std@@@std@@@std@@V?$allocator@V?$_List_unchecked_iterator@V?$_List_val@U?$_List_simple_types@U?$pair@$$CBHG@std@@@std@@@std@@@std@@@2@@std@@AAEXI@Z 00420d0a f i Font.obj
 0001:0001fd4b       ?_Target_type@?$_Func_impl_no_alloc@P6A_NPAVCVirtualConsole@@J@Z_NPAV1@J@std@@EBEABVtype_info@@XZ 00420d4b f i ConEmu.obj
 0001:0001fd51       ?_Tidy@?$vector@USshAgent@CConEmuMain@@V?$MArrayAllocator@USshAgent@CConEmuMain@@@@@std@@AAEXXZ 00420d51 f i ConEmu.obj
 0001:0001fd51       ?_Tidy@?$vector@UThreadHandle@CDefTermBase@@V?$MArrayAllocator@UThreadHandle@CDefTermBase@@@@@std@@AAEXXZ 00420d51 f i DefaultTerm.obj
 0001:0001fd51       ?_Tidy@?$vector@ULngDefinition@CLngRc@@V?$MArrayAllocator@ULngDefinition@CLngRc@@@@@std@@AAEXXZ 00420d51 f i LngRc.obj
 0001:0001fd51       ?_Tidy@?$vector@UTabIconCache@CIconList@@V?$MArrayAllocator@UTabIconCache@CIconList@@@@@std@@AAEXXZ 00420d51 f i IconList.obj
 0001:0001fd7a       ?_Tidy@?$vector@V?$_List_unchecked_iterator@V?$_List_val@U?$_List_simple_types@U?$pair@$$CBV?$basic_string@_WU?$char_traits@_W@std@@V?$allocator@_W@2@@std@@UVariableData@SystemEnvironment@@@std@@@std@@@std@@@std@@V?$allocator@V?$_List_unchecked_iterator@V?$_List_val@U?$_List_simple_types@U?$pair@$$CBV?$basic_string@_WU?$char_traits@_W@std@@V?$allocator@_W@2@@std@@UVariableData@SystemEnvironment@@@std@@@std@@@std@@@std@@@2@@std@@AAEXXZ 00420d7a f i ConEmu.obj
 0001:0001fd7a       ?_Tidy@?$vector@V?$_List_unchecked_iterator@V?$_List_val@U?$_List_simple_types@U?$pair@$$CBHG@std@@@std@@@std@@@std@@V?$allocator@V?$_List_unchecked_iterator@V?$_List_val@U?$_List_simple_types@U?$pair@$$CBHG@std@@@std@@@std@@@std@@@2@@std@@AAEXXZ 00420d7a f i Font.obj
 0001:0001fda0       ?_Tidy_deallocate@?$basic_string@_WU?$char_traits@_W@std@@V?$allocator@_W@2@@std@@QAEXXZ 00420da0 f i ConEmu.obj
 0001:0001fdce       ?_Xlen@?$basic_string@DU?$char_traits@D@std@@V?$allocator@D@2@@std@@SAXXZ 00420dce f i libcpmt:thread0.obj
 0001:0001fdce       ?_Xlen@?$basic_string@_WU?$char_traits@_W@std@@V?$allocator@_W@2@@std@@SAXXZ 00420dce f i ConEmu.obj
 0001:0001fdd9       ?allocate@?$MArrayAllocator@UDlgItem@CDpiForDialog@@@@QAEPAUDlgItem@CDpiForDialog@@I@Z 00420dd9 f i DpiAware.obj
 0001:0001fdd9       ?allocate@?$MArrayAllocator@UProcessInfo@CDefTermBase@@@@QAEPAUProcessInfo@CDefTermBase@@I@Z 00420dd9 f i ConEmu.obj
 0001:0001fe12       ?allocate@?$MArrayAllocator@USshAgent@CConEmuMain@@@@QAEPAUSshAgent@CConEmuMain@@I@Z 00420e12 f i ConEmu.obj
 0001:0001fe12       ?allocate@?$MArrayAllocator@UThreadHandle@CDefTermBase@@@@QAEPAUThreadHandle@CDefTermBase@@I@Z 00420e12 f i ConEmu.obj
 0001:0001fe12       ?allocate@?$MArrayAllocator@ULngDefinition@CLngRc@@@@QAEPAULngDefinition@CLngRc@@I@Z 00420e12 f i LngRc.obj
 0001:0001fe12       ?allocate@?$MArrayAllocator@UTabIconCache@CIconList@@@@QAEPAUTabIconCache@CIconList@@I@Z 00420e12 f i IconList.obj
 0001:0001fe4b       ?allocate@?$allocator@V?$_List_unchecked_iterator@V?$_List_val@U?$_List_simple_types@U?$pair@$$CBHG@std@@@std@@@std@@@std@@@std@@QAEPAV?$_List_unchecked_iterator@V?$_List_val@U?$_List_simple_types@U?$pair@$$CBHG@std@@@std@@@std@@@2@I@Z 00420e4b f i Font.obj
 0001:0001fe4b       ?allocate@?$allocator@V?$_List_unchecked_iterator@V?$_List_val@U?$_List_simple_types@U?$pair@$$CBV?$basic_string@_WU?$char_traits@_W@std@@V?$allocator@_W@2@@std@@UVariableData@SystemEnvironment@@@std@@@std@@@std@@@std@@@std@@QAEPAV?$_List_unchecked_iterator@V?$_List_val@U?$_List_simple_types@U?$pair@$$CBV?$basic_string@_WU?$char_traits@_W@std@@V?$allocator@_W@2@@std@@UVariableData@SystemEnvironment@@@std@@@std@@@std@@@2@I@Z 00420e4b f i ConEmu.obj
 0001:0001fe6c       ?allocate@?$allocator@_W@std@@QAEPA_WI@Z 00420e6c f i ConEmu.obj
 0001:0001fe8b       ?append@?$basic_string@_WU?$char_traits@_W@std@@V?$allocator@_W@2@@std@@QAEAAV12@ABV12@@Z 00420e8b f i ConEmu.obj
 0001:0001fea8       ?append@?$basic_string@_WU?$char_traits@_W@std@@V?$allocator@_W@2@@std@@QAEAAV12@QB_W@Z 00420ea8 f i ConEmu.obj
 0001:0001fecf       ?append@?$basic_string@_WU?$char_traits@_W@std@@V?$allocator@_W@2@@std@@QAEAAV12@QB_WI@Z 00420ecf f i ConEmu.obj
 0001:0001ff2d       ?assign@?$basic_string@_WU?$char_traits@_W@std@@V?$allocator@_W@2@@std@@QAEAAV12@QB_W@Z 00420f2d f i ConEmu.obj
 0001:0001ff54       ?assign@?$basic_string@_WU?$char_traits@_W@std@@V?$allocator@_W@2@@std@@QAEAAV12@QB_WI@Z 00420f54 f i ConEmu.obj
 0001:0001ffa2       ?assign@?$vector@V?$_List_unchecked_iterator@V?$_List_val@U?$_List_simple_types@U?$pair@$$CBV?$basic_string@_WU?$char_traits@_W@std@@V?$allocator@_W@2@@std@@UVariableData@SystemEnvironment@@@std@@@std@@@std@@@std@@V?$allocator@V?$_List_unchecked_iterator@V?$_List_val@U?$_List_simple_types@U?$pair@$$CBV?$basic_string@_WU?$char_traits@_W@std@@V?$allocator@_W@2@@std@@UVariableData@SystemEnvironment@@@std@@@std@@@std@@@std@@@2@@std@@QAEXIABV?$_List_unchecked_iterator@V?$_List_val@U?$_List_simple_types@U?$pair@$$CBV?$basic_string@_WU?$char_traits@_W@std@@V?$allocator@_W@2@@std@@UVariableData@SystemEnvironment@@@std@@@std@@@std@@@2@@Z 00420fa2 f i ConEmu.obj
 0001:0001ffa2       ?assign@?$vector@V?$_List_unchecked_iterator@V?$_List_val@U?$_List_simple_types@U?$pair@$$CBHG@std@@@std@@@std@@@std@@V?$allocator@V?$_List_unchecked_iterator@V?$_List_val@U?$_List_simple_types@U?$pair@$$CBHG@std@@@std@@@std@@@std@@@2@@std@@QAEXIABV?$_List_unchecked_iterator@V?$_List_val@U?$_List_simple_types@U?$pair@$$CBHG@std@@@std@@@std@@@2@@Z 00420fa2 f i Font.obj
 0001:00020052       ?clear@?$list@U?$pair@$$CBV?$basic_string@_WU?$char_traits@_W@std@@V?$allocator@_W@2@@std@@UVariableData@SystemEnvironment@@@std@@V?$allocator@U?$pair@$$CBV?$basic_string@_WU?$char_traits@_W@std@@V?$allocator@_W@2@@std@@UVariableData@SystemEnvironment@@@std@@@2@@std@@QAEXXZ 00421052 f i ConEmu.obj
 0001:0002007c       ?count@?$_Hash@V?$_Umap_traits@V?$basic_string@_WU?$char_traits@_W@std@@V?$allocator@_W@2@@std@@UVariableData@SystemEnvironment@@V?$_Uhash_compare@V?$basic_string@_WU?$char_traits@_W@std@@V?$allocator@_W@2@@std@@U?$hash@V?$basic_string@_WU?$char_traits@_W@std@@V?$allocator@_W@2@@std@@@2@U?$equal_to@V?$basic_string@_WU?$char_traits@_W@std@@V?$allocator@_W@2@@std@@@2@@2@V?$allocator@U?$pair@$$CBV?$basic_string@_WU?$char_traits@_W@std@@V?$allocator@_W@2@@std@@UVariableData@SystemEnvironment@@@std@@@2@$0A@@std@@@std@@QBEIABV?$basic_string@_WU?$char_traits@_W@std@@V?$allocator@_W@2@@2@@Z 0042107c f i ConEmu.obj
 0001:000200a0       ?equal_range@?$_Hash@V?$_Umap_traits@V?$basic_string@_WU?$char_traits@_W@std@@V?$allocator@_W@2@@std@@UVariableData@SystemEnvironment@@V?$_Uhash_compare@V?$basic_string@_WU?$char_traits@_W@std@@V?$allocator@_W@2@@std@@U?$hash@V?$basic_string@_WU?$char_traits@_W@std@@V?$allocator@_W@2@@std@@@2@U?$equal_to@V?$basic_string@_WU?$char_traits@_W@std@@V?$allocator@_W@2@@std@@@2@@2@V?$allocator@U?$pair@$$CBV?$basic_string@_WU?$char_traits@_W@std@@V?$allocator@_W@2@@std@@UVariableData@SystemEnvironment@@@std@@@2@$0A@@std@@@std@@QBE?AU?$pair@V?$_List_const_iterator@V?$_List_val@U?$_List_simple_types@U?$pair@$$CBV?$basic_string@_WU?$char_traits@_W@std@@V?$allocator@_W@2@@std@@UVariableData@SystemEnvironment@@@std@@@std@@@std@@@std@@V12@@2@ABV?$basic_string@_WU?$char_traits@_W@std@@V?$allocator@_W@2@@2@@Z 004210a0 f i ConEmu.obj
 0001:00020146       ?erase@?$MArray@UProcessInfo@CDefTermBase@@@@QAEXHH@Z 00421146 f i ConEmu.obj
 0001:00020191       ?isCloseConfirmed@CConEmuMain@@QAE_NXZ 00421191 f   ConEmu.obj
 0001:000201b4       ?isDestroyOnClose@CConEmuMain@@QAE_N_N@Z 004211b4 f   ConEmu.obj
 0001:000202bf       ?isDialogMessage@CConEmuMain@@QAEHAAUtagMSG@@@Z 004212bf f   ConEmu.obj
 0001:00020350       ?isDragging@CConEmuMain@@QAE_NXZ 00421350 f   ConEmu.obj
 0001:0002037b       ?isFirstInstance@CConEmuMain@@QAE_N_N@Z 0042137b f   ConEmu.obj
 0001:000204db       ?isInImeComposition@CConEmuMain@@QAE_NXZ 004214db f   ConEmu.obj
 0001:000204e2       ?isInputGrouped@CConEmuMain@@QBE_NXZ 004214e2 f   ConEmu.obj
 0001:000204e9       ?isInside@CConEmuMain@@QAE_NXZ 004214e9 f   ConEmu.obj
 0001:00020502       ?isInsideInvalid@CConEmuMain@@QAE_NXZ 00421502 f   ConEmu.obj
 0001:00020531       ?isMSysStartup@CConEmuMain@@QAE_NXZ 00421531 f   ConEmu.obj
 0001:0002053d       ?isMeForeground@CConEmuMain@@QAE_N_N0PAPAUHWND__@@@Z 0042153d f   ConEmu.obj
 0001:00020589       ?isMenuActive@CConEmuMain@@QAE_NXZ 00421589 f   ConEmu.obj
 0001:0002059a       ?isMingwMode@CConEmuMain@@QAE_NXZ 0042159a f   ConEmu.obj
 0001:000205a3       ?isMouseOverFrame@CConEmuMain@@QAE_N_N@Z 004215a3 f   ConEmu.obj
 0001:000206e8       ?isNtvdm@CConEmuMain@@QAE_NH@Z 004216e8 f   ConEmu.obj
 0001:000206f8       ?isOurConsoleWindow@CConEmuMain@@QAE_NPAUHWND__@@@Z 004216f8 f   ConEmu.obj
 0001:00020708       ?isPictureView@CConEmuMain@@QAE_NXZ 00421708 f   ConEmu.obj
 0001:0002070d       ?isProcessCreated@CConEmuMain@@QAE_NXZ 0042170d f   ConEmu.obj
 0001:00020714       ?isRightClickingPaint@CConEmuMain@@QAE_NXZ 00421714 f   ConEmu.obj
 0001:0002071b       ?isSelectionModifierPressed@CConEmuMain@@QAEK_N@Z 0042171b f   ConEmu.obj
 0001:000207eb       ?isSkipNcMessage@CConEmuMain@@QAE_NABUtagMSG@@@Z 004217eb f   ConEmu.obj
 0001:00020872       ?isTabsShown@CConEmuMain@@QBE_NXZ 00421872 f   ConEmu.obj
 0001:00020899       ?isUpdateAllowed@CConEmuMain@@QAE_NXZ 00421899 f   ConEmu.obj
 0001:000208a4       ?isVConExists@CConEmuMain@@QAE_NH@Z 004218a4 f   ConEmu.obj
 0001:000208b4       ?isVConValid@CConEmuMain@@QAEHPAVCVirtualConsole@@@Z 004218b4 f   ConEmu.obj
 0001:000208cd       ?isValid@CConEmuMain@@QAE_NPAVCRealConsole@@@Z 004218cd f   ConEmu.obj
 0001:000208dd       ?isValid@CConEmuMain@@QAE_NPAVCVirtualConsole@@@Z 004218dd f   ConEmu.obj
 0001:000208ed       ?lower_bound@?$_Hash@V?$_Umap_traits@V?$basic_string@_WU?$char_traits@_W@std@@V?$allocator@_W@2@@std@@UVariableData@SystemEnvironment@@V?$_Uhash_compare@V?$basic_string@_WU?$char_traits@_W@std@@V?$allocator@_W@2@@std@@U?$hash@V?$basic_string@_WU?$char_traits@_W@std@@V?$allocator@_W@2@@std@@@2@U?$equal_to@V?$basic_string@_WU?$char_traits@_W@std@@V?$allocator@_W@2@@std@@@2@@2@V?$allocator@U?$pair@$$CBV?$basic_string@_WU?$char_traits@_W@std@@V?$allocator@_W@2@@std@@UVariableData@SystemEnvironment@@@std@@@2@$0A@@std@@@std@@QAE?AV?$_List_iterator@V?$_List_val@U?$_List_simple_types@U?$pair@$$CBV?$basic_string@_WU?$char_traits@_W@std@@V?$allocator@_W@2@@std@@UVariableData@SystemEnvironment@@@std@@@std@@@std@@@2@ABV?$basic_string@_WU?$char_traits@_W@std@@V?$allocator@_W@2@@2@@Z 004218ed f i SystemEnvironment.obj
 0001:000208ed       ?lower_bound@?$_Hash@V?$_Umap_traits@V?$basic_string@_WU?$char_traits@_W@std@@V?$allocator@_W@2@@std@@UVariableData@SystemEnvironment@@V?$_Uhash_compare@V?$basic_string@_WU?$char_traits@_W@std@@V?$allocator@_W@2@@std@@U?$hash@V?$basic_string@_WU?$char_traits@_W@std@@V?$allocator@_W@2@@std@@@2@U?$equal_to@V?$basic_string@_WU?$char_traits@_W@std@@V?$allocator@_W@2@@std@@@2@@2@V?$allocator@U?$pair@$$CBV?$basic_string@_WU?$char_traits@_W@std@@V?$allocator@_W@2@@std@@UVariableData@SystemEnvironment@@@std@@@2@$0A@@std@@@std@@QBE?AV?$_List_const_iterator@V?$_List_val@U?$_List_simple_types@U?$pair@$$CBV?$basic_string@_WU?$char_traits@_W@std@@V?$allocator@_W@2@@std@@UVariableData@SystemEnvironment@@@std@@@std@@@std@@@2@ABV?$basic_string@_WU?$char_traits@_W@std@@V?$allocator@_W@2@@2@@Z 004218ed f i ConEmu.obj
 0001:00020955       ?pop_back@?$MArray@PAVCFont@@@@QAE_NAAPAVCFont@@@Z 00421955 f i FontMgr.obj
 0001:00020955       ?pop_back@?$MArray@PAUSwitch@@@@QAE_NAAPAUSwitch@@@Z 00421955 f i SetPgIntegr.obj
 0001:00020955       ?pop_back@?$MArray@PAVCVConGuard@@@@QAE_NAAPAVCVConGuard@@@Z 00421955 f i VConGroup.obj
 0001:00020955       ?pop_back@?$MArray@PA_W@@QAE_NAAPA_W@Z 00421955 f i SetPgIntegr.obj
 0001:00020955       ?pop_back@?$MArray@URunQueueItem@CRunQueue@@@@QAE_NAAURunQueueItem@CRunQueue@@@Z 00421955 f i RunQueue.obj
 0001:00020955       ?pop_back@?$MArray@PAUHWND__@@@@QAE_NAAPAUHWND__@@@Z 00421955 f i ConEmu.obj
 0001:0002097f       ?reserve@?$basic_string@_WU?$char_traits@_W@std@@V?$allocator@_W@2@@std@@QAEXI@Z 0042197f f i ConEmu.obj
 0001:000209c1       ?reserve@?$vector@V?$_List_unchecked_iterator@V?$_List_val@U?$_List_simple_types@U?$pair@$$CBHG@std@@@std@@@std@@@std@@V?$allocator@V?$_List_unchecked_iterator@V?$_List_val@U?$_List_simple_types@U?$pair@$$CBHG@std@@@std@@@std@@@std@@@2@@std@@QAEXI@Z 004219c1 f i Font.obj
 0001:000209c1       ?reserve@?$vector@V?$_List_unchecked_iterator@V?$_List_val@U?$_List_simple_types@U?$pair@$$CBV?$basic_string@_WU?$char_traits@_W@std@@V?$allocator@_W@2@@std@@UVariableData@SystemEnvironment@@@std@@@std@@@std@@@std@@V?$allocator@V?$_List_unchecked_iterator@V?$_List_val@U?$_List_simple_types@U?$pair@$$CBV?$basic_string@_WU?$char_traits@_W@std@@V?$allocator@_W@2@@std@@UVariableData@SystemEnvironment@@@std@@@std@@@std@@@std@@@2@@std@@QAEXI@Z 004219c1 f i ConEmu.obj
 0001:000209ea       ?setFocus@CConEmuMain@@QAEXXZ 004219ea f   ConEmu.obj
 0001:00020abe       __vsnprintf_l              00421abe f i ConEmu.obj
 0001:00020af0       _wmemcmp                   00421af0 f i ConEmu.obj
 0001:00020b26       ??$SafeDelete@VCConEmuMain@@@@YAXAAPAVCConEmuMain@@@Z 00421b26 f i ConEmuApp.obj
 0001:00020b57       ??$SafeDelete@VCConEmuUpdate@@@@YAXAAPAVCConEmuUpdate@@@Z 00421b57 f i ConEmuApp.obj
 0001:00020b97       ??$SafeDelete@VCFontMgr@@@@YAXAAPAVCFontMgr@@@Z 00421b97 f i ConEmuApp.obj
 0001:00020bd7       ??$SafeDelete@VCLngRc@@@@YAXAAPAVCLngRc@@@Z 00421bd7 f i ConEmuApp.obj
 0001:00020c14       ??$SafeDelete@VConEmuHotKeyList@@@@YAXAAPAVConEmuHotKeyList@@@Z 00421c14 f i ConEmuApp.obj
 0001:00020c5e       ??$swprintf_c@$0BAA@@@YAHAAY0BAA@_WPB_WZZ 00421c5e f i ConEmuApp.obj
 0001:00020c77       ??$ultow_s@$0BA@@@YAPB_WIAAY0BA@_WH@Z 00421c77 f i ConEmuApp.obj
 0001:00020c9f       ??$wcscat_c@$0EAA@@@YAHAAY0EAA@_WPB_W@Z 00421c9f f i ConEmuApp.obj
 0001:00020cb4       ??0DontEnable@@QAE@_N@Z    00421cb4 f   ConEmuApp.obj
 0001:00020cf6       ??1DontEnable@@QAE@XZ      00421cf6 f   ConEmuApp.obj
 0001:00020d13       ?AllocEnv@LoadStartupEnv@@KAPAUCEStartupEnv@@I@Z 00421d13 f i ConEmuApp.obj
 0001:00020d2c       ?AppWndProc@@YGJPAUHWND__@@IIJ@Z 00421d2c f   ConEmuApp.obj
 0001:00020dd2       ?AssertBox@@YAXPB_W0IPAU_EXCEPTION_POINTERS@@@Z 00421dd2 f   ConEmuApp.obj
 0001:000211e4       ?CenterInParent@@YA?AUtagRECT@@U1@PAUHWND__@@@Z 004221e4 f   ConEmuApp.obj
 0001:000212d7       ?CheckCreateAppWindow@@YAHXZ 004222d7 f   ConEmuApp.obj
 0001:00021478       ?CheckForDebugArgs@@YAHPB_W@Z 00422478 f   ConEmuApp.obj
 0001:000215fe       ?CheckZoneIdentifiers@@YAH_N@Z 004225fe f   ConEmuApp.obj
 0001:0002194e       ?Create@LoadStartupEnvEx@@SAPAUCEStartupEnv@@XZ 0042294e f i ConEmuApp.obj
 0001:00021b96       ?CreateDumpForReport@@YAKPAU_EXCEPTION_POINTERS@@AAY0EAA@_WAAY0BEE@_WPA_W@Z 00422b96 f   ConEmuApp.obj
 0001:00021fd1       ?CreateDumpOnException@@YGJPAU_EXCEPTION_POINTERS@@@Z 00422fd1 f   ConEmuApp.obj
 0001:000220f8       ?CreateNullIcon@@YAPAUHICON__@@XZ 004230f8 f   ConEmuApp.obj
 0001:0002217c       ?DisplayLastError@@YAHPB_WKK0PAUHWND__@@@Z 0042317c f   ConEmuApp.obj
 0001:0002229a       ?DupCygwinPath@@YAPB_WPB_W_N0AAUCEStr@@@Z 0042329a f   ConEmuApp.obj
 0001:000224a4       ?EscapeChar@@YAX_NAAPB_WAAPA_W@Z 004234a4 f   ConEmuApp.obj
 0001:000224c3       ?FindProcessWindow@@YAPAUHWND__@@K@Z 004234c3 f   ConEmuApp.obj
 0001:00022524       ?FindTopExplorerWindow@@YAPAUHWND__@@XZ 00423524 f   ConEmuApp.obj
 0001:0002259d       ?FixDirEndSlash@@YA_NPA_W@Z 0042359d f   ConEmuApp.obj
 0001:000225eb       ?GetColorRef@@YA_NPB_WPAK@Z 004235eb f   ConEmuApp.obj
 0001:0002280e       ?GetDlgItemSigned@@YA_NPAUHWND__@@GAAHHH@Z 0042380e f   ConEmuApp.obj
 0001:0002285b       ?GetDlgItemTextPtr@@YAPA_WPAUHWND__@@G@Z 0042385b f   ConEmuApp.obj
 0001:00022883       ?GetWindowModeName@@YAPB_WW4ConEmuWindowMode@@@Z 00423883 f   ConEmuApp.obj
 0001:000228d3       ?IntFromString@@YA_NAAHPB_WHPAPB_W@Z 004238d3 f   ConEmuApp.obj
 0001:00022958       ?Load@LoadStartupEnv@@KA_NIAAPAUCEStartupEnv@@AAPAE@Z 00423958 f i ConEmuApp.obj
 0001:00022eb4       ?LoadAutoruns@LoadStartupEnvEx@@KAPA_WXZ 00423eb4 f i ConEmuApp.obj
 0001:00022f78       ?LoadAutorunsKey@LoadStartupEnvEx@@KAXAAPAUHKEY__@@AAPA_WPB_W@Z 00423f78 f i ConEmuApp.obj
 0001:00023025       ?LoadFonts@LoadStartupEnvEx@@KAPA_WXZ 00424025 f i ConEmuApp.obj
 0001:0002325f       ?LoadStartupEnv_FillMonitors@LoadStartupEnvEx@@KGHPAUHMONITOR__@@PAUHDC__@@PAUtagRECT@@J@Z 0042425f f i ConEmuApp.obj
 0001:00023382       ?LogString@@YA_NPB_W_N1@Z  00424382 f   ConEmuApp.obj
 0001:0002339b       ?MakeStraightSlashPath@@YAPA_WPB_W@Z 0042439b f   ConEmuApp.obj
 0001:000233d4       ?MakeWinPath@@YAPB_WPB_W0AAUCEStr@@@Z 004243d4 f   ConEmuApp.obj
 0001:00023544       ?MessageLoop@@YAXXZ        00424544 f   ConEmuApp.obj
 0001:0002358a       ?MoveWindowRect@@YAHPAUHWND__@@ABUtagRECT@@H@Z 0042458a f   ConEmuApp.obj
 0001:000235fa       ?MsgBox@@YAHPB_WI0PAUHWND__@@_N@Z 004245fa f   ConEmuApp.obj
 0001:00023701       ?MyGetDlgItemText@@YAIPAUHWND__@@GAAIAAPA_W@Z 00424701 f   ConEmuApp.obj
 0001:000237a8       ?MySetDlgItemText@@YAHPAUHWND__@@HPB_W@Z 004247a8 f   ConEmuApp.obj
 0001:000237bc       ?PatchMsgBoxIcon@@YAXPAUHWND__@@IIJ@Z 004247bc f   ConEmuApp.obj
 0001:00023878       ?ProcessCmdArg@@YAHPB_W_N1AAUCEStr@@AA_N@Z 00424878 f   ConEmuApp.obj
 0001:00023a28       ?ProcessMessage@@YA_NAAUtagMSG@@@Z 00424a28 f   ConEmuApp.obj
 0001:00023b52       ?PtMouseDblClickTest@@YA_NABUtagMSG@@U1@@Z 00424b52 f   ConEmuApp.obj
 0001:00023c4f       ?RaiseTestException@@YAXXZ 00424c4f f   ConEmuApp.obj
 0001:00023c55       ?ResetEnvironmentVariables@@YAXXZ 00424c55 f   ConEmuApp.obj
 0001:00023c70       ?SelectFile@@YAPA_WPB_W00PAUHWND__@@0KPAVCRealConsole@@@Z 00424c70 f   ConEmuApp.obj
 0001:00023e81       ?SelectFolder@@YAPA_WPB_W0PAUHWND__@@KPAVCRealConsole@@@Z 00424e81 f   ConEmuApp.obj
 0001:00024067       ?ShutdownGuiStep@@YAXPB_WHHHH@Z 00425067 f   ConEmuApp.obj
 0001:00024105       ?SkipOneShowWindow@@YAXXZ  00425105 f   ConEmuApp.obj
 0001:000242df       ?SkipShowWindowProc@@YGJPAUHWND__@@IIJ@Z 004252df f   ConEmuApp.obj
 0001:00024368       ?StripLines@@YAXPA_WPB_W@Z 00425368 f   ConEmuApp.obj
 0001:00024449       ?StripWords@@YAXPA_WPB_W@Z 00425449 f   ConEmuApp.obj
 0001:0002455f       ?UpdateAppUserModelID@@YAJXZ 0042555f f   ConEmuApp.obj
 0001:000248a9       ?UpdateWin7TaskList@@YA_N_N0@Z 004258a9 f   ConEmuApp.obj
 0001:00024f23       ?WarnCreateWindowFail@@YAXPB_WPAUHWND__@@K@Z 00425f23 f   ConEmuApp.obj
 0001:00025096       ?_CreateSeparatorLink@@YAJPAPAUIShellLinkW@@@Z 00426096 f   ConEmuApp.obj
 0001:0002586a       ?_Tidy@?$vector@UConEmuHotKey@@V?$MArrayAllocator@UConEmuHotKey@@@@@std@@AAEXXZ 0042686a f i ConEmuApp.obj
 0001:00025895       ?getFocusedExplorerWindowPath@@YAPA_WXZ 00426895 f   ConEmuApp.obj
 0001:00025b8e       ?getForegroundWindow@@YAPAUHWND__@@XZ 00426b8e f   ConEmuApp.obj
 0001:00025bcc       ?isDontEnable@DontEnable@@SA_NXZ 00426bcc f   ConEmuApp.obj
 0001:00025bd7       ?isKey@@YA_NKK@Z           00426bd7 f   ConEmuApp.obj
 0001:00025c25       ?isMainThread@@YA_NXZ      00426c25 f   ConEmuApp.obj
 0001:00025c35       _WinMain@16                00426c35 f   ConEmuApp.obj
 0001:00026b3c       ??0CConEmuCtrl@@QAE@XZ     00427b3c f   ConEmuCtrl.obj
 0001:00026b75       ??1CConEmuCtrl@@UAE@XZ     00427b75 f   ConEmuCtrl.obj
 0001:00026b7c       ??_ECConEmuCtrl@@UAEPAXI@Z 00427b7c f i ConEmuCtrl.obj
 0001:00026b7c       ??_GCConEmuCtrl@@UAEPAXI@Z 00427b7c f i ConEmuCtrl.obj
 0001:00026b9f       ?ChooseTabFromMenu@CConEmuCtrl@@SAXHUtagPOINT@@K@Z 00427b9f f   ConEmuCtrl.obj
 0001:00026cac       ?ChordFromVk@CConEmuCtrl@@QAE?AUConEmuChord@@K@Z 00427cac f   ConEmuCtrl.obj
 0001:00026d2c       ?DoEndFindText@CConEmuCtrl@@SAXPAVCRealConsole@@@Z 00427d2c f   ConEmuCtrl.obj
 0001:00026d80       ?DoFindText@CConEmuCtrl@@SAXHPAVCRealConsole@@@Z 00427d80 f   ConEmuCtrl.obj
 0001:00026dd7       ?FixSingleModifier@CConEmuCtrl@@QAEXKPAVCRealConsole@@@Z 00427dd7 f   ConEmuCtrl.obj
 0001:00026e2d       ?GetControlKeyState@CConEmuCtrl@@QAEKJ@Z 00427e2d f   ConEmuCtrl.obj
 0001:00026e42       ?GetOpenedPanels@CConEmuCtrl@@SAIAAPA_WAAH1@Z 00427e42 f   ConEmuCtrl.obj
 0001:00026fee       ?GetOpenedTabs@CConEmuCtrl@@SAIAAPAUTabInfo@CESERVER_REQ_GETALLTABS@@@Z 00427fee f   ConEmuCtrl.obj
 0001:00027258       ?MakeScreenshot@CConEmuCtrl@@SAX_N@Z 00428258 f   ConEmuCtrl.obj
 0001:000273f1       ?ProcessHotKey@CConEmuCtrl@@QAEPBUConEmuHotKey@@ABUConEmuChord@@_NPB_WPAVCRealConsole@@@Z 004283f1 f   ConEmuCtrl.obj
 0001:0002756c       ?ProcessHotKeyMsg@CConEmuCtrl@@QAE_NIIJPB_WPAVCRealConsole@@@Z 0042856c f   ConEmuCtrl.obj
 0001:000278b5       ?SkipOneAppsRelease@CConEmuCtrl@@QAEX_N@Z 004288b5 f   ConEmuCtrl.obj
 0001:00027924       ?SkipOneAppsReleaseHook@CConEmuCtrl@@CGJHIJ@Z 00428924 f   ConEmuCtrl.obj
 0001:00027969       ?StatusCommand@CConEmuCtrl@@SAXW4ConEmuStatusCommand@@HPB_WPAVCRealConsole@@@Z 00428969 f   ConEmuCtrl.obj
 0001:00027a73       ?TabCommand@CConEmuCtrl@@SAXW4ConEmuTabCommand@@@Z 00428a73 f   ConEmuCtrl.obj
 0001:00027b38       ?UpdateControlKeyState@CConEmuCtrl@@QAEXXZ 00428b38 f   ConEmuCtrl.obj
 0001:00027c46       ?key_AlternativeBuffer@CConEmuCtrl@@SG_NABUConEmuChord@@_NPBUConEmuHotKey@@PAVCRealConsole@@@Z 00428c46 f   ConEmuCtrl.obj
 0001:00027c60       ?key_AlwaysOnTop@CConEmuCtrl@@SG_NABUConEmuChord@@_NPBUConEmuHotKey@@PAVCRealConsole@@@Z 00428c60 f   ConEmuCtrl.obj
 0001:00027c96       ?key_BufferScroll@CConEmuCtrl@@SG_N_NEPAVCRealConsole@@@Z 00428c96 f   ConEmuCtrl.obj
 0001:00027d0b       ?key_BufferScrollDown@CConEmuCtrl@@SG_NABUConEmuChord@@_NPBUConEmuHotKey@@PAVCRealConsole@@@Z 00428d0b f   ConEmuCtrl.obj
 0001:00027d29       ?key_BufferScrollPgDn@CConEmuCtrl@@SG_NABUConEmuChord@@_NPBUConEmuHotKey@@PAVCRealConsole@@@Z 00428d29 f   ConEmuCtrl.obj
 0001:00027d47       ?key_BufferScrollPgUp@CConEmuCtrl@@SG_NABUConEmuChord@@_NPBUConEmuHotKey@@PAVCRealConsole@@@Z 00428d47 f   ConEmuCtrl.obj
 0001:00027d65       ?key_BufferScrollUp@CConEmuCtrl@@SG_NABUConEmuChord@@_NPBUConEmuHotKey@@PAVCRealConsole@@@Z 00428d65 f   ConEmuCtrl.obj
 0001:00027d83       ?key_CTSVkBlockStart@CConEmuCtrl@@SG_NABUConEmuChord@@_NPBUConEmuHotKey@@PAVCRealConsole@@@Z 00428d83 f   ConEmuCtrl.obj
 0001:00027dab       ?key_CTSVkTextStart@CConEmuCtrl@@SG_NABUConEmuChord@@_NPBUConEmuHotKey@@PAVCRealConsole@@@Z 00428dab f   ConEmuCtrl.obj
 0001:00027dd4       ?key_ChildSystemMenu@CConEmuCtrl@@SG_NABUConEmuChord@@_NPBUConEmuHotKey@@PAVCRealConsole@@@Z 00428dd4 f   ConEmuCtrl.obj
 0001:00027e28       ?key_ConsoleNum@CConEmuCtrl@@SG_NABUConEmuChord@@_NPBUConEmuHotKey@@PAVCRealConsole@@@Z 00428e28 f   ConEmuCtrl.obj
 0001:00027edc       ?key_CtrlShiftTab@CConEmuCtrl@@SG_NABUConEmuChord@@_NPBUConEmuHotKey@@PAVCRealConsole@@@Z 00428edc f   ConEmuCtrl.obj
 0001:00027edc       ?key_CtrlTab@CConEmuCtrl@@SG_NABUConEmuChord@@_NPBUConEmuHotKey@@PAVCRealConsole@@@Z 00428edc f   ConEmuCtrl.obj
 0001:00027f3f       ?key_CtrlTab_Next@CConEmuCtrl@@SG_NABUConEmuChord@@_NPBUConEmuHotKey@@PAVCRealConsole@@@Z 00428f3f f   ConEmuCtrl.obj
 0001:00027f3f       ?key_CtrlTab_Prev@CConEmuCtrl@@SG_NABUConEmuChord@@_NPBUConEmuHotKey@@PAVCRealConsole@@@Z 00428f3f f   ConEmuCtrl.obj
 0001:00027f98       ?key_DeleteWordToLeft@CConEmuCtrl@@SG_NABUConEmuChord@@_NPBUConEmuHotKey@@PAVCRealConsole@@@Z 00428f98 f   ConEmuCtrl.obj
 0001:00027fd0       ?key_DuplicateRoot@CConEmuCtrl@@SG_NABUConEmuChord@@_NPBUConEmuHotKey@@PAVCRealConsole@@@Z 00428fd0 f   ConEmuCtrl.obj
 0001:00027ff6       ?key_FindTextDlg@CConEmuCtrl@@SG_NABUConEmuChord@@_NPBUConEmuHotKey@@PAVCRealConsole@@@Z 00428ff6 f   ConEmuCtrl.obj
 0001:0002803a       ?key_ForcedFullScreen@CConEmuCtrl@@SG_NABUConEmuChord@@_NPBUConEmuHotKey@@PAVCRealConsole@@@Z 0042903a f   ConEmuCtrl.obj
 0001:0002805c       ?key_GlobalRestore@CConEmuCtrl@@SG_NABUConEmuChord@@_NPBUConEmuHotKey@@PAVCRealConsole@@@Z 0042905c f   ConEmuCtrl.obj
 0001:0002807e       ?key_GuiMacro@CConEmuCtrl@@SG_NABUConEmuChord@@_NPBUConEmuHotKey@@PAVCRealConsole@@@Z 0042907e f   ConEmuCtrl.obj
 0001:000280e9       ?key_MinimizeByEsc@CConEmuCtrl@@SG_NABUConEmuChord@@_NPBUConEmuHotKey@@PAVCRealConsole@@@Z 004290e9 f   ConEmuCtrl.obj
 0001:00028151       ?key_MinimizeRestore@CConEmuCtrl@@SG_NABUConEmuChord@@_NPBUConEmuHotKey@@PAVCRealConsole@@@Z 00429151 f   ConEmuCtrl.obj
 0001:00028173       ?key_MoveTabLeft@CConEmuCtrl@@SG_NABUConEmuChord@@_NPBUConEmuHotKey@@PAVCRealConsole@@@Z 00429173 f   ConEmuCtrl.obj
 0001:000281a0       ?key_MoveTabRight@CConEmuCtrl@@SG_NABUConEmuChord@@_NPBUConEmuHotKey@@PAVCRealConsole@@@Z 004291a0 f   ConEmuCtrl.obj
 0001:000281cd       ?key_MultiBuffer@CConEmuCtrl@@SG_NABUConEmuChord@@_NPBUConEmuHotKey@@PAVCRealConsole@@@Z 004291cd f   ConEmuCtrl.obj
 0001:000281e7       ?key_MultiCmd@CConEmuCtrl@@SG_NABUConEmuChord@@_NPBUConEmuHotKey@@PAVCRealConsole@@@Z 004291e7 f   ConEmuCtrl.obj
 0001:00028269       ?key_MultiNewAttach@CConEmuCtrl@@SG_NABUConEmuChord@@_NPBUConEmuHotKey@@PAVCRealConsole@@@Z 00429269 f   ConEmuCtrl.obj
 0001:00028298       ?key_MultiNewPopupMenu2@CConEmuCtrl@@SG_NABUConEmuChord@@_NPBUConEmuHotKey@@PAVCRealConsole@@@Z 00429298 f   ConEmuCtrl.obj
 0001:000282be       ?key_MultiNewPopupMenu@CConEmuCtrl@@SG_NABUConEmuChord@@_NPBUConEmuHotKey@@PAVCRealConsole@@@Z 004292be f   ConEmuCtrl.obj
 0001:000282e3       ?key_MultiNext@CConEmuCtrl@@SG_NABUConEmuChord@@_NPBUConEmuHotKey@@PAVCRealConsole@@@Z 004292e3 f   ConEmuCtrl.obj
 0001:000282ff       ?key_MultiPrev@CConEmuCtrl@@SG_NABUConEmuChord@@_NPBUConEmuHotKey@@PAVCRealConsole@@@Z 004292ff f   ConEmuCtrl.obj
 0001:0002831b       ?key_MultiRecreate@CConEmuCtrl@@SG_NABUConEmuChord@@_NPBUConEmuHotKey@@PAVCRealConsole@@@Z 0042931b f   ConEmuCtrl.obj
 0001:0002833b       ?key_PasteFirstLine@CConEmuCtrl@@SG_NABUConEmuChord@@_NPBUConEmuHotKey@@PAVCRealConsole@@@Z 0042933b f   ConEmuCtrl.obj
 0001:000283d6       ?key_PasteText@CConEmuCtrl@@SG_NABUConEmuChord@@_NPBUConEmuHotKey@@PAVCRealConsole@@@Z 004293d6 f   ConEmuCtrl.obj
 0001:00028466       ?key_RenameTab@CConEmuCtrl@@SG_NABUConEmuChord@@_NPBUConEmuHotKey@@PAVCRealConsole@@@Z 00429466 f   ConEmuCtrl.obj
 0001:00028481       ?key_RunTask@CConEmuCtrl@@SG_NABUConEmuChord@@_NPBUConEmuHotKey@@PAVCRealConsole@@@Z 00429481 f   ConEmuCtrl.obj
 0001:00028510       ?key_Screenshot@CConEmuCtrl@@SG_NABUConEmuChord@@_NPBUConEmuHotKey@@PAVCRealConsole@@@Z 00429510 f   ConEmuCtrl.obj
 0001:00028527       ?key_ScreenshotFull@CConEmuCtrl@@SG_NABUConEmuChord@@_NPBUConEmuHotKey@@PAVCRealConsole@@@Z 00429527 f   ConEmuCtrl.obj
 0001:0002853e       ?key_ShowCaption@CConEmuCtrl@@SG_NABUConEmuChord@@_NPBUConEmuHotKey@@PAVCRealConsole@@@Z 0042953e f   ConEmuCtrl.obj
 0001:000285b1       ?key_ShowRealConsole@CConEmuCtrl@@SG_NABUConEmuChord@@_NPBUConEmuHotKey@@PAVCRealConsole@@@Z 004295b1 f   ConEmuCtrl.obj
 0001:000285d0       ?key_ShowStatusBar@CConEmuCtrl@@SG_NABUConEmuChord@@_NPBUConEmuHotKey@@PAVCRealConsole@@@Z 004295d0 f   ConEmuCtrl.obj
 0001:000285ed       ?key_ShowTabBar@CConEmuCtrl@@SG_NABUConEmuChord@@_NPBUConEmuHotKey@@PAVCRealConsole@@@Z 004295ed f   ConEmuCtrl.obj
 0001:00028604       ?key_ShowTabsList@CConEmuCtrl@@SG_NABUConEmuChord@@_NPBUConEmuHotKey@@PAVCRealConsole@@@Z 00429604 f   ConEmuCtrl.obj
 0001:000286b0       ?key_SwitchGuiFocus@CConEmuCtrl@@SG_NABUConEmuChord@@_NPBUConEmuHotKey@@PAVCRealConsole@@@Z 004296b0 f   ConEmuCtrl.obj
 0001:000286f1       ?key_SystemMenu@CConEmuCtrl@@SG_NABUConEmuChord@@_NPBUConEmuHotKey@@PAVCRealConsole@@@Z 004296f1 f   ConEmuCtrl.obj
 0001:0002875c       ?key_TabMenu@CConEmuCtrl@@SG_NABUConEmuChord@@_NPBUConEmuHotKey@@PAVCRealConsole@@@Z 0042975c f   ConEmuCtrl.obj
 0001:00028806       ?key_WinDragStart@CConEmuCtrl@@SG_NABUConEmuChord@@_NPBUConEmuHotKey@@PAVCRealConsole@@@Z 00429806 f   ConEmuCtrl.obj
 0001:0002880b       ?key_WinHeightDec@CConEmuCtrl@@SG_NABUConEmuChord@@_NPBUConEmuHotKey@@PAVCRealConsole@@@Z 0042980b f   ConEmuCtrl.obj
 0001:00028823       ?key_WinHeightInc@CConEmuCtrl@@SG_NABUConEmuChord@@_NPBUConEmuHotKey@@PAVCRealConsole@@@Z 00429823 f   ConEmuCtrl.obj
 0001:0002883b       ?key_WinSize@CConEmuCtrl@@SG_NE@Z 0042983b f   ConEmuCtrl.obj
 0001:0002897e       ?key_WinWidthDec@CConEmuCtrl@@SG_NABUConEmuChord@@_NPBUConEmuHotKey@@PAVCRealConsole@@@Z 0042997e f   ConEmuCtrl.obj
 0001:00028996       ?key_WinWidthInc@CConEmuCtrl@@SG_NABUConEmuChord@@_NPBUConEmuHotKey@@PAVCRealConsole@@@Z 00429996 f   ConEmuCtrl.obj
 0001:000289ae       ??0CConEmuPipe@@QAE@KK@Z   004299ae f   ConEmuPipe.obj
 0001:00028a02       ??1CConEmuPipe@@QAE@XZ     00429a02 f   ConEmuPipe.obj
 0001:00028a36       ?Close@CConEmuPipe@@QAEXXZ 00429a36 f   ConEmuPipe.obj
 0001:00028a9e       ?Execute@CConEmuPipe@@QAEHHPBXI@Z 00429a9e f   ConEmuPipe.obj
 0001:00028e3b       ?GetPtr@CConEmuPipe@@QAEPAEPAK@Z 00429e3b f   ConEmuPipe.obj
 0001:00028e72       ?Init@CConEmuPipe@@QAEHPB_WH@Z 00429e72 f   ConEmuPipe.obj
 0001:00028eeb       ?Read@CConEmuPipe@@QAEHPAXKPAK@Z 00429eeb f   ConEmuPipe.obj
 0001:00028f68       ??$_Emplace_reallocate@ABUMonitorInfoCache@CConEmuSize@@@?$vector@UMonitorInfoCache@CConEmuSize@@V?$MArrayAllocator@UMonitorInfoCache@CConEmuSize@@@@@std@@QAEPAUMonitorInfoCache@CConEmuSize@@QAU23@ABU23@@Z 00429f68 f i ConEmuSize.obj
 0001:0002902d       ??$emplace_back@ABUMonitorInfoCache@CConEmuSize@@@?$vector@UMonitorInfoCache@CConEmuSize@@V?$MArrayAllocator@UMonitorInfoCache@CConEmuSize@@@@@std@@QAEXABUMonitorInfoCache@CConEmuSize@@@Z 0042a02d f i ConEmuSize.obj
 0001:0002905e       ??$swprintf_c@$0BBI@@@YAHAAY0BBI@_WPB_WZZ 0042a05e f i ConEmuSize.obj
 0001:00029077       ??$swprintf_c@$0CI@@@YAHAAY0CI@_WPB_WZZ 0042a077 f i ConEmuSize.obj
 0001:0002908d       ??$swprintf_c@$0NM@@@YAHAAY0NM@_WPB_WZZ 0042a08d f i ConEmuSize.obj
 0001:000290a6       ??0CConEmuSize@@QAE@XZ     0042a0a6 f   ConEmuSize.obj
 0001:00029252       ??0OnDpiChangedArg@@QAE@PAVCConEmuSize@@IIPAUtagRECT@@_NW4DpiChangeSource@@@Z 0042a252 f i ConEmuSize.obj
 0001:000292a1       ??1?$MArray@UMonitorInfoCache@CConEmuSize@@@@QAE@XZ 0042a2a1 f i ConEmuSize.obj
 0001:000292d9       ??1CConEmuSize@@UAE@XZ     0042a2d9 f   ConEmuSize.obj
 0001:00029333       ??1NestedCallCounter@@QAE@XZ 0042a333 f i ConEmuSize.obj
 0001:0002933c       ??1ThickFrameDisabler@CConEmuSize@@QAE@XZ 0042a33c f   ConEmuSize.obj
 0001:000293af       ??_ECConEmuSize@@UAEPAXI@Z 0042a3af f i ConEmuSize.obj
 0001:000293af       ??_GCConEmuSize@@UAEPAXI@Z 0042a3af f i ConEmuSize.obj
 0001:000293d4       ?AddMargins@CConEmuSize@@SAXAAUtagRECT@@ABU2@W4RectOperations@@@Z 0042a3d4 f   ConEmuSize.obj
 0001:000294c2       ?AnimateWindow@CConEmuSize@@IAEHKK@Z 0042a4c2 f   ConEmuSize.obj
 0001:000295d6       ?AutoSizeFont@CConEmuSize@@QAEXUtagRECT@@W4ConEmuRect@@@Z 0042a5d6 f   ConEmuSize.obj
 0001:00029714       ?BeginSizing@CConEmuSize@@QAEXXZ 0042a714 f   ConEmuSize.obj
 0001:0002975c       ?CalcMargins@CConEmuSize@@QAE?AUtagRECT@@KW4ConEmuWindowMode@@@Z 0042a75c f   ConEmuSize.obj
 0001:00029890       ?CalcMargins_FrameCaption@CConEmuSize@@IBE?AUtagRECT@@KW4ConEmuWindowMode@@@Z 0042a890 f   ConEmuSize.obj
 0001:00029a67       ?CalcMargins_InvisibleFrame@CConEmuSize@@IBE?AUtagRECT@@XZ 0042aa67 f   ConEmuSize.obj
 0001:00029acb       ?CalcMargins_Padding@CConEmuSize@@IBE?AUtagRECT@@XZ 0042aacb f   ConEmuSize.obj
 0001:00029b01       ?CalcMargins_Scrolling@CConEmuSize@@IBE?AUtagRECT@@XZ 0042ab01 f   ConEmuSize.obj
 0001:00029b33       ?CalcMargins_StatusBar@CConEmuSize@@IBE?AUtagRECT@@XZ 0042ab33 f   ConEmuSize.obj
 0001:00029b62       ?CalcMargins_TabBar@CConEmuSize@@IBE?AUtagRECT@@K@Z 0042ab62 f   ConEmuSize.obj
 0001:00029c13       ?CalcMargins_VisibleFrame@CConEmuSize@@IBE?AUtagRECT@@PAU2@@Z 0042ac13 f   ConEmuSize.obj
 0001:00029d16       ?CalcMargins_Win10Frame@CConEmuSize@@IBE?AUtagRECT@@XZ 0042ad16 f   ConEmuSize.obj
 0001:00029d80       ?CalcRect@CConEmuSize@@QAE?AUtagRECT@@W4ConEmuRect@@ABU2@0PAVCVirtualConsole@@W4ConEmuMargins@@@Z 0042ad80 f   ConEmuSize.obj
 0001:0002a261       ?CalcRect@CConEmuSize@@QAE?AUtagRECT@@W4ConEmuRect@@PAVCVirtualConsole@@@Z 0042b261 f   ConEmuSize.obj
 0001:0002a452       ?CascadedPosFix@CConEmuSize@@QAEXXZ 0042b452 f   ConEmuSize.obj
 0001:0002a66c       ?ChangeTileMode@CConEmuSize@@QAE_NW4ConEmuWindowCommand@@@Z 0042b66c f   ConEmuSize.obj
 0001:0002aa98       ?CheckDpiOnMoving@CConEmuSize@@IAE_NPAUtagWINDOWPOS@@@Z 0042ba98 f   ConEmuSize.obj
 0001:0002abc3       ?CheckQuakeRect@CConEmuSize@@IAE_NPAUtagRECT@@@Z 0042bbc3 f   ConEmuSize.obj
 0001:0002ad8b       ?CheckTopMostState@CConEmuSize@@QAEXXZ 0042bd8b f   ConEmuSize.obj
 0001:0002aea6       ?CreateWindowRgn@CConEmuSize@@QAEPAUHRGN__@@XZ 0042bea6 f   ConEmuSize.obj
 0001:0002b279       ?CreateWindowRgn@CConEmuSize@@QAEPAUHRGN__@@_NHHHH@Z 0042c279 f   ConEmuSize.obj
 0001:0002b555       ?Disable@ThickFrameDisabler@CConEmuSize@@QAEXXZ 0042c555 f   ConEmuSize.obj
 0001:0002b569       ?DisableThickFrame@CConEmuSize@@QAEX_N@Z 0042c569 f   ConEmuSize.obj
 0001:0002b59e       ?DoAlwaysOnTopSwitch@CConEmuSize@@QAEXXZ 0042c59e f   ConEmuSize.obj
 0001:0002b646       ?DoBringHere@CConEmuSize@@QAEXXZ 0042c646 f   ConEmuSize.obj
 0001:0002b718       ?DoDesktopModeSwitch@CConEmuSize@@QAEXXZ 0042c718 f   ConEmuSize.obj
 0001:0002b7d1       ?DoForcedFullScreen@CConEmuSize@@QAEX_N@Z 0042c7d1 f   ConEmuSize.obj
 0001:0002b968       ?DoFullScreen@CConEmuSize@@QAEXXZ 0042c968 f   ConEmuSize.obj
 0001:0002b9d4       ?DoMaximizeRestore@CConEmuSize@@QAEXXZ 0042c9d4 f   ConEmuSize.obj
 0001:0002ba0b       ?DoMinimizeRestore@CConEmuSize@@QAEXW4SingleInstanceShowHideType@@@Z 0042ca0b f   ConEmuSize.obj
 0001:0002c60f       ?Enable@ThickFrameDisabler@CConEmuSize@@QAEXXZ 0042d60f f   ConEmuSize.obj
 0001:0002c623       ?EndSizing@CConEmuSize@@QAEXI@Z 0042d623 f   ConEmuSize.obj
 0001:0002c719       ?EvalNewNormalPos@CConEmuSize@@IAEXABUtagMONITORINFO@@PAUHMONITOR__@@0ABUtagRECT@@AAU4@@Z 0042d719 f   ConEmuSize.obj
 0001:0002c86c       ?EvalTileMode@CConEmuSize@@QAE?AW4ConEmuWindowCommand@@ABUtagRECT@@PAUtagMONITORINFO@@@Z 0042d86c f   ConEmuSize.obj
 0001:0002ca55       ?EvalVConCreateSize@CConEmuSize@@QAEXPAVCVirtualConsole@@AAI1@Z 0042da55 f   ConEmuSize.obj
 0001:0002cac1       ?FindInitialMonitor@CConEmuSize@@AAEPAUHMONITOR__@@PAUtagMONITORINFO@@@Z 0042dac1 f   ConEmuSize.obj
 0001:0002cbb2       ?FindNextSiblingApp@CConEmuSize@@QAEPAUHWND__@@_N@Z 0042dbb2 f   ConEmuSize.obj
 0001:0002cc72       ?FixPosByStartupMonitor@CConEmuSize@@IAE_NQAUHMONITOR__@@@Z 0042dc72 f   ConEmuSize.obj
 0001:0002cfb0       ?FixWindowRect@CConEmuSize@@IAE_NAAUtagRECT@@K_N@Z 0042dfb0 f   ConEmuSize.obj
 0001:0002d47d       ?FormatTileMode@CConEmuSize@@SAPB_WW4ConEmuWindowCommand@@PA_WI@Z 0042e47d f   ConEmuSize.obj
 0001:0002d4dc       ?GetDefaultRect@CConEmuSize@@QAE?AUtagRECT@@XZ 0042e4dc f   ConEmuSize.obj
 0001:0002d768       ?GetDefaultSize@CConEmuSize@@QAE?AUtagSIZE@@_NPBTCESize@@1PAUHMONITOR__@@@Z 0042e768 f   ConEmuSize.obj
 0001:0002dd4c       ?GetIdealRect@CConEmuSize@@QAE?AUtagRECT@@XZ 0042ed4c f   ConEmuSize.obj
 0001:0002ddfc       ?GetInitialDpi@CConEmuSize@@QAEHPAUDpiValue@@@Z 0042edfc f   ConEmuSize.obj
 0001:0002de50       ?GetNearestMonitor@CConEmuSize@@QAEPAUHMONITOR__@@PAUtagMONITORINFO@@PBUtagRECT@@@Z 0042ee50 f   ConEmuSize.obj
 0001:0002df9b       ?GetSelfFrameWidth@CConEmuSize@@QBEIXZ 0042ef9b f   ConEmuSize.obj
 0001:0002e03d       ?GetTileMode@CConEmuSize@@QAE?AW4ConEmuWindowCommand@@_NPAUtagMONITORINFO@@@Z 0042f03d f   ConEmuSize.obj
 0001:0002e184       ?GetTileRect@CConEmuSize@@QBE?AUtagRECT@@W4ConEmuWindowCommand@@ABUtagMONITORINFO@@@Z 0042f184 f   ConEmuSize.obj
 0001:0002e2b3       ?GetWindowMode@CConEmuSize@@QBE?AW4ConEmuWindowMode@@XZ 0042f2b3 f   ConEmuSize.obj
 0001:0002e2cf       ?InMinimizing@CConEmuSize@@QAE_NPAUtagWINDOWPOS@@@Z 0042f2cf f   ConEmuSize.obj
 0001:0002e336       ?IsSizeFree@CConEmuSize@@QAE_NW4ConEmuWindowMode@@@Z 0042f336 f   ConEmuSize.obj
 0001:0002e38a       ?IsSizePosFree@CConEmuSize@@QAE_NW4ConEmuWindowMode@@@Z 0042f38a f   ConEmuSize.obj
 0001:0002e3cc       ?IsWindowModeChanging@CConEmuSize@@QBE_NXZ 0042f3cc f   ConEmuSize.obj
 0001:0002e3eb       ?JumpNextMonitor@CConEmuSize@@QAE_NPAUHWND__@@PAUHMONITOR__@@_NUtagRECT@@PAU4@@Z 0042f3eb f   ConEmuSize.obj
 0001:0002e7ec       ?JumpNextMonitor@CConEmuSize@@QAE_N_N@Z 0042f7ec f   ConEmuSize.obj
 0001:0002e940       ?LogMinimizeRestoreSkip@CConEmuSize@@QAEXPB_WKKK@Z 0042f940 f   ConEmuSize.obj
 0001:0002e98a       ?LogTileModeChange@CConEmuSize@@IAEXPB_WW4ConEmuWindowCommand@@_NABUtagRECT@@PAU3@PAUHMONITOR__@@@Z 0042f98a f   ConEmuSize.obj
 0001:0002eb22       ?NearestMonitorInfo@CConEmuSize@@QBE?AUMonitorInfoCache@1@ABUtagRECT@@@Z 0042fb22 f   ConEmuSize.obj
 0001:0002eb46       ?NearestMonitorInfo@CConEmuSize@@QBE?AUMonitorInfoCache@1@PAUHMONITOR__@@@Z 0042fb46 f   ConEmuSize.obj
 0001:0002ebfb       ?OnConsoleResize@CConEmuSize@@QAEXXZ 0042fbfb f   ConEmuSize.obj
 0001:0002ed73       ?OnDisplayChanged@CConEmuSize@@QAEJIII@Z 0042fd73 f   ConEmuSize.obj
 0001:0002edc4       ?OnDpiChanged@CConEmuSize@@QAEJIIPAUtagRECT@@_NW4DpiChangeSource@@@Z 0042fdc4 f   ConEmuSize.obj
 0001:0002f151       ?OnDpiChangedCall@CConEmuSize@@KAJJ@Z 00430151 f   ConEmuSize.obj
 0001:0002f17a       ?OnGetMinMaxInfo@CConEmuSize@@QAEJPAUtagMINMAXINFO@@@Z 0043017a f   ConEmuSize.obj
 0001:0002f5a7       ?OnMoving@CConEmuSize@@QAEJPAUtagRECT@@_N@Z 004305a7 f   ConEmuSize.obj
 0001:0002fa75       ?OnSize@CConEmuSize@@QAEJ_NI@Z 00430a75 f   ConEmuSize.obj
 0001:0002fc12       ?OnSizePanels@CConEmuSize@@QAEXU_COORD@@@Z 00430c12 f   ConEmuSize.obj
 0001:0002ff90       ?OnSizing@CConEmuSize@@QAEJIJ@Z 00430f90 f   ConEmuSize.obj
 0001:0003025c       ?OnWindowPosChanged@CConEmuSize@@QAEJPAUHWND__@@IIJ@Z 0043125c f   ConEmuSize.obj
 0001:000306cd       ?OnWindowPosChanging@CConEmuSize@@QAEJPAUHWND__@@IIJ@Z 004316cd f   ConEmuSize.obj
 0001:00030c9b       ?ReSize@CConEmuSize@@QAEX_N@Z 00431c9b f   ConEmuSize.obj
 0001:00030de4       ?RealPosFromVisual@CConEmuSize@@IAE?AUtagPOINT@@HH@Z 00431de4 f   ConEmuSize.obj
 0001:00030e16       ?RecreateControls@CConEmuSize@@QAEX_N00PAUtagRECT@@@Z 00431e16 f   ConEmuSize.obj
 0001:00030ec8       ?ReloadMonitorInfo@CConEmuSize@@QAEXXZ 00431ec8 f   ConEmuSize.obj
 0001:000317db       ?Restore@QuakePrevSize@CConEmuSize@@QAE?AW4ConEmuWindowMode@@AATCESize@@0AAJ1AAEAAUtagRECT@@AA_N@Z 004327db f   ConEmuSize.obj
 0001:0003182b       ?Save@QuakePrevSize@CConEmuSize@@QAEXABTCESize@@0ABJ1ABEABW4ConEmuWindowMode@@ABUtagRECT@@AB_N@Z 0043282b f   ConEmuSize.obj
 0001:00031884       ?SetFromString@CESize@@QAE_N_NPB_W@Z 00432884 f i ConEmuSize.obj
 0001:000318ea       ?SetIgnoreQuakeActivation@CConEmuSize@@QAEX_N@Z 004328ea f   ConEmuSize.obj
 0001:00031912       ?SetNormalWindowSize@CConEmuSize@@IAE?AUtagRECT@@XZ 00432912 f   ConEmuSize.obj
 0001:000319ad       ?SetQuakeMode@CConEmuSize@@QAE_NEW4ConEmuWindowMode@@_N@Z 004329ad f   ConEmuSize.obj
 0001:00031bd7       ?SetRequestedMonitor@CConEmuSize@@QAEXPAUHMONITOR__@@@Z 00432bd7 f   ConEmuSize.obj
 0001:00031c34       ?SetTileMode@CConEmuSize@@IAEXW4ConEmuWindowCommand@@@Z 00432c34 f   ConEmuSize.obj
 0001:00031cbc       ?SetWindowMode@CConEmuSize@@QAE_NW4ConEmuWindowMode@@_N1@Z 00432cbc f   ConEmuSize.obj
 0001:000329df       ?SetWindowPosSize@CConEmuSize@@QAE_NPB_W000@Z 004339df f   ConEmuSize.obj
 0001:00032cc9       ?SetWindowPosSizeParam@CConEmuSize@@QAEX_WPB_W@Z 00433cc9 f   ConEmuSize.obj
 0001:00032db7       ?ShowMainWindow@CConEmuSize@@QAE_NH_N@Z 00433db7 f   ConEmuSize.obj
 0001:00032fff       ?SizeWindow@CConEmuSize@@QAE_NTCESize@@0@Z 00433fff f   ConEmuSize.obj
 0001:000330dc       ?StartForceShowFrame@CConEmuSize@@QAEXXZ 004340dc f   ConEmuSize.obj
 0001:0003312b       ?StopForceShowFrame@CConEmuSize@@QAEXXZ 0043412b f   ConEmuSize.obj
 0001:00033176       ?StoreNormalRect@CConEmuSize@@IAEXPBUtagRECT@@@Z 00434176 f   ConEmuSize.obj
 0001:00033559       ?StorePreMinimizeMonitor@CConEmuSize@@QAEXXZ 00434559 f   ConEmuSize.obj
 0001:0003357d       ?UpdateInsideRect@CConEmuSize@@QAEXUtagRECT@@@Z 0043457d f   ConEmuSize.obj
 0001:000335a1       ?UpdateWindowRgn@CConEmuSize@@QAEXXZ 004345a1 f   ConEmuSize.obj
 0001:000336f3       ?VisualPosFromReal@CConEmuSize@@IAE?AUtagPOINT@@HH@Z 004346f3 f   ConEmuSize.obj
 0001:00033725       ?_Calculate_growth@?$vector@UMonitorInfoCache@CConEmuSize@@V?$MArrayAllocator@UMonitorInfoCache@CConEmuSize@@@@@std@@ABEII@Z 00434725 f i ConEmuSize.obj
 0001:00033752       ?_Change_array@?$vector@UMonitorInfoCache@CConEmuSize@@V?$MArrayAllocator@UMonitorInfoCache@CConEmuSize@@@@@std@@AAEXQAUMonitorInfoCache@CConEmuSize@@II@Z 00434752 f i ConEmuSize.obj
 0001:00033796       ?_Tidy@?$vector@UMonitorInfoCache@CConEmuSize@@V?$MArrayAllocator@UMonitorInfoCache@CConEmuSize@@@@@std@@AAEXXZ 00434796 f i ConEmuSize.obj
 0001:000337c1       ?allocate@?$MArrayAllocator@UMonitorInfoCache@CConEmuSize@@@@QAEPAUMonitorInfoCache@CConEmuSize@@I@Z 004347c1 f i ConEmuSize.obj
 0001:000337fd       ?isCaptionHidden@CConEmuSize@@QBE_NW4ConEmuWindowMode@@@Z 004347fd f   ConEmuSize.obj
 0001:00033851       ?isFullScreen@CConEmuSize@@QAE_NXZ 00434851 f   ConEmuSize.obj
 0001:00033875       ?isIconic@CConEmuSize@@QAE_N_N@Z 00434875 f   ConEmuSize.obj
 0001:00033930       ?isSelfFrame@CConEmuSize@@QBE_NW4ConEmuWindowMode@@@Z 00434930 f   ConEmuSize.obj
 0001:000339a9       ?isSizing@CConEmuSize@@QAE_NI@Z 004349a9 f   ConEmuSize.obj
 0001:000339e8       ?isWin10InvisibleFrame@CConEmuSize@@QBE_NW4ConEmuWindowMode@@@Z 004349e8 f   ConEmuSize.obj
 0001:00033a10       ?isWindowNormal@CConEmuSize@@QAE_NXZ 00434a10 f   ConEmuSize.obj
 0001:00033a44       ?isZoomed@CConEmuSize@@QAE_NXZ 00434a44 f   ConEmuSize.obj
 0001:00033a68       ?setWindowPos@CConEmuSize@@QAE_NPAUHWND__@@HHHHI@Z 00434a68 f   ConEmuSize.obj
 0001:00033bc4       ??$swprintf_c@$0BCE@@@YAHAAY0BCE@_WPB_WZZ 00434bc4 f i ConEmuStart.obj
 0001:00033bdd       ??$wcscat_add@$0CAI@@@YAHHAAY0CAI@_WPB_W@Z 00434bdd f i ConEmuStart.obj
 0001:00033c09       ??$wcscpy_add@$0CAI@@@YAHHAAY0CAI@_WPB_W@Z 00434c09 f i ConEmuStart.obj
 0001:00033c35       ??$wcscpy_add@$0CAI@@@YAHPA_WAAY0CAI@_WPB_W@Z 00434c35 f i ConEmuStart.obj
 0001:00033c62       ??0CConEmuStart@@QAE@PAVCConEmuMain@@@Z 00434c62 f   ConEmuStart.obj
 0001:00033d04       ??0StartOptions@CConEmuStart@@QAE@XZ 00434d04 f i ConEmuStart.obj
 0001:00033fbd       ??1CConEmuStart@@UAE@XZ    00434fbd f   ConEmuStart.obj
 0001:00033fe8       ??1CESwitch@@QAE@XZ        00434fe8 f   ConEmuStart.obj
 0001:0003401c       ??1StartOptions@CConEmuStart@@QAE@XZ 0043501c f i ConEmuStart.obj
 0001:000342ff       ??BCESwitch@@QAE_NXZ       004352ff f   ConEmuStart.obj
 0001:00034304       ??_ECConEmuStart@@UAEPAXI@Z 00435304 f i ConEmuStart.obj
 0001:00034304       ??_GCConEmuStart@@UAEPAXI@Z 00435304 f i ConEmuStart.obj
 0001:00034329       ?Clear@CESwitch@@QAEXXZ    00435329 f   ConEmuStart.obj
 0001:00034352       ?FindBashLocation@CConEmuStart@@QAE_NAAUCEStr@@@Z 00435352 f   ConEmuStart.obj
 0001:0003443e       ?GetBool@CESwitch@@QAE_NXZ 0043543e f   ConEmuStart.obj
 0001:0003444f       ?GetCfgParm@CConEmuStart@@IAE_NAAPB_WAAUCESwitch@@H_N@Z 0043544f f   ConEmuStart.obj
 0001:000345b6       ?GetCmd@CConEmuStart@@QAEPB_WPA_N_N@Z 004355b6 f   ConEmuStart.obj
 0001:00034881       ?GetCurCmd@CConEmuStart@@QAEPB_WPA_N@Z 00435881 f   ConEmuStart.obj
 0001:000348b9       ?GetDefaultCmd@CConEmuStart@@QAEPB_WXZ 004358b9 f   ConEmuStart.obj
 0001:000348bd       ?GetDefaultTask@CConEmuStart@@QAEPB_WXZ 004358bd f   ConEmuStart.obj
 0001:00034905       ?GetInt@CESwitch@@QAEHXZ   00435905 f   ConEmuStart.obj
 0001:00034917       ?GetStr@CESwitch@@QAEPB_WXZ 00435917 f   ConEmuStart.obj
 0001:0003493e       ?ParseCommandLine@CConEmuStart@@QAE_NPB_WAAH@Z 0043593e f   ConEmuStart.obj
 0001:000369c5       ?ProcessConEmuArgsVar@CConEmuStart@@IAEXXZ 004379c5 f   ConEmuStart.obj
 0001:00036a64       ?ResetCmdArg@CConEmuStart@@QAEXXZ 00437a64 f   ConEmuStart.obj
 0001:00036a77       ?ResetConman@CConEmuStart@@QAEXXZ 00437a77 f   ConEmuStart.obj
 0001:00036ac6       ?SetBool@CESwitch@@QAEX_N@Z 00437ac6 f   ConEmuStart.obj
 0001:00036ae0       ?SetCurCmd@CConEmuStart@@QAEXPB_W_N@Z 00437ae0 f   ConEmuStart.obj
 0001:00036b04       ?SetDefaultCmd@CConEmuStart@@QAEXPB_W@Z 00437b04 f   ConEmuStart.obj
 0001:00036bad       ?SetInt@CESwitch@@QAEXH@Z  00437bad f   ConEmuStart.obj
 0001:00036bc8       ?SetInt@CESwitch@@QAEXPB_WH@Z 00437bc8 f   ConEmuStart.obj
 0001:00036bf2       ?SetStr@CESwitch@@QAEXPB_WW4CESwitchType@@@Z 00437bf2 f   ConEmuStart.obj
 0001:00036c42       ??$wcscpy_c@$0IA@@@YAHAAY0IA@_WPB_W@Z 00437c42 f i ConfirmDlg.obj
 0001:00036c57       ?ConfirmCloseConsoles@@YAHABUConfirmCloseParam@@@Z 00437c57 f   ConfirmDlg.obj
 0001:00037286       ?ConfirmDialog@@YAHPB_W000IPAUHWND__@@000000@Z 00438286 f   ConfirmDlg.obj
 0001:000377de       ?TaskDialog@@YAJPAU_TASKDIALOGCONFIG@@PAH1PA_N@Z 004387de f   ConfirmDlg.obj
 0001:0003791b       ??0CAdjustProcessToken@@QAE@XZ 0043891b f i CreateProcess.obj
 0001:00037959       ??1CAdjustProcessToken@@QAE@XZ 00438959 f i CreateProcess.obj
 0001:000379a1       ?CreateProcessDemoted@@YAHPA_WPAU_SECURITY_ATTRIBUTES@@1HKPAXPB_WPAU_STARTUPINFOW@@PAU_PROCESS_INFORMATION@@PAK@Z 004389a1 f   CreateProcess.obj
 0001:00037b75       ?CreateProcessInteractive@@YAHKPB_WPA_WPAU_SECURITY_ATTRIBUTES@@2HKPAX0PAU_STARTUPINFOW@@PAU_PROCESS_INFORMATION@@PAK@Z 00438b75 f   CreateProcess.obj
 0001:00037f70       ?CreateProcessRestricted@@YAHPB_WPA_WPAU_SECURITY_ATTRIBUTES@@2HKPAX0PAU_STARTUPINFOW@@PAU_PROCESS_INFORMATION@@PAK@Z 00438f70 f   CreateProcess.obj
 0001:0003807d       ?CreateProcessSystem@@YAHKPA_WPAU_SECURITY_ATTRIBUTES@@1HKPAXPB_WPAU_STARTUPINFOW@@PAU_PROCESS_INFORMATION@@PAK@Z 0043907d f   CreateProcess.obj
 0001:000380ad       ?Enable@CAdjustProcessToken@@QAAHHZZ 004390ad f i CreateProcess.obj
 0001:00038106       ?Enable@CAdjustProcessToken@@QAEHPAPB_WH@Z 00439106 f i CreateProcess.obj
 0001:000381f5       ?Release@CAdjustProcessToken@@QAEXXZ 004391f5 f i CreateProcess.obj
 0001:0003825c       ??0BDFFont@@AAE@XZ         0043925c f i CustomFonts.obj
 0001:0003828b       ??0CEDC@@QAE@PAUHDC__@@@Z  0043928b f   CustomFonts.obj
 0001:000382e8       ??1BDFFont@@UAE@XZ         004392e8 f i CustomFonts.obj
 0001:00038326       ??1CachedSolidBrush@@QAE@XZ 00439326 f   CustomFonts.obj
 0001:00038336       ??1CustomFontFamily@@QAE@XZ 00439336 f   CustomFonts.obj
 0001:00038382       ??_GBDFFont@@UAEPAXI@Z     00439382 f i CustomFonts.obj
 0001:00038382       ??_EBDFFont@@UAEPAXI@Z     00439382 f i CustomFonts.obj
 0001:000383a4       ??_ECustomFont@@UAEPAXI@Z  004393a4 f i CustomFonts.obj
 0001:000383a4       ??_GCustomFont@@UAEPAXI@Z  004393a4 f i CustomFonts.obj
 0001:000383c7       ?AddFont@CustomFontFamily@@QAEXPAVCustomFont@@@Z 004393c7 f   CustomFonts.obj
 0001:00038423       ?BDF_GetFamilyName@@YAHPB_WAAY0CA@_W@Z 00439423 f   CustomFonts.obj
 0001:00038451       ?BDF_Load@@YAPAVCustomFont@@PB_W@Z 00439451 f   CustomFonts.obj
 0001:0003845a       ?Create@CEDC@@QAE_NII@Z    0043945a f   CustomFonts.obj
 0001:00038626       ?CreateBitmap@BDFFont@@AAEXXZ 00439626 f i CustomFonts.obj
 0001:0003870f       ?Delete@CEDC@@QAEXXZ       0043970f f   CustomFonts.obj
 0001:00038769       ?Get@CachedSolidBrush@@QAEPAUHBRUSH__@@K@Z 00439769 f   CustomFonts.obj
 0001:00038793       ?GetBoundingBox@BDFFont@@UAEXPAJ0@Z 00439793 f i CustomFonts.obj
 0001:000387aa       ?GetFamilyName@BDFFont@@SA_NPB_WAAY0CA@_W@Z 004397aa f i CustomFonts.obj
 0001:000388e0       ?GetFont@CustomFontFamily@@QAEPAVCustomFont@@HHHH@Z 004398e0 f   CustomFonts.obj
 0001:000389d5       ?GetSize@BDFFont@@UAEHXZ   004399d5 f i CustomFonts.obj
 0001:000389ec       ?HasBorders@BDFFont@@UAEHXZ 004399ec f i CustomFonts.obj
 0001:000389f1       ?HasUnicode@BDFFont@@UAEHXZ 004399f1 f i CustomFonts.obj
 0001:000389f6       ?IsBold@BDFFont@@UAEHXZ    004399f6 f i CustomFonts.obj
 0001:000389fb       ___scrt_initialize_winrt   004399fb f i LIBCMT:utility_desktop.obj
 0001:000389fb       ?GetPageType@CSetPgGeneral@@UAE?AW4TabHwndIndex@@XZ 004399fb f i SetPgGeneral.obj
 0001:000389fb       ___scrt_exe_initialize_mta 004399fb f i LIBCMT:utility_desktop.obj
 0001:000389fb       ?GetDefaultDestination@VirtualProcessor@details@Concurrency@@UAEPAUIExecutionContext@3@XZ 004399fb f i libconcrt:VirtualProcessor.obj
 0001:000389fb       ?EnterCriticalRegion@ContextBase@details@Concurrency@@QAEHXZ 004399fb f i libconcrt:ContextBase.obj
 0001:000389fb       ?PreRunnableSearch@VirtualProcessor@details@Concurrency@@UAEPAVInternalContextBase@23@XZ 004399fb f i libconcrt:VirtualProcessor.obj
 0001:000389fb       __get_startup_new_mode     004399fb f i LIBCMT:new_mode.obj
 0001:000389fb       ___scrt_stub_for_initialize_mta 004399fb f i LIBCMT:utility_desktop.obj
 0001:000389fb       __matherr                  004399fb f i LIBCMT:matherr.obj
 0001:000389fb       ?EnterHyperCriticalRegion@ContextBase@details@Concurrency@@QAEHXZ 004399fb f i libconcrt:ContextBase.obj
 0001:000389fb       ?ExitCriticalRegion@ContextBase@details@Concurrency@@QAEHXZ 004399fb f i libconcrt:ContextBase.obj
 0001:000389fb       ?GetContextKind@ExternalContextBase@details@Concurrency@@EBE?AW4ContextKind@ContextBase@23@XZ 004399fb f i libconcrt:ExternalContextBase.obj
 0001:000389fb       __get_startup_thread_locale_mode 004399fb f i LIBCMT:thread_locale.obj
 0001:000389fb       ?IsUnderline@BDFFont@@UAEHXZ 004399fb f i CustomFonts.obj
 0001:000389fb       __get_startup_commit_mode  004399fb f i LIBCMT:commit_mode.obj
 0001:000389fb       ?ExitHyperCriticalRegion@ContextBase@details@Concurrency@@QAEHXZ 004399fb f i libconcrt:ContextBase.obj
 0001:000389fb       ?IsItalic@BDFFont@@UAEHXZ  004399fb f i CustomFonts.obj
 0001:000389fe       ?GetContextKind@ThreadInternalContext@details@Concurrency@@UBE?AW4ContextKind@ContextBase@23@XZ 004399fe f i libconcrt:ThreadScheduler.obj
 0001:000389fe       __get_startup_argv_mode    004399fe f i LIBCMT:argv_mode.obj
 0001:000389fe       ?GetPageType@CSetPgFonts@@UAE?AW4TabHwndIndex@@XZ 004399fe f i SetPgFonts.obj
 0001:000389fe       ?IsMonospace@BDFFont@@UAEHXZ 004399fe f i CustomFonts.obj
 0001:00038a02       ?Load@BDFFont@@SAPAV1@PB_W@Z 00439a02 f i CustomFonts.obj
 0001:00038e09       ?LoadBuffer@BDFFont@@SAPADPB_WAAPAD1@Z 00439e09 f i CustomFonts.obj
 0001:00038ed6       ?NextLine@BDFFont@@SAIAAPAD0@Z 00439ed6 f i CustomFonts.obj
 0001:00038f00       ?NextWord@BDFFont@@SAIAAPAD0D@Z 00439f00 f i CustomFonts.obj
 0001:00038f4a       ?Reset@CEDC@@AAEXXZ        00439f4a f   CustomFonts.obj
 0001:00038f76       ?SelectFont@CEDC@@QAEXPAVCFont@@@Z 00439f76 f   CustomFonts.obj
 0001:00039004       ?SetBkColor@CEDC@@QAEXK@Z  0043a004 f   CustomFonts.obj
 0001:00039041       ?SetBkMode@CEDC@@QAEXH@Z   0043a041 f   CustomFonts.obj
 0001:0003907e       ?SetTextColor@CEDC@@QAEXK@Z 0043a07e f   CustomFonts.obj
 0001:000390bb       ?TextDraw@BDFFont@@UAEXPAKIKKPB_WI@Z 0043a0bb f i CustomFonts.obj
 0001:000391c2       ?TextDraw@BDFFont@@UAEXPAUHDC__@@HHPB_WI@Z 0043a1c2 f i CustomFonts.obj
 0001:0003921b       ?TextDraw@CEDC@@QAE_NHHIPBUtagRECT@@PB_WIPBH@Z 0043a21b f   CustomFonts.obj
 0001:000393cd       ?TextDrawOem@CEDC@@QAE_NHHIPBUtagRECT@@PBDIPBH@Z 0043a3cd f   CustomFonts.obj
 0001:000394a1       ?TextExtentPoint@CEDC@@QAE_NPB_WHPAUtagSIZE@@@Z 0043a4a1 f   CustomFonts.obj
 0001:00039557       ??0CDefTermBase@@QAE@_N@Z  0043a557 f i DefaultTerm.obj
 0001:000395f2       ??0CDefaultTerminal@@QAE@XZ 0043a5f2 f   DefaultTerm.obj
 0001:00039612       ??0CEDefTermOpt@@QAE@XZ    0043a612 f i DefaultTerm.obj
 0001:00039643       ??1?$MArray@UProcessInfo@CDefTermBase@@@@QAE@XZ 0043a643 f i DefaultTerm.obj
 0001:0003967b       ??1CDefTermBase@@UAE@XZ    0043a67b f i DefaultTerm.obj
 0001:000396d7       ??1CDefaultTerminal@@UAE@XZ 0043a6d7 f   DefaultTerm.obj
 0001:0003971c       ??1CEDefTermOpt@@QAE@XZ    0043a71c f i DefaultTerm.obj
 0001:000397c0       ??_GCDefTermBase@@UAEPAXI@Z 0043a7c0 f i DefaultTerm.obj
 0001:000397c0       ??_ECDefTermBase@@UAEPAXI@Z 0043a7c0 f i DefaultTerm.obj
 0001:000397e2       ??_ECDefaultTerminal@@UAEPAXI@Z 0043a7e2 f i DefaultTerm.obj
 0001:000397e2       ??_GCDefaultTerminal@@UAEPAXI@Z 0043a7e2 f i DefaultTerm.obj
 0001:00039804       ?ApplyAndSave@CDefaultTerminal@@QAEX_N0@Z 0043a804 f   DefaultTerm.obj
 0001:0003982a       ?AutoClearThreads@CDefTermBase@@MAEXXZ 0043a82a f i DefaultTerm.obj
 0001:00039832       ?AutoClearThreads@CDefaultTerminal@@MAEXXZ 0043a832 f   DefaultTerm.obj
 0001:00039849       ?CheckRegisterOsStartup@CDefaultTerminal@@QAEXXZ 0043a849 f   DefaultTerm.obj
 0001:000399bd       ?ClearThreads@CDefTermBase@@IAEX_N@Z 0043a9bd f i DefaultTerm.obj
 0001:00039a4c       ?Alias@CStartEnvTitle@@UAEXPB_W0@Z 0043aa4c f i common-user32:ProcessSetEnv.obj
 0001:00039a4c       ?VirtualProcessorActiveNotification@SchedulerBase@details@Concurrency@@MAEX_NJ@Z 0043aa4c f i libconcrt:SchedulerBase.obj
 0001:00039a4c       ?LogHookingStatus@CDefTermBase@@UAEXKPB_W@Z 0043aa4c f i DefaultTerm.obj
 0001:00039a4c       ?NotifyResourcesExternallyBusy@ThreadScheduler@details@Concurrency@@UAEXPAPAUIVirtualProcessorRoot@3@I@Z 0043aa4c f i libconcrt:ThreadScheduler.obj
 0001:00039a4c       ?Echo@CStartEnvTitle@@UAEXPB_W0@Z 0043aa4c f i common-user32:ProcessSetEnv.obj
 0001:00039a4c       ?Type@CStartEnvTitle@@UAEXPB_W0@Z 0043aa4c f i common-user32:ProcessSetEnv.obj
 0001:00039a4c       ?Set@CStartEnvTitle@@UAEXPB_W0@Z 0043aa4c f i common-user32:ProcessSetEnv.obj
 0001:00039a4c       ?ConhostLocker@CDefTermBase@@MAEX_NAA_N@Z 0043aa4c f i DefaultTerm.obj
 0001:00039a4c       ?NotifyResourcesExternallyIdle@ThreadScheduler@details@Concurrency@@UAEXPAPAUIVirtualProcessorRoot@3@I@Z 0043aa4c f i libconcrt:ThreadScheduler.obj
 0001:00039a4f       ?ConhostLocker@CDefaultTerminal@@MAEX_NAA_N@Z 0043aa4f f   DefaultTerm.obj
 0001:00039a81       ?DisplayLastError@CDefaultTerminal@@MAEHPB_WKK0PAUHWND__@@@Z 0043aa81 f   DefaultTerm.obj
 0001:00039a9f       ?GetInterface@CDefaultTerminal@@MAEPAVCDefTermBase@@XZ 0043aa9f f   DefaultTerm.obj
 0001:00039aa2       ?Initialize@CDefTermBase@@IAEX_N00@Z 0043aaa2 f i DefaultTerm.obj
 0001:00039c35       ?IsRegisteredOsStartup@CDefaultTerminal@@QAE_NPAUCEStr@@PA_N@Z 0043ac35 f   DefaultTerm.obj
 0001:00039cd9       ?LogHookingStatus@CDefaultTerminal@@UAEXKPB_W@Z 0043acd9 f   DefaultTerm.obj
 0001:00039d40       ?SelectNextItem@CSetPgBase@@UAE_N_N0@Z 0043ad40 f i SetPgANSI.obj
 0001:00039d40       ?NotifyHookingStatus@CDefTermBase@@MAE_NKPB_W@Z 0043ad40 f i DefaultTerm.obj
 0001:00039d40       ?Load@SettingsINI@@UAE_NPB_WPAPA_W@Z 0043ad40 f i Registry.obj
 0001:00039d45       ?NotifyHookingStatus@CDefaultTerminal@@MAE_NKPB_W@Z 0043ad45 f   DefaultTerm.obj
 0001:00039dfe       ?OnTaskbarCreated@CDefaultTerminal@@QAEXXZ 0043adfe f   DefaultTerm.obj
 0001:00039e16       ?PostCreatedThread@CDefTermBase@@KGKPAX@Z 0043ae16 f i DefaultTerm.obj
 0001:00039e42       ?PreCreateThread@CDefaultTerminal@@MAEXXZ 0043ae42 f   DefaultTerm.obj
 0001:00039e56       ?ReloadSettings@CDefaultTerminal@@MAEXXZ 0043ae56 f   DefaultTerm.obj
 0001:00039f66       ?Serialize@CEDefTermOpt@@QAE_N_N@Z 0043af66 f i DefaultTerm.obj
 0001:0003a4ea       ?ShowTrayIconError@CDefaultTerminal@@MAEXPB_W@Z 0043b4ea f   DefaultTerm.obj
 0001:0003a500       ?StartGuiDefTerm@CDefaultTerminal@@QAEX_N0@Z 0043b500 f   DefaultTerm.obj
 0001:0003a53d       ?StopHookers@CDefTermBase@@MAEXXZ 0043b53d f i DefaultTerm.obj
 0001:0003a560       ?_Tidy@?$vector@UDlgItem@CDpiForDialog@@V?$MArrayAllocator@UDlgItem@CDpiForDialog@@@@@std@@AAEXXZ 0043b560 f i DpiAware.obj
 0001:0003a560       ?_Tidy@?$vector@UProcessInfo@CDefTermBase@@V?$MArrayAllocator@UProcessInfo@CDefTermBase@@@@@std@@AAEXXZ 0043b560 f i DefaultTerm.obj
 0001:0003a589       ?erase@?$MArray@UThreadHandle@CDefTermBase@@@@QAEXHH@Z 0043b589 f i DefaultTerm.obj
 0001:0003a589       ?erase@?$MArray@UTabIconCache@CIconList@@@@QAEXHH@Z 0043b589 f i IconList.obj
 0001:0003a5d4       ?isDefaultTerminalAllowed@CDefaultTerminal@@UAE_N_N@Z 0043b5d4 f   DefaultTerm.obj
 0001:0003a5f9       ?isLogging@CDefaultTerminal@@UAE_NXZ 0043b5f9 f   DefaultTerm.obj
 0001:0003a60c       ?GetNumber@CDlgItemHelper@@SAHPAUHWND__@@GHH@Z 0043b60c f   DlgItemHelper.obj
 0001:0003a6c5       ?GetString@CDlgItemHelper@@SAHPAUHWND__@@GPAPA_WPB_W_N@Z 0043b6c5 f   DlgItemHelper.obj
 0001:0003a877       ?InvalidateCtrl@CDlgItemHelper@@SAXPAUHWND__@@H@Z 0043b877 f   DlgItemHelper.obj
 0001:0003a88a       ?OpenHyperlink@CDlgItemHelper@@SA_NAAUCEStr@@PAUHWND__@@@Z 0043b88a f   DlgItemHelper.obj
 0001:0003a8ca       ?ProcessHyperlinkCtrl@CDlgItemHelper@@SA_NPAUHWND__@@G@Z 0043b8ca f   DlgItemHelper.obj
 0001:0003a992       ?checkDlgButton@CDlgItemHelper@@SA_NPAUHWND__@@GI@Z 0043b992 f   DlgItemHelper.obj
 0001:0003a9ad       ?checkRadioButton@CDlgItemHelper@@SA_NPAUHWND__@@HHH@Z 0043b9ad f   DlgItemHelper.obj
 0001:0003a9c9       ?enableDlgItem@CDlgItemHelper@@SAXPAUHWND__@@G_N@Z 0043b9c9 f   DlgItemHelper.obj
 0001:0003a9e9       ?enableDlgItems@CDlgItemHelper@@SAXPAUHWND__@@PAIH_N@Z 0043b9e9 f   DlgItemHelper.obj
 0001:0003aa74       ?isChecked2@CDlgItemHelper@@SA_NPAUHWND__@@G@Z 0043ba74 f   DlgItemHelper.obj
 0001:0003aa8b       ?isChecked@CDlgItemHelper@@SAEPAUHWND__@@G@Z 0043ba8b f   DlgItemHelper.obj
 0001:0003aab8       ?isHyperlinkCtrl@CDlgItemHelper@@SA_NG@Z 0043bab8 f   DlgItemHelper.obj
 0001:0003aaf2       ??0CDpiForDialog@@IAE@XZ   0043baf2 f   DpiAware.obj
 0001:0003ab63       ??0DpiValue@@QAE@HH@Z      0043bb63 f   DpiAware.obj
 0001:0003ab77       ??0DpiValue@@QAE@XZ        0043bb77 f   DpiAware.obj
 0001:0003ab82       ??1CDpiForDialog@@QAE@XZ   0043bb82 f   DpiAware.obj
 0001:0003abd2       ?Attach@CDpiForDialog@@QAE_NPAUHWND__@@0PAVCDynDialog@@@Z 0043bbd2 f   DpiAware.obj
 0001:0003adc6       ?CenterDialog@CDpiAware@@SAXPAUHWND__@@@Z 0043bdc6 f   DpiAware.obj
 0001:0003ae92       ?Create@CDpiForDialog@@SA_NAAPAV1@@Z 0043be92 f   DpiAware.obj
 0001:0003aee0       ?Detach@CDpiForDialog@@QAEXXZ 0043bee0 f   DpiAware.obj
 0001:0003af53       ?Equals@DpiValue@@QBE_NABU1@@Z 0043bf53 f   DpiAware.obj
 0001:0003af71       ?FromWParam@DpiValue@@SA?AU1@I@Z 0043bf71 f   DpiAware.obj
 0001:0003af8f       ?GetCenteredRect@CDpiAware@@SAXPAUHWND__@@AAUtagRECT@@PAUHMONITOR__@@@Z 0043bf8f f   DpiAware.obj
 0001:0003b020       ?GetCurDpi@CDpiForDialog@@QBEABUDpiValue@@XZ 0043c020 f   DpiAware.obj
 0001:0003b024       ?GetFontSizeForDpi@CDpiForDialog@@IAEHPAUHDC__@@H@Z 0043c024 f   DpiAware.obj
 0001:0003b056       ?GetNext@?$MMap@HPAV?$MArray@UDlgItem@CDpiForDialog@@@@$0A@@@QAE_NPBHPAHPAPAV?$MArray@UDlgItem@CDpiForDialog@@@@@Z 0043c056 f i DpiAware.obj
 0001:0003b056       ?GetNext@?$MMap@PAUHWND__@@PAVCDynDialog@@$0A@@@QAE_NPBQAUHWND__@@PAPAU2@PAPAVCDynDialog@@@Z 0043c056 f i DynDialog.obj
 0001:0003b0f4       ?IsPerMonitorDpi@CDpiAware@@SA_NXZ 0043c0f4 f   DpiAware.obj
 0001:0003b1a0       ?LoadDialogItems@CDpiForDialog@@KAPAV?$MArray@UDlgItem@CDpiForDialog@@@@PAUHWND__@@@Z 0043c1a0 f   DpiAware.obj
 0001:0003b294       ?OnDpiChanged@DpiValue@@QAEXI@Z 0043c294 f   DpiAware.obj
 0001:0003b2b5       ?ProcessDpiMessages@CDpiForDialog@@QAE_NPAUHWND__@@IIJ@Z 0043c2b5 f   DpiAware.obj
 0001:0003b2fa       ?QueryDpi@CDpiAware@@SAHPAUHWND__@@PAUDpiValue@@@Z 0043c2fa f   DpiAware.obj
 0001:0003b331       ?QueryDpiForMonitor@CDpiAware@@SAHPAUHMONITOR__@@PAUDpiValue@@W4MonitorDpiType@@@Z 0043c331 f   DpiAware.obj
 0001:0003b450       ?QueryDpiForRect@CDpiAware@@SAHABUtagRECT@@PAUDpiValue@@W4MonitorDpiType@@@Z 0043c450 f   DpiAware.obj
 0001:0003b46f       ?QueryDpiForWindow@CDpiAware@@SAHPAUHWND__@@PAUDpiValue@@@Z 0043c46f f   DpiAware.obj
 0001:0003b4c6       ?SetDialogDPI@CDpiForDialog@@QAE_NABUDpiValue@@PAUtagRECT@@@Z 0043c4c6 f   DpiAware.obj
 0001:0003bce4       ?SetDpi@DpiValue@@QAEXABU1@@Z 0043cce4 f   DpiAware.obj
 0001:0003bcf8       ?SetDpi@DpiValue@@QAEXHH@Z 0043ccf8 f   DpiAware.obj
 0001:0003bd0a       ?UpdateStartupInfo@CDpiAware@@SAXPAUCEStartupEnv@@@Z 0043cd0a f   DpiAware.obj
 0001:0003bda6       ?setProcessDPIAwareness@CDpiAware@@SAJXZ 0043cda6 f   DpiAware.obj
 0001:0003bdff       ??$SafeDelete@U_ShlOpInfo@CDragDrop@@@@YAXAAPAU_ShlOpInfo@CDragDrop@@@Z 0043cdff f i DragDrop.obj
 0001:0003be2e       ??$_Emplace_reallocate@ABUFoundFile@FastConfig@@@?$vector@UFoundFile@FastConfig@@V?$MArrayAllocator@UFoundFile@FastConfig@@@@@std@@QAEPAUFoundFile@FastConfig@@QAU23@ABU23@@Z 0043ce2e f i OptionsFast.obj
 0001:0003be2e       ??$_Emplace_reallocate@ABUVarDef@CVarDefs@FastConfig@@@?$vector@UVarDef@CVarDefs@FastConfig@@V?$MArrayAllocator@UVarDef@CVarDefs@FastConfig@@@@@std@@QAEPAUVarDef@CVarDefs@FastConfig@@QAU234@ABU234@@Z 0043ce2e f i OptionsFast.obj
 0001:0003be2e       ??$_Emplace_reallocate@ABU_ThInfo@CDragDrop@@@?$vector@U_ThInfo@CDragDrop@@V?$MArrayAllocator@U_ThInfo@CDragDrop@@@@@std@@QAEPAU_ThInfo@CDragDrop@@QAU23@ABU23@@Z 0043ce2e f i DragDrop.obj
 0001:0003be2e       ??$_Emplace_reallocate@ABUtxt@CFormatCopy@@@?$vector@Utxt@CFormatCopy@@V?$MArrayAllocator@Utxt@CFormatCopy@@@@@std@@QAEPAUtxt@CFormatCopy@@QAU23@ABU23@@Z 0043ce2e f i RealBuffer.obj
 0001:0003bee1       ??$emplace_back@ABU_ThInfo@CDragDrop@@@?$vector@U_ThInfo@CDragDrop@@V?$MArrayAllocator@U_ThInfo@CDragDrop@@@@@std@@QAEXABU_ThInfo@CDragDrop@@@Z 0043cee1 f i DragDrop.obj
 0001:0003bee1       ??$emplace_back@ABUtxt@CFormatCopy@@@?$vector@Utxt@CFormatCopy@@V?$MArrayAllocator@Utxt@CFormatCopy@@@@@std@@QAEXABUtxt@CFormatCopy@@@Z 0043cee1 f i RealBuffer.obj
 0001:0003bee1       ??$emplace_back@ABUVarDef@CVarDefs@FastConfig@@@?$vector@UVarDef@CVarDefs@FastConfig@@V?$MArrayAllocator@UVarDef@CVarDefs@FastConfig@@@@@std@@QAEXABUVarDef@CVarDefs@FastConfig@@@Z 0043cee1 f i OptionsFast.obj
 0001:0003bee1       ??$emplace_back@ABUFoundFile@FastConfig@@@?$vector@UFoundFile@FastConfig@@V?$MArrayAllocator@UFoundFile@FastConfig@@@@@std@@QAEXABUFoundFile@FastConfig@@@Z 0043cee1 f i OptionsFast.obj
 0001:0003bf0e       ??0CDragDrop@@QAE@XZ       0043cf0e f   DragDrop.obj
 0001:0003bfbd       ??1?$MArray@UVarDef@CVarDefs@FastConfig@@@@QAE@XZ 0043cfbd f i OptionsFast.obj
 0001:0003bfbd       ??1?$MArray@U_ThInfo@CDragDrop@@@@QAE@XZ 0043cfbd f i DragDrop.obj
 0001:0003bfbd       ??1?$MArray@ULngRcItem@CLngRc@@@@QAE@XZ 0043cfbd f i LngRc.obj
 0001:0003bff5       ??1CDragDrop@@UAE@XZ       0043cff5 f   DragDrop.obj
 0001:0003c1c0       ??_ECDragDrop@@W7AEPAXI@Z  0043d1c0 f i DragDrop.obj
 0001:0003c1c8       ??_ECDragDrop@@UAEPAXI@Z   0043d1c8 f i DragDrop.obj
 0001:0003c1c8       ??_GCDragDrop@@UAEPAXI@Z   0043d1c8 f i DragDrop.obj
 0001:0003c1ed       ?CreateLink@CDragDrop@@QAEJPB_W00@Z 0043d1ed f   DragDrop.obj
 0001:0003c26c       ?Drag@CDragDrop@@QAEXHU_COORD@@@Z 0043d26c f   DragDrop.obj
 0001:0003c32b       ?DragEnter@CDragDrop@@UAGJPAUIDataObject@@KU_POINTL@@PAK@Z 0043d32b f   DragDrop.obj
 0001:0003c42a       ?DragLeave@CDragDrop@@UAGJXZ 0043d42a f   DragDrop.obj
 0001:0003c456       ?DragOver@CDragDrop@@UAGJKU_POINTL@@PAK@Z 0043d456 f   DragDrop.obj
 0001:0003c4e7       ?DragOverInt@CDragDrop@@IAEJKU_POINTL@@PAK@Z 0043d4e7 f   DragDrop.obj
 0001:0003c743       ?DragStart@CDragDrop@@IAEKPAUIDropSource@@KAAK@Z 0043d743 f   DragDrop.obj
 0001:0003c839       ?Drop@CDragDrop@@UAGJPAUIDataObject@@KU_POINTL@@PAK@Z 0043d839 f   DragDrop.obj
 0001:0003cab2       ?DropFromStream@CDragDrop@@IAEJPAUIDataObject@@H@Z 0043dab2 f   DragDrop.obj
 0001:0003d3cf       ?DropFromText@CDragDrop@@IAEJPAUIDataObject@@@Z 0043e3cf f   DragDrop.obj
 0001:0003d494       ?DropLinks@CDragDrop@@IAEJPAUHDROP__@@HH@Z 0043e494 f   DragDrop.obj
 0001:0003d6b4       ?DropNames@CDragDrop@@IAEJPAUHDROP__@@HH@Z 0043e6b4 f   DragDrop.obj
 0001:0003dccb       ?DropShellOp@CDragDrop@@IAEJPAUIDataObject@@PAKAAUtagSTGMEDIUM@@HH@Z 0043eccb f   DragDrop.obj
 0001:0003e0cf       ?FileCreateName@CDragDrop@@IAEPA_WHHPB_W0@Z 0043f0cf f   DragDrop.obj
 0001:0003e57f       ?FileStart@CDragDrop@@IAEPAXPB_W@Z 0043f57f f   DragDrop.obj
 0001:0003e60d       ?FileWrite@CDragDrop@@IAEJPAXK0@Z 0043f60d f   DragDrop.obj
 0001:0003e71c       ?ReportUnknownData@CDragDrop@@IAEXPAUIDataObject@@PB_W@Z 0043f71c f   DragDrop.obj
 0001:0003e8a4       ?ShellOpThreadProc@CDragDrop@@KGKPAX@Z 0043f8a4 f   DragDrop.obj
 0001:0003e9c0       ?_Calculate_growth@?$vector@UVarDef@CVarDefs@FastConfig@@V?$MArrayAllocator@UVarDef@CVarDefs@FastConfig@@@@@std@@ABEII@Z 0043f9c0 f i OptionsFast.obj
 0001:0003e9c0       ?_Calculate_growth@?$vector@Utxt@CFormatCopy@@V?$MArrayAllocator@Utxt@CFormatCopy@@@@@std@@ABEII@Z 0043f9c0 f i RealBuffer.obj
 0001:0003e9c0       ?_Calculate_growth@?$vector@U_ThInfo@CDragDrop@@V?$MArrayAllocator@U_ThInfo@CDragDrop@@@@@std@@ABEII@Z 0043f9c0 f i DragDrop.obj
 0001:0003e9c0       ?_Calculate_growth@?$vector@UFoundFile@FastConfig@@V?$MArrayAllocator@UFoundFile@FastConfig@@@@@std@@ABEII@Z 0043f9c0 f i OptionsFast.obj
 0001:0003e9c0       ?_Calculate_growth@?$vector@ULngRcItem@CLngRc@@V?$MArrayAllocator@ULngRcItem@CLngRc@@@@@std@@ABEII@Z 0043f9c0 f i LngRc.obj
 0001:0003e9e9       ?_Change_array@?$vector@UVarDef@CVarDefs@FastConfig@@V?$MArrayAllocator@UVarDef@CVarDefs@FastConfig@@@@@std@@AAEXQAUVarDef@CVarDefs@FastConfig@@II@Z 0043f9e9 f i OptionsFast.obj
 0001:0003e9e9       ?_Change_array@?$vector@UFoundFile@FastConfig@@V?$MArrayAllocator@UFoundFile@FastConfig@@@@@std@@AAEXQAUFoundFile@FastConfig@@II@Z 0043f9e9 f i OptionsFast.obj
 0001:0003e9e9       ?_Change_array@?$vector@Utxt@CFormatCopy@@V?$MArrayAllocator@Utxt@CFormatCopy@@@@@std@@AAEXQAUtxt@CFormatCopy@@II@Z 0043f9e9 f i RealBuffer.obj
 0001:0003e9e9       ?_Change_array@?$vector@U_ThInfo@CDragDrop@@V?$MArrayAllocator@U_ThInfo@CDragDrop@@@@@std@@AAEXQAU_ThInfo@CDragDrop@@II@Z 0043f9e9 f i DragDrop.obj
 0001:0003e9e9       ?_Change_array@?$vector@ULngRcItem@CLngRc@@V?$MArrayAllocator@ULngRcItem@CLngRc@@@@@std@@AAEXQAULngRcItem@CLngRc@@II@Z 0043f9e9 f i LngRc.obj
 0001:0003ea20       ?_Tidy@?$vector@Utxt@CFormatCopy@@V?$MArrayAllocator@Utxt@CFormatCopy@@@@@std@@AAEXXZ 0043fa20 f i RealBuffer.obj
 0001:0003ea20       ?_Tidy@?$vector@UFoundFile@FastConfig@@V?$MArrayAllocator@UFoundFile@FastConfig@@@@@std@@AAEXXZ 0043fa20 f i OptionsFast.obj
 0001:0003ea20       ?_Tidy@?$vector@ULngRcItem@CLngRc@@V?$MArrayAllocator@ULngRcItem@CLngRc@@@@@std@@AAEXXZ 0043fa20 f i LngRc.obj
 0001:0003ea20       ?_Tidy@?$vector@UVarDef@CVarDefs@FastConfig@@V?$MArrayAllocator@UVarDef@CVarDefs@FastConfig@@@@@std@@AAEXXZ 0043fa20 f i OptionsFast.obj
 0001:0003ea20       ?_Tidy@?$vector@U_ThInfo@CDragDrop@@V?$MArrayAllocator@U_ThInfo@CDragDrop@@@@@std@@AAEXXZ 0043fa20 f i DragDrop.obj
 0001:0003ea44       ?allocate@?$MArrayAllocator@UVarDef@CVarDefs@FastConfig@@@@QAEPAUVarDef@CVarDefs@FastConfig@@I@Z 0043fa44 f i OptionsFast.obj
 0001:0003ea44       ?allocate@?$MArrayAllocator@Utxt@CFormatCopy@@@@QAEPAUtxt@CFormatCopy@@I@Z 0043fa44 f i RealBuffer.obj
 0001:0003ea44       ?allocate@?$MArrayAllocator@U_ThInfo@CDragDrop@@@@QAEPAU_ThInfo@CDragDrop@@I@Z 0043fa44 f i DragDrop.obj
 0001:0003ea44       ?allocate@?$MArrayAllocator@UFoundFile@FastConfig@@@@QAEPAUFoundFile@FastConfig@@I@Z 0043fa44 f i OptionsFast.obj
 0001:0003ea44       ?allocate@?$MArrayAllocator@ULngRcItem@CLngRc@@@@QAEPAULngRcItem@CLngRc@@I@Z 0043fa44 f i LngRc.obj
 0001:0003ea7f       ?erase@?$MArray@U_ThInfo@CDragDrop@@@@QAEXHH@Z 0043fa7f f i DragDrop.obj
 0001:0003eac0       __vswprintf_s_l            0043fac0 f i DragDrop.obj
 0001:0003eaee       _swprintf_s                0043faee f i DragDrop.obj
 0001:0003eb0a       ??$PidlDump@PBU_ITEMIDLIST@@@@YAXPBU_ITEMIDLIST@@PAX@Z 0043fb0a f i DragDropData.obj
 0001:0003ede6       ??0CDragDropData@@QAE@XZ   0043fde6 f   DragDropData.obj
 0001:0003eeaf       ??1CDragDropData@@UAE@XZ   0043feaf f   DragDropData.obj
 0001:0003ef53       ??_ECDragDropData@@UAEPAXI@Z 0043ff53 f i DragDropData.obj
 0001:0003ef53       ??_GCDragDropData@@UAEPAXI@Z 0043ff53 f i DragDropData.obj
 0001:0003ef78       ?AddFmt_DragImageBits@CDragDropData@@AAEHPA_WIH@Z 0043ff78 f   DragDropData.obj
 0001:0003f0b8       ?AddFmt_FileNameW@CDragDropData@@AAEHPA_WIH@Z 004400b8 f   DragDropData.obj
 0001:0003f0db       ?AddFmt_HDROP@CDragDropData@@AAEHPA_WIH@Z 004400db f   DragDropData.obj
 0001:0003f180       ?AddFmt_InShellDragLoop@CDragDropData@@AAEHPA_WIH@Z 00440180 f   DragDropData.obj
 0001:0003f1ab       ?AddFmt_PREFERREDDROPEFFECT@CDragDropData@@AAEHPA_WIH@Z 004401ab f   DragDropData.obj
 0001:0003f1fc       ?AddFmt_SHELLIDLIST@CDragDropData@@AAEHPA_WIH@Z 004401fc f   DragDropData.obj
 0001:0003f40a       ?CheckIsUpdatePackage@CDragDropData@@IAE_NPAUIDataObject@@@Z 0044040a f   DragDropData.obj
 0001:0003f4f6       ?DragFeedBack@CDragDropData@@QAEXK@Z 004404f6 f   DragDropData.obj
 0001:0003f559       ?DrawImageBits@CDragDropData@@IAEHPAUHDC__@@PA_WPAHH2@Z 00440559 f   DragDropData.obj
 0001:0003f75c       ?EnumDragFormats@CDragDropData@@IAEXPAUIDataObject@@PAX@Z 0044075c f   DragDropData.obj
 0001:0003fff8       ?ForwardMessage@CDragDropData@@QAEHIIJ@Z 00440ff8 f   DragDropData.obj
 0001:0004004d       ?InDragDrop@CDragDropData@@QAEHXZ 0044104d f   DragDropData.obj
 0001:00040060       ?IsDragImageOsSupported@CDragDropData@@IAE_NXZ 00441060 f   DragDropData.obj
 0001:00040081       ?IsDragStarting@CDragDropData@@QAEHXZ 00441081 f   DragDropData.obj
 0001:000400bd       ?NeedRefreshToInfo@CDragDropData@@QAE_NU_POINTL@@@Z 004410bd f   DragDropData.obj
 0001:0004013a       ?PaintDragImageBits@CDragDropData@@IAEHPA_WAAPAUHDC__@@AAPAUHBITMAP__@@2HHPAH3PAUtagPOINT@@_NK@Z 0044113a f   DragDropData.obj
 0001:0004056d       ?PrepareDrag@CDragDropData@@QAEHHU_COORD@@PAK@Z 0044156d f   DragDropData.obj
 0001:0004076e       ?Register@CDragDropData@@QAEHXZ 0044176e f   DragDropData.obj
 0001:000407b4       ?RetrieveDragFromInfo@CDragDropData@@AAEHHU_COORD@@PAPA_WPAI@Z 004417b4 f   DragDropData.obj
 0001:00040b3d       ?RetrieveDragToInfo@CDragDropData@@QAEXU_POINTL@@@Z 00441b3d f   DragDropData.obj
 0001:00040d20       ?SetDragToInfo@CDragDropData@@QAEXPBUForwardedPanelInfo@@IPAVCRealConsole@@@Z 00441d20 f   DragDropData.obj
 0001:00040ed7       ?StringCbCopyW@@YGJPA_WIPB_W@Z 00441ed7 f i DragDropData.obj
 0001:00040f04       ?TerminateDrag@CDragDropData@@IAEXXZ 00441f04 f   DragDropData.obj
 0001:00040fcb       ?UseSourceHelper@CDragDropData@@IAE_NXZ 00441fcb f   DragDropData.obj
 0001:0004103c       ?UseTargetHelper@CDragDropData@@IAE_N_N@Z 0044203c f   DragDropData.obj
 0001:000410af       ??0CDwmHelper@@QAE@XZ      004420af f   DwmHelper.obj
 0001:000410fb       ??0DWM@CDwmHelper@@QAE@XZ  004420fb f i DwmHelper.obj
 0001:0004111a       ??0UX@CDwmHelper@@QAE@XZ   0044211a f i DwmHelper.obj
 0001:0004115a       ??1CDwmHelper@@UAE@XZ      0044215a f   DwmHelper.obj
 0001:00041243       ??_ECDwmHelper@@UAEPAXI@Z  00442243 f i DwmHelper.obj
 0001:00041243       ??_GCDwmHelper@@UAEPAXI@Z  00442243 f i DwmHelper.obj
 0001:00041268       ?AdjustWindowRectExForDpi@CDwmHelper@@QAEHPAUtagRECT@@KHKI@Z 00442268 f   DwmHelper.obj
 0001:0004128b       ?DrawType@CDwmHelper@@QAE?AW4FrameDrawStyle@@XZ 0044228b f   DwmHelper.obj
 0001:000412c2       ?DwmDefWindowProc@CDwmHelper@@QAEHPAUHWND__@@IIJPAJ@Z 004422c2 f   DwmHelper.obj
 0001:000412d5       ?DwmGetWindowAttribute@CDwmHelper@@QAEJPAUHWND__@@KPAXK@Z 004422d5 f   DwmHelper.obj
 0001:000412eb       ?DwmInvalidateIconicBitmaps@CDwmHelper@@QAEJPAUHWND__@@@Z 004422eb f   DwmHelper.obj
 0001:00041301       ?DwmSetIconicLivePreviewBitmap@CDwmHelper@@QAEJPAUHWND__@@PAUHBITMAP__@@PAUtagPOINT@@@Z 00442301 f   DwmHelper.obj
 0001:00041321       ?DwmSetIconicThumbnail@CDwmHelper@@QAEJPAUHWND__@@PAUHBITMAP__@@@Z 00442321 f   DwmHelper.obj
 0001:0004133e       ?ExtendWindowFrame@CDwmHelper@@QAE_NPAUHWND__@@ABUtagRECT@@@Z 0044233e f   DwmHelper.obj
 0001:00041392       ?ExtendWindowFrame@CDwmHelper@@QAE_NXZ 00442392 f   DwmHelper.obj
 0001:000413c5       ?ForceSetIconic@CDwmHelper@@QAEXPAUHWND__@@@Z 004423c5 f   DwmHelper.obj
 0001:00041406       ?GetDwmClientRectTopOffset@CDwmHelper@@QAEHXZ 00442406 f   DwmHelper.obj
 0001:0004140d       ?InitDwm@CDwmHelper@@AAEXXZ 0044240d f   DwmHelper.obj
 0001:00041690       ?IsDwm@CDwmHelper@@QAE_NXZ 00442690 f   DwmHelper.obj
 0001:000416bb       ?IsGlass@CDwmHelper@@QAE_NXZ 004426bb f   DwmHelper.obj
 0001:000416e3       ?IsThemed@CDwmHelper@@QAE_NXZ 004426e3 f   DwmHelper.obj
 0001:00041702       ?SetWindowTheme@CDwmHelper@@QAEXPAUHWND__@@PB_W1@Z 00442702 f   DwmHelper.obj
 0001:00041716       ??0CDynDialog@@QAE@I@Z     00442716 f   DynDialog.obj
 0001:00041761       ??1CDynDialog@@UAE@XZ      00442761 f   DynDialog.obj
 0001:00041806       ??_G?$MMap@PAUHWND__@@PAVCDynDialog@@$0A@@@QAEPAXI@Z 00442806 f i DynDialog.obj
 0001:0004185f       ??_GCDynDialog@@UAEPAXI@Z  0044285f f i DynDialog.obj
 0001:0004185f       ??_ECDynDialog@@UAEPAXI@Z  0044285f f i DynDialog.obj
 0001:00041881       ?Del@?$MMap@PAUHWND__@@PAVCDynDialog@@$0A@@@QAE_NABQAUHWND__@@@Z 00442881 f i DynDialog.obj
 0001:0004189d       ?DynDialogBox@CDynDialog@@KGHPAUHWND__@@IIJ@Z 0044289d f   DynDialog.obj
 0001:0004192d       ?ExecuteDialog@CDynDialog@@SAHIPAUHWND__@@P6GH0IIJ@ZJ@Z 0044292d f   DynDialog.obj
 0001:000419c4       ?GetDlgClass@CDynDialog@@SAPAV1@PAUHWND__@@@Z 004429c4 f   DynDialog.obj
 0001:000419ea       ?GetFontPointSize@CDynDialog@@QAEIXZ 004429ea f   DynDialog.obj
 0001:000419fd       ?LoadTemplate@CDynDialog@@QAE_NXZ 004429fd f   DynDialog.obj
 0001:00041c1e       ?LocalizeControl@CDynDialog@@SGHPAUHWND__@@J@Z 00442c1e f   DynDialog.obj
 0001:00041cfe       ?LocalizeDialog@CDynDialog@@SAXPAUHWND__@@I@Z 00442cfe f   DynDialog.obj
 0001:00041d45       ?ParseDialog@CDynDialog@@IAE_NAAK@Z 00442d45 f   DynDialog.obj
 0001:00041dea       ?ParseDialogEx@CDynDialog@@IAE_NAAK@Z 00442dea f   DynDialog.obj
 0001:00041eaa       ?ParseItem@CDynDialog@@IAE_NAAK@Z 00442eaa f   DynDialog.obj
 0001:00041f43       ?ParseItemEx@CDynDialog@@IAE_NAAK@Z 00442f43 f   DynDialog.obj
 0001:00041fe1       ?PrepareDlg@CDynDialog@@IAEXP6GHPAUHWND__@@IIJ@Z@Z 00442fe1 f   DynDialog.obj
 0001:00042035       ?ShowDialog@CDynDialog@@SAPAV1@IPAUHWND__@@P6GH0IIJ@ZJ@Z 00443035 f   DynDialog.obj
 0001:000420d5       ?SkipSz@CDynDialog@@IAEPA_WAAK@Z 004430d5 f   DynDialog.obj
 0001:00042101       ?SkipSzOrAtom@CDynDialog@@IAEPA_WAAK@Z 00443101 f   DynDialog.obj
 0001:00042181       ?SkipSzOrOrd@CDynDialog@@IAEPA_WAAK@Z 00443181 f   DynDialog.obj
 0001:000421b2       ??0CEFindDlg@@QAE@XZ       004431b2 f   FindDlg.obj
 0001:000421b2       ??0MSectionLock@@QAE@XZ    004431b2 f   common-kernel32:MSection.obj
 0001:000421bf       ?FindTextDialog@CEFindDlg@@QAEXXZ 004431bf f   FindDlg.obj
 0001:000422ce       ?UpdateFindDlgAlpha@CEFindDlg@@QAEX_N@Z 004432ce f   FindDlg.obj
 0001:00042376       ?findTextProc@CEFindDlg@@SGHPAUHWND__@@IIJ@Z 00443376 f   FindDlg.obj
 0001:00042828       ??$SafeDelete@UCEStr@@@@YAXAAPAUCEStr@@@Z 00443828 f i FindPanel.obj
 0001:00042865       ??0CFindPanel@@QAE@PAVCConEmuMain@@@Z 00443865 f   FindPanel.obj
 0001:000428ea       ??1CFindPanel@@QAE@XZ      004438ea f   FindPanel.obj
 0001:0004293d       ?Activate@CFindPanel@@QAEPAUHWND__@@_N@Z 0044393d f   FindPanel.obj
 0001:00042988       ?CreatePane@CFindPanel@@QAEPAUHWND__@@PAU2@H@Z 00443988 f   FindPanel.obj
 0001:000429ff       ?EditCtrlProc@CFindPanel@@KGJPAUHWND__@@IIJ@Z 004439ff f   FindPanel.obj
 0001:00042ab8       ?FindPaneProc@CFindPanel@@KGJPAUHWND__@@IIJ@Z 00443ab8 f   FindPanel.obj
 0001:00042bc3       ?GetParseError@MJsonValue@@QAEPB_WXZ 00443bc3 f   common-user32:MJsonReader.obj
 0001:00042bc3       ?GetHWND@CFindPanel@@QAEPAUHWND__@@XZ 00443bc3 f   FindPanel.obj
 0001:00042bc3       ?GetExecutionResourceTls@?$ThreadProxyFactory@VFreeThreadProxy@details@Concurrency@@@details@Concurrency@@UAEKXZ 00443bc3 f   libconcrt:ThreadProxyFactoryManager.obj
 0001:00042bc7       ?GetMinWidth@CFindPanel@@QAEHXZ 00443bc7 f   FindPanel.obj
 0001:00042be1       ?Invalidate@CFindPanel@@QAEXXZ 00443be1 f   FindPanel.obj
 0001:00042c0a       ?IsAvailable@CFindPanel@@QAE_N_N@Z 00443c0a f   FindPanel.obj
 0001:00042c52       ?OnCreate@CFindPanel@@IAE_NPAUtagCREATESTRUCTW@@@Z 00443c52 f   FindPanel.obj
 0001:00042c71       ?OnCreateFinished@CFindPanel@@QAE_NXZ 00443c71 f   FindPanel.obj
 0001:00042d2d       ?OnCreateFont@CFindPanel@@IAEXXZ 00443d2d f   FindPanel.obj
 0001:00042df1       ?OnDestroy@CFindPanel@@IAEXXZ 00443df1 f   FindPanel.obj
 0001:00042e44       ?OnKeyboard@CFindPanel@@IAE_NIIJAAJ@Z 00443e44 f   FindPanel.obj
 0001:00042ff1       ?OnSearch@CFindPanel@@IAEXXZ 00443ff1 f   FindPanel.obj
 0001:00043082       ?OnSize@CFindPanel@@IAEXPAUtagRECT@@@Z 00444082 f   FindPanel.obj
 0001:00043177       ?OnWindowPosChanging@CFindPanel@@IAEXPAUtagWINDOWPOS@@@Z 00444177 f   FindPanel.obj
 0001:000431cc       ?RegisterPaneClass@CFindPanel@@IAE_NXZ 004441cc f   FindPanel.obj
 0001:00043241       ?ShowMenu@CFindPanel@@IAEXXZ 00444241 f   FindPanel.obj
 0001:000433bb       ?StopSearch@CFindPanel@@IAEXXZ 004443bb f   FindPanel.obj
 0001:000433fc       ??0?$_Hash@V?$_Umap_traits@HGV?$_Uhash_compare@HU?$hash@H@std@@U?$equal_to@H@2@@std@@V?$allocator@U?$pair@$$CBHG@std@@@2@$0A@@std@@@std@@QAE@ABV?$_Uhash_compare@HU?$hash@H@std@@U?$equal_to@H@2@@1@ABV?$allocator@U?$pair@$$CBHG@std@@@1@@Z 004443fc f i Font.obj
 0001:00043455       ??0CFont@@QAE@PAUHFONT__@@@Z 00444455 f   Font.obj
 0001:000434fa       ??0CFont@@QAE@PAVCustomFont@@@Z 004444fa f   Font.obj
 0001:000435a6       ??1?$_Hash@V?$_Umap_traits@HGV?$_Uhash_compare@HU?$hash@H@std@@U?$equal_to@H@2@@std@@V?$allocator@U?$pair@$$CBHG@std@@@2@$0A@@std@@@std@@QAE@XZ 004445a6 f i Font.obj
 0001:000435c7       ??1?$list@U?$pair@$$CBHG@std@@V?$allocator@U?$pair@$$CBHG@std@@@2@@std@@QAE@XZ 004445c7 f i Font.obj
 0001:000435dc       ??1?$unordered_map@HGU?$hash@H@std@@U?$equal_to@H@2@V?$allocator@U?$pair@$$CBHG@std@@@2@@std@@QAE@XZ 004445dc f i Font.obj
 0001:000435e1       ??1CFont@@MAE@XZ           004445e1 f   Font.obj
 0001:00043665       ??_ECFont@@MAEPAXI@Z       00444665 f i Font.obj
 0001:00043665       ??_GCFont@@MAEPAXI@Z       00444665 f i Font.obj
 0001:0004368a       ?Delete@CFont@@IAE_NXZ     0044468a f   Font.obj
 0001:000436ca       ?Equal@CFont@@QBE_NPBV1@@Z 004446ca f   Font.obj
 0001:000436f7       ?IsSet@CFont@@QBE_NXZ      004446f7 f   Font.obj
 0001:00043718       ?ResetFontWidth@CFont@@QAEXXZ 00444718 f   Font.obj
 0001:00043745       ?_Buynode0@?$_List_alloc@U?$_List_base_types@U?$pair@$$CBHG@std@@V?$allocator@U?$pair@$$CBHG@std@@@2@@std@@@std@@QAEPAU?$_List_node@U?$pair@$$CBHG@std@@PAX@2@PAU32@0@Z 00444745 f i Font.obj
 0001:00043769       ?clear@?$list@U?$pair@$$CBHG@std@@V?$allocator@U?$pair@$$CBHG@std@@@2@@std@@QAEXXZ 00444769 f i Font.obj
 0001:00043795       ??$_Emplace_reallocate@ABUFontHeightInfo@@@?$vector@UFontHeightInfo@@V?$MArrayAllocator@UFontHeightInfo@@@@@std@@QAEPAUFontHeightInfo@@QAU2@ABU2@@Z 00444795 f i FontMgr.obj
 0001:00043852       ??$_Emplace_reallocate@ABURegFont@@@?$vector@URegFont@@V?$MArrayAllocator@URegFont@@@@@std@@QAEPAURegFont@@QAU2@ABU2@@Z 00444852 f i FontMgr.obj
 0001:00043919       ??$emplace_back@ABUFontHeightInfo@@@?$vector@UFontHeightInfo@@V?$MArrayAllocator@UFontHeightInfo@@@@@std@@QAEXABUFontHeightInfo@@@Z 00444919 f i FontMgr.obj
 0001:00043947       ??$emplace_back@ABURegFont@@@?$vector@URegFont@@V?$MArrayAllocator@URegFont@@@@@std@@QAEXABURegFont@@@Z 00444947 f i FontMgr.obj
 0001:0004397a       ??0CFontMgr@@QAE@XZ        0044497a f   FontMgr.obj
 0001:00043a83       ??0CLogFont@@QAE@PB_WJJJEE@Z 00444a83 f i FontMgr.obj
 0001:00043afd       ??1?$MArray@UFontHeightInfo@@@@QAE@XZ 00444afd f i FontMgr.obj
 0001:00043b35       ??1?$MArray@URegFont@@@@QAE@XZ 00444b35 f i FontMgr.obj
 0001:00043b6d       ??1CEDC@@QAE@XZ            00444b6d f i FontMgr.obj
 0001:00043b89       ??1CFontMgr@@QAE@XZ        00444b89 f   FontMgr.obj
 0001:00043c57       ?AutoRecreateFont@CFontMgr@@QAE_NHH@Z 00444c57 f   FontMgr.obj
 0001:00043d26       ?BorderFontCharSet@CFontMgr@@QAEEXZ 00444d26 f   FontMgr.obj
 0001:00043d72       ?BorderFontFaceName@CFontMgr@@QAEPB_WXZ 00444d72 f   FontMgr.obj
 0001:00043d95       ?BorderFontHeight@CFontMgr@@QAEJXZ 00444d95 f   FontMgr.obj
 0001:00043dda       ?BorderFontWidth@CFontMgr@@QAEJXZ 00444dda f   FontMgr.obj
 0001:00043e1f       ?Create@CFontMgr@@QAE_NUCLogFont@@AAVCFontPtr@@PAPAVCustomFontFamily@@@Z 00444e1f f   FontMgr.obj
 0001:0004452e       ?CreateFontGroup@CFontMgr@@AAE_NUCLogFont@@@Z 0044552e f   FontMgr.obj
 0001:00044866       ?CreateOtherFont@CFontMgr@@QAE_NPB_WAAVCFontPtr@@@Z 00445866 f   FontMgr.obj
 0001:000448e6       ?EvalFontHeight@CFontMgr@@QAEJPB_WJE@Z 004458e6 f   FontMgr.obj
 0001:00044b2b       ?EvalLogfontSizes@CFontMgr@@QAEXAAUtagLOGFONTW@@JJ@Z 00445b2b f   FontMgr.obj
 0001:00044b83       ?FindCustomFont@CFontMgr@@AAE_NPB_WHHHHPAPAVCustomFontFamily@@PAPAVCustomFont@@@Z 00445b83 f   FontMgr.obj
 0001:00044c2a       ?FontBold@CFontMgr@@QAEHXZ 00445c2a f   FontMgr.obj
 0001:00044c37       ?FontCellWidth@CFontMgr@@QAEJXZ 00445c37 f   FontMgr.obj
 0001:00044c3c       ?FontCharSet@CFontMgr@@QAEEXZ 00445c3c f   FontMgr.obj
 0001:00044c40       ?FontFaceName@CFontMgr@@QAEPB_WXZ 00445c40 f   FontMgr.obj
 0001:00044c44       ?FontHeight@CFontMgr@@QAEJXZ 00445c44 f   FontMgr.obj
 0001:00044cc3       ?FontHeightHtml@CFontMgr@@QAEJXZ 00445cc3 f   FontMgr.obj
 0001:00044d4f       ?FontItalic@CFontMgr@@QAEHXZ 00445d4f f   FontMgr.obj
 0001:00044d58       ?FontMonospaced@CFontMgr@@QAE_NXZ 00445d58 f   FontMgr.obj
 0001:00044d84       ?FontPtrRegister@CFontMgr@@IAEXPAVCFont@@@Z 00445d84 f   FontMgr.obj
 0001:00044d94       ?FontPtrUnregister@CFontMgr@@IAEXPAVCFont@@@Z 00445d94 f   FontMgr.obj
 0001:00044dcc       ?FontQuality@CFontMgr@@QAEEXZ 00445dcc f   FontMgr.obj
 0001:00044dd0       ?FontWidth@CFontMgr@@QAEJXZ 00445dd0 f   FontMgr.obj
 0001:00044e33       ?GetFontNameFromFile@CFontMgr@@QAEHPB_WAAY0CA@_W1@Z 00445e33 f   FontMgr.obj
 0001:00044eb9       ?GetFontNameFromFile_BDF@CFontMgr@@QAEHPB_WAAY0CA@_W1@Z 00445eb9 f   FontMgr.obj
 0001:00044eef       ?GetFontNameFromFile_OTF@CFontMgr@@QAEHPB_WAAY0CA@_W1@Z 00445eef f   FontMgr.obj
 0001:000454d0       ?GetFontNameFromFile_TTF@CFontMgr@@QAEHPB_WAAY0CA@_W1@Z 004464d0 f   FontMgr.obj
 0001:00045ba9       ?GetMainLogFont@CFontMgr@@QAEXAAUtagLOGFONTW@@@Z 00446ba9 f   FontMgr.obj
 0001:00045bbf       ?GetZoom@CFontMgr@@QAEJ_N@Z 00446bbf f   FontMgr.obj
 0001:00045bdd       ?InitFont@CFontMgr@@QAEXPB_WHH@Z 00446bdd f   FontMgr.obj
 0001:00045e15       ?IsAlmostMonospace@CFontMgr@@SA_NPB_WPAUtagTEXTMETRICW@@PAU_OUTLINETEXTMETRICW@@@Z 00446e15 f   FontMgr.obj
 0001:00045ef9       ?LoadOutline@CFontMgr@@SAPAU_OUTLINETEXTMETRICW@@PAUHDC__@@PAUHFONT__@@@Z 00446ef9 f   FontMgr.obj
 0001:00045fd3       ?MacroFontSetName@CFontMgr@@QAEXPB_WGG@Z 00446fd3 f   FontMgr.obj
 0001:00046167       ?MacroFontSetSize@CFontMgr@@QAE_NHH@Z 00447167 f   FontMgr.obj
 0001:00046507       ?MacroFontSetSizeInt@CFontMgr@@AAE_NAAUtagLOGFONTW@@HH@Z 00447507 f   FontMgr.obj
 0001:00046673       ?QueryFont@CFontMgr@@QAE_NW4CEFontStyles@@PAVCVirtualConsole@@AAVCFontPtr@@@Z 00447673 f   FontMgr.obj
 0001:00046705       ?RecreateAlternativeFont@CFontMgr@@AAEXXZ 00447705 f   FontMgr.obj
 0001:00046a23       ?RecreateFont@CFontMgr@@AAEX_N0@Z 00447a23 f   FontMgr.obj
 0001:00046d81       ?RecreateFontByDpi@CFontMgr@@QAE_NHHPAUtagRECT@@@Z 00447d81 f   FontMgr.obj
 0001:00046df3       ?RegisterFont@CFontMgr@@QAEHPB_WH@Z 00447df3 f   FontMgr.obj
 0001:000476a2       ?RegisterFonts@CFontMgr@@QAEXXZ 004486a2 f   FontMgr.obj
 0001:00047796       ?RegisterFontsDir@CFontMgr@@QAEXPB_W@Z 00448796 f   FontMgr.obj
 0001:000479b2       ?ResetFontWidth@CFontMgr@@AAEXXZ 004489b2 f   FontMgr.obj
 0001:00047a00       ?SaveFontSizes@CFontMgr@@AAEX_N0@Z 00448a00 f   FontMgr.obj
 0001:00047ad0       ?SettingsLoaded@CFontMgr@@QAEXK@Z 00448ad0 f   FontMgr.obj
 0001:00047bdc       ?SettingsPreSave@CFontMgr@@QAEXXZ 00448bdc f   FontMgr.obj
 0001:00047c3c       ?UnregisterFonts@CFontMgr@@QAEXXZ 00448c3c f   FontMgr.obj
 0001:00047ca4       ?_Calculate_growth@?$vector@UFontHeightInfo@@V?$MArrayAllocator@UFontHeightInfo@@@@@std@@ABEII@Z 00448ca4 f i FontMgr.obj
 0001:00047ccf       ?_Calculate_growth@?$vector@URegFont@@V?$MArrayAllocator@URegFont@@@@@std@@ABEII@Z 00448ccf f i FontMgr.obj
 0001:00047cfc       ?_Change_array@?$vector@UFontHeightInfo@@V?$MArrayAllocator@UFontHeightInfo@@@@@std@@AAEXQAUFontHeightInfo@@II@Z 00448cfc f i FontMgr.obj
 0001:00047d38       ?_Change_array@?$vector@URegFont@@V?$MArrayAllocator@URegFont@@@@@std@@AAEXQAURegFont@@II@Z 00448d38 f i FontMgr.obj
 0001:00047d7c       ?_Tidy@?$vector@UFontHeightInfo@@V?$MArrayAllocator@UFontHeightInfo@@@@@std@@AAEXXZ 00448d7c f i FontMgr.obj
 0001:00047da5       ?_Tidy@?$vector@URegFont@@V?$MArrayAllocator@URegFont@@@@@std@@AAEXXZ 00448da5 f i FontMgr.obj
 0001:00047dd0       ?allocate@?$MArrayAllocator@UFontHeightInfo@@@@QAEPAUFontHeightInfo@@I@Z 00448dd0 f i FontMgr.obj
 0001:00047e09       ?allocate@?$MArrayAllocator@URegFont@@@@QAEPAURegFont@@I@Z 00448e09 f i FontMgr.obj
 0001:00047e45       ?erase@?$MArray@URegFont@@@@QAEXHH@Z 00448e45 f i FontMgr.obj
 0001:00047e96       ??0CFontPtr@@QAE@XZ        00448e96 f   FontPtr.obj
 0001:00047e96       ??0CEStrA@@QAE@XZ          00448e96 f   common-kernel32:CEStr.obj
 0001:00047e9c       ??1CFontPtr@@QAE@XZ        00448e9c f   FontPtr.obj
 0001:00047ed0       ??4CFontPtr@@QAEAAV0@PAVCFont@@@Z 00448ed0 f   FontPtr.obj
 0001:00047ee5       ??BCEStr@@QBEPB_WXZ        00448ee5 f   common-kernel32:CEStr.obj
 0001:00047ee5       ??BMBSTR@@QBEPA_WXZ        00448ee5 f   common-user32:MBSTR.obj
 0001:00047ee5       ?Ptr@CFontPtr@@QBEPAVCFont@@XZ 00448ee5 f   FontPtr.obj
 0001:00047ee5       ??BCFontPtr@@QBEPAVCFont@@XZ 00448ee5 f   FontPtr.obj
 0001:00047ee5       ??$?CV__ExceptionPtr@@$0A@@?$shared_ptr@V__ExceptionPtr@@@std@@QBEPAV__ExceptionPtr@@XZ 00448ee5 f   libcpmt:excptptr.obj
 0001:00047ee5       ??CCFontPtr@@QBEPAVCFont@@XZ 00448ee5 f   FontPtr.obj
 0001:00047ee5       ??BCEStrA@@QBEPBDXZ        00448ee5 f   common-kernel32:CEStr.obj
 0001:00047ee8       ?Attach@CFontPtr@@QAE_NPAVCFont@@@Z 00448ee8 f   FontPtr.obj
 0001:00047f23       ?Equal@CFontPtr@@QBE_NPBVCFont@@@Z 00448f23 f   FontPtr.obj
 0001:00047f41       ?IsSet@CFontPtr@@QBE_NXZ   00448f41 f   FontPtr.obj
 0001:00047f56       ?Release@CFontPtr@@QAEHXZ  00448f56 f   FontPtr.obj
 0001:00047f68       ??0CFrameHolder@@QAE@XZ    00448f68 f   FrameHolder.obj
 0001:00047fb2       ??1CFrameHolder@@UAE@XZ    00448fb2 f   FrameHolder.obj
 0001:00047fbd       ??_ECFrameHolder@@UAEPAXI@Z 00448fbd f i FrameHolder.obj
 0001:00047fbd       ??_GCFrameHolder@@UAEPAXI@Z 00448fbd f i FrameHolder.obj
 0001:00047fe4       ?DoNcHitTest@CFrameHolder@@IAEJABUtagPOINT@@HHJ@Z 00448fe4 f   FrameHolder.obj
 0001:0004827b       ?GetWinCaptionHeight@CFrameHolder@@QAEIXZ 0044927b f   FrameHolder.obj
 0001:00048287       ?GetWinFrameWidth@CFrameHolder@@QAEIXZ 00449287 f   FrameHolder.obj
 0001:0004829a       ?InitFrameHolder@CFrameHolder@@QAEXXZ 0044929a f   FrameHolder.obj
 0001:000482a3       ?NC_Redraw@CFrameHolder@@IAEXXZ 004492a3 f   FrameHolder.obj
 0001:000482d9       ?OnDwmCompositionChanged@CFrameHolder@@IAE_NPAUHWND__@@IIJAAJ@Z 004492d9 f   FrameHolder.obj
 0001:0004833d       ?OnKeyboardMessage@CFrameHolder@@IAE_NPAUHWND__@@IIJAAJ@Z 0044933d f   FrameHolder.obj
 0001:00048398       ?OnMouseMessage@CFrameHolder@@IAE_NPAUHWND__@@IIJAAJ@Z 00449398 f   FrameHolder.obj
 0001:00048473       ?OnNcActivate@CFrameHolder@@IAE_NPAUHWND__@@IIJAAJ@Z 00449473 f   FrameHolder.obj
 0001:00048553       ?OnNcCalcSize@CFrameHolder@@IAE_NPAUHWND__@@IIJAAJ@Z 00449553 f   FrameHolder.obj
 0001:00048865       ?OnNcHitTest@CFrameHolder@@IAE_NPAUHWND__@@IIJAAJ@Z 00449865 f   FrameHolder.obj
 0001:00048920       ?OnNcLButtonDblClk@CFrameHolder@@IAE_NPAUHWND__@@IIJAAJ@Z 00449920 f   FrameHolder.obj
 0001:0004898c       ?OnNcMouseMessage@CFrameHolder@@IAE_NPAUHWND__@@IIJAAJ@Z 0044998c f   FrameHolder.obj
 0001:00048ae4       ?OnNcPaint@CFrameHolder@@IAE_NPAUHWND__@@IIJAAJ@Z 00449ae4 f   FrameHolder.obj
 0001:00048b76       ?OnNcUahDrawCaption@CFrameHolder@@IAE_NPAUHWND__@@IIJAAJ@Z 00449b76 f   FrameHolder.obj
 0001:00048c01       ?OnNcUahDrawFrame@CFrameHolder@@IAE_NPAUHWND__@@IIJAAJ@Z 00449c01 f   FrameHolder.obj
 0001:00048c8c       ?OnPaint@CFrameHolder@@IAE_NPAUHWND__@@PAUHDC__@@IAAJ@Z 00449c8c f   FrameHolder.obj
 0001:00048e81       ?OnSysCommand@CFrameHolder@@IAE_NPAUHWND__@@IIJAAJ@Z 00449e81 f   FrameHolder.obj
 0001:00048f07       ?ProcessNcMessage@CFrameHolder@@QAE_NPAUHWND__@@IIJAAJ@Z 00449f07 f   FrameHolder.obj
 0001:0004913a       ?RecalculateFrameSizes@CFrameHolder@@QAEXXZ 0044a13a f   FrameHolder.obj
 0001:00049198       ?RedrawFrame@CFrameHolder@@QAEXXZ 0044a198 f   FrameHolder.obj
 0001:000491a8       ?SetAllowPreserveClient@CFrameHolder@@QAE_N_N@Z 0044a1a8 f   FrameHolder.obj
 0001:000491b8       ?SetDontPreserveClient@CFrameHolder@@QAE_N_N@Z 0044a1b8 f   FrameHolder.obj
 0001:000491c8       ?SetFrameActiveState@CFrameHolder@@QAEX_N@Z 0044a1c8 f   FrameHolder.obj
 0001:000491e7       ?isInNcPaint@CFrameHolder@@QAE_NXZ 0044a1e7 f   FrameHolder.obj
 0001:000491ef       ??0MGlobal@@QAE@XZ         0044a1ef f   common-user32:MGlobal.obj
 0001:000491ef       ??0CEStr@@QAE@XZ           0044a1ef f   common-kernel32:CEStr.obj
 0001:000491ef       ??0Slot@?$Mailbox@VInternalContextBase@details@Concurrency@@@details@Concurrency@@QAE@XZ 0044a1ef f   libconcrt:VirtualProcessor.obj
 0001:000491ef       ??0HandleMonitor@@QAE@XZ   0044a1ef f   GdiObjects.obj
 0001:000491f9       ?DoCheck@HandleMonitor@@QAEXXZ 0044a1f9 f   GdiObjects.obj
 0001:000492c4       ??$swprintf_c@$0DM@@@YAHAAY0DM@_WPB_WZZ 0044a2c4 f i GestureEngine.obj
 0001:000492da       ??0CGestures@@QAE@XZ       0044a2da f   GestureEngine.obj
 0001:00049381       ??1CGestures@@UAE@XZ       0044a381 f   GestureEngine.obj
 0001:00049388       ??_GCGestures@@UAEPAXI@Z   0044a388 f i GestureEngine.obj
 0001:00049388       ??_ECGestures@@UAEPAXI@Z   0044a388 f i GestureEngine.obj
 0001:000493ab       ?DumpGesture@CGestures@@AAEXPB_WABUtagGESTUREINFO@@@Z 0044a3ab f   GestureEngine.obj
 0001:00049552       ?IsGesturesEnabled@CGestures@@QAE_NXZ 0044a552 f   GestureEngine.obj
 0001:00049598       ?ProcessGestureMessage@CGestures@@UAE_NPAUHWND__@@IIJAAJ@Z 0044a598 f   GestureEngine.obj
 0001:00049abd       ?ProcessMove@CGestures@@UAE_NPAUHWND__@@JJ@Z 0044aabd f   GestureEngine.obj
 0001:00049ba1       ?ProcessPressAndTap@CGestures@@UAEXPAUHWND__@@JJFF@Z 0044aba1 f   GestureEngine.obj
 0001:00049bb6       ?ProcessRotate@CGestures@@UAE_NPAUHWND__@@JJJ_N@Z 0044abb6 f   GestureEngine.obj
 0001:00049c30       ?ProcessTwoFingerTap@CGestures@@UAEXPAUHWND__@@JJK@Z 0044ac30 f   GestureEngine.obj
 0001:00049c45       ?ProcessZoom@CGestures@@UAEXPAUHWND__@@NJJ@Z 0044ac45 f   GestureEngine.obj
 0001:00049cbd       ?SendRClick@CGestures@@AAEXPAUHWND__@@JJ@Z 0044acbd f   GestureEngine.obj
 0001:00049d68       ??0CGuiServer@@QAE@XZ      0044ad68 f   GuiServer.obj
 0001:00049dc5       ??1CGuiServer@@QAE@XZ      0044adc5 f   GuiServer.obj
 0001:00049dfb       ?AllocRequestBuf@PipeInst@?$PipeServer@UCESERVER_REQ@@@@QAEPAUCESERVER_REQ@@K@Z 0044adfb f i GuiServer.obj
 0001:00049f5d       ?DumpError@?$PipeServer@UCESERVER_REQ@@@@IAEXPAUPipeInst@1@PB_WH@Z 0044af5d f i GuiServer.obj
 0001:0004a030       ?GuiServerCommand@CGuiServer@@KGHPAXPAUCESERVER_REQ@@AAPAU2@AAK3J@Z 0044b030 f   GuiServer.obj
 0001:0004aca3       ?ServerCommandFree@CRealServer@@KGXPAUCESERVER_REQ@@J@Z 0044bca3 f   RealServer.obj
 0001:0004aca3       ?GuiServerFree@CGuiServer@@KGXPAUCESERVER_REQ@@J@Z 0044bca3 f   GuiServer.obj
 0001:0004ad08       ?PipeServerRead@?$PipeServer@UCESERVER_REQ@@@@IAEHPAUPipeInst@1@@Z 0044bd08 f i GuiServer.obj
 0001:0004af6b       ?PipeServerThread@?$PipeServer@UCESERVER_REQ@@@@IAEKPAUPipeInst@1@@Z 0044bf6b f i GuiServer.obj
 0001:0004b198       ?PipeServerWrite@?$PipeServer@UCESERVER_REQ@@@@IAEHPAUPipeInst@1@PBXKPAKH@Z 0044c198 f i GuiServer.obj
 0001:0004b274       ?SetMaxCount@?$PipeServer@UCESERVER_REQ@@@@QAEXH@Z 0044c274 f i GuiServer.obj
 0001:0004b29b       ?Start@CGuiServer@@QAE_NXZ 0044c29b f   GuiServer.obj
 0001:0004b359       ?StartPipeInstance@?$PipeServer@UCESERVER_REQ@@@@IAE_NPAUPipeInst@1@@Z 0044c359 f i GuiServer.obj
 0001:0004b488       ?StartPipeServer@?$PipeServer@UCESERVER_REQ@@@@QAE_N_NPB_WJPAU_SECURITY_ATTRIBUTES@@P6GHPAXPAUCESERVER_REQ@@AAPAU3@AAK6J@ZP6GX4J@ZP6GH3J@Z99@Z 0044c488 f i GuiServer.obj
 0001:0004b5c5       ?Stop@CGuiServer@@QAEX_N@Z 0044c5c5 f   GuiServer.obj
 0001:0004b67d       ?StopPipeServer@?$PipeServer@UCESERVER_REQ@@@@QAEX_NAA_N@Z 0044c67d f i GuiServer.obj
 0001:0004b96e       ?TerminatePipeThread@?$PipeServer@UCESERVER_REQ@@@@KAXAAPAXABUPipeInst@1@AA_N@Z 0044c96e f i GuiServer.obj
 0001:0004b9c4       ?WaitForClient@?$PipeServer@UCESERVER_REQ@@@@IAE_NPAUPipeInst@1@AAH1@Z 0044c9c4 f i GuiServer.obj
 0001:0004bc56       ?WaitOverlapped@?$PipeServer@UCESERVER_REQ@@@@IAEHPAUPipeInst@1@PAK@Z 0044cc56 f i GuiServer.obj
 0001:0004bda5       ?WriteDummyAnswer@?$PipeServer@UCESERVER_REQ@@@@IAEHPAUPipeInst@1@@Z 0044cda5 f i GuiServer.obj
 0001:0004be13       ?_Disconnect@?$PipeServer@UCESERVER_REQ@@@@IAEXPAUPipeInst@1@_N11@Z 0044ce13 f i GuiServer.obj
 0001:0004be67       ?_PipeServerThread@?$PipeServer@UCESERVER_REQ@@@@KGKPAX@Z 0044ce67 f i GuiServer.obj
 0001:0004beae       ?HooksUnlockerProc@@YA_N_N@Z 0044ceae f   HooksUnlocker.obj
 0001:0004beea       ?Compare@ConEmuChord@@CA_NKK@Z 0044ceea f   HotkeyChord.obj
 0001:0004bfe9       ?GetFlagsFromMod@CEVkMatch@@SAKK@Z 0044cfe9 f   HotkeyChord.obj
 0001:0004c01c       ?GetMatchByVk@CEVkMatch@@SA_NEAAU1@@Z 0044d01c f   HotkeyChord.obj
 0001:0004c16e       ?GetModifiers@ConEmuChord@@QBEIAAY02E@Z 0044d16e f   HotkeyChord.obj
 0001:0004c1d9       ?IsEmpty@ConEmuChord@@QBE_NXZ 0044d1d9 f   HotkeyChord.obj
 0001:0004c1e0       ?IsEqual@ConEmuChord@@QBE_NABU1@@Z 0044d1e0 f   HotkeyChord.obj
 0001:0004c1f6       ?IsEqual@ConEmuChord@@QBE_NEK@Z 0044d1f6 f   HotkeyChord.obj
 0001:0004c22d       ?Set@ConEmuChord@@QAEXEK@Z 0044d22d f   HotkeyChord.obj
 0001:0004c23f       ??0CHotKeyDialog@@QAE@PAUHWND__@@K@Z 0044d23f f   HotkeyDlg.obj
 0001:0004c286       ??1CHotKeyDialog@@QAE@XZ   0044d286 f   HotkeyDlg.obj
 0001:0004c2c2       ?EditHotKey@CHotKeyDialog@@SA_NPAUHWND__@@AAK@Z 0044d2c2 f   HotkeyDlg.obj
 0001:0004c32f       ?FillModifierBoxes@CHotKeyDialog@@SAXABUConEmuHotKey@@PAUHWND__@@@Z 0044d32f f   HotkeyDlg.obj
 0001:0004c378       ?SetHotkeyField@CHotKeyDialog@@SAXPAUHWND__@@E@Z 0044d378 f   HotkeyDlg.obj
 0001:0004c3cb       ?dlgGetHotkey@CHotKeyDialog@@SAKPAUHWND__@@II@Z 0044d3cb f   HotkeyDlg.obj
 0001:0004c486       ?hkDlgProc@CHotKeyDialog@@SGHPAUHWND__@@IIJ@Z 0044d486 f   HotkeyDlg.obj
 0001:0004c7b1       ??$_Emplace_reallocate@ABUConEmuHotKey@@@?$vector@UConEmuHotKey@@V?$MArrayAllocator@UConEmuHotKey@@@@@std@@QAEPAUConEmuHotKey@@QAU2@ABU2@@Z 0044d7b1 f i HotkeyList.obj
 0001:0004c876       ??$emplace_back@ABUConEmuHotKey@@@?$vector@UConEmuHotKey@@V?$MArrayAllocator@UConEmuHotKey@@@@@std@@QAEXABUConEmuHotKey@@@Z 0044d876 f i HotkeyList.obj
 0001:0004c8a7       ?Add@ConEmuHotKeyList@@IAEPAUConEmuHotKey@@HW4ConEmuHotKeyType@@P6A_NXZPB_WP6G_NABUConEmuChord@@_NPBU2@PAVCRealConsole@@@Z42@Z 0044d8a7 f   HotkeyList.obj
 0001:0004c942       ?AllocateHotkeys@ConEmuHotKeyList@@QAEHXZ 0044d942 f   HotkeyList.obj
 0001:0004e5fd       ?FindHotKey@ConEmuHotKeyList@@QAEPBUConEmuHotKey@@ABUConEmuChord@@PAVCRealConsole@@@Z 0044f5fd f   HotkeyList.obj
 0001:0004e69c       ?GetHotKeyInfo@ConEmuHotKeyList@@QAEPBUConEmuHotKey@@ABUConEmuChord@@_NPAVCRealConsole@@@Z 0044f69c f   HotkeyList.obj
 0001:0004e6c2       ?GetHotKeyPtr@ConEmuHotKeyList@@QAEPBUConEmuHotKey@@H@Z 0044f6c2 f   HotkeyList.obj
 0001:0004e70e       ?ReleaseHotkeys@ConEmuHotKeyList@@QAEXXZ 0044f70e f   HotkeyList.obj
 0001:0004e76a       ?UpdateArrowModifier@ConEmuHotKeyList@@QAEXXZ 0044f76a f   HotkeyList.obj
 0001:0004e7c1       ?UpdateNumberModifier@ConEmuHotKeyList@@QAEXXZ 0044f7c1 f   HotkeyList.obj
 0001:0004e818       ?_Calculate_growth@?$vector@UConEmuHotKey@@V?$MArrayAllocator@UConEmuHotKey@@@@@std@@ABEII@Z 0044f818 f i HotkeyList.obj
 0001:0004e845       ?_Change_array@?$vector@UConEmuHotKey@@V?$MArrayAllocator@UConEmuHotKey@@@@@std@@AAEXQAUConEmuHotKey@@II@Z 0044f845 f i HotkeyList.obj
 0001:0004e889       ?allocate@?$MArrayAllocator@UConEmuHotKey@@@@QAEPAUConEmuHotKey@@I@Z 0044f889 f i HotkeyList.obj
 0001:0004e8c5       ?CanChangeVK@ConEmuHotKey@@QBE_NXZ 0044f8c5 f   Hotkeys.obj
 0001:0004e8e6       ?CreateNotUniqueWarning@ConEmuHotKey@@SAPB_WPB_W00AAUCEStr@@@Z 0044f8e6 f   Hotkeys.obj
 0001:0004e990       ?Equal@ConEmuHotKey@@QAE_NEEEE@Z 0044f990 f   Hotkeys.obj
 0001:0004e9bf       ?GetDescription@ConEmuHotKey@@QBEPB_WPA_WH_N@Z 0044f9bf f   Hotkeys.obj
 0001:0004ec7f       ?GetHotKeyMod@ConEmuHotKey@@SAKK@Z 0044fc7f f   Hotkeys.obj
 0001:0004ece9       ?GetHotkey@ConEmuHotKey@@SAKK@Z 0044fce9 f   Hotkeys.obj
 0001:0004ecf2       ?GetHotkeyName@ConEmuHotKey@@QBEPB_WAAY0IA@_W_N@Z 0044fcf2 f   Hotkeys.obj
 0001:0004ee53       ?GetHotkeyName@ConEmuHotKey@@SAPB_WKAAY0IA@_W_N@Z 0044fe53 f   Hotkeys.obj
 0001:0004eeb7       ?GetModifier@ConEmuHotKey@@SAKKH@Z 0044feb7 f   Hotkeys.obj
 0001:0004ef26       ?GetTaskIndex@ConEmuHotKey@@QBEHXZ 0044ff26 f   Hotkeys.obj
 0001:0004ef3d       ?GetVkByKeyName@ConEmuHotKey@@SAIPB_WPAHPAK@Z 0044ff3d f   Hotkeys.obj
 0001:0004f034       ?GetVkKeyName@ConEmuHotKey@@SAXEAAY0CA@_W_N@Z 00450034 f   Hotkeys.obj
 0001:0004f300       ?GetVkMod@ConEmuHotKey@@QBEKXZ 00450300 f   Hotkeys.obj
 0001:0004f3cf       ?HasModifier@ConEmuHotKey@@SA_NKE@Z 004503cf f   Hotkeys.obj
 0001:0004f416       ?InSelection@ConEmuHotKey@@SA_NXZ 00450416 f   Hotkeys.obj
 0001:0004f468       ?IsTaskHotKey@ConEmuHotKey@@QBE_NXZ 00450468 f   Hotkeys.obj
 0001:0004f477       ?MakeHotKey@ConEmuHotKey@@SAKEEEE@Z 00450477 f   Hotkeys.obj
 0001:0004f4ce       ?SetHotKey@ConEmuHotKey@@QAEXEEEE@Z 004504ce f   Hotkeys.obj
 0001:0004f4f5       ?SetModifier@ConEmuHotKey@@SAKKE_N@Z 004504f5 f   Hotkeys.obj
 0001:0004f645       ?SetTaskIndex@ConEmuHotKey@@QAEXH@Z 00450645 f   Hotkeys.obj
 0001:0004f65b       ?SetVkMod@ConEmuHotKey@@QAEXK@Z 0045065b f   Hotkeys.obj
 0001:0004f6c4       ?TestHostkeyModifiers@ConEmuHotKey@@SAXAAK@Z 004506c4 f   Hotkeys.obj
 0001:0004f820       ?UseCTSShiftArrow@ConEmuHotKey@@SA_NXZ 00450820 f   Hotkeys.obj
 0001:0004f8a3       ?UseCtrlBS@ConEmuHotKey@@SA_NXZ 004508a3 f   Hotkeys.obj
 0001:0004f8bd       ?UseCtrlTab@ConEmuHotKey@@SA_NXZ 004508bd f   Hotkeys.obj
 0001:0004f8c9       ?UseDndLKey@ConEmuHotKey@@SA_NXZ 004508c9 f   Hotkeys.obj
 0001:0004f8d7       ?UseDndRKey@ConEmuHotKey@@SA_NXZ 004508d7 f   Hotkeys.obj
 0001:0004f8e7       ?UsePromptFind@ConEmuHotKey@@SA_NXZ 004508e7 f   Hotkeys.obj
 0001:0004f994       ?UseWinArrows@ConEmuHotKey@@SA_NXZ 00450994 f   Hotkeys.obj
 0001:0004f9a0       ?UseWinNumber@ConEmuHotKey@@SA_NXZ 004509a0 f   Hotkeys.obj
 0001:0004f9c3       ?UseWndDragKey@ConEmuHotKey@@SA_NXZ 004509c3 f   Hotkeys.obj
 0001:0004f9cf       ??0CIconList@@QAE@XZ       004509cf f   IconList.obj
 0001:0004fa31       ??1CIconList@@QAE@XZ       00450a31 f   IconList.obj
 0001:0004faec       ?CreateTabIcon@CIconList@@QAEHPB_W_N0@Z 00450aec f   IconList.obj
 0001:0004fc3d       ?CreateTabIconInt@CIconList@@IAEHPB_W_N0@Z 00450c3d f   IconList.obj
 0001:0005017e       ?GetIconInfoStr@CIconList@@SAPB_WPAUHICON__@@AAY0FA@_W@Z 0045117e f   IconList.obj
 0001:000501fd       ?GetTabIcon@CIconList@@QAEH_N@Z 004511fd f   IconList.obj
 0001:00050225       ?GetTabIconByIndex@CIconList@@QAEPAUHICON__@@H@Z 00451225 f   IconList.obj
 0001:00050248       ?Initialize@CIconList@@QAE_NXZ 00451248 f   IconList.obj
 0001:00050462       ?IsInitialized@CIconList@@QAE_NXZ 00451462 f   IconList.obj
 0001:0005046a       ?ParseIconFileIndex@CIconList@@SAPB_WAAUCEStr@@AAH@Z 0045146a f   IconList.obj
 0001:000504db       ??$SafeDelete@VCToolImg@@@@YAXAAPAVCToolImg@@@Z 004514db f i ImgButton.obj
 0001:00050518       ??$_Emplace_reallocate@ABUBtnInfo@@@?$vector@UBtnInfo@@V?$MArrayAllocator@UBtnInfo@@@@@std@@QAEPAUBtnInfo@@QAU2@ABU2@@Z 00451518 f i ImgButton.obj
 0001:000505d5       ??$emplace_back@ABUBtnInfo@@@?$vector@UBtnInfo@@V?$MArrayAllocator@UBtnInfo@@@@@std@@QAEXABUBtnInfo@@@Z 004515d5 f i ImgButton.obj
 0001:00050603       ??0CImgButtons@@QAE@PAUHWND__@@HH@Z 00451603 f   ImgButton.obj
 0001:00050641       ??1CImgButtons@@QAE@XZ     00451641 f   ImgButton.obj
 0001:00050701       ?Add@CImgButtons@@IAEXPB_WP6APAVCToolImg@@XZI0P6AXXZ@Z 00451701 f   ImgButton.obj
 0001:00050785       ?AddDonateButtons@CImgButtons@@QAEXXZ 00451785 f   ImgButton.obj
 0001:000507ae       ?GetBtnInfo@CImgButtons@@IAE_NIPAPAUBtnInfo@@@Z 004517ae f   ImgButton.obj
 0001:000507fc       ?ImplementButtons@CImgButtons@@IAEXXZ 004517fc f   ImgButton.obj
 0001:00050946       ?Process@CImgButtons@@QAE_NPAUHWND__@@IIJAAH@Z 00451946 f   ImgButton.obj
 0001:00050a33       ?RegisterTip@CImgButtons@@IAEXXZ 00451a33 f   ImgButton.obj
 0001:00050b36       ?_Calculate_growth@?$vector@UBtnInfo@@V?$MArrayAllocator@UBtnInfo@@@@@std@@ABEII@Z 00451b36 f i ImgButton.obj
 0001:00050b61       ?_Change_array@?$vector@UBtnInfo@@V?$MArrayAllocator@UBtnInfo@@@@@std@@AAEXQAUBtnInfo@@II@Z 00451b61 f i ImgButton.obj
 0001:00050b9d       ?_Tidy@?$vector@UBtnInfo@@V?$MArrayAllocator@UBtnInfo@@@@@std@@AAEXXZ 00451b9d f i ImgButton.obj
 0001:00050bc6       ?allocate@?$MArrayAllocator@UBtnInfo@@@@QAEPAUBtnInfo@@I@Z 00451bc6 f i ImgButton.obj
 0001:00050bff       ??0CConEmuInside@@QAE@XZ   00451bff f   Inside.obj
 0001:00050c7c       ??1CConEmuInside@@UAE@XZ   00451c7c f   Inside.obj
 0001:00050cfc       ??_GCConEmuInside@@UAEPAXI@Z 00451cfc f i Inside.obj
 0001:00050cfc       ??_ECConEmuInside@@UAEPAXI@Z 00451cfc f i Inside.obj
 0001:00050d77       ?CheckInsideFocus@CConEmuInside@@QAEPAUHWND__@@XZ 00451d77 f   Inside.obj
 0001:00050eb1       ?EnumInsideFindParent@CConEmuInside@@CGHPAUHWND__@@J@Z 00451eb1 f   Inside.obj
 0001:00050f71       ?GetInsideRect@CConEmuInside@@QAE_NPAUtagRECT@@@Z 00451f71 f   Inside.obj
 0001:00051096       ?GetParentRoot@CConEmuInside@@QAEPAUHWND__@@XZ 00452096 f   Inside.obj
 0001:000510dc       ?InitInside@CConEmuInside@@SA_N_N0PB_WKPAUHWND__@@@Z 004520dc f   Inside.obj
 0001:00051194       ?InsideFindConEmu@CConEmuInside@@AAEPAUHWND__@@PAU2@@Z 00452194 f   Inside.obj
 0001:00051217       ?InsideFindParent@CConEmuInside@@QAEPAUHWND__@@XZ 00452217 f   Inside.obj
 0001:00051595       ?InsideFindShellView@CConEmuInside@@AAE_NPAUHWND__@@@Z 00452595 f   Inside.obj
 0001:00051873       ?InsideParentMonitor@CConEmuInside@@QAEXXZ 00452873 f   Inside.obj
 0001:0005188e       ?InsideUpdateDir@CConEmuInside@@AAEXXZ 0045288e f   Inside.obj
 0001:00051a27       ?InsideUpdatePlacement@CConEmuInside@@AAEXXZ 00452a27 f   Inside.obj
 0001:00051bd0       ?SendVkKeySequence@CConEmuInside@@AAE_NPAUHWND__@@PAG@Z 00452bd0 f   Inside.obj
 0001:00051d1f       ?SetInsideParentWND@CConEmuInside@@QAEXPAUHWND__@@@Z 00452d1f f   Inside.obj
 0001:00051df1       ?TurnExplorerTipPane@CConEmuInside@@AAE_NAAY0IA@_W@Z 00452df1 f   Inside.obj
 0001:00051f9a       ?inMinimizing@CConEmuInside@@QAE_NPAUtagWINDOWPOS@@@Z 00452f9a f   Inside.obj
 0001:00051fa7       ?isInsideWndSet@CConEmuInside@@QAE_NXZ 00452fa7 f   Inside.obj
 0001:00051fc0       ?isParentIconic@CConEmuInside@@QAE_NXZ 00452fc0 f   Inside.obj
 0001:00051fe8       ?isParentProcess@CConEmuInside@@QAE_NPAUHWND__@@@Z 00452fe8 f   Inside.obj
 0001:0005201f       ?Initialize@CLngPredefined@@SAXXZ 0045301f f   LngData.obj
 0001:0005204b       ?compare@LngPredefined@@SAHPBX0@Z 0045304b f i LngData.obj
 0001:0005205a       ?getHint@CLngPredefined@@SAPB_WI@Z 0045305a f   LngData.obj
 0001:00052093       ?getRsrc@CLngPredefined@@SAPB_WI@Z 00453093 f   LngData.obj
 0001:000520c9       ??$SafeDelete@VMJsonValue@@@@YAXAAPAVMJsonValue@@@Z 004530c9 f i LngRc.obj
 0001:00052106       ??$_Resize@V<lambda_f2f0e04983b581050d51a37d1395be79>@@@?$vector@ULngRcItem@CLngRc@@V?$MArrayAllocator@ULngRcItem@CLngRc@@@@@std@@AAEXIV<lambda_f2f0e04983b581050d51a37d1395be79>@@@Z 00453106 f i LngRc.obj
 0001:000521ac       ??$_Uninitialized_value_construct_n1@PAULngRcItem@CLngRc@@IV?$MArrayAllocator@ULngRcItem@CLngRc@@@@@std@@YAPAULngRcItem@CLngRc@@QAU12@IAAV?$MArrayAllocator@ULngRcItem@CLngRc@@@@U?$integral_constant@_N$0A@@0@@Z 004531ac f i LngRc.obj
 0001:000521d5       ??$_Uninitialized_value_construct_n@PAULngRcItem@CLngRc@@IV?$MArrayAllocator@ULngRcItem@CLngRc@@@@@std@@YAPAULngRcItem@CLngRc@@PAU12@IAAV?$MArrayAllocator@ULngRcItem@CLngRc@@@@@Z 004531d5 f i LngRc.obj
 0001:000521f3       ??0CLngRc@@QAE@XZ          004531f3 f   LngRc.obj
 0001:00052291       ??1CLngRc@@QAE@XZ          00453291 f   LngRc.obj
 0001:0005231b       ?Clean@CLngRc@@IAEXAAV?$MArray@ULngRcItem@CLngRc@@@@@Z 0045331b f   LngRc.obj
 0001:00052366       ?Clear@CLngRc@@IAEXAAV?$MArray@ULngDefinition@CLngRc@@@@@Z 00453366 f   LngRc.obj
 0001:00052401       ?GetResource@CLngRc@@IAE_NAAV?$MArray@ULngRcItem@CLngRc@@@@HAAUCEStr@@PB_W@Z 00453401 f   LngRc.obj
 0001:0005244a       ?Initialize@CLngRc@@SAXXZ  0045344a f   LngRc.obj
 0001:0005248e       ?LoadLanguages@CLngRc@@IAE_NPAVMJsonValue@@@Z 0045348e f   LngRc.obj
 0001:0005260b       ?LoadResources@CLngRc@@IAE_NPB_W0@Z 0045360b f   LngRc.obj
 0001:000529ad       ?LoadSection@CLngRc@@IAE_NPAVMJsonValue@@AAV?$MArray@ULngRcItem@CLngRc@@@@H@Z 004539ad f   LngRc.obj
 0001:00052c3a       ?Reload@CLngRc@@QAEX_N@Z   00453c3a f   LngRc.obj
 0001:00052ec0       ?SetResource@CLngRc@@IAE_NAAV?$MArray@ULngRcItem@CLngRc@@@@HPAVMJsonValue@@@Z 00453ec0 f   LngRc.obj
 0001:00052f72       ?SetResource@CLngRc@@IAE_NAAV?$MArray@ULngRcItem@CLngRc@@@@HPB_W_N@Z 00453f72 f   LngRc.obj
 0001:0005306f       ?_Reallocate_exactly@?$vector@ULngRcItem@CLngRc@@V?$MArrayAllocator@ULngRcItem@CLngRc@@@@@std@@AAEXI@Z 0045406f f i LngRc.obj
 0001:000530ad       ?getControl@CLngRc@@SAPB_WJAAUCEStr@@PB_W@Z 004540ad f   LngRc.obj
 0001:000530e4       ?getHint@CLngRc@@SA_NIPA_WI@Z 004540e4 f   LngRc.obj
 0001:0005318a       ?getLanguage@CLngRc@@SAPB_WXZ 0045418a f   LngRc.obj
 0001:000531b1       ?getLanguages@CLngRc@@SA_NAAV?$MArray@PB_W@@@Z 004541b1 f   LngRc.obj
 0001:0005323a       ?getRsrc@CLngRc@@SAPB_WIPAUCEStr@@@Z 0045423a f   LngRc.obj
 0001:0005329e       ?isLocalized@CLngRc@@SA_NXZ 0045429e f   LngRc.obj
 0001:000532c8       ?loadString@CLngRc@@KA_NIPA_WI@Z 004542c8 f   LngRc.obj
 0001:000532ed       ?reserve@?$vector@ULngRcItem@CLngRc@@V?$MArrayAllocator@ULngRcItem@CLngRc@@@@@std@@QAEXI@Z 004542ed f i LngRc.obj
 0001:00053316       ?resize@?$MArray@ULngRcItem@CLngRc@@@@QAE_NH@Z 00454316 f i LngRc.obj
 0001:00053332       ?set_at@?$MArray@ULngRcItem@CLngRc@@@@QAEHHABULngRcItem@CLngRc@@@Z 00454332 f i LngRc.obj
 0001:00053377       ??0MStream@@QAE@XZ         00454377 f i LoadImg.obj
 0001:00053397       ??1MStream@@UAE@XZ         00454397 f i LoadImg.obj
 0001:000533ce       ??_GMStream@@UAEPAXI@Z     004543ce f i LoadImg.obj
 0001:000533ce       ??_EMStream@@UAEPAXI@Z     004543ce f i LoadImg.obj
 0001:000533f0       ?AddRef@MStream@@UAGKXZ    004543f0 f i LoadImg.obj
 0001:00053409       ?Clone@MStream@@UAGJPAPAUIStream@@@Z 00454409 f i LoadImg.obj
 0001:00053411       ?Commit@MStream@@UAGJK@Z   00454411 f i LoadImg.obj
 0001:00053423       ?UnlockRegion@MStream@@UAGJT_ULARGE_INTEGER@@0K@Z 00454423 f i LoadImg.obj
 0001:00053423       ?CopyTo@MStream@@UAGJPAUIStream@@T_ULARGE_INTEGER@@PAT3@2@Z 00454423 f i LoadImg.obj
 0001:00053423       ?LockRegion@MStream@@UAGJT_ULARGE_INTEGER@@0K@Z 00454423 f i LoadImg.obj
 0001:0005342b       ?CreateSolidImage@@YAPAUtagBITMAPFILEHEADER@@KII@Z 0045442b f   LoadImg.obj
 0001:00053540       ?GetCodecClsid@@YAHPB_WPAU_GUID@@@Z 00454540 f   LoadImg.obj
 0001:000537a0       ?LoadImageEx@@YAPAUtagBITMAPFILEHEADER@@PB_WAAU_BY_HANDLE_FILE_INFORMATION@@@Z 004547a0 f   LoadImg.obj
 0001:000538f9       ?LoadImageFinalize@@YAXXZ  004548f9 f   LoadImg.obj
 0001:00053939       ?LoadImageGdip@@YAPAUtagBITMAPFILEHEADER@@PB_W@Z 00454939 f   LoadImg.obj
 0001:00053b97       ?QueryInterface@MStream@@UAGJABU_GUID@@PAPAX@Z 00454b97 f i LoadImg.obj
 0001:00053bff       ?Read@MStream@@UAGJPAXKPAK@Z 00454bff f i LoadImg.obj
 0001:00053c54       ?Release@MStream@@UAGKXZ   00454c54 f i LoadImg.obj
 0001:00053c7b       ?Revert@MStream@@UAGJXZ    00454c7b f i LoadImg.obj
 0001:00053c83       ?SaveImageEx@@YA_NPB_WPAEK@Z 00454c83 f   LoadImg.obj
 0001:00053d9e       ?SaveImageEx@@YA_NPB_WPAUHBITMAP__@@@Z 00454d9e f   LoadImg.obj
 0001:00053e80       ?Seek@MStream@@UAGJT_LARGE_INTEGER@@KPAT_ULARGE_INTEGER@@@Z 00454e80 f i LoadImg.obj
 0001:00053efa       ?SetData@MStream@@QAEXPBXK@Z 00454efa f i LoadImg.obj
 0001:00053f39       ?SetSize@MStream@@UAGJT_ULARGE_INTEGER@@@Z 00454f39 f i LoadImg.obj
 0001:00053fac       ?Stat@MStream@@UAGJPAUtagSTATSTG@@K@Z 00454fac f i LoadImg.obj
 0001:00054024       ?Write@MStream@@UAGJPBXKPAK@Z 00455024 f i LoadImg.obj
 0001:000540c1       ?About@ConEmuMacro@@YAPA_WPAUGuiMacro@@PAVCRealConsole@@_N@Z 004550c1 f   Macro.obj
 0001:00054100       ?AffinityPriority@ConEmuMacro@@YAPA_WPAUGuiMacro@@PAVCRealConsole@@_N@Z 00455100 f   Macro.obj
 0001:00054160       ?AltNumber@ConEmuMacro@@YAPA_WPAUGuiMacro@@PAVCRealConsole@@_N@Z 00455160 f   Macro.obj
 0001:000541aa       ?Attach@ConEmuMacro@@YAPA_WPAUGuiMacro@@PAVCRealConsole@@_N@Z 004551aa f   Macro.obj
 0001:0005423d       ?Break@ConEmuMacro@@YAPA_WPAUGuiMacro@@PAVCRealConsole@@_N@Z 0045523d f   Macro.obj
 0001:000542aa       ?Close@ConEmuMacro@@YAPA_WPAUGuiMacro@@PAVCRealConsole@@_N@Z 004552aa f   Macro.obj
 0001:000544ea       ?Context@ConEmuMacro@@YAPA_WPAUGuiMacro@@PAVCRealConsole@@_N@Z 004554ea f   Macro.obj
 0001:00054543       ?Copy@ConEmuMacro@@YAPA_WPAUGuiMacro@@PAVCRealConsole@@_N@Z 00455543 f   Macro.obj
 0001:0005463d       ?Debug@ConEmuMacro@@YAPA_WPAUGuiMacro@@PAVCRealConsole@@_N@Z 0045563d f   Macro.obj
 0001:000546bc       ?Detach@ConEmuMacro@@YAPA_WPAUGuiMacro@@PAVCRealConsole@@_N@Z 004556bc f   Macro.obj
 0001:00054716       ?EnvironmentReload@ConEmuMacro@@YAPA_WPAUGuiMacro@@PAVCRealConsole@@_N@Z 00455716 f   Macro.obj
 0001:00054730       ?EnvironmentList@ConEmuMacro@@YAPA_WPAUGuiMacro@@PAVCRealConsole@@_N@Z 00455730 f   Macro.obj
 0001:00054890       ?FindEditor@ConEmuMacro@@YAPA_WPAUGuiMacro@@PAVCRealConsole@@_N@Z 00455890 f   Macro.obj
 0001:000548da       ?FindFarWindow@ConEmuMacro@@YAPA_WPAUGuiMacro@@PAVCRealConsole@@_N@Z 004558da f   Macro.obj
 0001:0005493b       ?FindViewer@ConEmuMacro@@YAPA_WPAUGuiMacro@@PAVCRealConsole@@_N@Z 0045593b f   Macro.obj
 0001:00054985       ?Flash@ConEmuMacro@@YAPA_WPAUGuiMacro@@PAVCRealConsole@@_N@Z 00455985 f   Macro.obj
 0001:00054a5a       ?FontSetName@ConEmuMacro@@YAPA_WPAUGuiMacro@@PAVCRealConsole@@_N@Z 00455a5a f   Macro.obj
 0001:00054adb       ?FontSetSize@ConEmuMacro@@YAPA_WPAUGuiMacro@@PAVCRealConsole@@_N@Z 00455adb f   Macro.obj
 0001:00054b35       ?GetInfo@ConEmuMacro@@YAPA_WPAUGuiMacro@@PAVCRealConsole@@_N@Z 00455b35 f   Macro.obj
 0001:00054e1d       ?GetOption@ConEmuMacro@@YAPA_WPAUGuiMacro@@PAVCRealConsole@@_N@Z 00455e1d f   Macro.obj
 0001:00054f0d       ?GroupInput@ConEmuMacro@@YAPA_WPAUGuiMacro@@PAVCRealConsole@@_N@Z 00455f0d f   Macro.obj
 0001:00054fae       ?HighlightMouse@ConEmuMacro@@YAPA_WPAUGuiMacro@@PAVCRealConsole@@_N@Z 00455fae f   Macro.obj
 0001:00055019       ?IsConEmu@ConEmuMacro@@YAPA_WPAUGuiMacro@@PAVCRealConsole@@_N@Z 00456019 f   Macro.obj
 0001:00055028       ?IsConsoleActive@ConEmuMacro@@YAPA_WPAUGuiMacro@@PAVCRealConsole@@_N@Z 00456028 f   Macro.obj
 0001:00055053       ?IsRealVisible@ConEmuMacro@@YAPA_WPAUGuiMacro@@PAVCRealConsole@@_N@Z 00456053 f   Macro.obj
 0001:00055083       ?Keys@ConEmuMacro@@YAPA_WPAUGuiMacro@@PAVCRealConsole@@_N@Z 00456083 f   Macro.obj
 0001:00055385       ?Menu@ConEmuMacro@@YAPA_WPAUGuiMacro@@PAVCRealConsole@@_N@Z 00456385 f   Macro.obj
 0001:00055480       ?MsgBox@ConEmuMacro@@YAPA_WPAUGuiMacro@@PAVCRealConsole@@_N@Z 00456480 f   Macro.obj
 0001:0005555b       ?Palette@ConEmuMacro@@YAPA_WPAUGuiMacro@@PAVCRealConsole@@_N@Z 0045655b f   Macro.obj
 0001:00055750       ?Paste@ConEmuMacro@@YAPA_WPAUGuiMacro@@PAVCRealConsole@@_N@Z 00456750 f   Macro.obj
 0001:000558f1       ?PasteExplorerPath@ConEmuMacro@@YAPA_WPAUGuiMacro@@PAVCRealConsole@@_N@Z 004568f1 f   Macro.obj
 0001:00055973       ?PasteFile@ConEmuMacro@@YAPA_WPAUGuiMacro@@PAVCRealConsole@@_N@Z 00456973 f   Macro.obj
 0001:00055ae2       ?Pause@ConEmuMacro@@YAPA_WPAUGuiMacro@@PAVCRealConsole@@_N@Z 00456ae2 f   Macro.obj
 0001:00055b46       ?Print@ConEmuMacro@@YAPA_WPAUGuiMacro@@PAVCRealConsole@@_N@Z 00456b46 f   Macro.obj
 0001:00055ba6       ?Progress@ConEmuMacro@@YAPA_WPAUGuiMacro@@PAVCRealConsole@@_N@Z 00456ba6 f   Macro.obj
 0001:00055c39       ?Recreate@ConEmuMacro@@YAPA_WPAUGuiMacro@@PAVCRealConsole@@_N@Z 00456c39 f   Macro.obj
 0001:00055cdd       ?Rename@ConEmuMacro@@YAPA_WPAUGuiMacro@@PAVCRealConsole@@_N@Z 00456cdd f   Macro.obj
 0001:00055d60       ?Scroll@ConEmuMacro@@YAPA_WPAUGuiMacro@@PAVCRealConsole@@_N@Z 00456d60 f   Macro.obj
 0001:00055e75       ?Select@ConEmuMacro@@YAPA_WPAUGuiMacro@@PAVCRealConsole@@_N@Z 00456e75 f   Macro.obj
 0001:00055fe7       ?SetDpi@ConEmuMacro@@YAPA_WPAUGuiMacro@@PAVCRealConsole@@_N@Z 00456fe7 f   Macro.obj
 0001:00056065       ?SetOption@ConEmuMacro@@YAPA_WPAUGuiMacro@@PAVCRealConsole@@_N@Z 00457065 f   Macro.obj
 0001:00056480       ?SetParentHWND@ConEmuMacro@@YAPA_WPAUGuiMacro@@PAVCRealConsole@@_N@Z 00457480 f   Macro.obj
 0001:000564a5       ?Settings@ConEmuMacro@@YAPA_WPAUGuiMacro@@PAVCRealConsole@@_N@Z 004574a5 f   Macro.obj
 0001:000564e4       ?Shell@ConEmuMacro@@YAPA_WPAUGuiMacro@@PAVCRealConsole@@_N@Z 004574e4 f   Macro.obj
 0001:00056c19       ?Sleep@ConEmuMacro@@YAPA_WPAUGuiMacro@@PAVCRealConsole@@_N@Z 00457c19 f   Macro.obj
 0001:00056d3e       ?Split@ConEmuMacro@@YAPA_WPAUGuiMacro@@PAVCRealConsole@@_N@Z 00457d3e f   Macro.obj
 0001:00056eb3       ?Status@ConEmuMacro@@YAPA_WPAUGuiMacro@@PAVCRealConsole@@_N@Z 00457eb3 f   Macro.obj
 0001:00056f40       ?Tab@ConEmuMacro@@YAPA_WPAUGuiMacro@@PAVCRealConsole@@_N@Z 00457f40 f   Macro.obj
 0001:000571e4       ?Task@ConEmuMacro@@YAPA_WPAUGuiMacro@@PAVCRealConsole@@_N@Z 004581e4 f   Macro.obj
 0001:00057397       ?TaskAdd@ConEmuMacro@@YAPA_WPAUGuiMacro@@PAVCRealConsole@@_N@Z 00458397 f   Macro.obj
 0001:000574bc       ?TermMode@ConEmuMacro@@YAPA_WPAUGuiMacro@@PAVCRealConsole@@_N@Z 004584bc f   Macro.obj
 0001:00057533       ?Transparency@ConEmuMacro@@YAPA_WPAUGuiMacro@@PAVCRealConsole@@_N@Z 00458533 f   Macro.obj
 0001:0005757f       ?Unfasten@ConEmuMacro@@YAPA_WPAUGuiMacro@@PAVCRealConsole@@_N@Z 0045857f f   Macro.obj
 0001:000575b0       ?Update@ConEmuMacro@@YAPA_WPAUGuiMacro@@PAVCRealConsole@@_N@Z 004585b0 f   Macro.obj
 0001:000575d7       ?Wiki@ConEmuMacro@@YAPA_WPAUGuiMacro@@PAVCRealConsole@@_N@Z 004585d7 f   Macro.obj
 0001:00057606       ?WindowFullscreen@ConEmuMacro@@YAPA_WPAUGuiMacro@@PAVCRealConsole@@_N@Z 00458606 f   Macro.obj
 0001:0005762b       ?WindowMaximize@ConEmuMacro@@YAPA_WPAUGuiMacro@@PAVCRealConsole@@_N@Z 0045862b f   Macro.obj
 0001:0005768d       ?WindowMinimize@ConEmuMacro@@YAPA_WPAUGuiMacro@@PAVCRealConsole@@_N@Z 0045868d f   Macro.obj
 0001:000576e0       ?WindowMode@ConEmuMacro@@YAPA_WPAUGuiMacro@@PAVCRealConsole@@_N@Z 004586e0 f   Macro.obj
 0001:000579b8       ?WindowPosSize@ConEmuMacro@@YAPA_WPAUGuiMacro@@PAVCRealConsole@@_N@Z 004589b8 f   Macro.obj
 0001:00057a3c       ?Write@ConEmuMacro@@YAPA_WPAUGuiMacro@@PAVCRealConsole@@_N@Z 00458a3c f   Macro.obj
 0001:00057a9d       ?Zoom@ConEmuMacro@@YAPA_WPAUGuiMacro@@PAVCRealConsole@@_N@Z 00458a9d f   Macro.obj
 0001:00057ae0       ??$_Emplace_reallocate@ABUGuiMacroArg@@@?$vector@UGuiMacroArg@@V?$MArrayAllocator@UGuiMacroArg@@@@@std@@QAEPAUGuiMacroArg@@QAU2@ABU2@@Z 00458ae0 f i Macro.obj
 0001:00057b91       ??$emplace_back@ABUGuiMacroArg@@@?$vector@UGuiMacroArg@@V?$MArrayAllocator@UGuiMacroArg@@@@@std@@QAEXABUGuiMacroArg@@@Z 00458b91 f i Macro.obj
 0001:00057bbc       ??$swprintf_c@$0M@@@YAHAAY0M@_WPB_WZZ 00458bbc f i Macro.obj
 0001:00057bd2       ??$ultow_s@$0BAE@@@YAPB_WIAAY0BAE@_WH@Z 00458bd2 f i Macro.obj
 0001:00057bfd       ??1?$MArray@UGuiMacroArg@@@@QAE@XZ 00458bfd f i Macro.obj
 0001:00057c35       ??1?$_Tree@V?$_Tset_traits@V?$basic_string@_WU?$char_traits@_W@std@@V?$allocator@_W@2@@std@@U?$less@V?$basic_string@_WU?$char_traits@_W@std@@V?$allocator@_W@2@@std@@@2@V?$allocator@V?$basic_string@_WU?$char_traits@_W@std@@V?$allocator@_W@2@@std@@@2@$0A@@std@@@std@@QAE@XZ 00458c35 f i Macro.obj
 0001:00057c58       ??1?$set@V?$basic_string@_WU?$char_traits@_W@std@@V?$allocator@_W@2@@std@@U?$less@V?$basic_string@_WU?$char_traits@_W@std@@V?$allocator@_W@2@@std@@@2@V?$allocator@V?$basic_string@_WU?$char_traits@_W@std@@V?$allocator@_W@2@@std@@@2@@std@@QAE@XZ 00458c58 f i Macro.obj
 0001:00057c5d       ??1CStartEnvTitle@@UAE@XZ  00458c5d f   RealConsole.obj
 0001:00057c64       ??1CEStrConcat@@QAE@XZ     00458c64 f i Macro.obj
 0001:00057c9c       ??E?$_Tree_unchecked_const_iterator@V?$_Tree_val@U?$_Tree_simple_types@V?$basic_string@_WU?$char_traits@_W@std@@V?$allocator@_W@2@@std@@@std@@@std@@U_Iterator_base0@2@@std@@QAEAAV01@XZ 00458c9c f i Macro.obj
 0001:00057cf3       ??_ECStartEnvBase@@UAEPAXI@Z 00458cf3 f i Macro.obj
 0001:00057cf3       ??_GCStartEnvBase@@UAEPAXI@Z 00458cf3 f i Macro.obj
 0001:00057d8a       ?AsString@GuiMacro@@QAEPA_WXZ 00458d8a f   Macro.obj
 0001:000581c1       ?ChangeContext@ConEmuMacro@@YAPAVCRealConsole@@PAV2@IIAAVCVConGuard@@AAPA_W@Z 004591c1 f   Macro.obj
 0001:0005836d       ?ConcatMacro@ConEmuMacro@@YAPB_WAAPA_WPB_W@Z 0045936d f   Macro.obj
 0001:000583cd       ?ConvertMacro@ConEmuMacro@@YAPA_WPB_WE_N@Z 004593cd f   Macro.obj
 0001:00058545       ?ExecuteMacro@ConEmuMacro@@YAPA_WPA_WPAVCRealConsole@@_NPAUCESERVER_REQ_GUIMACRO@@@Z 00459545 f   Macro.obj
 0001:0005888a       ?ExecuteMacroSync@ConEmuMacro@@YAJIJ@Z 0045988a f   Macro.obj
 0001:000588b9       ?FindFarWindowHelper@ConEmuMacro@@YAPA_WIPA_WPAVCRealConsole@@_N@Z 004598b9 f   Macro.obj
 0001:0005898a       ?GetIntArg@GuiMacro@@QAE_NIAAH@Z 0045998a f   Macro.obj
 0001:000589bf       ?GetNextInt@ConEmuMacro@@YAPA_WAAPA_WAAUGuiMacroArg@@@Z 004599bf f   Macro.obj
 0001:00058a62       ?GetNextMacro@ConEmuMacro@@YAPAUGuiMacro@@AAPA_W_NPAPA_W@Z 00459a62 f   Macro.obj
 0001:00059089       ?GetNextString@ConEmuMacro@@YAPA_WAAPA_W0_NAA_N@Z 0045a089 f   Macro.obj
 0001:00059334       ?GetRestStrArgs@GuiMacro@@QAE_NIAAPA_W@Z 0045a334 f   Macro.obj
 0001:000593ef       ?GetStrArg@GuiMacro@@QAE_NIAAPA_W@Z 0045a3ef f   Macro.obj
 0001:0005942e       ?Int2Str@ConEmuMacro@@YAPA_WI_N@Z 0045a42e f   Macro.obj
 0001:00059478       ?IsIntArg@GuiMacro@@QAE_NI@Z 0045a478 f   Macro.obj
 0001:0005949e       ?IsStrArg@GuiMacro@@QAE_NI@Z 0045a49e f   Macro.obj
 0001:00059515       ?SkipWhiteSpaces@ConEmuMacro@@YAXAAPA_W@Z 0045a515 f   Macro.obj
 0001:00059541       ?TransparencyHelper@ConEmuMacro@@YAPA_WHH@Z 0045a541 f   Macro.obj
 0001:00059650       ?_Calculate_growth@?$vector@UGuiMacroArg@@V?$MArrayAllocator@UGuiMacroArg@@@@@std@@ABEII@Z 0045a650 f i Macro.obj
 0001:00059679       ?_Change_array@?$vector@UGuiMacroArg@@V?$MArrayAllocator@UGuiMacroArg@@@@@std@@AAEXQAUGuiMacroArg@@II@Z 0045a679 f i Macro.obj
 0001:00059721       ?_Erase@?$_Tree@V?$_Tset_traits@V?$basic_string@_WU?$char_traits@_W@std@@V?$allocator@_W@2@@std@@U?$less@V?$basic_string@_WU?$char_traits@_W@std@@V?$allocator@_W@2@@std@@@2@V?$allocator@V?$basic_string@_WU?$char_traits@_W@std@@V?$allocator@_W@2@@std@@@2@$0A@@std@@@std@@IAEXPAU?$_Tree_node@V?$basic_string@_WU?$char_traits@_W@std@@V?$allocator@_W@2@@std@@PAX@2@@Z 0045a721 f i Macro.obj
 0001:00059761       ?_Extract@?$_Tree_val@U?$_Tree_simple_types@V?$basic_string@_WU?$char_traits@_W@std@@V?$allocator@_W@2@@std@@@std@@@std@@QAEPAU?$_Tree_node@V?$basic_string@_WU?$char_traits@_W@std@@V?$allocator@_W@2@@std@@PAX@2@V?$_Tree_const_iterator@V?$_Tree_val@U?$_Tree_simple_types@V?$basic_string@_WU?$char_traits@_W@std@@V?$allocator@_W@2@@std@@@std@@@std@@@2@@Z 0045a761 f i Macro.obj
 0001:000599c0       ?_Lrotate@?$_Tree_val@U?$_Tree_simple_types@V?$basic_string@_WU?$char_traits@_W@std@@V?$allocator@_W@2@@std@@@std@@@std@@QAEXPAU?$_Tree_node@V?$basic_string@_WU?$char_traits@_W@std@@V?$allocator@_W@2@@std@@PAX@2@@Z 0045a9c0 f i Macro.obj
 0001:00059a04       ?_Min@?$_Tree_val@U?$_Tree_simple_types@V?$basic_string@_WU?$char_traits@_W@std@@V?$allocator@_W@2@@std@@@std@@@std@@SAPAU?$_Tree_node@V?$basic_string@_WU?$char_traits@_W@std@@V?$allocator@_W@2@@std@@PAX@2@PAU32@@Z 0045aa04 f i Macro.obj
 0001:00059a20       ?_Rrotate@?$_Tree_val@U?$_Tree_simple_types@V?$basic_string@_WU?$char_traits@_W@std@@V?$allocator@_W@2@@std@@@std@@@std@@QAEXPAU?$_Tree_node@V?$basic_string@_WU?$char_traits@_W@std@@V?$allocator@_W@2@@std@@PAX@2@@Z 0045aa20 f i Macro.obj
 0001:00059a6c       ?_Tidy@?$vector@U?$pair@HUCEStr@@@std@@V?$MArrayAllocator@U?$pair@HUCEStr@@@std@@@@@std@@AAEXXZ 0045aa6c f i Macro.obj
 0001:00059abe       ?_Tidy@?$vector@UGuiMacroArg@@V?$MArrayAllocator@UGuiMacroArg@@@@@std@@AAEXXZ 0045aabe f i Macro.obj
 0001:00059ae2       ?allocate@?$MArrayAllocator@UGuiMacroArg@@@@QAEPAUGuiMacroArg@@I@Z 0045aae2 f i Macro.obj
 0001:00059b1d       ?at@?$unordered_map@V?$basic_string@_WU?$char_traits@_W@std@@V?$allocator@_W@2@@std@@UVariableData@SystemEnvironment@@U?$hash@V?$basic_string@_WU?$char_traits@_W@std@@V?$allocator@_W@2@@std@@@2@U?$equal_to@V?$basic_string@_WU?$char_traits@_W@std@@V?$allocator@_W@2@@std@@@2@V?$allocator@U?$pair@$$CBV?$basic_string@_WU?$char_traits@_W@std@@V?$allocator@_W@2@@std@@UVariableData@SystemEnvironment@@@std@@@2@@std@@QBEABUVariableData@SystemEnvironment@@ABV?$basic_string@_WU?$char_traits@_W@std@@V?$allocator@_W@2@@2@@Z 0045ab1d f i Macro.obj
 0001:00059b4a       ?clear@?$_Tree@V?$_Tset_traits@V?$basic_string@_WU?$char_traits@_W@std@@V?$allocator@_W@2@@std@@U?$less@V?$basic_string@_WU?$char_traits@_W@std@@V?$allocator@_W@2@@std@@@2@V?$allocator@V?$basic_string@_WU?$char_traits@_W@std@@V?$allocator@_W@2@@std@@@2@$0A@@std@@@std@@QAEXXZ 0045ab4a f i Macro.obj
 0001:00059b9b       ?erase@?$_Tree@V?$_Tset_traits@V?$basic_string@_WU?$char_traits@_W@std@@V?$allocator@_W@2@@std@@U?$less@V?$basic_string@_WU?$char_traits@_W@std@@V?$allocator@_W@2@@std@@@2@V?$allocator@V?$basic_string@_WU?$char_traits@_W@std@@V?$allocator@_W@2@@std@@@2@$0A@@std@@@std@@QAE?AV?$_Tree_const_iterator@V?$_Tree_val@U?$_Tree_simple_types@V?$basic_string@_WU?$char_traits@_W@std@@V?$allocator@_W@2@@std@@@std@@@std@@@2@V32@0@Z 0045ab9b f i Macro.obj
 0001:00059be8       ?erase@?$_Tree@V?$_Tset_traits@V?$basic_string@_WU?$char_traits@_W@std@@V?$allocator@_W@2@@std@@U?$less@V?$basic_string@_WU?$char_traits@_W@std@@V?$allocator@_W@2@@std@@@2@V?$allocator@V?$basic_string@_WU?$char_traits@_W@std@@V?$allocator@_W@2@@std@@@2@$0A@@std@@@std@@QAE?AV?$_Tree_const_iterator@V?$_Tree_val@U?$_Tree_simple_types@V?$basic_string@_WU?$char_traits@_W@std@@V?$allocator@_W@2@@std@@@std@@@std@@@2@V32@@Z 0045abe8 f i Macro.obj
 0001:00059c28       ??0CMatch@@QAE@PAVCRealConsole@@@Z 0045ac28 f   Match.obj
 0001:00059c8d       ??1CMatch@@QAE@XZ          0045ac8d f   Match.obj
 0001:00059ca9       ?CheckValidUrl@CMatch@@KA_NAAH0AA_NPB_W222H@Z 0045aca9 f   Match.obj
 0001:00059d87       ?FindRangeStart@CMatch@@KA_NAAH0AA_NPB_W22222H@Z 0045ad87 f   Match.obj
 0001:00059f70       ?GetNextLine@CMatch@@IAE_NAAVCRConDataGuard@@H@Z 0045af70 f   Match.obj
 0001:0005a016       ?IsFileLineTerminator@CMatch@@KA_NPB_W0@Z 0045b016 f   Match.obj
 0001:0005a0be       ?IsValidFile@CMatch@@IAE_NPB_WH00AAH@Z 0045b0be f   Match.obj
 0001:0005a213       ?Match@CMatch@@QAEHW4ExpandTextRangeType@@PB_WHHAAVCRConDataGuard@@H@Z 0045b213 f   Match.obj
 0001:0005a2f7       ?MatchAny@CMatch@@IAE_NAAVCRConDataGuard@@H@Z 0045b2f7 f   Match.obj
 0001:0005ae6b       ?MatchFileNoExt@CMatch@@IAE_NAAVCRConDataGuard@@H@Z 0045be6b f   Match.obj
 0001:0005afa5       ?MatchWord@CMatch@@IAE_NPB_WHHAAH1AAVCRConDataGuard@@H@Z 0045bfa5 f   Match.obj
 0001:0005b160       ?StoreMatchText@CMatch@@IAEXPB_W0@Z 0045c160 f   Match.obj
 0001:0005b234       ??$_Emplace_reallocate@ABUCmdTaskPopupItem@CConEmuMenu@@@?$vector@UCmdTaskPopupItem@CConEmuMenu@@V?$MArrayAllocator@UCmdTaskPopupItem@CConEmuMenu@@@@@std@@QAEPAUCmdTaskPopupItem@CConEmuMenu@@QAU23@ABU23@@Z 0045c234 f i Menu.obj
 0001:0005b427       ??$emplace_back@ABUCmdTaskPopupItem@CConEmuMenu@@@?$vector@UCmdTaskPopupItem@CConEmuMenu@@V?$MArrayAllocator@UCmdTaskPopupItem@CConEmuMenu@@@@@std@@QAEXABUCmdTaskPopupItem@CConEmuMenu@@@Z 0045c427 f i Menu.obj
 0001:0005b458       ??0CConEmuMenu@@QAE@XZ     0045c458 f   Menu.obj
 0001:0005b558       ??1?$MArray@UCmdTaskPopupItem@CConEmuMenu@@@@QAE@XZ 0045c558 f i Menu.obj
 0001:0005b590       ??1CConEmuMenu@@QAE@XZ     0045c590 f   Menu.obj
 0001:0005b61e       ?CalcTabMenuPos@CConEmuMenu@@QAE?AUtagPOINT@@PAVCVirtualConsole@@@Z 0045c61e f   Menu.obj
 0001:0005b6d0       ?CreateDebugMenuPopup@CConEmuMenu@@QAEPAUHMENU__@@XZ 0045c6d0 f   Menu.obj
 0001:0005b820       ?CreateEditMenuPopup@CConEmuMenu@@QAEPAUHMENU__@@PAVCVirtualConsole@@PAU2@@Z 0045c820 f   Menu.obj
 0001:0005bafb       ?CreateHelpMenuPopup@CConEmuMenu@@QAEPAUHMENU__@@XZ 0045cafb f   Menu.obj
 0001:0005bc45       ?CreateOrUpdateMenu@CConEmuMenu@@QAE_NAAPAUHMENU__@@PBUMenuItem@@I@Z 0045cc45 f   Menu.obj
 0001:0005bd8b       ?CreateVConListPopupMenu@CConEmuMenu@@QAEPAUHMENU__@@PAU2@H@Z 0045cd8b f   Menu.obj
 0001:0005c14e       ?CreateVConPopupMenu@CConEmuMenu@@QAEPAUHMENU__@@PAVCVirtualConsole@@PAU2@_N2@Z 0045d14e f   Menu.obj
 0001:0005c682       ?CreateViewMenuPopup@CConEmuMenu@@QAEPAUHMENU__@@PAVCVirtualConsole@@PAU2@@Z 0045d682 f   Menu.obj
 0001:0005c859       ?ExecPopupMenuCmd@CConEmuMenu@@QAEXW4TrackMenuPlace@@PAVCVirtualConsole@@H@Z 0045d859 f   Menu.obj
 0001:0005cbb0       ?FillTaskPopup@CConEmuMenu@@AAEHPAUHMENU__@@PAUCmdTaskPopupItem@1@@Z 0045dbb0 f   Menu.obj
 0001:0005ce88       ?GetInScMinimize@CConEmuMenu@@QAE_NXZ 0045de88 f   Menu.obj
 0001:0005ce8c       ?GetRestoreFromMinimized@CConEmuMenu@@QAE_NXZ 0045de8c f   Menu.obj
 0001:0005ce90       ?GetSysMenu@CConEmuMenu@@QAEPAUHMENU__@@H@Z 0045de90 f   Menu.obj
 0001:0005cf15       ?GetAvailableNodeCount@ResourceManager@details@Concurrency@@UBEIXZ 0045df15 f   libconcrt:ResourceManager.obj
 0001:0005cf15       ?GetScheduleGroupSegment@ContextBase@details@Concurrency@@QBEPAVScheduleGroupSegmentBase@23@XZ 0045df15 f   libconcrt:ContextBase.obj
 0001:0005cf15       ?GetTrackMenuPlace@CConEmuMenu@@QAE?AW4TrackMenuPlace@@XZ 0045df15 f   Menu.obj
 0001:0005cf19       ?MenuAccel@CConEmuMenu@@AAEPB_WHPB_W@Z 0045df19 f   Menu.obj
 0001:0005d002       ?OnInitMenuPopup@CConEmuMenu@@QAEJPAUHWND__@@PAUHMENU__@@J@Z 0045e002 f   Menu.obj
 0001:0005d25f       ?OnMenuRClick@CConEmuMenu@@QAEXPAUHMENU__@@I@Z 0045e25f f   Menu.obj
 0001:0005d272       ?OnMenuSelected@CConEmuMenu@@QAE_NPAUHMENU__@@GG@Z 0045e272 f   Menu.obj
 0001:0005d34a       ?OnMenuSelected_NewCon@CConEmuMenu@@AAE_NPAUHMENU__@@GG@Z 0045e34a f   Menu.obj
 0001:0005d4e3       ?OnNcIconLClick@CConEmuMenu@@QAEXXZ 0045e4e3 f   Menu.obj
 0001:0005d553       ?OnNewConPopupMenu@CConEmuMenu@@QAEXPAUtagPOINT@@K_N@Z 0045e553 f   Menu.obj
 0001:0005e203       ?OnNewConPopupMenuRClick@CConEmuMenu@@AAEXPAUHMENU__@@I@Z 0045f203 f   Menu.obj
 0001:0005e58e       ?OnSysCommand@CConEmuMenu@@QAEJPAUHWND__@@IJI@Z 0045f58e f   Menu.obj
 0001:0005efce       ?Reset@CmdTaskPopupItem@CConEmuMenu@@QAEXW4CmdTaskPopupItemType@12@HPB_W@Z 0045ffce f   Menu.obj
 0001:0005f00b       ?SetMenuName@CmdTaskPopupItem@CConEmuMenu@@SAXPA_WHPB_W_N21@Z 0046000b f   Menu.obj
 0001:0005f21e       ?SetPassSysCommand@CConEmuMenu@@QAE_N_N@Z 0046021e f   Menu.obj
 0001:0005f22e       ?SetRestoreFromMinimized@CConEmuMenu@@QAE_N_N@Z 0046022e f   Menu.obj
 0001:0005f23e       ?SetShortName@CmdTaskPopupItem@CConEmuMenu@@QAEXPB_W_N0@Z 0046023e f   Menu.obj
 0001:0005f266       ?SetTrackMenuPlace@CConEmuMenu@@QAE?AW4TrackMenuPlace@@W42@@Z 00460266 f   Menu.obj
 0001:0005f276       ?ShowKeyBarHint@CConEmuMenu@@AAEXPAUHMENU__@@GG@Z 00460276 f   Menu.obj
 0001:0005f2e0       ?ShowMenuHint@CConEmuMenu@@AAEXPAUHMENU__@@GG@Z 004602e0 f   Menu.obj
 0001:0005f3ce       ?ShowMenuHint@CConEmuMenu@@AAEXPB_WPAUtagPOINT@@@Z 004603ce f   Menu.obj
 0001:0005f4ce       ?ShowPopupMenu@CConEmuMenu@@QAEXPAVCVirtualConsole@@UtagPOINT@@K_N@Z 004604ce f   Menu.obj
 0001:0005f5cb       ?ShowSysmenu@CConEmuMenu@@QAEXHHK@Z 004605cb f   Menu.obj
 0001:0005fa3c       ?UpdateSysMenu@CConEmuMenu@@AAEXPAUHMENU__@@@Z 00460a3c f   Menu.obj
 0001:0005fd74       ?_Calculate_growth@?$vector@UCmdTaskPopupItem@CConEmuMenu@@V?$MArrayAllocator@UCmdTaskPopupItem@CConEmuMenu@@@@@std@@ABEII@Z 00460d74 f i Menu.obj
 0001:0005fda1       ?_Change_array@?$vector@UCmdTaskPopupItem@CConEmuMenu@@V?$MArrayAllocator@UCmdTaskPopupItem@CConEmuMenu@@@@@std@@AAEXQAUCmdTaskPopupItem@CConEmuMenu@@II@Z 00460da1 f i Menu.obj
 0001:0005fde5       ?_Tidy@?$vector@UCmdTaskPopupItem@CConEmuMenu@@V?$MArrayAllocator@UCmdTaskPopupItem@CConEmuMenu@@@@@std@@AAEXXZ 00460de5 f i Menu.obj
 0001:0005fe10       ?allocate@?$MArrayAllocator@UCmdTaskPopupItem@CConEmuMenu@@@@QAEPAUCmdTaskPopupItem@CConEmuMenu@@I@Z 00460e10 f i Menu.obj
 0001:0005fe4c       ?trackPopupMenu@CConEmuMenu@@QAEHW4TrackMenuPlace@@PAUHMENU__@@IHHPAUHWND__@@PAUtagRECT@@@Z 00460e4c f   Menu.obj
 0001:0006007e       ?CopyToClipboard@@YA_NPB_W@Z 0046107e f   MyClipboard.obj
 0001:0006017c       ?GetCliboardText@@YAPA_WAAKPA_WH@Z 0046117c f   MyClipboard.obj
 0001:00060309       ?MyCloseClipboard@@YAXXZ   00461309 f   MyClipboard.obj
 0001:0006033b       ?MyOpenClipboard@@YA_NPB_W@Z 0046133b f   MyClipboard.obj
 0001:00060442       ?MySetClipboardData@@YAPAXIPAX@Z 00461442 f   MyClipboard.obj
 0001:000604c5       ??0OleInitializer@@QAE@XZ  004614c5 f   OleInitializer.obj
 0001:000604d2       ??0OleInitializer@@QAE@_N@Z 004614d2 f   OleInitializer.obj
 0001:000604f4       ??1OleInitializer@@UAE@XZ  004614f4 f   OleInitializer.obj
 0001:0006050a       ??_GOleInitializer@@UAEPAXI@Z 0046150a f i OleInitializer.obj
 0001:0006050a       ??_EOleInitializer@@UAEPAXI@Z 0046150a f i OleInitializer.obj
 0001:0006052c       ?Initialize@OleInitializer@@QAE_NXZ 0046152c f   OleInitializer.obj
 0001:0006054f       ?isInitialized@OleInitializer@@QBE_NXZ 0046154f f   OleInitializer.obj
 0001:00060560       ??$SafeDelete@UCommandHistory@@@@YAXAAPAUCommandHistory@@@Z 00461560 f i Options.obj
 0001:0006059d       ??$SafeDelete@USettingsBase@@@@YAXAAPAUSettingsBase@@@Z 0046159d f i Options.obj
 0001:000605ce       ??$ltow_s@$0BA@@@YAPB_WHAAY0BA@_WH@Z 004615ce f i Options.obj
 0001:000605f4       ??$swprintf_c@$0BCM@@@YAHAAY0BCM@_WPB_WZZ 004615f4 f i Options.obj
 0001:0006060d       ??0Settings@@QAE@XZ        0046160d f   Options.obj
 0001:00060637       ??1Settings@@QAE@XZ        00461637 f   Options.obj
 0001:0006067a       ?AppSettingsDelete@Settings@@IAEXH@Z 0046167a f   Options.obj
 0001:000606e7       ?AppSettingsXch@Settings@@IAE_NHH@Z 004616e7 f   Options.obj
 0001:00060739       ?AsString@CESize@@QAEPB_WXZ 00461739 f i Options.obj
 0001:00060776       ?AutoSaveSettings@Settings@@QAEXPAUSettingsBase@@_N@Z 00461776 f   Options.obj
 0001:00060a5e       ?CheckCharAltFont@Settings@@QAE_NH@Z 00461a5e f   Options.obj
 0001:00060a8c       ?CheckConsoleSettings@Settings@@QAEXXZ 00461a8c f   Options.obj
 0001:00060bec       ?CheckHotkeyUnique@Settings@@QAEXXZ 00461bec f   Options.obj
 0001:00060e29       ?CmdTaskGet@Settings@@QAEPBUCommandTasks@@H@Z 00461e29 f   Options.obj
 0001:00060ebf       ?CmdTaskGetByName@Settings@@QAEPBUCommandTasks@@PB_W@Z 00461ebf f   Options.obj
 0001:00061002       ?CmdTaskGetDefaultShell@Settings@@QAE_NAAURConStartArgsEx@@AAUCEStr@@@Z 00462002 f   Options.obj
 0001:00061167       ?CmdTaskSet@Settings@@QAEHHPB_W00K@Z 00462167 f   Options.obj
 0001:000614bf       ?CmdTaskSetVkMod@Settings@@QAEXHK@Z 004624bf f   Options.obj
 0001:000614f1       ?CmdTaskXch@Settings@@QAE_NHH@Z 004624f1 f   Options.obj
 0001:0006153e       ?CreateCharRanges@Settings@@QAEPA_WAAY0BAAAA@E@Z 0046253e f   Options.obj
 0001:00061601       ?CreatePredefinedPalettes@Settings@@QAEXH@Z 00462601 f   Options.obj
 0001:0006177e       ?CreateSettings@Settings@@QAEPAUSettingsBase@@PBUSettingsStorage@@@Z 0046277e f   Options.obj
 0001:00061962       ?DisableLogging@Settings@@QAEXXZ 00462962 f   Options.obj
 0001:0006196a       ?EnableLogging@Settings@@QAEXXZ 0046296a f   Options.obj
 0001:00061988       ?FreeApps@Settings@@AAEXHPAPAUAppSettings@@@Z 00462988 f   Options.obj
 0001:00061a04       ?FreeCmdTasks@Settings@@IAEXXZ 00462a04 f   Options.obj
 0001:00061a5e       ?FreePalettes@Settings@@IAEXXZ 00462a5e f   Options.obj
 0001:00061abf       ?FreeProgresses@Settings@@IAEXXZ 00462abf f   Options.obj
 0001:00061b19       ?FreePtr@ConEmuProgressStore@Settings@@QAEXXZ 00462b19 f i Options.obj
 0001:00061b3a       ?FreeStartupTask@Settings@@IAEXXZ 00462b3a f   Options.obj
 0001:00061b55       ?GetAppSettings@Settings@@QAEPBUAppSettings@@H@Z 00462b55 f   Options.obj
 0001:00061b9a       ?GetAppSettingsId@Settings@@QAEHPB_W_N@Z 00462b9a f   Options.obj
 0001:00061cdf       ?GetAppSettingsPtr@Settings@@IAEPAUAppSettings@@HH@Z 00462cdf f   Options.obj
 0001:00061e22       ?GetColors@Settings@@QAEPAKHH@Z 00462e22 f   Options.obj
 0001:00061e8e       ?GetColorsPrepare@Settings@@QAEPAKPAK0PA_NH@Z 00462e8e f   Options.obj
 0001:00061ec0       ?GetDefColors@Settings@@QAEPBKPB_W@Z 00462ec0 f   Options.obj
 0001:00061f13       ?GetDefaultTerminalApps@Settings@@QAEPA_WXZ 00462f13 f   Options.obj
 0001:00061f26       ?GetDefaultTerminalAppsMSZ@Settings@@QAEPB_WXZ 00462f26 f   Options.obj
 0001:00061f2d       ?GetFadeColor@Settings@@QAEKK@Z 00462f2d f   Options.obj
 0001:00061f95       ?GetFadeColorItem@Settings@@AAEEE@Z 00462f95 f i Options.obj
 0001:00061fdc       ?GetHotkeyById@Settings@@QAEKHPAPBUConEmuHotKey@@@Z 00462fdc f   Options.obj
 0001:00062054       ?GetHotkeyNameById@Settings@@QAEPB_WHAAY0IA@_W_N@Z 00463054 f   Options.obj
 0001:000620ac       ?GetIntelligentExceptions@Settings@@QAEPA_WXZ 004630ac f   Options.obj
 0001:000620bf       ?GetIntelligentExceptionsMSZ@Settings@@QAEPB_WXZ 004630bf f   Options.obj
 0001:000620c6       ?GetLogFileName@Settings@@QAEPB_WXZ 004630c6 f   Options.obj
 0001:000620df       ?GetPaletteColors@Settings@@QAEPAKPB_WH@Z 004630df f   Options.obj
 0001:0006212e       ?GetPaletteIndex@AppSettings@@QBEHXZ 0046312e f   Options.obj
 0001:00062146       ?GetSettingsType@Settings@@QAE?AUSettingsStorage@@XZ 00463146 f   Options.obj
 0001:00062220       ?GetStoragePlaceDescr@Settings@@QAEPA_WPBUSettingsStorage@@PB_W@Z 00463220 f   Options.obj
 0001:000622de       ?HideCaptionAlwaysFrame@Settings@@QAEHXZ 004632de f   Options.obj
 0001:0006231c       ?HistoryAdd@Settings@@QAEXPB_W@Z 0046331c f   Options.obj
 0001:00062411       ?HistoryGet@Settings@@QAEPB_WH@Z 00463411 f   Options.obj
 0001:0006242a       ?HistoryLoad@Settings@@QAEXPAUSettingsBase@@@Z 0046342a f   Options.obj
 0001:00062513       ?HistoryReset@Settings@@QAEXXZ 00463513 f   Options.obj
 0001:00062530       ?HistorySave@Settings@@QAEXPAUSettingsBase@@@Z 00463530 f   Options.obj
 0001:000625ee       ?InitSettings@Settings@@QAEXXZ 004635ee f   Options.obj
 0001:000630cb       ?InitVanilla@Settings@@QAEXXZ 004640cb f   Options.obj
 0001:00063194       ?InitVanillaFontSettings@Settings@@QAEXXZ 00464194 f   Options.obj
 0001:000631cd       ?IsAutoSaveSettings@Settings@@QAE_N_N@Z 004641cd f   Options.obj
 0001:000631fc       ?IsHotkey@Settings@@QAE_NH@Z 004641fc f   Options.obj
 0001:00063219       ?IsModifierPressed@Settings@@QAEXHPA_N0@Z 00464219 f   Options.obj
 0001:000632fc       ?IsModifierPressed@Settings@@QAE_NH_N@Z 004642fc f   Options.obj
 0001:0006332c       ?LineDelimited2MSZ@Settings@@QAEPA_WPB_W_N@Z 0046432c f   Options.obj
 0001:00063417       ?LoadAppSettings@Settings@@AAEXPAUSettingsBase@@PAUAppSettings@@@Z 00464417 f   Options.obj
 0001:00063755       ?LoadAppsSettings@Settings@@AAEXPAUSettingsBase@@_N@Z 00464755 f   Options.obj
 0001:000639ac       ?LoadCmdTasks@Settings@@QAEXPAUSettingsBase@@_N@Z 004649ac f   Options.obj
 0001:00063bef       ?LoadCursorSettings@Settings@@AAEXPAUSettingsBase@@PATCECursorType@@1@Z 00464bef f   Options.obj
 0001:00063e3a       ?LoadHotkeys@Settings@@AAEXPAUSettingsBase@@AB_N11@Z 00464e3a f   Options.obj
 0001:00064249       ?LoadMSZ@Settings@@QAE_NPAUSettingsBase@@PB_WAAPA_W1_N@Z 00465249 f   Options.obj
 0001:000642c2       ?LoadPalettes@Settings@@QAEXPAUSettingsBase@@@Z 004652c2 f   Options.obj
 0001:00064591       ?LoadSettings@Settings@@QAEXAA_NPBUSettingsStorage@@@Z 00465591 f   Options.obj
 0001:00066510       ?LoadSizeSettings@Settings@@IAEXPAUSettingsBase@@@Z 00467510 f   Options.obj
 0001:000667a2       ?MSZ2LineDelimited@Settings@@QAEPA_WPB_W0_N@Z 004677a2 f   Options.obj
 0001:000668bb       ?MultiLine2MSZ@Settings@@QAEPA_WPB_WPAK@Z 004678bb f   Options.obj
 0001:000669fc       ?NeedCreateAppWindow@Settings@@QAE_NXZ 004679fc f   Options.obj
 0001:00066a29       ?OnAutoSaveTimer@Settings@@QAEXXZ 00467a29 f   Options.obj
 0001:00066a9c       ?PaletteDelete@Settings@@QAEXPB_W@Z 00467a9c f   Options.obj
 0001:00066b07       ?PaletteFindByColors@Settings@@QAEPBUColorPalette@@_NPBU2@@Z 00467b07 f   Options.obj
 0001:00066b84       ?PaletteFindCurrent@Settings@@QAEPBUColorPalette@@_N@Z 00467b84 f   Options.obj
 0001:00066bae       ?PaletteGet@Settings@@QAEPBUColorPalette@@H@Z 00467bae f   Options.obj
 0001:00066bb7       ?PaletteGetByName@Settings@@QAEPBUColorPalette@@PB_W@Z 00467bb7 f   Options.obj
 0001:00066bd2       ?PaletteGetIndex@Settings@@QAEHPB_W@Z 00467bd2 f   Options.obj
 0001:00066c35       ?PaletteGetPtr@Settings@@IAEPAUColorPalette@@H@Z 00467c35 f   Options.obj
 0001:00066cd9       ?PaletteSaveAs@Settings@@QAEXPB_W@Z 00467cd9 f   Options.obj
 0001:00066d11       ?PaletteSaveAs@Settings@@QAEXPB_WEEEEAAY0BA@$$CBK_N@Z 00467d11 f   Options.obj
 0001:00066f53       ?PaletteSetActive@Settings@@QAEHPB_W@Z 00467f53 f   Options.obj
 0001:00066fdc       ?PaletteSetStdIndexes@Settings@@QAEXXZ 00467fdc f   Options.obj
 0001:0006706c       ?ParseCharRanges@Settings@@QAEHPB_WAAY0BAAAA@EE@Z 0046806c f   Options.obj
 0001:00067194       ?PrepareFadeColors@Settings@@QAEXPAK0PA_N@Z 00468194 f   Options.obj
 0001:00067212       ?RClickMacro@Settings@@QAEPB_WW4FarMacroVersion@@@Z 00468212 f   Options.obj
 0001:0006725b       ?RClickMacroDefault@Settings@@QAEPB_WW4FarMacroVersion@@@Z 0046825b f   Options.obj
 0001:00067272       ?ReleasePointers@Settings@@IAEXXZ 00468272 f   Options.obj
 0001:000674d3       ?ResetFadeColors@Settings@@QAEXXZ 004684d3 f   Options.obj
 0001:00067510       ?ResetSavedOnExit@Settings@@QAEXXZ 00468510 f   Options.obj
 0001:00067518       ?SafeFarCloseMacro@Settings@@QAEPB_WW4FarMacroVersion@@@Z 00468518 f   Options.obj
 0001:00067561       ?SafeFarCloseMacroDefault@Settings@@QAEPB_WW4FarMacroVersion@@@Z 00468561 f   Options.obj
 0001:00067578       ?SaveAllMacro@Settings@@QAEPB_WW4FarMacroVersion@@@Z 00468578 f   Options.obj
 0001:000675c1       ?SaveAllMacroDefault@Settings@@QAEPB_WW4FarMacroVersion@@@Z 004685c1 f   Options.obj
 0001:000675d8       ?SaveAppSettings@Settings@@AAEXPAUSettingsBase@@PAUAppSettings@@@Z 004685d8 f   Options.obj
 0001:000677a5       ?SaveAppsSettings@Settings@@QAEXPAUSettingsBase@@@Z 004687a5 f   Options.obj
 0001:00067963       ?SaveCmdTasks@Settings@@QAE_NPAUSettingsBase@@@Z 00468963 f   Options.obj
 0001:00067bcb       ?SaveConsoleFont@Settings@@QAEXXZ 00468bcb f   Options.obj
 0001:00067c4b       ?SaveFindOptions@Settings@@QAEXPAUSettingsBase@@@Z 00468c4b f   Options.obj
 0001:00067d07       ?SaveHotkeys@Settings@@AAEXPAUSettingsBase@@H@Z 00468d07 f   Options.obj
 0001:00067ecd       ?SaveMSZ@Settings@@QAEXPAUSettingsBase@@PB_W11_N@Z 00468ecd f   Options.obj
 0001:00067f0f       ?SavePalettes@Settings@@IAEXPAUSettingsBase@@@Z 00468f0f f   Options.obj
 0001:00068321       ?SaveSettings@Settings@@QAEHHPBUSettingsStorage@@@Z 00469321 f   Options.obj
 0001:0006998e       ?SaveSettingsOnExit@Settings@@QAEXXZ 0046a98e f   Options.obj
 0001:000699ac       ?SaveSizeSettings@Settings@@IAEXPAUSettingsBase@@@Z 0046a9ac f   Options.obj
 0001:00069bc1       ?SaveStartCommands@Settings@@AAEXPAUSettingsBase@@@Z 0046abc1 f   Options.obj
 0001:00069c40       ?SaveStatusSettings@Settings@@IAEXPAUSettingsBase@@@Z 0046ac40 f   Options.obj
 0001:00069d1f       ?SaveStdColors@Settings@@AAEXPAUSettingsBase@@@Z 0046ad1f f   Options.obj
 0001:00069dd9       ?SaveStopBuzzingDate@Settings@@QAEXXZ 0046add9 f   Options.obj
 0001:00069eb0       ?SaveVanilla@Settings@@QAE_NPAUSettingsBase@@@Z 0046aeb0 f   Options.obj
 0001:0006a033       ?SetDefaultTerminalApps@Settings@@QAEXPB_W@Z 0046b033 f   Options.obj
 0001:0006a09e       ?SetFromRaw@CESize@@QAEX_NK@Z 0046b09e f i Options.obj
 0001:0006a0cb       ?SetHideCaptionAlways@Settings@@QAEX_N@Z 0046b0cb f   Options.obj
 0001:0006a0db       ?SetHotkeyById@Settings@@QAEXHK@Z 0046b0db f   Options.obj
 0001:0006a142       ?SetIntelligentExceptions@Settings@@QAEXPB_W@Z 0046b142 f   Options.obj
 0001:0006a183       ?SetMinToTray@Settings@@QAEX_N@Z 0046b183 f   Options.obj
 0001:0006a1d4       ?SetPaletteName@AppSettings@@QAEXPB_W@Z 0046b1d4 f   Options.obj
 0001:0006a1f1       ?SortPalettes@Settings@@IAEXXZ 0046b1f1 f   Options.obj
 0001:0006a2cc       ?StatusBarFontHeight@Settings@@QAEHXZ 0046b2cc f   Options.obj
 0001:0006a2db       ?StatusBarHeight@Settings@@QAEHXZ 0046b2db f   Options.obj
 0001:0006a337       ?SwitchHideCaptionAlways@Settings@@QAEXXZ 0046b337 f   Options.obj
 0001:0006a348       ?TabCloseMacro@Settings@@QAEPB_WW4FarMacroVersion@@@Z 0046b348 f   Options.obj
 0001:0006a391       ?TabCloseMacroDefault@Settings@@QAEPB_WW4FarMacroVersion@@@Z 0046b391 f   Options.obj
 0001:0006a3a8       ?getTypeName@SettingsStorage@@SAPB_WW4StorageType@@@Z 0046b3a8 f i Options.obj
 0001:0006a3d6       ?hasFile@SettingsStorage@@QBE_NXZ 0046b3d6 f i Options.obj
 0001:0006a3f1       ?isActivateSplitMouseOver@Settings@@QAE_NXZ 0046b3f1 f   Options.obj
 0001:0006a425       ?isAdminShield@Settings@@QAE_NXZ 0046b425 f   Options.obj
 0001:0006a42e       ?isAdminSuffix@Settings@@QAE_NXZ 0046b42e f   Options.obj
 0001:0006a44b       ?isAlwaysShowTrayIcon@Settings@@QAE_NXZ 0046b44b f   Options.obj
 0001:0006a486       ?isCloseOnCrossClick@Settings@@QAE_NXZ 0046b486 f   Options.obj
 0001:0006a4a2       ?isCloseOnLastTabClose@Settings@@QAE_NE@Z 0046b4a2 f   Options.obj
 0001:0006a4d3       ?isCloseOnLastTabClose@Settings@@QAE_NXZ 0046b4d3 f   Options.obj
 0001:0006a4e1       ?isForcedHideCaptionAlways@Settings@@QAE_NXZ 0046b4e1 f   Options.obj
 0001:0006a4f9       ?isHideCaptionAlways@Settings@@QAE_NXZ 0046b4f9 f   Options.obj
 0001:0006a528       ?isHideOnLastTabClose@Settings@@QAE_NXZ 0046b528 f   Options.obj
 0001:0006a556       ?isIndexes@CONEMUDEFCOLORS@@QBE_NXZ 0046b556 f i Options.obj
 0001:0006a574       ?isIntegralSize@Settings@@QAE_NXZ 0046b574 f   Options.obj
 0001:0006a59a       ?isKeyboardHooks@Settings@@QAE_N_N0@Z 0046b59a f   Options.obj
 0001:0006a5c9       ?isLogging@Settings@@QAEII@Z 0046b5c9 f   Options.obj
 0001:0006a617       ?isMinOnLastTabClose@Settings@@QAE_NXZ 0046b617 f   Options.obj
 0001:0006a645       ?isMinToTray@Settings@@QAE_N_N@Z 0046b645 f   Options.obj
 0001:0006a665       ?isMinimizeOnLoseFocus@Settings@@QAE_NXZ 0046b665 f   Options.obj
 0001:0006a681       ?isModifierExist@Settings@@QAE_NE_N@Z 0046b681 f   Options.obj
 0001:0006a71a       ?isRClickTouchInvert@Settings@@QAE_NXZ 0046b71a f   Options.obj
 0001:0006a742       ?isTabsOnTaskBar@Settings@@QAE_NXZ 0046b742 f   Options.obj
 0001:0006a799       ?isTransparentAllowed@Settings@@QAE_NXZ 0046b799 f   Options.obj
 0001:0006a7cb       ?isUseClink@Settings@@QAEKXZ 0046b7cb f   Options.obj
 0001:0006aa2f       ?isWindowOnTaskBar@Settings@@QAE_N_N@Z 0046ba2f f   Options.obj
 0001:0006aa9c       ??$GetPageObj@VCSetPgColors@@@CSettings@@QAE_NAAPAVCSetPgColors@@@Z 0046ba9c f i OptionsClass.obj
 0001:0006aacb       ??$GetPageObj@VCSetPgSizePos@@@CSettings@@QAE_NAAPAVCSetPgSizePos@@@Z 0046bacb f i OptionsClass.obj
 0001:0006aafa       ??0CSettings@@QAE@XZ       0046bafa f   OptionsClass.obj
 0001:0006addb       ??1CSettings@@UAE@XZ       0046bddb f   OptionsClass.obj
 0001:0006af23       ??_ECSettings@@UAEPAXI@Z   0046bf23 f i OptionsClass.obj
 0001:0006af23       ??_GCSettings@@UAEPAXI@Z   0046bf23 f i OptionsClass.obj
 0001:0006af48       ?ActivatePage@CSettings@@QAE_NW4TabHwndIndex@@@Z 0046bf48 f   OptionsClass.obj
 0001:0006afa8       ?BalloonStyle@CSettings@@QAEKXZ 0046bfa8 f   OptionsClass.obj
 0001:0006b011       ?CenterMoreDlg@CSettings@@CAXPAUHWND__@@@Z 0046c011 f   OptionsClass.obj
 0001:0006b093       ?ChangeCurrentPalette@CSettings@@QAEXPBUColorPalette@@_N@Z 0046c093 f   OptionsClass.obj
 0001:0006b32e       ?CheckConsoleFont@CSettings@@KA_NPAUHWND__@@@Z 0046c32e f   OptionsClass.obj
 0001:0006b6c9       ?CheckConsoleFontFast@CSettings@@QAE_NPB_W@Z 0046c6c9 f   OptionsClass.obj
 0001:0006bb75       ?CheckConsoleFontRegistry@CSettings@@KA_NPB_W@Z 0046cb75 f   OptionsClass.obj
 0001:0006bd97       ?CheckSelectionModifiers@CSettings@@QAEXPAUHWND__@@@Z 0046cd97 f   OptionsClass.obj
 0001:0006c2ab       ?CheckTheming@CSettings@@QAE_NXZ 0046d2ab f   OptionsClass.obj
 0001:0006c33a       ?ClearPages@CSettings@@AAEXXZ 0046d33a f   OptionsClass.obj
 0001:0006c385       ?Create@CSetPgANSI@@SAPAVCSetPgBase@@XZ 0046d385 f i OptionsClass.obj
 0001:0006c3b2       ?Create@CSetPgAppear@@SAPAVCSetPgBase@@XZ 0046d3b2 f i OptionsClass.obj
 0001:0006c3df       ?Create@CSetPgApps@@SAPAVCSetPgBase@@XZ 0046d3df f i OptionsClass.obj
 0001:0006c40c       ?Create@CSetPgBackgr@@SAPAVCSetPgBase@@XZ 0046d40c f i OptionsClass.obj
 0001:0006c439       ?Create@CSetPgChildGui@@SAPAVCSetPgBase@@XZ 0046d439 f i OptionsClass.obj
 0001:0006c466       ?Create@CSetPgColors@@SAPAVCSetPgBase@@XZ 0046d466 f i OptionsClass.obj
 0001:0006c493       ?Create@CSetPgComspec@@SAPAVCSetPgBase@@XZ 0046d493 f i OptionsClass.obj
 0001:0006c4c0       ?Create@CSetPgConfirm@@SAPAVCSetPgBase@@XZ 0046d4c0 f i OptionsClass.obj
 0001:0006c4ed       ?Create@CSetPgCursor@@SAPAVCSetPgBase@@XZ 0046d4ed f i OptionsClass.obj
 0001:0006c51a       ?Create@CSetPgDebug@@SAPAVCSetPgBase@@XZ 0046d51a f i OptionsClass.obj
 0001:0006c547       ?Create@CSetPgDefTerm@@SAPAVCSetPgBase@@XZ 0046d547 f i OptionsClass.obj
 0001:0006c574       ?Create@CSetPgEnvironment@@SAPAVCSetPgBase@@XZ 0046d574 f i OptionsClass.obj
 0001:0006c5a1       ?Create@CSetPgFar@@SAPAVCSetPgBase@@XZ 0046d5a1 f i OptionsClass.obj
 0001:0006c5ce       ?Create@CSetPgFarMacro@@SAPAVCSetPgBase@@XZ 0046d5ce f i OptionsClass.obj
 0001:0006c5fb       ?Create@CSetPgFeatures@@SAPAVCSetPgBase@@XZ 0046d5fb f i OptionsClass.obj
 0001:0006c628       ?Create@CSetPgFonts@@SAPAVCSetPgBase@@XZ 0046d628 f i OptionsClass.obj
 0001:0006c655       ?Create@CSetPgGeneral@@SAPAVCSetPgBase@@XZ 0046d655 f i OptionsClass.obj
 0001:0006c682       ?Create@CSetPgHilight@@SAPAVCSetPgBase@@XZ 0046d682 f i OptionsClass.obj
 0001:0006c6af       ?Create@CSetPgInfo@@SAPAVCSetPgBase@@XZ 0046d6af f i OptionsClass.obj
 0001:0006c6dc       ?Create@CSetPgIntegr@@SAPAVCSetPgBase@@XZ 0046d6dc f i OptionsClass.obj
 0001:0006c709       ?Create@CSetPgKeyboard@@SAPAVCSetPgBase@@XZ 0046d709 f i OptionsClass.obj
 0001:0006c736       ?Create@CSetPgKeys@@SAPAVCSetPgBase@@XZ 0046d736 f i OptionsClass.obj
 0001:0006c763       ?Create@CSetPgMarkCopy@@SAPAVCSetPgBase@@XZ 0046d763 f i OptionsClass.obj
 0001:0006c790       ?Create@CSetPgMouse@@SAPAVCSetPgBase@@XZ 0046d790 f i OptionsClass.obj
 0001:0006c7bd       ?Create@CSetPgPaste@@SAPAVCSetPgBase@@XZ 0046d7bd f i OptionsClass.obj
 0001:0006c7ea       ?Create@CSetPgQuake@@SAPAVCSetPgBase@@XZ 0046d7ea f i OptionsClass.obj
 0001:0006c817       ?Create@CSetPgSizePos@@SAPAVCSetPgBase@@XZ 0046d817 f i OptionsClass.obj
 0001:0006c844       ?Create@CSetPgStartup@@SAPAVCSetPgBase@@XZ 0046d844 f i OptionsClass.obj
 0001:0006c871       ?Create@CSetPgStatus@@SAPAVCSetPgBase@@XZ 0046d871 f i OptionsClass.obj
 0001:0006c89e       ?Create@CSetPgTabs@@SAPAVCSetPgBase@@XZ 0046d89e f i OptionsClass.obj
 0001:0006c8cb       ?Create@CSetPgTaskbar@@SAPAVCSetPgBase@@XZ 0046d8cb f i OptionsClass.obj
 0001:0006c8f8       ?Create@CSetPgTasks@@SAPAVCSetPgBase@@XZ 0046d8f8 f i OptionsClass.obj
 0001:0006c925       ?Create@CSetPgTransparent@@SAPAVCSetPgBase@@XZ 0046d925 f i OptionsClass.obj
 0001:0006c952       ?Create@CSetPgUpdate@@SAPAVCSetPgBase@@XZ 0046d952 f i OptionsClass.obj
 0001:0006c97f       ?Create@CSetPgViews@@SAPAVCSetPgBase@@XZ 0046d97f f i OptionsClass.obj
 0001:0006c9ac       ?CreateConFontError@CSettings@@IAEPB_WPB_W0@Z 0046d9ac f   OptionsClass.obj
 0001:0006cb3a       ?Dialog@CSettings@@SAXH@Z  0046db3a f   OptionsClass.obj
 0001:0006cc83       ?EditConsoleFont@CSettings@@QAE_NPAUHWND__@@@Z 0046dc83 f   OptionsClass.obj
 0001:0006ccc0       ?EditConsoleFontProc@CSettings@@SGHPAUHWND__@@IIJ@Z 0046dcc0 f   OptionsClass.obj
 0001:0006d8a8       ?EnumConFamCallBack@CSettings@@SGHPAUtagLOGFONTW@@PAUtagNEWTEXTMETRICW@@KPAX@Z 0046e8a8 f   OptionsClass.obj
 0001:0006daa3       ?EvalSize@CSettings@@QAEJJKPAUDpiValue@@@Z 0046eaa3 f   OptionsClass.obj
 0001:0006db2d       ?ExportSettings@CSettings@@IAEXXZ 0046eb2d f   OptionsClass.obj
 0001:0006dc9c       ?GetActivePage@CSettings@@QAEPAUHWND__@@XZ 0046ec9c f   OptionsClass.obj
 0001:0006dcd4       ?GetActivePageObj@CSettings@@QAEPAVCSetPgBase@@XZ 0046ecd4 f   OptionsClass.obj
 0001:0006dd0f       ?GetActivePageWiki@CSettings@@QAEPB_WAAUCEStr@@@Z 0046ed0f f   OptionsClass.obj
 0001:0006dd70       ?GetBackgroundObject@CSettings@@QAEPAVCBackgroundInfo@@XZ 0046ed70 f   OptionsClass.obj
 0001:0006dd8f       ?GetConfigName@CSettings@@QAEPB_WXZ 0046ed8f f   OptionsClass.obj
 0001:0006dd96       ?GetConfigPath@CSettings@@QAEPB_WXZ 0046ed96 f   OptionsClass.obj
 0001:0006dd9d       ?GetDefaultCreateAction@CSettings@@QAE?AW4RecreateActionParm@@XZ 0046ed9d f   OptionsClass.obj
 0001:0006ddbe       ?GetDialogDpi@CSettings@@AAEHXZ 0046edbe f   OptionsClass.obj
 0001:0006ddd9       ?GetOverallDpi@CSettings@@IAEHXZ 0046edd9 f   OptionsClass.obj
 0001:0006de05       ?GetPage@CSettings@@QAEPAUHWND__@@W4TabHwndIndex@@@Z 0046ee05 f   OptionsClass.obj
 0001:0006de1b       ?GetPageData@CSettings@@AAEPBUConEmuSetupPages@@W4TabHwndIndex@@@Z 0046ee1b f   OptionsClass.obj
 0001:0006de62       ?GetPageId@CSettings@@AAE?AW4TabHwndIndex@@PAUHWND__@@PAPAUConEmuSetupPages@@@Z 0046ee62 f   OptionsClass.obj
 0001:0006dea7       ?GetPageIdByDialogId@CSettings@@AAE?AW4TabHwndIndex@@I@Z 0046eea7 f   OptionsClass.obj
 0001:0006dedd       ?GetPageObj@CSettings@@QAEPAVCSetPgBase@@W4TabHwndIndex@@@Z 0046eedd f   OptionsClass.obj
 0001:0006def6       ?ImportSettings@CSettings@@IAEXXZ 0046eef6 f   OptionsClass.obj
 0001:0006dfa7       ?InitPageNames@CSettings@@AAEXXZ 0046efa7 f   OptionsClass.obj
 0001:0006dffc       ?InitVars_Pages@CSettings@@AAEXXZ 0046effc f   OptionsClass.obj
 0001:0006e71f       ?InternalOpenCreate@?$MFileMapping@UPanelViewSetMapping@@@@IAEPAUPanelViewSetMapping@@HHH@Z 0046f71f f i OptionsClass.obj
 0001:0006e839       ?IsBackgroundEnabled@CSettings@@QAE_NPAVCVirtualConsole@@@Z 0046f839 f   OptionsClass.obj
 0001:0006e8fc       ?IsMulti@CSettings@@QAE_NXZ 0046f8fc f   OptionsClass.obj
 0001:0006e917       ?IsSingleInstanceArg@CSettings@@QAE_NXZ 0046f917 f   OptionsClass.obj
 0001:0006e943       ?IsValid@CESize@@QBE_N_N@Z 0046f943 f i OptionsClass.obj
 0001:0006e98f       ?LoadBackgroundFile@CSettings@@QAE_NPB_W_N@Z 0046f98f f   OptionsClass.obj
 0001:0006e9c5       ?NeedBackgroundUpdate@CSettings@@QAEXXZ 0046f9c5 f   OptionsClass.obj
 0001:0006ea11       ?OnCtlColorStatic@CSettings@@IAEHPAUHWND__@@PAUHDC__@@0G@Z 0046fa11 f   OptionsClass.obj
 0001:0006ea70       ?OnDrawFontItem@CSettings@@IAEHPAUHWND__@@IIJ@Z 0046fa70 f   OptionsClass.obj
 0001:0006ec47       ?OnInitDialog@CSettings@@IAEJXZ 0046fc47 f   OptionsClass.obj
 0001:0006f1ed       ?OnListBoxDblClk@CSettings@@IAEJPAUHWND__@@IJ@Z 004701ed f   OptionsClass.obj
 0001:0006f220       ?OnMeasureFontItem@CSettings@@IAEHPAUHWND__@@IIJ@Z 00470220 f   OptionsClass.obj
 0001:0006f287       ?OnPage@CSettings@@IAEJPAUtagNMHDR@@@Z 00470287 f   OptionsClass.obj
 0001:0006f572       ?OnPanelViewAppeared@CSettings@@QAEXH@Z 00470572 f   OptionsClass.obj
 0001:0006f5c5       ?OnResetOrReload@CSettings@@IAEX_NPAUSettingsStorage@@@Z 004705c5 f   OptionsClass.obj
 0001:0006f8de       ?OnSettingsClosed@CSettings@@QAEXXZ 004708de f   OptionsClass.obj
 0001:0006f9d1       ?Performance@CSettings@@QAEXIH@Z 004709d1 f   OptionsClass.obj
 0001:0006fd0d       ?PostUpdateCounters@CSettings@@QAEX_N@Z 00470d0d f   OptionsClass.obj
 0001:00070238       ?ProcessTipHelp@CSettings@@QAEHPAUHWND__@@IIJ@Z 00471238 f   OptionsClass.obj
 0001:00070285       ?QueryDpi@CSettings@@QAEHXZ 00471285 f   OptionsClass.obj
 0001:0007028c       ?RecreateFont@CSettings@@AAEXG@Z 0047128c f   OptionsClass.obj
 0001:0007032a       ?RegisterTabs@CSettings@@AAEXXZ 0047132a f   OptionsClass.obj
 0001:00070370       ?RegisterTipsFor@CSettings@@QAEXPAUHWND__@@@Z 00471370 f   OptionsClass.obj
 0001:00070627       ?RegisterTipsForChild@CSettings@@CGHPAUHWND__@@J@Z 00471627 f   OptionsClass.obj
 0001:0007071d       ?ReleaseHandles@CSettings@@AAEXXZ 0047171d f   OptionsClass.obj
 0001:00070738       ?ResetCmdHistory@CSettings@@QAE_NPAUHWND__@@@Z 00471738 f   OptionsClass.obj
 0001:00070783       ?SearchForControls@CSettings@@IAEXXZ 00471783 f   OptionsClass.obj
 0001:000711e9       ?SelectTreeItem@CSettings@@CAXPAUHWND__@@PAU_TREEITEM@@_N@Z 004721e9 f   OptionsClass.obj
 0001:00071233       ?SetArgBufferHeight@CSettings@@QAEXH@Z 00472233 f   OptionsClass.obj
 0001:000712ac       ?SetBgImageDarker@CSettings@@QAEXE_N@Z 004722ac f   OptionsClass.obj
 0001:00071389       ?SetConfigName@CSettings@@QAEXPB_W@Z 00472389 f   OptionsClass.obj
 0001:0007140e       ?SetOption@CSettings@@QAE_NPB_W0@Z 0047240e f   OptionsClass.obj
 0001:0007150f       ?SetOption@CSettings@@QAE_NPB_WH@Z 0047250f f   OptionsClass.obj
 0001:00071581       ?SetRequestedDpi@CSettings@@QAEXHH@Z 00472581 f   OptionsClass.obj
 0001:000715a0       ?SetSaveCmdHistory@CSettings@@QAEX_N@Z 004725a0 f   OptionsClass.obj
 0001:00071610       ?SettingsLoaded@CSettings@@QAEXKPB_W@Z 00472610 f   OptionsClass.obj
 0001:000719fb       ?SettingsPreSave@CSettings@@QAEXXZ 004729fb f   OptionsClass.obj
 0001:00071be5       ?ShowConFontErrorTip@CSettings@@QAEXXZ 00472be5 f   OptionsClass.obj
 0001:00071c12       ?ShowErrorTip@CSettings@@AAEXPA_WPAUHWND__@@H1PAUtagTOOLINFOW@@1K_N@Z 00472c12 f   OptionsClass.obj
 0001:00071d3f       ?ShowFontErrorTip@CSettings@@QAEXPB_W@Z 00472d3f f   OptionsClass.obj
 0001:00071da9       ?ShowModifierErrorTip@CSettings@@QAEXPB_WPAUHWND__@@G@Z 00472da9 f   OptionsClass.obj
 0001:00071df1       ?StringCchCopyNW@@YGJPA_WIPB_WI@Z 00472df1 f i OptionsClass.obj
 0001:00071e3d       ?UnregisterTabs@CSettings@@AAEXXZ 00472e3d f   OptionsClass.obj
 0001:00071e74       ?UpdateConsoleMode@CSettings@@QAEXPAVCRealConsole@@@Z 00472e74 f   OptionsClass.obj
 0001:00071eba       ?UpdateFontInfo@CSettings@@QAEXXZ 00472eba f   OptionsClass.obj
 0001:00071ed8       ?UpdatePos@CSettings@@QAEXHH_N@Z 00472ed8 f   OptionsClass.obj
 0001:000720e8       ?UpdateSize@CSettings@@QAEXTCESize@@0@Z 004730e8 f   OptionsClass.obj
 0001:00072311       ?UpdateTextColorSettings@CSettings@@QAEXHHPBUAppSettings@@@Z 00473311 f   OptionsClass.obj
 0001:0007234d       ?UpdateWinHookSettings@CSettings@@QAEXPAUHINSTANCE__@@@Z 0047334d f   OptionsClass.obj
 0001:000725ad       ?UpdateWindowMode@CSettings@@QAEXW4ConEmuWindowMode@@@Z 004735ad f   OptionsClass.obj
 0001:00072623       ?isDialogMessage@CSettings@@QAE_NAAUtagMSG@@@Z 00473623 f   OptionsClass.obj
 0001:0007271b       ?wndOpProc@CSettings@@SGHPAUHWND__@@IIJ@Z 0047371b f   OptionsClass.obj
 0001:00072b98       ??$_Emplace_reallocate@ABUAppInfo@AppFoundList@FastConfig@@@?$vector@UAppInfo@AppFoundList@FastConfig@@V?$MArrayAllocator@UAppInfo@AppFoundList@FastConfig@@@@@std@@QAEPAUAppInfo@AppFoundList@FastConfig@@QAU234@ABU234@@Z 00473b98 f i OptionsFast.obj
 0001:00072c5d       ??$_Guess_median_unchecked@PAUAppInfo@AppFoundList@FastConfig@@P6A_NABU123@0@Z@std@@YAXPAUAppInfo@AppFoundList@FastConfig@@00P6A_NABU123@1@Z@Z 00473c5d f i OptionsFast.obj
 0001:00072ce3       ??$_Insertion_sort_unchecked@PAUAppInfo@AppFoundList@FastConfig@@P6A_NABU123@0@Z@std@@YAPAUAppInfo@AppFoundList@FastConfig@@PAU123@QAU123@P6A_NABU123@2@Z@Z 00473ce3 f i OptionsFast.obj
 0001:00072e21       ??$_Make_heap_unchecked@PAUAppInfo@AppFoundList@FastConfig@@P6A_NABU123@0@Z@std@@YAXPAUAppInfo@AppFoundList@FastConfig@@0P6A_NABU123@1@Z@Z 00473e21 f i OptionsFast.obj
 0001:00072ec5       ??$_Med3_unchecked@PAUAppInfo@AppFoundList@FastConfig@@P6A_NABU123@0@Z@std@@YAXPAUAppInfo@AppFoundList@FastConfig@@00P6A_NABU123@1@Z@Z 00473ec5 f i OptionsFast.obj
 0001:00072f6f       ??$_Partition_by_median_guess_unchecked@PAUAppInfo@AppFoundList@FastConfig@@P6A_NABU123@0@Z@std@@YA?AU?$pair@PAUAppInfo@AppFoundList@FastConfig@@PAU123@@0@PAUAppInfo@AppFoundList@FastConfig@@0P6A_NABU234@1@Z@Z 00473f6f f i OptionsFast.obj
 0001:0007322b       ??$_Pop_heap_hole_by_index@PAUAppInfo@AppFoundList@FastConfig@@U123@P6A_NABU123@0@Z@std@@YAXPAUAppInfo@AppFoundList@FastConfig@@HH$$QAU123@P6A_NABU123@2@Z@Z 0047422b f i OptionsFast.obj
 0001:000732d4       ??$_Pop_heap_hole_unchecked@PAUAppInfo@AppFoundList@FastConfig@@U123@P6A_NABU123@0@Z@std@@YAXPAUAppInfo@AppFoundList@FastConfig@@00$$QAU123@P6A_NABU123@2@Z@Z 004742d4 f i OptionsFast.obj
 0001:0007330a       ??$_Pop_heap_unchecked@PAUAppInfo@AppFoundList@FastConfig@@P6A_NABU123@0@Z@std@@YAXPAUAppInfo@AppFoundList@FastConfig@@0P6A_NABU123@1@Z@Z 0047430a f i OptionsFast.obj
 0001:00073381       ??$_Push_heap_by_index@PAUAppInfo@AppFoundList@FastConfig@@U123@P6A_NABU123@0@Z@std@@YAXPAUAppInfo@AppFoundList@FastConfig@@HH$$QAU123@P6A_NABU123@2@Z@Z 00474381 f i OptionsFast.obj
 0001:000733db       ??$_Sort_heap_unchecked@PAUAppInfo@AppFoundList@FastConfig@@P6A_NABU123@0@Z@std@@YAXPAUAppInfo@AppFoundList@FastConfig@@0P6A_NABU123@1@Z@Z 004743db f i OptionsFast.obj
 0001:00073412       ??$_Sort_unchecked@PAUAppInfo@AppFoundList@FastConfig@@P6A_NABU123@0@Z@std@@YAXPAUAppInfo@AppFoundList@FastConfig@@0HP6A_NABU123@1@Z@Z 00474412 f i OptionsFast.obj
 0001:000734dc       ??$emplace_back@ABUAppInfo@AppFoundList@FastConfig@@@?$vector@UAppInfo@AppFoundList@FastConfig@@V?$MArrayAllocator@UAppInfo@AppFoundList@FastConfig@@@@@std@@QAEXABUAppInfo@AppFoundList@FastConfig@@@Z 004744dc f i OptionsFast.obj
 0001:0007350d       ??$sort@V?$_Vector_iterator@V?$_Vector_val@U?$_Simple_types@UAppInfo@AppFoundList@FastConfig@@@std@@@std@@@std@@P6A_NABUAppInfo@AppFoundList@FastConfig@@0@Z@std@@YAXV?$_Vector_iterator@V?$_Vector_val@U?$_Simple_types@UAppInfo@AppFoundList@FastConfig@@@std@@@std@@@0@0P6A_NABUAppInfo@AppFoundList@FastConfig@@1@Z@Z 0047450d f i OptionsFast.obj
 0001:00073532       ??0AppFoundList@FastConfig@@QAE@H@Z 00474532 f i OptionsFast.obj
 0001:00073566       ??0CVarDefs@FastConfig@@QAE@XZ 00474566 f i OptionsFast.obj
 0001:000735c6       ??0FarVerList@FastConfig@@QAE@XZ 004745c6 f i OptionsFast.obj
 0001:0007362b       ??1AppFoundList@FastConfig@@UAE@XZ 0047462b f i OptionsFast.obj
 0001:00073675       ??1CVarDefs@FastConfig@@QAE@XZ 00474675 f i OptionsFast.obj
 0001:00073716       ??1FarVerList@FastConfig@@UAE@XZ 00474716 f i OptionsFast.obj
 0001:00073721       ??1FoundFiles@FastConfig@@QAE@XZ 00474721 f i OptionsFast.obj
 0001:000737d5       ??_FAppFoundList@FastConfig@@QAEXXZ 004747d5 f i OptionsFast.obj
 0001:000737dd       ??_GAppFoundList@FastConfig@@UAEPAXI@Z 004747dd f i OptionsFast.obj
 0001:000737dd       ??_EAppFoundList@FastConfig@@UAEPAXI@Z 004747dd f i OptionsFast.obj
 0001:000737ff       ??_EFarVerList@FastConfig@@UAEPAXI@Z 004747ff f i OptionsFast.obj
 0001:000737ff       ??_GFarVerList@FastConfig@@UAEPAXI@Z 004747ff f i OptionsFast.obj
 0001:00073827       ?Add@AppFoundList@FastConfig@@QAA_NPB_W0000ZZ 00474827 f i OptionsFast.obj
 0001:000739ea       ?Add@FoundFiles@FastConfig@@QAEXPB_W0@Z 004749ea f i OptionsFast.obj
 0001:00073a9d       ?AddAppPath@AppFoundList@FastConfig@@MAEHPB_W00_N000@Z 00474a9d f i OptionsFast.obj
 0001:00073d8a       ?CheckOptionsFast@FastConfig@@YAXPB_WK@Z 00474d8a f   OptionsFast.obj
 0001:0007418f       ?CheckUnique@AppFoundList@FastConfig@@QAE_NPB_W@Z 0047518f f i OptionsFast.obj
 0001:00074284       ?Clean@AppFoundList@FastConfig@@IAEXXZ 00475284 f i OptionsFast.obj
 0001:0007438b       ?Commit@AppFoundList@FastConfig@@UAE_NXZ 0047538b f i OptionsFast.obj
 0001:0007519f       ?CreateDefaultTasks@FastConfig@@YAXK@Z 0047619f f   OptionsFast.obj
 0001:00075fa7       ?DoPaintColorBox@FastConfig@@YAXPAUHWND__@@ABUColorPalette@@@Z 00476fa7 f   OptionsFast.obj
 0001:000760a7       ?DoStartupCommand@FastConfig@@YAXPAUHWND__@@G@Z 004770a7 f   OptionsFast.obj
 0001:000762c0       ?FastMsgBox@FastConfig@@YAHPB_WI0PAUHWND__@@_N@Z 004772c0 f   OptionsFast.obj
 0001:00076306       ?FindInstalledVersions@FarVerList@FastConfig@@QAEXXZ 00477306 f i OptionsFast.obj
 0001:00076c70       ?FindStartupTask@FastConfig@@YAXK@Z 00477c70 f   OptionsFast.obj
 0001:00076db8       ?Free@AppInfo@AppFoundList@FastConfig@@QAEXXZ 00477db8 f i OptionsFast.obj
 0001:00076e54       ?GetStartupCommand@FastConfig@@YAPB_WAAUCEStr@@@Z 00477e54 f   OptionsFast.obj
 0001:000770d7       ?MakeUnique@AppFoundList@FastConfig@@UAEXXZ 004780d7 f i OptionsFast.obj
 0001:00078102       ?Process@CVarDefs@FastConfig@@QAEXHPB_W@Z 00479102 f i OptionsFast.obj
 0001:00078242       ?ScanRegistry@FarVerList@FastConfig@@IAEXXZ 00479242 f i OptionsFast.obj
 0001:000783de       ?SortRoutine@impl@?1??MakeUnique@AppFoundList@FastConfig@@UAEXXZ@SA_NABUAppInfo@34@0@Z 004793de f i OptionsFast.obj
 0001:0007845e       ?SortRoutine@impl@?BM@??FindInstalledVersions@FarVerList@FastConfig@@QAEXXZ@SA_NABUAppInfo@AppFoundList@4@0@Z 0047945e f i OptionsFast.obj
 0001:000784c1       ?Store@CVarDefs@FastConfig@@QAEXPA_W0@Z 004794c1 f i OptionsFast.obj
 0001:000784f9       ?Trim@AppFoundList@FastConfig@@IAE_NXZ 004794f9 f i OptionsFast.obj
 0001:00078687       ?_Calculate_growth@?$vector@UAppInfo@AppFoundList@FastConfig@@V?$MArrayAllocator@UAppInfo@AppFoundList@FastConfig@@@@@std@@ABEII@Z 00479687 f i OptionsFast.obj
 0001:000786b4       ?_Change_array@?$vector@UAppInfo@AppFoundList@FastConfig@@V?$MArrayAllocator@UAppInfo@AppFoundList@FastConfig@@@@@std@@AAEXQAUAppInfo@AppFoundList@FastConfig@@II@Z 004796b4 f i OptionsFast.obj
 0001:000786f8       ?_Tidy@?$vector@UAppInfo@AppFoundList@FastConfig@@V?$MArrayAllocator@UAppInfo@AppFoundList@FastConfig@@@@@std@@AAEXXZ 004796f8 f i OptionsFast.obj
 0001:00078723       ?allocate@?$MArrayAllocator@UAppInfo@AppFoundList@FastConfig@@@@QAEPAUAppInfo@AppFoundList@FastConfig@@I@Z 00479723 f i OptionsFast.obj
 0001:0007875f       ?erase@?$MArray@UAppInfo@AppFoundList@FastConfig@@@@QAEXHH@Z 0047975f f i OptionsFast.obj
 0001:000787b0       ?isNeedQuot@AppInfo@AppFoundList@FastConfig@@QBE_NXZ 004797b0 f i OptionsFast.obj
 0001:000787c9       ?pop_back@?$MArray@UVarDef@CVarDefs@FastConfig@@@@QAE_NAAUVarDef@CVarDefs@FastConfig@@@Z 004797c9 f i OptionsFast.obj
 0001:000787fe       ?GetItemHelp@CEHelpPopup@@SA_NHPAUHWND__@@PA_WK@Z 004797fe f   OptionsHelp.obj
 0001:00078929       ?OpenSettingsWiki@CEHelpPopup@@SA_NPAUHWND__@@G@Z 00479929 f   OptionsHelp.obj
 0001:00078a04       ??0CPushInfo@@QAE@XZ       00479a04 f   PushInfo.obj
 0001:00078c09       ?OnNotificationClick@CPushInfo@@QAEXXZ 00479c09 f   PushInfo.obj
 0001:00078c94       ?OpenNotificationUrl@CPushInfo@@QAEXXZ 00479c94 f   PushInfo.obj
 0001:00078cd3       ?ShowNotification@CPushInfo@@QAE_NXZ 00479cd3 f   PushInfo.obj
 0001:00078d30       ??0CRConData@@IAE@PAVCRealConsole@@PA_WPAUtag_CharAttr@@ABU_CONSOLE_SCREEN_BUFFER_INFO@@ABU_COORD@@@Z 00479d30 f   RConData.obj
 0001:00078da3       ??1CRConData@@MAE@XZ       00479da3 f   RConData.obj
 0001:00078e3a       ??_ECRConData@@MAEPAXI@Z   00479e3a f i RConData.obj
 0001:00078e3a       ??_GCRConData@@MAEPAXI@Z   00479e3a f i RConData.obj
 0001:00078e5c       ?Allocate@CRConData@@SA_NAAVCRConDataGuard@@PAVCRealConsole@@I@Z 00479e5c f   RConData.obj
 0001:00078f48       ?Allocate@CRConData@@SA_NAAVCRConDataGuard@@PAVCRealConsole@@PA_WPAUtag_CharAttr@@ABU_CONSOLE_SCREEN_BUFFER_INFO@@ABU_COORD@@@Z 00479f48 f   RConData.obj
 0001:00078fad       ?CheckProgressInConsole@CRConData@@QAEFI@Z 00479fad f   RConData.obj
 0001:00079512       ?FindPanels@CRConData@@QAE_NAA_NAAUtagRECT@@1011@Z 0047a512 f   RConData.obj
 0001:00079b50       ?GetConsoleData@CRConData@@QAEIPA_WPAUtag_CharAttr@@II_WU2@11_N4@Z 0047ab50 f   RConData.obj
 0001:0007a02d       ?GetConsoleLine@CRConData@@QBE_NHAAUConsoleLinePtr@@@Z 0047b02d f   RConData.obj
 0001:0007a0c2       ?clear@ConsoleLinePtr@@QAEXXZ 0047b0c2 f   RConData.obj
 0001:0007a0d0       ?isValid@CRConData@@QAE_N_NI@Z 0047b0d0 f   RConData.obj
 0001:0007a112       ?isValid@CRConDataGuard@@QAE_NI@Z 0047b112 f   RConData.obj
 0001:0007a134       _wmemset                   0047b134 f i RConData.obj
 0001:0007a15e       ??0CRConFiles@@QAE@PAVCRealConsole@@@Z 0047b15e f   RConFiles.obj
 0001:0007a16c       ?CheckParentFolders@CRConFiles@@AAE_NPB_W0AAUCEStr@@@Z 0047b16c f   RConFiles.obj
 0001:0007a259       ?GetFileFromConsole@CRConFiles@@QAEPB_WPB_WAAUCEStr@@@Z 0047b259 f   RConFiles.obj
 0001:0007a4ca       ??$swprintf_s@$0MI@@@YAHAAY0MI@_WPB_WZZ 0047b4ca f i RConPalette.obj
 0001:0007a4e8       ??0CRConPalette@@QAE@PAVCRealConsole@@@Z 0047b4e8 f   RConPalette.obj
 0001:0007a522       ??_ECRConPalette@@UAEPAXI@Z 0047b522 f i RConPalette.obj
 0001:0007a522       ??_GCRConPalette@@UAEPAXI@Z 0047b522 f i RConPalette.obj
 0001:0007a548       ?UpdateColorTable@CRConPalette@@QAEXPAK_N1EEE@Z 0047b548 f   RConPalette.obj
 0001:0007a96d       ??$MinMax@F@@YAXAAFHH@Z    0047b96d f i RealBuffer.obj
 0001:0007a98d       ??$SafeDelete@VCMatch@@@@YAXAAPAVCMatch@@@Z 0047b98d f i RealBuffer.obj
 0001:0007a9cd       ??$sprintf_c@$0CA@@@YAHAAY0CA@DPBDZZ 0047b9cd f i RealBuffer.obj
 0001:0007a9e3       ??$sprintf_c@$0PP@@@YAHAAY0PP@DPBDZZ 0047b9e3 f i RealBuffer.obj
 0001:0007a9fc       ??$swprintf_c@$0GA@@@YAHAAY0GA@_WPB_WZZ 0047b9fc f i RealBuffer.obj
 0001:0007aa12       ??$swprintf_c@$0HNA@@@YAHAAY0HNA@_WPB_WZZ 0047ba12 f i RealBuffer.obj
 0001:0007aa2b       ??$swprintf_c@$0PA@@@YAHAAY0PA@_WPB_WZZ 0047ba2b f i RealBuffer.obj
 0001:0007aa44       ??$wcscpy_c@$0BAA@@@YAHAAY0BAA@_WPB_W@Z 0047ba44 f i RealBuffer.obj
 0001:0007aa59       ??0?$CRefGuard@VCRConData@@@@QAE@XZ 0047ba59 f i RealBuffer.obj
 0001:0007aa73       ??0CAnsiCopy@@QAE@PAKKK@Z  0047ba73 f i RealBuffer.obj
 0001:0007aae1       ??0CEnvRestorer@@QAE@XZ    0047bae1 f i RealBuffer.obj
 0001:0007ab11       ??0CFormatCopy@@QAE@XZ     0047bb11 f i RealBuffer.obj
 0001:0007ab46       ??0CHtmlCopy@@QAE@_NPB_W1HKK@Z 0047bb46 f i RealBuffer.obj
 0001:0007ac34       ??0CRealBuffer@@QAE@PAVCRealConsole@@W4RealBufferType@@@Z 0047bc34 f   RealBuffer.obj
 0001:0007ad6b       ??1?$CRefGuard@VCRConData@@@@UAE@XZ 0047bd6b f i RealBuffer.obj
 0001:0007adb4       ??1CFormatCopy@@UAE@XZ     0047bdb4 f i RealBuffer.obj
 0001:0007ae36       ??1CRConDataGuard@@UAE@XZ  0047be36 f i RealBuffer.obj
 0001:0007ae3b       ??1CRealBuffer@@QAE@XZ     0047be3b f   RealBuffer.obj
 0001:0007af2d       ??_G?$CRefGuard@VCRConData@@@@UAEPAXI@Z 0047bf2d f i RealBuffer.obj
 0001:0007af2d       ??_GCRConDataGuard@@UAEPAXI@Z 0047bf2d f i RealBuffer.obj
 0001:0007af2d       ??_E?$CRefGuard@VCRConData@@@@UAEPAXI@Z 0047bf2d f i RealBuffer.obj
 0001:0007af2d       ??_ECRConDataGuard@@UAEPAXI@Z 0047bf2d f i RealBuffer.obj
 0001:0007af4f       ??_ECAnsiCopy@@UAEPAXI@Z   0047bf4f f i RealBuffer.obj
 0001:0007af4f       ??_GCAnsiCopy@@UAEPAXI@Z   0047bf4f f i RealBuffer.obj
 0001:0007af7a       ??_ECFormatCopy@@UAEPAXI@Z 0047bf7a f i RealBuffer.obj
 0001:0007af7a       ??_GCFormatCopy@@UAEPAXI@Z 0047bf7a f i RealBuffer.obj
 0001:0007af9f       ??_GCHtmlCopy@@UAEPAXI@Z   0047bf9f f i RealBuffer.obj
 0001:0007af9f       ??_ECHtmlCopy@@UAEPAXI@Z   0047bf9f f i RealBuffer.obj
 0001:0007afca       ?AllocateBuffer@MPipeBase@@IAEPAXIPAXI@Z 0047bfca f i RealBuffer.obj
 0001:0007b064       ?ApplyConsoleInfo@CRealBuffer@@AAEXPBUCESERVER_REQ@@AA_N11@Z 0047c064 f   RealBuffer.obj
 0001:0007b76a       ?ApplyConsoleInfo@CRealBuffer@@QAE_NXZ 0047c76a f   RealBuffer.obj
 0001:0007b863       ?Attach@?$CRefGuard@VCVConGroup@@@@UAE_NPAVCVConGroup@@@Z 0047c863 f i VConGroup.obj
 0001:0007b863       ?Attach@?$CRefGuard@VCConHostSearch@CRealConsole@@@@UAE_NPAVCConHostSearch@CRealConsole@@@Z 0047c863 f i RealConsole.obj
 0001:0007b863       ?Attach@?$CRefGuard@VCVirtualConsole@@@@UAE_NPAVCVirtualConsole@@@Z 0047c863 f i VConRelease.obj
 0001:0007b863       ?Attach@?$CRefGuard@VCRConData@@@@UAE_NPAVCRConData@@@Z 0047c863 f i RealBuffer.obj
 0001:0007b89c       ?BuferModeChangeLock@CRealBuffer@@QAE_NXZ 0047c89c f   RealBuffer.obj
 0001:0007b8ae       ?BuferModeChangeUnlock@CRealBuffer@@QAEXXZ 0047c8ae f   RealBuffer.obj
 0001:0007b8b6       ?BufferHeight@CRealBuffer@@QAEHI@Z 0047c8b6 f   RealBuffer.obj
 0001:0007b8f5       ?BufferToScreen@CRealBuffer@@QAE?AU_COORD@@U2@_N1@Z 0047c8f5 f   RealBuffer.obj
 0001:0007b9aa       ?CanProcessHyperlink@CRealBuffer@@AAE_NABU_COORD@@@Z 0047c9aa f   RealBuffer.obj
 0001:0007ba5d       ?ChangeBufferHeightMode@CRealBuffer@@QAEX_N@Z 0047ca5d f   RealBuffer.obj
 0001:0007bb08       ?ChangeSelectionByKey@CRealBuffer@@QAEXI_N0@Z 0047cb08 f   RealBuffer.obj
 0001:0007be44       ?CheckBufferSize@CRealBuffer@@AAE_NXZ 0047ce44 f   RealBuffer.obj
 0001:0007be93       ?Close@ConDumpInfo@CRealBuffer@@QAEXXZ 0047ce93 f i RealBuffer.obj
 0001:0007beba       ?ConsoleCursorInfo@CRealBuffer@@QAEXPAU_CONSOLE_CURSOR_INFO@@@Z 0047ceba f   RealBuffer.obj
 0001:0007bf66       ?ConsoleCursorPos@CRealBuffer@@QAEXPAU_COORD@@@Z 0047cf66 f   RealBuffer.obj
 0001:0007bfc0       ?ConsoleScreenBufferInfo@CRealBuffer@@QAEXPAU_CONSOLE_SCREEN_BUFFER_INFO@@PAU_SMALL_RECT@@PAUTOPLEFTCOORD@@@Z 0047cfc0 f   RealBuffer.obj
 0001:0007c031       ?CorrectSelectionAnchor@CRealBuffer@@QAEIXZ 0047d031 f   RealBuffer.obj
 0001:0007c0d1       ?CreateResult@CAnsiCopy@@UAEPAXXZ 0047d0d1 f i RealBuffer.obj
 0001:0007c120       ?CreateResult@CHtmlCopy@@UAEPAXXZ 0047d120 f i RealBuffer.obj
 0001:0007c20e       ?CreateResultInternal@CFormatCopy@@IAEPAXPBDH@Z 0047d20e f i RealBuffer.obj
 0001:0007c37a       ?DoCopyPaste@CRealBuffer@@QAEX_N0@Z 0047d37a f   RealBuffer.obj
 0001:0007c452       ?DoScrollBuffer@CRealBuffer@@QAEJHFI_N@Z 0047d452 f   RealBuffer.obj
 0001:0007c57e       ?DoSelectionCopy@CRealBuffer@@QAE_NW4CECopyMode@@EPB_WPAPAX@Z 0047d57e f   RealBuffer.obj
 0001:0007c778       ?DoSelectionCopyInt@CRealBuffer@@AAE_NW4CECopyMode@@_NHHHHEPB_WPAPAX@Z 0047d778 f   RealBuffer.obj
 0001:0007d517       ?DoSelectionFinalize@CRealBuffer@@QAE_N_NW4CECopyMode@@IPAPAX@Z 0047e517 f   RealBuffer.obj
 0001:0007d56d       ?DoSelectionStop@CRealBuffer@@QAEXXZ 0047e56d f   RealBuffer.obj
 0001:0007d5d7       ?DumpConsole@CRealBuffer@@QAEXPAX@Z 0047e5d7 f   RealBuffer.obj
 0001:0007d680       ?ExpandSelection@CRealBuffer@@QAEXFF_N@Z 0047e680 f   RealBuffer.obj
 0001:0007da80       ?ExpandTextRange@CRealBuffer@@AAE?AW4ExpandTextRangeType@@AAU_COORD@@0W42@PAUCEStr@@@Z 0047ea80 f   RealBuffer.obj
 0001:0007dc44       ?FindPanels@CRealBuffer@@QAEXXZ 0047ec44 f   RealBuffer.obj
 0001:0007dede       ?FormatColor@CAnsiCopy@@IAEPB_WKK_N00AAY0FA@_W@Z 0047eede f i RealBuffer.obj
 0001:0007e145       ?FormatColor@CHtmlCopy@@IAEPB_WKPA_W@Z 0047f145 f i RealBuffer.obj
 0001:0007e17a       ?GetBufferHeight@CRealBuffer@@QBEFXZ 0047f17a f   RealBuffer.obj
 0001:0007e182       ?GetBufferPosY@CRealBuffer@@QBEFXZ 0047f182 f   RealBuffer.obj
 0001:0007e194       ?GetBufferWidth@CRealBuffer@@QBEFXZ 0047f194 f   RealBuffer.obj
 0001:0007e19c       ?GetConInMode@CRealBuffer@@QAEGXZ 0047f19c f   RealBuffer.obj
 0001:0007e1a4       ?GetConOutMode@CRealBuffer@@QAEGXZ 0047f1a4 f   RealBuffer.obj
 0001:0007e1ac       ?GetConWindowSize@CRealBuffer@@QBE_NABU_CONSOLE_SCREEN_BUFFER_INFO@@PAH1PAK@Z 0047f1ac f   RealBuffer.obj
 0001:0007e284       ?GetConsoleCP@CRealBuffer@@QAEKXZ 0047f284 f   RealBuffer.obj
 0001:0007e28b       ?GetConsoleData@CRealBuffer@@QAEXPA_WPAUtag_CharAttr@@HHAAUConEmuTextRange@@@Z 0047f28b f   RealBuffer.obj
 0001:0007eaeb       ?GetConsoleLine@CRealBuffer@@QAE_NAAVCRConDataGuard@@HAAPB_WAAHPAVMSectionLock@@@Z 0047faeb f   RealBuffer.obj
 0001:0007eb28       ?GetConsoleLine@CRealBuffer@@QAE_NHAAVCRConDataGuard@@AAUConsoleLinePtr@@PAVMSectionLock@@@Z 0047fb28 f   RealBuffer.obj
 0001:0007ec40       ?GetConsoleOutputCP@CRealBuffer@@QAEKXZ 0047fc40 f   RealBuffer.obj
 0001:0007ec47       ?GetConsoleSelectionInfo@CRealBuffer@@QAE_NPAU_CONSOLE_SELECTION_INFO@@@Z 0047fc47 f   RealBuffer.obj
 0001:0007ec70       ?GetCursorInfo@CRealBuffer@@QAEXPAU_COORD@@PAU_CONSOLE_CURSOR_INFO@@@Z 0047fc70 f   RealBuffer.obj
 0001:0007ec94       ?GetData@CRealBuffer@@IAE_NAAVCRConDataGuard@@@Z 0047fc94 f   RealBuffer.obj
 0001:0007ed09       ?GetDefaultNtvdmHeight@CRealBuffer@@QAE?AU_COORD@@XZ 0047fd09 f   RealBuffer.obj
 0001:0007ed73       ?GetDetector@CRealBuffer@@QAEPBVCRgnDetect@@XZ 0047fd73 f   RealBuffer.obj
 0001:0007ed7e       ?GetDynamicHeight@CRealBuffer@@QBEHXZ 0047fd7e f   RealBuffer.obj
 0001:0007ed9b       ?GetKeybLayout@CRealBuffer@@QAEKXZ 0047fd9b f   RealBuffer.obj
 0001:0007eda2       ?GetLastTextRangeType@CRealBuffer@@QAE?AW4ExpandTextRangeType@@XZ 0047fda2 f   RealBuffer.obj
 0001:0007edb0       ?GetMaxSize@CRealBuffer@@QAE?AU_COORD@@XZ 0047fdb0 f   RealBuffer.obj
 0001:0007edc2       ?GetPanelRect@CRealBuffer@@QAE_N_NPAUtagRECT@@00@Z 0047fdc2 f   RealBuffer.obj
 0001:0007ee77       ?GetRBtnDrag@CRealBuffer@@QAE_NPAU_COORD@@@Z 0047fe77 f   RealBuffer.obj
 0001:0007ee93       ?GetSelectionCellsCount@CRealBuffer@@QAEHXZ 0047fe93 f   RealBuffer.obj
 0001:0007eed5       ?GetSelectionCharCount@CRealBuffer@@AAEH_NHHHHPAH1H@Z 0047fed5 f   RealBuffer.obj
 0001:0007ef75       ?GetStatusLineCount@CRealBuffer@@QAEHH@Z 0047ff75 f   RealBuffer.obj
 0001:0007f038       ?GetTextHeight@CRealBuffer@@QBEHXZ 00480038 f   RealBuffer.obj
 0001:0007f047       ?GetTextWidth@CRealBuffer@@QBEHXZ 00480047 f   RealBuffer.obj
 0001:0007f056       ?GetTo@?$MFileMapping@$$CBUCEFAR_INFO_MAPPING@@@@QAE_NPBUCEFAR_INFO_MAPPING@@H@Z 00480056 f i RealBuffer.obj
 0001:0007f086       ?InitBuffers@CRealBuffer@@AAE_NKHHPAVCRConDataGuard@@@Z 00480086 f   RealBuffer.obj
 0001:0007f4db       ?InitMaxSize@CRealBuffer@@QAEXABU_COORD@@@Z 004804db f   RealBuffer.obj
 0001:0007f4ed       ?InitSBI@CRealBuffer@@QAEXABU_CONSOLE_SCREEN_BUFFER_INFO@@@Z 004804ed f   RealBuffer.obj
 0001:0007f5ea       ?IsBufferHeightTurnedOn@CRealBuffer@@AAE_NABU_CONSOLE_SCREEN_BUFFER_INFO@@@Z 004805ea f   RealBuffer.obj
 0001:0007f626       ?IsFarLua@FarVersion@@QBE_NXZ 00480626 f i RealBuffer.obj
 0001:0007f640       ?IsTrueColorerBufferChanged@CRealBuffer@@AAE_NXZ 00480640 f   RealBuffer.obj
 0001:0007f80c       ?LineAdd@CFormatCopy@@UAEXPB_WPBGPBKH@Z 0048080c f i RealBuffer.obj
 0001:0007f897       ?LineAdd@CFormatCopy@@UAEXPB_WPBUtag_CharAttr@@H@Z 00480897 f i RealBuffer.obj
 0001:0007f959       ?LoadAlternativeConsole@CRealBuffer@@QAE_NW4LoadAltMode@@@Z 00480959 f   RealBuffer.obj
 0001:0007fbaa       ?LoadDataFromDump@CRealBuffer@@AAE_NABU_CONSOLE_SCREEN_BUFFER_INFO@@PBU_CHAR_INFO@@K@Z 00480baa f   RealBuffer.obj
 0001:0007ff66       ?LoadDataFromSrv@CRealBuffer@@AAE_NAAVCRConDataGuard@@KPAU_CHAR_INFO@@@Z 00480f66 f   RealBuffer.obj
 0001:000802c4       ?LoadDumpConsole@CRealBuffer@@QAE_NPB_W@Z 004812c4 f   RealBuffer.obj
 0001:0008077c       ?MarkFindText@CRealBuffer@@QAEXHPB_W_N1@Z 0048177c f   RealBuffer.obj
 0001:00080cf5       ?OnBufferHeight@CRealBuffer@@QAEXXZ 00481cf5 f   RealBuffer.obj
 0001:00080d0a       ?OnKeyboard@CRealBuffer@@QAE_NPAUHWND__@@IIJPB_W@Z 00481d0a f   RealBuffer.obj
 0001:00080edd       ?OnKeysSending@CRealBuffer@@QAEXXZ 00481edd f   RealBuffer.obj
 0001:00080f2f       ?OnMouse@CRealBuffer@@QAE_NIIHHU_COORD@@@Z 00481f2f f   RealBuffer.obj
 0001:00081b45       ?OnMouseSelection@CRealBuffer@@AAE_NIIHH@Z 00482b45 f   RealBuffer.obj
 0001:00081efe       ?OnTimerCheckSelection@CRealBuffer@@QAEXXZ 00482efe f   RealBuffer.obj
 0001:00081fed       ?Open@?$MPipe@UCESERVER_REQ_HDR@@U1@@@QAE_NXZ 00482fed f i RealBuffer.obj
 0001:000820a2       ?ParBegin@CAnsiCopy@@MAEXXZ 004830a2 f i RealBuffer.obj
 0001:000820bc       ?ParBegin@CHtmlCopy@@MAEXXZ 004830bc f i RealBuffer.obj
 0001:000820d6       ?ParEnd@CAnsiCopy@@MAEXXZ  004830d6 f i RealBuffer.obj
 0001:000820f3       ?ParEnd@CHtmlCopy@@MAEXXZ  004830f3 f i RealBuffer.obj
 0001:00082110       ?PatchMouseCoords@CRealBuffer@@AAE_NAAH0AAU_COORD@@@Z 00483110 f   RealBuffer.obj
 0001:000822ce       ?PreFillBuffers@CRealBuffer@@QAEXXZ 004832ce f   RealBuffer.obj
 0001:00082342       ?PreInit@CRealBuffer@@QAE_NXZ 00483342 f   RealBuffer.obj
 0001:0008249a       ?PrepareColorTable@CRealBuffer@@AAEXPBUAppSettings@@PAPAUtag_CharAttr@@1@Z 0048349a f   RealBuffer.obj
 0001:00082552       ?PrepareTransparent@CRealBuffer@@AAEXPA_WPAUtag_CharAttr@@HH@Z 00483552 f   RealBuffer.obj
 0001:00082759       ?ProcessFarHyperlink@CRealBuffer@@QAE_NIU_COORD@@_N@Z 00483759 f   RealBuffer.obj
 0001:000831a6       ?ProcessFarHyperlink@CRealBuffer@@QAE_N_N@Z 004841a6 f   RealBuffer.obj
 0001:000832cf       ?ProcessSelectionHotKey@CRealBuffer@@QAEPBUConEmuHotKey@@ABUConEmuChord@@_NPB_W@Z 004842cf f   RealBuffer.obj
 0001:00083559       ?QueryCellInfo@CRealBuffer@@QAEXPA_WH@Z 00484559 f   RealBuffer.obj
 0001:000836b7       ?RawAdd@CFormatCopy@@IAEXPB_WH@Z 004846b7 f i RealBuffer.obj
 0001:0008377b       ?Release@?$CRefGuard@VCConHostSearch@CRealConsole@@@@UAEXXZ 0048477b f i RealConsole.obj
 0001:0008377b       ?Release@?$CRefGuard@VCVConGroup@@@@UAEXXZ 0048477b f i VConGroup.obj
 0001:0008377b       ?Release@?$CRefGuard@VCVirtualConsole@@@@UAEXXZ 0048477b f i VConGroup.obj
 0001:0008377b       ?Release@?$CRefGuard@VCRConData@@@@UAEXXZ 0048477b f i RealBuffer.obj
 0001:00083790       ?ReleaseMem@CRealBuffer@@QAEXXZ 00484790 f   RealBuffer.obj
 0001:0008379e       ?ResetBuffer@CRealBuffer@@QAEXXZ 0048479e f   RealBuffer.obj
 0001:0008385b       ?ResetConData@CRealBuffer@@QAEXXZ 0048485b f   RealBuffer.obj
 0001:0008386a       ?ResetLastMousePos@CRealBuffer@@AAE_NXZ 0048486a f   RealBuffer.obj
 0001:0008389c       ?ResetTopLeft@CRealBuffer@@QAEXXZ 0048489c f   RealBuffer.obj
 0001:000838c8       ?ScreenToBuffer@CRealBuffer@@QAE?AU_COORD@@U2@@Z 004848c8 f   RealBuffer.obj
 0001:000838fa       ?SetBufferHeightMode@CRealBuffer@@QAEX_N0@Z 004848fa f   RealBuffer.obj
 0001:00083932       ?SetChange2Size@CRealBuffer@@QAEXHH@Z 00484932 f   RealBuffer.obj
 0001:0008394b       ?SetConsoleSize@CRealBuffer@@QAE_NFFGK@Z 0048494b f   RealBuffer.obj
 0001:00083c15       ?SetConsoleSizeSrv@CRealBuffer@@AAE_NGGGK@Z 00484c15 f   RealBuffer.obj
 0001:00084622       ?SetKeybLayout@CRealBuffer@@QAEXK@Z 00485622 f   RealBuffer.obj
 0001:00084632       ?SetRBtnDrag@CRealBuffer@@QAEX_NPBU_COORD@@@Z 00485632 f   RealBuffer.obj
 0001:00084651       ?SetTopLeft@CRealBuffer@@IAE_NHH_N0@Z 00485651 f   RealBuffer.obj
 0001:00084752       ?ShowKeyBarHint@CRealBuffer@@QAEXG@Z 00485752 f   RealBuffer.obj
 0001:0008477d       ?StartSelection@CRealBuffer@@QAEX_NFF0IPAU_COORD@@K@Z 0048577d f   RealBuffer.obj
 0001:000849cb       ?StoreLastTextRange@CRealBuffer@@AAE_NW4ExpandTextRangeType@@@Z 004859cb f   RealBuffer.obj
 0001:00084a17       ?StorePausedState@CRealBuffer@@QAEXW4CEPauseCmd@@@Z 00485a17 f   RealBuffer.obj
 0001:00084a58       ?SyncConsole2Window@CRealBuffer@@QAEXFF@Z 00485a58 f   RealBuffer.obj
 0001:00084b11       ?TextAdd@CAnsiCopy@@MAEXPB_WHKK_N11@Z 00485b11 f i RealBuffer.obj
 0001:00084bff       ?TextAdd@CHtmlCopy@@MAEXPB_WHKK_N11@Z 00485bff f i RealBuffer.obj
 0001:00084e0d       ?TextHeight@CRealBuffer@@QBEHXZ 00485e0d f   RealBuffer.obj
 0001:00084e26       ?TextWidth@CRealBuffer@@QBEHXZ 00485e26 f   RealBuffer.obj
 0001:00084e3f       ?Transact@?$MPipe@UCESERVER_REQ_HDR@@U1@@@QAE_NPBUCESERVER_REQ_HDR@@KPAPBU2@@Z 00485e3f f i RealBuffer.obj
 0001:00085253       ?UpdateHyperlink@CRealBuffer@@QAEXXZ 00486253 f   RealBuffer.obj
 0001:00085271       ?UpdateSelection@CRealBuffer@@QAEXXZ 00486271 f   RealBuffer.obj
 0001:000852a1       ?isConSelectMode@CRealBuffer@@QAE_NXZ 004862a1 f   RealBuffer.obj
 0001:000852d8       ?isConsoleDataChanged@CRealBuffer@@QAE_NXZ 004862d8 f   RealBuffer.obj
 0001:000852e6       ?isCursorVisible@CRealBuffer@@QAE_NXZ 004862e6 f   RealBuffer.obj
 0001:00085329       ?isDataValid@CRealBuffer@@IAE_NXZ 00486329 f   RealBuffer.obj
 0001:000853b5       ?isFarMenuOrMacro@CRealBuffer@@QAE_NXZ 004863b5 f   RealBuffer.obj
 0001:00085505       ?isInitialized@CRealBuffer@@QAE_NXZ 00486505 f   RealBuffer.obj
 0001:00085526       ?isLeftPanel@CRealBuffer@@QAE_NXZ 00486526 f   RealBuffer.obj
 0001:0008552a       ?isMouseClickExtension@CRealBuffer@@QAE_NXZ 0048652a f   RealBuffer.obj
 0001:0008556c       ?isMouseInsideSelection@CRealBuffer@@QAE_NHH@Z 0048656c f   RealBuffer.obj
 0001:00085638       ?isMouseSelectionPresent@CRealBuffer@@QAE_NXZ 00486638 f   RealBuffer.obj
 0001:0008564b       ?isPaused@CRealBuffer@@QAE_NXZ 0048664b f   RealBuffer.obj
 0001:0008565b       ?isRightPanel@CRealBuffer@@QAE_NXZ 0048665b f   RealBuffer.obj
 0001:0008565f       ?isScroll@CRealBuffer@@QAE_NW4RealBufferScroll@@@Z 0048665f f   RealBuffer.obj
 0001:00085668       ?isSelectionAllowed@CRealBuffer@@QAE_NXZ 00486668 f   RealBuffer.obj
 0001:000857c2       ?isSelectionPresent@CRealBuffer@@QAE_NXZ 004867c2 f   RealBuffer.obj
 0001:000857d4       ?isStreamSelection@CRealBuffer@@QAE_NXZ 004867d4 f   RealBuffer.obj
 0001:000857e7       ??$SafeDelete@UTermX@@@@YAXAAPAUTermX@@@Z 004867e7 f i RealConsole.obj
 0001:00085816       ??$SafeDelete@VCProcessData@@@@YAXAAPAVCProcessData@@@Z 00486816 f i RealConsole.obj
 0001:00085856       ??$SafeDelete@VCTab@@@@YAXAAPAVCTab@@@Z 00486856 f i RealConsole.obj
 0001:00085893       ??$_Emplace_reallocate@ABUConProcess@@@?$vector@UConProcess@@V?$MArrayAllocator@UConProcess@@@@@std@@QAEPAUConProcess@@QAU2@ABU2@@Z 00486893 f i RealConsole.obj
 0001:00085958       ??$_Emplace_reallocate@ABUtagPROCESSENTRY32W@@@?$vector@UtagPROCESSENTRY32W@@V?$MArrayAllocator@UtagPROCESSENTRY32W@@@@@std@@QAEPAUtagPROCESSENTRY32W@@QAU2@ABU2@@Z 00486958 f i RealConsole.obj
 0001:00085a1f       ??$emplace_back@ABUConProcess@@@?$vector@UConProcess@@V?$MArrayAllocator@UConProcess@@@@@std@@QAEXABUConProcess@@@Z 00486a1f f i RealConsole.obj
 0001:00085a50       ??$emplace_back@ABUtagPROCESSENTRY32W@@@?$vector@UtagPROCESSENTRY32W@@V?$MArrayAllocator@UtagPROCESSENTRY32W@@@@@std@@QAEXABUtagPROCESSENTRY32W@@@Z 00486a50 f i RealConsole.obj
 0001:00085a83       ??$ltow_s@$0BE@@@YAPB_WHAAY0BE@_WH@Z 00486a83 f i RealConsole.obj
 0001:00085aa9       ??$sprintf_c@$0MA@@@YAHAAY0MA@DPBDZZ 00486aa9 f i RealConsole.obj
 0001:00085ac2       ??$swprintf_c@$04@@YAHAAY04_WPB_WZZ 00486ac2 f i RealConsole.obj
 0001:00085ad8       ??$swprintf_c@$07@@YAHAAY07_WPB_WZZ 00486ad8 f i RealConsole.obj
 0001:00085aee       ??$swprintf_c@$0BAD@@@YAHAAY0BAD@_WPB_WZZ 00486aee f i RealConsole.obj
 0001:00085b07       ??$swprintf_c@$0BGI@@@YAHAAY0BGI@_WPB_WZZ 00486b07 f i RealConsole.obj
 0001:00085b20       ??$swprintf_c@$0BO@@@YAHAAY0BO@_WPB_WZZ 00486b20 f i RealConsole.obj
 0001:00085b36       ??$ultow_s@$0DAM@@@YAPB_WIAAY0DAM@_WH@Z 00486b36 f i RealConsole.obj
 0001:00085b61       ??$ultow_s@$0EBA@@@YAPB_WIAAY0EBA@_WH@Z 00486b61 f i RealConsole.obj
 0001:00085b8c       ??$wcscat_c@$0EGA@@@YAHAAY0EGA@_WPB_W@Z 00486b8c f i RealConsole.obj
 0001:00085ba1       ??$wcscat_c@$0EMA@@@YAHAAY0EMA@_WPB_W@Z 00486ba1 f i RealConsole.obj
 0001:00085bb6       ??$wcscpy_c@$0EAA@@@YAHAAY0EAA@_WPB_W@Z 00486bb6 f i RealConsole.obj
 0001:00085bcb       ??$wcscpy_c@$0EAB@@@YAHAAY0EAB@_WPB_W@Z 00486bcb f i RealConsole.obj
 0001:00085be0       ??$wcscpy_c@$0EGA@@@YAHAAY0EGA@_WPB_W@Z 00486be0 f i RealConsole.obj
 0001:00085bf5       ??$wcscpy_c@$0EMA@@@YAHAAY0EMA@_WPB_W@Z 00486bf5 f i RealConsole.obj
 0001:00085c0a       ??$wcscpy_c@$0IAAA@@@YAHAAY0IAAA@_WPB_W@Z 00486c0a f i RealConsole.obj
 0001:00085c1f       ??$xf_interlocked_new@UTermX@@@@YAPAUTermX@@AAPAU0@$$QAPAU0@PBDH@Z 00486c1f f i RealConsole.obj
 0001:00085c65       ??0<unnamed-type-m_ConStatus>@CRealConsole@@QAE@XZ 00486c65 f i RealConsole.obj
 0001:00085c87       ??0<unnamed-type-m_Mouse>@CRealConsole@@QAE@XZ 00486c87 f i RealConsole.obj
 0001:00085ccc       ??0?$CRefGuard@VCConHostSearch@CRealConsole@@@@QAE@PAVCConHostSearch@CRealConsole@@@Z 00486ccc f i RealConsole.obj
 0001:00085cf6       ??0?$CRefGuard@VCConHostSearch@CRealConsole@@@@QAE@XZ 00486cf6 f i RealConsole.obj
 0001:00085d10       ??0?$MPipe@UCESERVER_REQ_HDR@@U1@@@QAE@XZ 00486d10 f i RealConsole.obj
 0001:00085d48       ??0CConHostSearch@CRealConsole@@QAE@XZ 00486d48 f   RealConsole.obj
 0001:00085da6       ??0CRealConsole@@QAE@PAVCVirtualConsole@@PAVCConEmuMain@@@Z 00486da6 f   RealConsole.obj
 0001:00085f2f       ??0MPipeBase@@QAE@XZ       00486f2f f i RealConsole.obj
 0001:00085fff       ??1?$CRefGuard@VCConHostSearch@CRealConsole@@@@UAE@XZ 00486fff f i RealConsole.obj
 0001:00086048       ??1?$MArray@UConProcess@@@@QAE@XZ 00487048 f i RealConsole.obj
 0001:00086080       ??1?$MArray@UtagPROCESSENTRY32W@@@@QAE@XZ 00487080 f i RealConsole.obj
 0001:000860b8       ??1?$MPipe@UCESERVER_REQ_HDR@@U1@@@UAE@XZ 004870b8 f i RealConsole.obj
 0001:000860f6       ??1CConHostSearch@CRealConsole@@UAE@XZ 004870f6 f i RealConsole.obj
 0001:00086144       ??1CRealConsole@@QAE@XZ    00487144 f   RealConsole.obj
 0001:0008657b       ??1_TabsInfo@CRealConsole@@QAE@XZ 0048757b f i RealConsole.obj
 0001:00086580       ??4RConStartArgs@@QAEAAU0@ABU0@@Z 00487580 f i RealConsole.obj
 0001:0008675b       ??_G?$CRefGuard@VCConHostSearch@CRealConsole@@@@UAEPAXI@Z 0048775b f i RealConsole.obj
 0001:0008675b       ??_E?$CRefGuard@VCConHostSearch@CRealConsole@@@@UAEPAXI@Z 0048775b f i RealConsole.obj
 0001:0008677d       ??_E?$MPipe@UCESERVER_REQ_HDR@@U1@@@UAEPAXI@Z 0048777d f i RealConsole.obj
 0001:0008677d       ??_G?$MPipe@UCESERVER_REQ_HDR@@U1@@@UAEPAXI@Z 0048777d f i RealConsole.obj
 0001:000867d6       ??_ECConHostSearch@CRealConsole@@UAEPAXI@Z 004877d6 f i RealConsole.obj
 0001:000867d6       ??_GCConHostSearch@CRealConsole@@UAEPAXI@Z 004877d6 f i RealConsole.obj
 0001:000867f8       ??_EMPipeBase@@UAEPAXI@Z   004877f8 f i RealConsole.obj
 0001:000867f8       ??_GMPipeBase@@UAEPAXI@Z   004877f8 f i RealConsole.obj
 0001:00086851       ?ActivateFarWindow@CRealConsole@@QAE_NH@Z 00487851 f   RealConsole.obj
 0001:00086ab2       ?AddIndicatorsCtrlState@CRealConsole@@QAEXAAK@Z 00487ab2 f   RealConsole.obj
 0001:00086af0       ?AddModifiersCtrlState@CRealConsole@@QAEXAAK@Z 00487af0 f   RealConsole.obj
 0001:00086b53       ?AdminDuplicate@CRealConsole@@QAEXXZ 00487b53 f   RealConsole.obj
 0001:00086b65       ?AttachConemuC@CRealConsole@@QAE_NPAUHWND__@@KPBUCESERVER_REQ_STARTSTOP@@AAUCESERVER_REQ_SRVSTARTSTOPRET@@@Z 00487b65 f   RealConsole.obj
 0001:00086d67       ?AutoCopyTimer@CRealConsole@@QAEXXZ 00487d67 f   RealConsole.obj
 0001:00086db5       ?BufferToScreen@CRealConsole@@QAE?AU_COORD@@U2@_N1@Z 00487db5 f   RealConsole.obj
 0001:00086de4       ?CanActivateFarWindow@CRealConsole@@QAEKH@Z 00487de4 f   RealConsole.obj
 0001:00086f67       ?CanCloseTab@CRealConsole@@QAE_N_N@Z 00487f67 f   RealConsole.obj
 0001:00086f81       ?CanCutChildFrame@CRealConsole@@SA_NPB_W@Z 00487f81 f   RealConsole.obj
 0001:00086fbb       ?ChangeAffinityPriority@CRealConsole@@QAE_NPB_W0@Z 00487fbb f   RealConsole.obj
 0001:000871aa       ?ChangeBufferHeightMode@CRealConsole@@QAEX_N@Z 004881aa f   RealConsole.obj
 0001:000871c1       ?ChangePromptPosition@CRealConsole@@AAE_NPBUAppSettings@@U_COORD@@@Z 004881c1 f   RealConsole.obj
 0001:0008730a       ?ChangeSelectionByKey@CRealConsole@@QAEXI_N0@Z 0048830a f   RealConsole.obj
 0001:00087319       ?CheckFarStates@CRealConsole@@AAEXXZ 00488319 f   RealConsole.obj
 0001:000875a0       ?CheckPanelTitle@CRealConsole@@AAEXXZ 004885a0 f   RealConsole.obj
 0001:0008761f       ?CheckProgressInTitle@CRealConsole@@IAEFXZ 0048861f f   RealConsole.obj
 0001:000877f0       ?CheckVConRConPointer@CRealConsole@@AAEX_N@Z 004887f0 f   RealConsole.obj
 0001:0008785c       ?ChildSystemMenu@CRealConsole@@QAEXXZ 0048885c f   RealConsole.obj
 0001:000878f6       ?Close@MPipeBase@@UAEXXZ   004888f6 f i RealConsole.obj
 0001:00087976       ?CloseColorMapping@CRealConsole@@AAEXXZ 00488976 f   RealConsole.obj
 0001:000879a1       ?CloseConsole@CRealConsole@@QAEX_N00@Z 004889a1 f   RealConsole.obj
 0001:00087b6a       ?CloseConsoleWindow@CRealConsole@@QAEX_N@Z 00488b6a f   RealConsole.obj
 0001:00087bd5       ?CloseFarMapData@CRealConsole@@AAEXPAVMSectionLock@@@Z 00488bd5 f   RealConsole.obj
 0001:00087c37       ?CloseMapHeader@CRealConsole@@AAEXXZ 00488c37 f   RealConsole.obj
 0001:00087c98       ?CloseTab@CRealConsole@@QAEXXZ 00488c98 f   RealConsole.obj
 0001:00087e45       ?ConHostSearch@CRealConsole@@IAEK_N@Z 00488e45 f   RealConsole.obj
 0001:00088083       ?ConHostSearchPrepare@CRealConsole@@IAEXXZ 00489083 f   RealConsole.obj
 0001:00088180       ?ConHostSetPID@CRealConsole@@IAEXK@Z 00489180 f   RealConsole.obj
 0001:000881c3       ?ConWnd@CRealConsole@@QAEPAUHWND__@@XZ 004891c3 f   RealConsole.obj
 0001:000881ce       ?Construct@CRealConsole@@QAE_NPAVCVirtualConsole@@PAURConStartArgsEx@@@Z 004891ce f   RealConsole.obj
 0001:00088968       ?CoordInPanel@CRealConsole@@QAEHU_COORD@@_N@Z 00489968 f   RealConsole.obj
 0001:00088a00       ?CorrectGuiChildRect@CRealConsole@@SAXKKAAUtagRECT@@PB_W@Z 00489a00 f   RealConsole.obj
 0001:00088aff       ?CreateColorMapping@CRealConsole@@AAEXXZ 00489aff f   RealConsole.obj
 0001:00088c2d       ?CreateCommandLine@CRealConsole@@QAEPA_W_N@Z 00489c2d f   RealConsole.obj
 0001:00088d1b       ?CreateLogFiles@CRealConsole@@AAEXXZ 00489d1b f   RealConsole.obj
 0001:00088e4b       ?CreateOrRunAs@CRealConsole@@KA_NPAV1@AAURConStartArgsEx@@PA_WAAPB_WAAU_STARTUPINFOW@@AAU_PROCESS_INFORMATION@@AAPAU_SHELLEXECUTEINFOW@@AAK_N@Z 00489e4b f   RealConsole.obj
 0001:00089484       ?CtrlWinAltSpace@CRealConsole@@QAEXXZ 0048a484 f   RealConsole.obj
 0001:000894ce       ?DeleteWordKeyPress@CRealConsole@@QAE_N_N@Z 0048a4ce f   RealConsole.obj
 0001:00089629       ?DetachRCon@CRealConsole@@QAE_N_N00@Z 0048a629 f   RealConsole.obj
 0001:00089959       ?DoEndFindText@CRealConsole@@QAEXXZ 0048a959 f   RealConsole.obj
 0001:000899ca       ?DoFindText@CRealConsole@@QAEXH@Z 0048a9ca f   RealConsole.obj
 0001:00089a6b       ?DoLockUnlock@CRealConsole@@QAEX_N@Z 0048aa6b f   RealConsole.obj
 0001:00089c25       ?DoRenameTab@CRealConsole@@QAEXXZ 0048ac25 f   RealConsole.obj
 0001:00089c7e       ?DoScroll@CRealConsole@@QAEJHI@Z 0048ac7e f   RealConsole.obj
 0001:00089f05       ?DoSelectionCopy@CRealConsole@@QAE_NW4CECopyMode@@EPB_W@Z 0048af05 f   RealConsole.obj
 0001:0008a08f       ?DoSelectionFinalize@CRealConsole@@QAEXXZ 0048b08f f   RealConsole.obj
 0001:0008a0c9       ?DumpConsole@CRealConsole@@QAEXPAX@Z 0048b0c9 f   RealConsole.obj
 0001:0008a0d8       ?DuplicateRoot@CRealConsole@@QAE_N_N0PB_W11@Z 0048b0d8 f   RealConsole.obj
 0001:0008a8b5       ?EvalPromptCtrlBSCount@CRealConsole@@AAEHPBUAppSettings@@@Z 0048b8b5 f   RealConsole.obj
 0001:0008aa28       ?EvalPromptLeftRightCount@CRealConsole@@AAEHPBUAppSettings@@U_COORD@@AAG@Z 0048ba28 f   RealConsole.obj
 0001:0008adf6       ?ExpandSelection@CRealConsole@@QAEXFF@Z 0048bdf6 f   RealConsole.obj
 0001:0008ae21       ?FinalRelease@CConHostSearch@CRealConsole@@MAEXXZ 0048be21 f   RealConsole.obj
 0001:0008ae29       ?FindChildGuiWindowProc@CRealConsole@@CGHPAUHWND__@@J@Z 0048be29 f   RealConsole.obj
 0001:0008ae63       ?FindPicViewFrom@CRealConsole@@AAEPAUHWND__@@PAU2@@Z 0048be63 f   RealConsole.obj
 0001:0008aeb9       ?GetActivateFarWindowError@CRealConsole@@QAEPB_WPA_WI@Z 0048beb9 f   RealConsole.obj
 0001:0008af23       ?GetActiveAppFlags@CRealConsole@@QAEKXZ 0048bf23 f   RealConsole.obj
 0001:0008af3e       ?GetActiveAppSettingsId@CRealConsole@@QAEH_N@Z 0048bf3e f   RealConsole.obj
 0001:0008aff0       ?GetActiveBufferType@CRealConsole@@QAE?AW4RealBufferType@@XZ 0048bff0 f   RealConsole.obj
 0001:0008b004       ?GetActiveDlgFlags@CRealConsole@@QAEKXZ 0048c004 f   RealConsole.obj
 0001:0008b024       ?GetActivePID@CRealConsole@@QAEKPAUConProcess@@@Z 0048c024 f   RealConsole.obj
 0001:0008b070       ?GetActiveProcessInfo@CRealConsole@@QAEPB_WAAUCEStr@@@Z 0048c070 f   RealConsole.obj
 0001:0008b2b7       ?GetActiveProcessName@CRealConsole@@QAEPB_WXZ 0048c2b7 f   RealConsole.obj
 0001:0008b2ce       ?GetActiveTab@CRealConsole@@QAEHXZ 0048c2ce f   RealConsole.obj
 0001:0008b2dc       ?GetActiveTabType@CRealConsole@@QAEIXZ 0048c2dc f   RealConsole.obj
 0001:0008b2e3       ?GetAnsiLogInfo@CRealConsole@@QAE?AUConEmuAnsiLog@@XZ 0048c2e3 f   RealConsole.obj
 0001:0008b554       ?GetAppCursorKeys@CRealConsole@@QAE_NXZ 0048c554 f   RealConsole.obj
 0001:0008b56d       ?GetArgs@CRealConsole@@QAEABURConStartArgsEx@@XZ 0048c56d f   RealConsole.obj
 0001:0008b574       ?GetBracketedPaste@CRealConsole@@QAE_NXZ 0048c574 f   RealConsole.obj
 0001:0008b587       ?GetCmd@CRealConsole@@QAEPB_W_N@Z 0048c587 f   RealConsole.obj
 0001:0008b5bc       ?GetConStatus@CRealConsole@@QAEPB_WXZ 0048c5bc f   RealConsole.obj
 0001:0008b5d0       ?GetConsoleCP@CRealConsole@@QAEKXZ 0048c5d0 f   RealConsole.obj
 0001:0008b5db       ?GetConsoleCurDir@CRealConsole@@QAEPB_WAAUCEStr@@_N@Z 0048c5db f   RealConsole.obj
 0001:0008b6bc       ?GetConsoleCursorInfo@CRealConsole@@QAEXPAU_CONSOLE_CURSOR_INFO@@PAU_COORD@@@Z 0048c6bc f   RealConsole.obj
 0001:0008b6f3       ?GetConsoleData@CRealConsole@@QAEXPA_WPAUtag_CharAttr@@HHAAUConEmuTextRange@@@Z 0048c6f3 f   RealConsole.obj
 0001:0008b71a       ?GetConsoleInfo@CRealConsole@@QAEPB_WPB_WAAUCEStr@@@Z 0048c71a f   RealConsole.obj
 0001:0008b9ad       ?GetConsoleInfo@CRealConsole@@QAEXPAUConsoleInfoArg@@@Z 0048c9ad f   RealConsole.obj
 0001:0008b9e6       ?GetConsoleOutputCP@CRealConsole@@QAEKXZ 0048c9e6 f   RealConsole.obj
 0001:0008b9f1       ?GetConsoleScreenBufferInfo@CRealConsole@@QAEXPAU_CONSOLE_SCREEN_BUFFER_INFO@@@Z 0048c9f1 f   RealConsole.obj
 0001:0008ba0e       ?GetConsoleStartDir@CRealConsole@@QAEPB_WAAUCEStr@@@Z 0048ca0e f   RealConsole.obj
 0001:0008ba47       ?GetCursorShape@CRealConsole@@QAE?AW4TermCursorShapes@@XZ 0048ca47 f   RealConsole.obj
 0001:0008ba55       ?GetDefaultAppSettingsId@CRealConsole@@AAEHXZ 0048ca55 f   RealConsole.obj
 0001:0008bc7f       ?GetDetector@CRealConsole@@QAEPBVCRgnDetect@@XZ 0048cc7f f   RealConsole.obj
 0001:0008bc91       ?GetFarInfo@CRealConsole@@QAEPBUCEFAR_INFO_MAPPING@@XZ 0048cc91 f   RealConsole.obj
 0001:0008bca3       ?GetFarPID@CRealConsole@@QAEK_N@Z 0048cca3 f   RealConsole.obj
 0001:0008bcde       ?GetFarStatus@CRealConsole@@QAEKXZ 0048ccde f   RealConsole.obj
 0001:0008bcf5       ?GetFarVersion@CRealConsole@@QAE_NPAUFarVersion@@@Z 0048ccf5 f   RealConsole.obj
 0001:0008bd3d       ?GetFileFromConsole@CRealConsole@@QAEPB_WPB_WAAUCEStr@@@Z 0048cd3d f   RealConsole.obj
 0001:0008bdd5       ?GetInteractivePID@CRealConsole@@QAEKXZ 0048cdd5 f   RealConsole.obj
 0001:0008be02       ?GetLastTextRangeType@CRealConsole@@QAE?AW4ExpandTextRangeType@@XZ 0048ce02 f   RealConsole.obj
 0001:0008be0d       ?GetLoadedPID@CRealConsole@@QAEKXZ 0048ce0d f   RealConsole.obj
 0001:0008be86       ?GetMaxConSize@CRealConsole@@QAE_NPAU_COORD@@@Z 0048ce86 f   RealConsole.obj
 0001:0008bea7       ?GetMntPrefix@CRealConsole@@QAEPB_WXZ 0048cea7 f   RealConsole.obj
 0001:0008bf3f       ?GetModifiedEditors@CRealConsole@@QAEHXZ 0048cf3f f   RealConsole.obj
 0001:0008bf92       ?GetMonitorThreadID@CRealConsole@@QAEKXZ 0048cf92 f   RealConsole.obj
 0001:0008bfa0       ?GetPanelDirs@CRealConsole@@QAEXAAUCEStr@@0@Z 0048cfa0 f   RealConsole.obj
 0001:0008bff0       ?GetPanelRect@CRealConsole@@QAE_N_NPAUtagRECT@@00@Z 0048cff0 f   RealConsole.obj
 0001:0008c050       ?GetPanelTitle@CRealConsole@@QAEPB_WXZ 0048d050 f   RealConsole.obj
 0001:0008c074       ?GetProcessInformation@CRealConsole@@QAE_NKPAUConProcess@@@Z 0048d074 f   RealConsole.obj
 0001:0008c124       ?GetProcesses@CRealConsole@@QAEHPAPAUConProcess@@_N@Z 0048d124 f   RealConsole.obj
 0001:0008c390       ?GetProgramStatus@CRealConsole@@QAEKXZ 0048d390 f   RealConsole.obj
 0001:0008c39e       ?GetProgress@CRealConsole@@QAEFPAHPA_N@Z 0048d39e f   RealConsole.obj
 0001:0008c430       ?GetRootProcessIcon@CRealConsole@@QAEHXZ 0048d430 f   RealConsole.obj
 0001:0008c44d       ?GetRootProcessName@CRealConsole@@QAEPB_WXZ 0048d44d f   RealConsole.obj
 0001:0008c460       ?GetRunTime@CRealConsole@@AAEKXZ 0048d460 f   RealConsole.obj
 0001:0008c488       ?GetRunningPID@CRealConsole@@QAEKXZ 0048d488 f   RealConsole.obj
 0001:0008c57c       ?GetServerPID@CRealConsole@@QAEK_N@Z 0048d57c f   RealConsole.obj
 0001:0008c5a1       ?GetStartTime@CRealConsole@@QBEABU_SYSTEMTIME@@XZ 0048d5a1 f   RealConsole.obj
 0001:0008c5b6       ?GetStartupDir@CRealConsole@@QAEPB_WXZ 0048d5b6 f   RealConsole.obj
 0001:0008c5dc       ?GetStatusLineCount@CRealConsole@@QAEHH@Z 0048d5dc f   RealConsole.obj
 0001:0008c608       ?GetTab@CRealConsole@@QAE_NHAAVCTab@@@Z 0048d608 f   RealConsole.obj
 0001:0008c6dd       ?GetTabCount@CRealConsole@@QAEH_N@Z 0048d6dd f   RealConsole.obj
 0001:0008c71c       ?GetTabTitle@CRealConsole@@QAEPB_WAAVCTab@@@Z 0048d71c f   RealConsole.obj
 0001:0008c770       ?GetTermType@CRealConsole@@QAE?AW4TermEmulationType@@XZ 0048d770 f   RealConsole.obj
 0001:0008c7d7       ?GetTerminalPID@CRealConsole@@QAEKXZ 0048d7d7 f   RealConsole.obj
 0001:0008c7e5       ?GetTitle@CRealConsole@@QAEPB_W_N@Z 0048d7e5 f   RealConsole.obj
 0001:0008c8f0       ?GetUserPwd@CRealConsole@@QAE_NPAPB_W0PA_N@Z 0048d8f0 f   RealConsole.obj
 0001:0008c934       ?GetView@CRealConsole@@QAEPAUHWND__@@XZ 0048d934 f   RealConsole.obj
 0001:0008c945       ?GuiAppAttachAllowed@CRealConsole@@QAE_NKPB_WK@Z 0048d945 f   RealConsole.obj
 0001:0008cbc7       ?GuiNotifyChildWindow@CRealConsole@@QAEXXZ 0048dbc7 f   RealConsole.obj
 0001:0008ccaf       ?GuiWnd@CRealConsole@@QAEPAUHWND__@@XZ 0048dcaf f   RealConsole.obj
 0001:0008ccc2       ?GuiWndFocusRestore@CRealConsole@@QAEX_N@Z 0048dcc2 f   RealConsole.obj
 0001:0008cdff       ?GuiWndFocusStore@CRealConsole@@QAEXXZ 0048ddff f   RealConsole.obj
 0001:0008cf26       ?GuiWndFocusThread@CRealConsole@@AAEXPAUHWND__@@AAH1AAK@Z 0048df26 f   RealConsole.obj
 0001:0008cfa3       ?GuiWndPID@CRealConsole@@QAEKXZ 0048dfa3 f   RealConsole.obj
 0001:0008cfb4       ?InCreateRoot@CRealConsole@@QAE_NXZ 0048dfb4 f   RealConsole.obj
 0001:0008cfcd       ?InRecreate@CRealConsole@@QAE_NXZ 0048dfcd f   RealConsole.obj
 0001:0008cfe0       ?InScroll@CRealConsole@@QAE_NXZ 0048dfe0 f   RealConsole.obj
 0001:0008d004       ?InitAltServer@CRealConsole@@IAE_NK@Z 0048e004 f   RealConsole.obj
 0001:0008d105       ?InitName@?$MPipe@UCESERVER_REQ_HDR@@U1@@@QAEXPB_W00K@Z 0048e105 f i RealConsole.obj
 0001:0008d14c       ?InitNames@CRealConsole@@IAEXXZ 0048e14c f   RealConsole.obj
 0001:0008d1e6       ?InitiateDetach@CRealConsole@@AAEKXZ 0048e1e6 f   RealConsole.obj
 0001:0008d287       ?InternalOpenCreate@?$MFileMapping@$$CBUCEFAR_INFO_MAPPING@@@@IAEPBUCEFAR_INFO_MAPPING@@HHH@Z 0048e287 f i RealConsole.obj
 0001:0008d3a1       ?InternalOpenCreate@?$MFileMapping@UAnnotationHeader@@@@IAEPAUAnnotationHeader@@HHH@Z 0048e3a1 f i RealConsole.obj
 0001:0008d4b9       ?InternalOpenCreate@?$MFileMapping@UCESERVER_CONSAVE_MAP@@@@IAEPAUCESERVER_CONSAVE_MAP@@HHH@Z 0048e4b9 f i RealConsole.obj
 0001:0008d5d1       ?InternalOpenCreate@?$MFileMapping@UCESERVER_CONSAVE_MAPHDR@@@@IAEPAUCESERVER_CONSAVE_MAPHDR@@HHH@Z 0048e5d1 f i RealConsole.obj
 0001:0008d6eb       ?InternalOpenCreate@?$MFileMapping@UCESERVER_CONSOLE_APP_MAPPING@@@@IAEPAUCESERVER_CONSOLE_APP_MAPPING@@HHH@Z 0048e6eb f i RealConsole.obj
 0001:0008d805       ?InternalOpenCreate@?$MFileMapping@UCESERVER_CONSOLE_MAPPING_HDR@@@@IAEPAUCESERVER_CONSOLE_MAPPING_HDR@@HHH@Z 0048e805 f i RealConsole.obj
 0001:0008d91f       ?IsConsoleDataChanged@CRealConsole@@QAE_NXZ 0048e91f f   RealConsole.obj
 0001:0008d941       ?IsFarHyperlinkAllowed@CRealConsole@@QAE_N_N@Z 0048e941 f   RealConsole.obj
 0001:0008d9e6       ?IsFarLua@CRealConsole@@QAE_NXZ 0048e9e6 f   RealConsole.obj
 0001:0008da07       ?IsPromptActionAllowed@CRealConsole@@AAE_N_NPBUAppSettings@@@Z 0048ea07 f   RealConsole.obj
 0001:0008da80       ?IsSwitchFarWindowAllowed@CRealConsole@@QAE_NXZ 0048ea80 f   RealConsole.obj
 0001:0008dabd       ?LoadAlternativeConsole@CRealConsole@@AAE_NW4LoadAltMode@@@Z 0048eabd f   RealConsole.obj
 0001:0008db40       ?LoadDumpConsole@CRealConsole@@QAE_NPB_W@Z 0048eb40 f   RealConsole.obj
 0001:0008dbc3       ?LogInput@CRealConsole@@AAE_NPAU_INPUT_RECORD@@@Z 0048ebc3 f   RealConsole.obj
 0001:0008df10       ?LogInput@CRealConsole@@QAE_NIIJPB_W@Z 0048ef10 f   RealConsole.obj
 0001:0008e219       ?LogString@CRealConsole@@QAE_NPBD@Z 0048f219 f   RealConsole.obj
 0001:0008e294       ?LogString@CRealConsole@@QAE_NPB_W@Z 0048f294 f   RealConsole.obj
 0001:0008e30d       ?MonitorAssertTrap@CRealConsole@@QAEXXZ 0048f30d f   RealConsole.obj
 0001:0008e319       ?MonitorThread@CRealConsole@@KGKPAX@Z 0048f319 f   RealConsole.obj
 0001:0008e50b       ?MonitorThreadWorker@CRealConsole@@IAEK_NAA_N@Z 0048f50b f   RealConsole.obj
 0001:0008f13e       ?NeedRefreshRootProcessIcon@CRealConsole@@QAEXXZ 0049013e f   RealConsole.obj
 0001:0008f14a       ?OnActivate@CRealConsole@@QAEXHH@Z 0049014a f   RealConsole.obj
 0001:0008f34d       ?OnBufferHeight@CRealConsole@@QAEXXZ 0049034d f   RealConsole.obj
 0001:0008f358       ?OnConsoleDataChanged@CRealConsole@@QAEXXZ 00490358 f   RealConsole.obj
 0001:0008f3ec       ?OnConsoleKeyboardLayout@CRealConsole@@QAEXK@Z 004903ec f   RealConsole.obj
 0001:0008f40b       ?OnConsoleLangChange@CRealConsole@@QAEXK@Z 0049040b f   RealConsole.obj
 0001:0008f4c7       ?OnDeactivate@CRealConsole@@QAEXH@Z 004904c7 f   RealConsole.obj
 0001:0008f52c       ?OnDosAppStartStop@CRealConsole@@QAEXW4StartStopType@@K@Z 0049052c f   RealConsole.obj
 0001:0008f5b2       ?OnFocus@CRealConsole@@QAEX_N@Z 004905b2 f   RealConsole.obj
 0001:0008f62e       ?OnGuiFocused@CRealConsole@@QAEX_N0@Z 0049062e f   RealConsole.obj
 0001:0008f6dd       ?OnKeyboard@CRealConsole@@QAEXPAUHWND__@@IIJPB_WPBUtagMSG@@@Z 004906dd f   RealConsole.obj
 0001:0008f7e3       ?OnKeyboardBackCall@CRealConsole@@CA_NPAVCVirtualConsole@@J@Z 004907e3 f   RealConsole.obj
 0001:0008f80d       ?OnKeyboardIme@CRealConsole@@QAEXPAUHWND__@@IIJ@Z 0049080d f   RealConsole.obj
 0001:0008f9c5       ?OnKeyboardInt@CRealConsole@@AAEXPAUHWND__@@IIJPB_WPBUtagMSG@@@Z 004909c5 f   RealConsole.obj
 0001:0008fcec       ?OnKeysSending@CRealConsole@@QAEXXZ 00490cec f   RealConsole.obj
 0001:0008fcff       ?OnMouse@CRealConsole@@QAE_NIIHH_N@Z 00490cff f   RealConsole.obj
 0001:0008ffea       ?OnMouseSelection@CRealConsole@@QAE_NIIHH@Z 00490fea f   RealConsole.obj
 0001:00090030       ?OnScroll@CRealConsole@@QAEXIIHH_N@Z 00491030 f   RealConsole.obj
 0001:00090119       ?OnSelectionChanged@CRealConsole@@QAEXXZ 00491119 f   RealConsole.obj
 0001:00090264       ?OnServerClosing@CRealConsole@@QAEXKPAH@Z 00491264 f   RealConsole.obj
 0001:00090395       ?OnServerStarted@CRealConsole@@AAEXKPAXK_N@Z 00491395 f   RealConsole.obj
 0001:00090409       ?OnServerStarted@CRealConsole@@QAEPAUHWND__@@QAU2@KKAAUCESERVER_REQ_SRVSTARTSTOPRET@@@Z 00491409 f   RealConsole.obj
 0001:00090487       ?OnStartProcessAllowed@CRealConsole@@QAEXXZ 00491487 f   RealConsole.obj
 0001:0009052d       ?OnStartedSuccess@CRealConsole@@AAEXXZ 0049152d f   RealConsole.obj
 0001:00090542       ?OnTimerCheck@CRealConsole@@QAEXXZ 00491542 f   RealConsole.obj
 0001:00090617       ?OnTitleChanged@CRealConsole@@AAEXXZ 00491617 f   RealConsole.obj
 0001:0009095a       ?OpenConsoleEventPipe@CRealConsole@@QAE_NXZ 0049195a f   RealConsole.obj
 0001:00090aed       ?OpenFarMapData@CRealConsole@@AAE_NXZ 00491aed f   RealConsole.obj
 0001:00090c8c       ?OpenMapHeader@CRealConsole@@AAE_N_N@Z 00491c8c f   RealConsole.obj
 0001:00090daf       ?Owner@CRealConsole@@QAEPAVCConEmuMain@@XZ 00491daf f   RealConsole.obj
 0001:00090dba       ?Paste@CRealConsole@@QAEXW4CEPasteMode@@PB_W_NE@Z 00491dba f   RealConsole.obj
 0001:0009131b       ?PasteExplorerPath@CRealConsole@@QAEX_N0@Z 0049231b f   RealConsole.obj
 0001:00091397       ?Pause@CRealConsole@@QAE?AW4CEPauseCmd@@W42@@Z 00492397 f   RealConsole.obj
 0001:00091460       ?PortableStarted@CRealConsole@@QAEXPAUCESERVER_REQ_PORTABLESTARTED@@@Z 00492460 f   RealConsole.obj
 0001:00091521       ?PostCommand@CRealConsole@@AAEXKKPBX@Z 00492521 f   RealConsole.obj
 0001:0009160b       ?PostConsoleEvent@CRealConsole@@QAE_NPAU_INPUT_RECORD@@_N@Z 0049260b f   RealConsole.obj
 0001:00091817       ?PostConsoleEventPipe@CRealConsole@@QAE_NPAUMSG64@@I@Z 00492817 f   RealConsole.obj
 0001:00091910       ?PostConsoleMessage@CRealConsole@@QAE_NPAUHWND__@@IIJ@Z 00492910 f   RealConsole.obj
 0001:00091a41       ?PostCtrlBreakEvent@CRealConsole@@QAE_NKK@Z 00492a41 f   RealConsole.obj
 0001:00091ae7       ?PostDragCopy@CRealConsole@@QAEX_N@Z 00492ae7 f   RealConsole.obj
 0001:00091bcf       ?PostKeyPress@CRealConsole@@QAE_NGK_WH@Z 00492bcf f   RealConsole.obj
 0001:00091c9c       ?PostKeyUp@CRealConsole@@QAE_NGK_WH@Z 00492c9c f   RealConsole.obj
 0001:00091d54       ?PostLeftClickSync@CRealConsole@@QAE_NU_COORD@@@Z 00492d54 f   RealConsole.obj
 0001:00091e66       ?PostMacro@CRealConsole@@QAEXPB_W_N@Z 00492e66 f   RealConsole.obj
 0001:000922da       ?PostMacroThread@CRealConsole@@CGKPAX@Z 004932da f   RealConsole.obj
 0001:000923da       ?PostMouseEvent@CRealConsole@@AAEXIIU_COORD@@_N@Z 004933da f   RealConsole.obj
 0001:00092988       ?PostPromptCmd@CRealConsole@@QAE_N_NPB_W@Z 00493988 f   RealConsole.obj
 0001:00092d49       ?PostString@CRealConsole@@IAE_NPA_WI_N@Z 00493d49 f   RealConsole.obj
 0001:000931e1       ?PostponeMacro@CRealConsole@@QAEPA_W$$QAPA_W@Z 004941e1 f   RealConsole.obj
 0001:00093242       ?PreCreate@CRealConsole@@AAE_NPAURConStartArgsEx@@@Z 00494242 f   RealConsole.obj
 0001:00093481       ?PrepareConsoleRegistryKey@CRealConsole@@AAEPAUHKEY__@@PB_W@Z 00494481 f   RealConsole.obj
 0001:00093772       ?PrepareDefaultColors@CRealConsole@@AAEXAAE000_NPAUHKEY__@@@Z 00494772 f   RealConsole.obj
 0001:00093a1b       ?PrepareDefaultColors@CRealConsole@@QAEXXZ 00494a1b f   RealConsole.obj
 0001:00093a3a       ?PrepareNewConArgs@CRealConsole@@AAEXXZ 00494a3a f   RealConsole.obj
 0001:00093a66       ?PrepareOutputFile@CRealConsole@@AAE_N_NPA_W@Z 00494a66 f   RealConsole.obj
 0001:00093e76       ?PrepareOutputFileCreate@CRealConsole@@AAEPAXPA_W@Z 00494e76 f   RealConsole.obj
 0001:00093ef6       ?ProcessCheckName@CRealConsole@@AAEXAAUConProcess@@PA_W@Z 00494ef6 f   RealConsole.obj
 0001:00094054       ?ProcessKeyboard@CRealConsole@@QAEXIIJPB_W@Z 00495054 f   RealConsole.obj
 0001:00094193       ?ProcessPostponedMacro@CRealConsole@@AAEXXZ 00495193 f   RealConsole.obj
 0001:0009420f       ?ProcessSelectionHotKey@CRealConsole@@QAEPBUConEmuHotKey@@ABUConEmuChord@@_NPB_W@Z 0049520f f   RealConsole.obj
 0001:0009423b       ?ProcessUpdate@CRealConsole@@AAE_NPBKI@Z 0049523b f   RealConsole.obj
 0001:000949ef       ?ProcessUpdateFlags@CRealConsole@@AAE_N_N@Z 004959ef f   RealConsole.obj
 0001:00094db1       ?ProcessXtermSubst@CRealConsole@@QAE_NABU_INPUT_RECORD@@@Z 00495db1 f   RealConsole.obj
 0001:00094ed2       ?QueryCellInfo@CRealConsole@@QAEXPA_WH@Z 00495ed2 f   RealConsole.obj
 0001:00094f04       ?QueryPromptStart@CRealConsole@@QAE_NPAU_COORD@@@Z 00495f04 f   RealConsole.obj
 0001:00094f54       ?QueryRConModes@CRealConsole@@QAEXPA_WH_N@Z 00495f54 f   RealConsole.obj
 0001:00094fe7       ?QueryStartStopRet@CRealConsole@@QAEXAAUCESERVER_REQ_SRVSTARTSTOPRET@@@Z 00495fe7 f   RealConsole.obj
 0001:0009510f       ?QueryTermModes@CRealConsole@@QAEXPA_WH_N@Z 0049610f f   RealConsole.obj
 0001:0009534c       ?RecreateProcess@CRealConsole@@QAE_NPAURConStartArgsEx@@@Z 0049634c f   RealConsole.obj
 0001:00095672       ?RecreateProcessStart@CRealConsole@@AAE_NXZ 00496672 f   RealConsole.obj
 0001:0009576d       ?RefreshAfterRestore@CRealConsole@@SA_NPAVCVirtualConsole@@J@Z 0049676d f   RealConsole.obj
 0001:00095809       ?RefreshFarPID@_TabsInfo@CRealConsole@@QAE_NK@Z 00496809 f   RealConsole.obj
 0001:00095875       ?ReleaseBuffer@?$MPipe@UCESERVER_REQ_HDR@@U1@@@UAEXXZ 00496875 f i RealConsole.obj
 0001:000958a9       ?ReloadFarWorkDir@CRealConsole@@IAE_NXZ 004968a9 f   RealConsole.obj
 0001:00095945       ?RenameTab@CRealConsole@@QAEXPB_W@Z 00496945 f   RealConsole.obj
 0001:000959fb       ?RenameWindow@CRealConsole@@QAEXPB_W@Z 004969fb f   RealConsole.obj
 0001:00095ab9       ?ReopenServerPipes@CRealConsole@@IAE_NXZ 00496ab9 f   RealConsole.obj
 0001:00095d13       ?RepositionDialogWithTab@CRealConsole@@IAEXPAUHWND__@@@Z 00496d13 f   RealConsole.obj
 0001:00095dd9       ?RequestStartup@CRealConsole@@AAEX_N@Z 00496dd9 f   RealConsole.obj
 0001:00095e1a       ?Reset@?$MMap@PAUHWND__@@P6GJPAU1@IIJ@Z$0A@@@QAEXXZ 00496e1a f i SetDlgColors.obj
 0001:00095e1a       ?Reset@?$MMap@KH$0A@@@QAEXXZ 00496e1a f i RealConsole.obj
 0001:00095e39       ?ResetActiveAppSettingsId@CRealConsole@@QAEXXZ 00496e39 f   RealConsole.obj
 0001:00095e41       ?ResetTopLeft@CRealConsole@@QAEXXZ 00496e41 f   RealConsole.obj
 0001:00095e54       ?ResetVarsOnStart@CRealConsole@@AAEXXZ 00496e54 f   RealConsole.obj
 0001:00095fc0       ?ScreenToBuffer@CRealConsole@@QAE?AU_COORD@@U2@@Z 00496fc0 f   RealConsole.obj
 0001:00095fe9       ?SetActiveBuffer@CRealConsole@@AAE_NPAVCRealBuffer@@_N@Z 00496fe9 f   RealConsole.obj
 0001:00096071       ?SetActiveBuffer@CRealConsole@@QAE_NW4RealBufferType@@@Z 00497071 f   RealConsole.obj
 0001:000960bd       ?SetActivePID@CRealConsole@@AAEXPBUConProcess@@@Z 004970bd f   RealConsole.obj
 0001:00096145       ?SetAltSrvPID@CRealConsole@@IAEXK@Z 00497145 f   RealConsole.obj
 0001:000961a9       ?SetAppDistinctPID@CRealConsole@@AAEXPBUConProcess@@@Z 004971a9 f   RealConsole.obj
 0001:000962a3       ?SetConStatus@CRealConsole@@QAEXPB_WK@Z 004972a3 f   RealConsole.obj
 0001:00096407       ?SetConsoleSize@CRealConsole@@QAE_NFFGK@Z 00497407 f   RealConsole.obj
 0001:00096432       ?SetCursorShape@CRealConsole@@QAEXW4TermCursorShapes@@@Z 00497432 f   RealConsole.obj
 0001:00096462       ?SetFarPID@CRealConsole@@QAEXK@Z 00497462 f   RealConsole.obj
 0001:0009654d       ?SetFarPluginPID@CRealConsole@@QAEXK@Z 0049754d f   RealConsole.obj
 0001:000965f8       ?SetFullScreen@CRealConsole@@QAE_NXZ 004975f8 f   RealConsole.obj
 0001:00096675       ?SetGuiMode@CRealConsole@@QAEXKPAUHWND__@@KKPB_WKHUtagRECT@@@Z 00497675 f   RealConsole.obj
 0001:00096bca       ?SetHwnd@CRealConsole@@AAEXPAUHWND__@@_N@Z 00497bca f   RealConsole.obj
 0001:00096ce8       ?SetInCloseConsole@CRealConsole@@IAEX_N@Z 00497ce8 f   RealConsole.obj
 0001:00096d00       ?SetInitEnvCommands@CRealConsole@@QAEXAAUCESERVER_REQ_SRVSTARTSTOPRET@@@Z 00497d00 f   RealConsole.obj
 0001:00096ef7       ?SetMainSrvPID@CRealConsole@@IAEXKPAX@Z 00497ef7 f   RealConsole.obj
 0001:00096fdd       ?SetMonitorThreadEvent@CRealConsole@@IAEXXZ 00497fdd f   RealConsole.obj
 0001:00096fee       ?SetMountRoot@CRealConsole@@IAEXPAUCESERVER_REQ@@@Z 00497fee f   RealConsole.obj
 0001:0009707a       ?SetOtherWindowParent@CRealConsole@@QAEPAUHWND__@@PAU2@0@Z 0049807a f   RealConsole.obj
 0001:00097167       ?SetOtherWindowPos@CRealConsole@@QAE_NPAUHWND__@@0HHHHI@Z 00498167 f   RealConsole.obj
 0001:0009735b       ?SetOtherWindowRgn@CRealConsole@@QAE_NPAUHWND__@@HPAUtagRECT@@_N@Z 0049835b f   RealConsole.obj
 0001:00097453       ?SetPaletteName@CRealConsole@@QAEXPB_W@Z 00498453 f   RealConsole.obj
 0001:000974a1       ?SetProgramStatus@CRealConsole@@QAEXKK@Z 004984a1 f   RealConsole.obj
 0001:000974df       ?SetProgress@CRealConsole@@QAE_NFFPB_W@Z 004984df f   RealConsole.obj
 0001:0009759b       ?SetRootProcessName@CRealConsole@@IAEXPB_W@Z 0049859b f   RealConsole.obj
 0001:00097633       ?SetSplitProperties@CRealConsole@@QAEXW4SplitType@RConStartArgs@@II@Z 00498633 f   RealConsole.obj
 0001:00097659       ?SetSwitchActiveServer@CRealConsole@@IAEX_NW4SwitchActiveServerEvt@1@1@Z 00498659 f   RealConsole.obj
 0001:000976d7       ?SetTabs@CRealConsole@@QAEXPAUConEmuTab@@HK@Z 004986d7 f   RealConsole.obj
 0001:00097ad2       ?SetTerminalPID@CRealConsole@@IAEXK@Z 00498ad2 f   RealConsole.obj
 0001:00097b1e       ?ShowConsole@CRealConsole@@QAEXH@Z 00498b1e f   RealConsole.obj
 0001:00097c16       ?ShowConsoleOrGuiClient@CRealConsole@@QAEXH@Z 00498c16 f   RealConsole.obj
 0001:00097c4c       ?ShowGuiClientExt@CRealConsole@@QAEXH_N@Z 00498c4c f   RealConsole.obj
 0001:00097db5       ?ShowGuiClientInt@CRealConsole@@QAEX_N@Z 00498db5 f   RealConsole.obj
 0001:00097e3c       ?ShowKeyBarHint@CRealConsole@@QAEXG@Z 00498e3c f   RealConsole.obj
 0001:00097e57       ?ShowOtherWindow@CRealConsole@@QAE_NPAUHWND__@@H_N@Z 00498e57 f   RealConsole.obj
 0001:00097f53       ?ShowPropertiesDialog@CRealConsole@@QAEXXZ 00498f53 f   RealConsole.obj
 0001:00098001       ?StartDebugger@CRealConsole@@QAE_NW4StartDebugType@@@Z 00499001 f   RealConsole.obj
 0001:00098432       ?StartMonitorThread@CRealConsole@@IAE_NXZ 00499432 f   RealConsole.obj
 0001:00098518       ?StartProcess@CRealConsole@@IAE_NXZ 00499518 f   RealConsole.obj
 0001:00098f88       ?StartProcessInt@CRealConsole@@AAE_NAAPB_WAAPA_W0_NPAUHWND__@@AAK44EEEEAAU_STARTUPINFOW@@AAU_PROCESS_INFORMATION@@4@Z 00499f88 f   RealConsole.obj
 0001:00099673       ?StartSelection@CRealConsole@@QAEX_NFF0K@Z 0049a673 f   RealConsole.obj
 0001:00099698       ?StartStopAppCursorKeys@CRealConsole@@QAEXK_N@Z 0049a698 f   RealConsole.obj
 0001:00099796       ?StartStopBracketedPaste@CRealConsole@@QAEXK_N@Z 0049a796 f   RealConsole.obj
 0001:00099851       ?StartStopTermMode@CRealConsole@@QAE_NW4TermModeCommand@@W4ChangeTermAction@@@Z 0049a851 f   RealConsole.obj
 0001:000998f3       ?StartStopXMouse@CRealConsole@@QAEXKW4TermMouseMode@@@Z 0049a8f3 f   RealConsole.obj
 0001:0009999d       ?StartStopXTerm@CRealConsole@@QAEXK_N@Z 0049a99d f   RealConsole.obj
 0001:00099a85       ?StopSignal@CRealConsole@@QAEXXZ 0049aa85 f   RealConsole.obj
 0001:00099b71       ?StopThread@CRealConsole@@QAEX_N@Z 0049ab71 f   RealConsole.obj
 0001:00099d63       ?StoreActiveTab@_TabsInfo@CRealConsole@@QAEXHAAVCTab@@@Z 0049ad63 f   RealConsole.obj
 0001:00099db0       ?StoreCurWorkDir@CRealConsole@@IAEXPAUCESERVER_REQ_STORECURDIR@@@Z 0049adb0 f   RealConsole.obj
 0001:00099f3b       ?StoreGuiChildRect@CRealConsole@@QAEXPAUtagRECT@@@Z 0049af3b f   RealConsole.obj
 0001:00099f9b       ?SwitchKeyboardLayout@CRealConsole@@QAEXIK@Z 0049af9b f   RealConsole.obj
 0001:0009a0b7       ?SyncConsole2Window@CRealConsole@@QAEX_NPAUtagRECT@@@Z 0049b0b7 f   RealConsole.obj
 0001:0009a1a3       ?SyncGui2Window@CRealConsole@@QAEXUtagRECT@@@Z 0049b1a3 f   RealConsole.obj
 0001:0009a2d1       ?TerminateActiveProcess@CRealConsole@@QAE_N_NK@Z 0049b2d1 f   RealConsole.obj
 0001:0009a425       ?TerminateActiveProcessConfirm@CRealConsole@@QAE_NK@Z 0049b425 f   RealConsole.obj
 0001:0009a4fb       ?TerminateAllButShell@CRealConsole@@QAE_N_N@Z 0049b4fb f   RealConsole.obj
 0001:0009a764       ?TextHeight@CRealConsole@@QAEIXZ 0049b764 f   RealConsole.obj
 0001:0009a777       ?TextWidth@CRealConsole@@QAEIXZ 0049b777 f   RealConsole.obj
 0001:0009a78a       ?Unfasten@CRealConsole@@QAEXXZ 0049b78a f   RealConsole.obj
 0001:0009a91e       ?UpdateCursorInfo@CRealConsole@@QAEXXZ 0049b91e f   RealConsole.obj
 0001:0009a974       ?UpdateFarSettings@CRealConsole@@QAEXKPAUFAR_REQ_FARSETCHANGED@@@Z 0049b974 f   RealConsole.obj
 0001:0009aabb       ?UpdateGuiInfoMapping@CRealConsole@@QAEXPBUConEmuGuiMapping@@@Z 0049babb f   RealConsole.obj
 0001:0009ab59       ?UpdateRootInfo@CRealConsole@@IAEXABUCESERVER_ROOT_INFO@@@Z 0049bb59 f   RealConsole.obj
 0001:0009ac61       ?UpdateScrollInfo@CRealConsole@@QAEXXZ 0049bc61 f   RealConsole.obj
 0001:0009ad5c       ?UpdateServerActive@CRealConsole@@QAEX_N@Z 0049bd5c f   RealConsole.obj
 0001:0009aebe       ?UpdateStartState@CRealConsole@@IAEXW4RConStartState@@_N@Z 0049bebe f   RealConsole.obj
 0001:0009aef9       ?UpdateTextColorSettings@CRealConsole@@QAEX_N0PBUAppSettings@@@Z 0049bef9 f   RealConsole.obj
 0001:0009b0b2       ?VCon@CRealConsole@@QAEPAVCVirtualConsole@@XZ 0049c0b2 f   RealConsole.obj
 0001:0009b0bc       ?Write@CRealConsole@@QAE_NPB_WHPAK@Z 0049c0bc f   RealConsole.obj
 0001:0009b199       ?_Calculate_growth@?$vector@UConProcess@@V?$MArrayAllocator@UConProcess@@@@@std@@ABEII@Z 0049c199 f i RealConsole.obj
 0001:0009b1c6       ?_Calculate_growth@?$vector@UtagPROCESSENTRY32W@@V?$MArrayAllocator@UtagPROCESSENTRY32W@@@@@std@@ABEII@Z 0049c1c6 f i RealConsole.obj
 0001:0009b1f3       ?_Change_array@?$vector@UConProcess@@V?$MArrayAllocator@UConProcess@@@@@std@@AAEXQAUConProcess@@II@Z 0049c1f3 f i RealConsole.obj
 0001:0009b237       ?_Change_array@?$vector@UtagPROCESSENTRY32W@@V?$MArrayAllocator@UtagPROCESSENTRY32W@@@@@std@@AAEXQAUtagPROCESSENTRY32W@@II@Z 0049c237 f i RealConsole.obj
 0001:0009b27b       ?_Tidy@?$vector@UConProcess@@V?$MArrayAllocator@UConProcess@@@@@std@@AAEXXZ 0049c27b f i RealConsole.obj
 0001:0009b2a6       ?_Tidy@?$vector@UtagPROCESSENTRY32W@@V?$MArrayAllocator@UtagPROCESSENTRY32W@@@@@std@@AAEXXZ 0049c2a6 f i RealConsole.obj
 0001:0009b2d1       ?allocate@?$MArrayAllocator@UConProcess@@@@QAEPAUConProcess@@I@Z 0049c2d1 f i RealConsole.obj
 0001:0009b30d       ?allocate@?$MArrayAllocator@UtagPROCESSENTRY32W@@@@QAEPAUtagPROCESSENTRY32W@@I@Z 0049c30d f i RealConsole.obj
 0001:0009b349       ?erase@?$MArray@UConProcess@@@@QAEXHH@Z 0049c349 f i RealConsole.obj
 0001:0009b39a       ?isActive@CRealConsole@@QAE_N_N@Z 0049c39a f   RealConsole.obj
 0001:0009b3b3       ?isAdministrator@CRealConsole@@QAE_NXZ 0049c3b3 f   RealConsole.obj
 0001:0009b3eb       ?isAlive@CRealConsole@@QAE_NXZ 0049c3eb f   RealConsole.obj
 0001:0009b429       ?isAlternative@CRealConsole@@QAE_NXZ 0049c429 f   RealConsole.obj
 0001:0009b44c       ?isBufferHeight@CRealConsole@@QAE_NXZ 0049c44c f   RealConsole.obj
 0001:0009b478       ?isCloseTabConfirmed@CRealConsole@@QAE_NIPB_W_N@Z 0049c478 f   RealConsole.obj
 0001:0009b598       ?isConSelectMode@CRealConsole@@QAE_NXZ 0049c598 f   RealConsole.obj
 0001:0009b5ad       ?isConsoleClosing@CRealConsole@@QAE_NXZ 0049c5ad f   RealConsole.obj
 0001:0009b65d       ?isConsoleReady@CRealConsole@@QAE_NXZ 0049c65d f   RealConsole.obj
 0001:0009b67f       ?isDetached@CRealConsole@@QAE_NXZ 0049c67f f   RealConsole.obj
 0001:0009b6a3       ?isEditor@CRealConsole@@QAE_NXZ 0049c6a3 f   RealConsole.obj
 0001:0009b6b5       ?isFar@CRealConsole@@QAE_N_N@Z 0049c6b5 f   RealConsole.obj
 0001:0009b6d1       ?isFarBufferSupported@CRealConsole@@QAE_NXZ 0049c6d1 f   RealConsole.obj
 0001:0009b704       ?isFarInStack@CRealConsole@@QAE_NXZ 0049c704 f   RealConsole.obj
 0001:0009b73b       ?isFarKeyBarShown@CRealConsole@@QAE_NXZ 0049c73b f   RealConsole.obj
 0001:0009b785       ?isFarPanelAllowed@CRealConsole@@QAE_NXZ 0049c785 f   RealConsole.obj
 0001:0009b8a5       ?isFilePanel@CRealConsole@@QAE_N_N00@Z 0049c8a5 f   RealConsole.obj
 0001:0009b9fe       ?isFixAndCenter@CRealConsole@@QAE_NPAU_COORD@@@Z 0049c9fe f   RealConsole.obj
 0001:0009ba30       ?isGuiEagerFocus@CRealConsole@@QAE_NXZ 0049ca30 f   RealConsole.obj
 0001:0009ba54       ?isGuiForceConView@CRealConsole@@QAE_NXZ 0049ca54 f   RealConsole.obj
 0001:0009ba6c       ?isGuiOverCon@CRealConsole@@QAE_NXZ 0049ca6c f   RealConsole.obj
 0001:0009ba83       ?isGuiVisible@CRealConsole@@QAE_NXZ 0049ca83 f   RealConsole.obj
 0001:0009babf       ?isHighlighted@CRealConsole@@QAE_NXZ 0049cabf f   RealConsole.obj
 0001:0009bb02       ?isInFocus@CRealConsole@@QAE_NXZ 0049cb02 f   RealConsole.obj
 0001:0009bb33       ?isInternalScroll@CRealConsole@@QAE_NXZ 0049cb33 f   RealConsole.obj
 0001:0009bb73       ?isLogging@CRealConsole@@QAEII@Z 0049cb73 f   RealConsole.obj
 0001:0009bb95       ?isMouseButtonDown@CRealConsole@@QAE_NXZ 0049cb95 f   RealConsole.obj
 0001:0009bba3       ?isMouseSelectionPresent@CRealConsole@@QAE_NXZ 0049cba3 f   RealConsole.obj
 0001:0009bbb5       ?isNeedCursorDraw@CRealConsole@@QAE_NXZ 0049cbb5 f   RealConsole.obj
 0001:0009bbf4       ?isNtvdm@CRealConsole@@QAE_NXZ 0049cbf4 f   RealConsole.obj
 0001:0009bc07       ?isPaused@CRealConsole@@QAE_NXZ 0049cc07 f   RealConsole.obj
 0001:0009bc19       ?isPictureView@CRealConsole@@QAEPAUHWND__@@_N@Z 0049cc19 f   RealConsole.obj
 0001:0009bec5       ?isPosixConvertAllowed@CRealConsole@@QAE_NXZ 0049cec5 f   RealConsole.obj
 0001:0009bf17       ?isSelectionPresent@CRealConsole@@QAE_NXZ 0049cf17 f   RealConsole.obj
 0001:0009bf29       ?isSendMouseAllowed@CRealConsole@@QAE_NXZ 0049cf29 f   RealConsole.obj
 0001:0009bf47       ?isServerAlive@CRealConsole@@QAE_NXZ 0049cf47 f   RealConsole.obj
 0001:0009bf6f       ?isServerAvailable@CRealConsole@@QAE_NXZ 0049cf6f f   RealConsole.obj
 0001:0009bf7d       ?isServerClosing@CRealConsole@@QAE_N_N@Z 0049cf7d f   RealConsole.obj
 0001:0009bfaf       ?isServerCreated@CRealConsole@@QAE_N_N@Z 0049cfaf f   RealConsole.obj
 0001:0009bfd4       ?isUnixFS@CRealConsole@@QAE_NXZ 0049cfd4 f   RealConsole.obj
 0001:0009bff4       ?isViewer@CRealConsole@@QAE_NXZ 0049cff4 f   RealConsole.obj
 0001:0009c006       ?isVisible@CRealConsole@@QAE_NXZ 0049d006 f   RealConsole.obj
 0001:0009c017       ?logProgress@CRealConsole@@IAEXPB_WHH@Z 0049d017 f   RealConsole.obj
 0001:0009c072       ?priorityProc@CRealConsole@@KGHPAUHWND__@@IIJ@Z 0049d072 f   RealConsole.obj
 0001:0009c3d5       ?renameProc@CRealConsole@@CGHPAUHWND__@@IIJ@Z 0049d3d5 f   RealConsole.obj
 0001:0009c5df       ?setAppProgress@CRealConsole@@IAEXFF@Z 0049d5df f   RealConsole.obj
 0001:0009c628       ?setConsoleProgress@CRealConsole@@IAEXF@Z 0049d628 f   RealConsole.obj
 0001:0009c659       ?setGuiWnd@CRealConsole@@AAEXPAUHWND__@@@Z 0049d659 f   RealConsole.obj
 0001:0009c66d       ?setGuiWndPID@CRealConsole@@AAEXPAUHWND__@@KHPB_W@Z 0049d66d f   RealConsole.obj
 0001:0009c746       ?setLastConsoleProgress@CRealConsole@@IAEXF_N@Z 0049d746 f   RealConsole.obj
 0001:0009c797       ?setLastShownProgress@CRealConsole@@IAEXF@Z 0049d797 f   RealConsole.obj
 0001:0009c7c8       ?setPreWarningProgress@CRealConsole@@IAEXF@Z 0049d7c8 f   RealConsole.obj
 0001:0009c7f9       ?setProgress@CRealConsole@@IAEXF@Z 0049d7f9 f   RealConsole.obj
 0001:0009c84c       __vsprintf_s_l             0049d84c f i RealConsole.obj
 0001:0009c87a       _sprintf_s                 0049d87a f i RealConsole.obj
 0001:0009c896       ??0CRealServer@@QAE@XZ     0049d896 f   RealServer.obj
 0001:0009c8a6       ??1CRealServer@@QAE@XZ     0049d8a6 f   RealServer.obj
 0001:0009c8dc       ?DelayedWrite@?$PipeServer@UCESERVER_REQ@@@@QAE_NPAXPBXK@Z 0049d8dc f i RealServer.obj
 0001:0009c903       ?Init@CRealServer@@QAEXPAVCRealConsole@@@Z 0049d903 f   RealServer.obj
 0001:0009c935       ?ServerCommand@CRealServer@@KGHPAXPAUCESERVER_REQ@@AAPAU2@AAK3J@Z 0049d935 f   RealServer.obj
 0001:0009cd14       ?ServerThreadReady@CRealServer@@KGHPAXJ@Z 0049dd14 f   RealServer.obj
 0001:0009cd52       ?Start@CRealServer@@QAE_NXZ 0049dd52 f   RealServer.obj
 0001:0009ce14       ?Stop@CRealServer@@QAEX_N@Z 0049de14 f   RealServer.obj
 0001:0009ce7e       ?cmdActivateCon@CRealServer@@IAEPAUCESERVER_REQ@@PAXPAU2@I@Z 0049de7e f   RealServer.obj
 0001:0009cebd       ?cmdActivateTab@CRealServer@@IAEPAUCESERVER_REQ@@PAXPAU2@I@Z 0049debd f   RealServer.obj
 0001:0009cf8c       ?cmdExportEnvVarAll@CRealServer@@IAEPAUCESERVER_REQ@@PAXPAU2@I@Z 0049df8c f   RealServer.obj
 0001:0009cfcf       ?cmdFlashWindow@CRealServer@@IAEPAUCESERVER_REQ@@PAXPAU2@I@Z 0049dfcf f   RealServer.obj
 0001:0009d031       ?cmdGetAllPanels@CRealServer@@IAEPAUCESERVER_REQ@@PAXPAU2@I@Z 0049e031 f   RealServer.obj
 0001:0009d0d4       ?cmdGetAllTabs@CRealServer@@IAEPAUCESERVER_REQ@@PAXPAU2@I@Z 0049e0d4 f   RealServer.obj
 0001:0009d15f       ?cmdGetOutputFile@CRealServer@@IAEPAUCESERVER_REQ@@PAXPAU2@I@Z 0049e15f f   RealServer.obj
 0001:0009d1b0       ?cmdGetTaskCmd@CRealServer@@IAEPAUCESERVER_REQ@@PAXPAU2@I@Z 0049e1b0 f   RealServer.obj
 0001:0009d327       ?cmdGuiMacro@CRealServer@@IAEPAUCESERVER_REQ@@PAXPAU2@I@Z 0049e327 f   RealServer.obj
 0001:0009d3ca       ?cmdIsAnsiExecAllowed@CRealServer@@IAEPAUCESERVER_REQ@@PAXPAU2@I@Z 0049e3ca f   RealServer.obj
 0001:0009d4a8       ?cmdLangChange@CRealServer@@IAEPAUCESERVER_REQ@@PAXPAU2@I@Z 0049e4a8 f   RealServer.obj
 0001:0009d4ca       ?cmdLockDc@CRealServer@@IAEPAUCESERVER_REQ@@PAXPAU2@I@Z 0049e4ca f   RealServer.obj
 0001:0009d4fd       ?cmdOnCreateProc@CRealServer@@IAEPAUCESERVER_REQ@@PAXPAU2@I@Z 0049e4fd f   RealServer.obj
 0001:0009d559       ?cmdOnPeekReadInput@CRealServer@@IAEPAUCESERVER_REQ@@PAXPAU2@I@Z 0049e559 f   RealServer.obj
 0001:0009d5cd       ?cmdOnSetConsoleKeyShortcuts@CRealServer@@IAEPAUCESERVER_REQ@@PAXPAU2@I@Z 0049e5cd f   RealServer.obj
 0001:0009d602       ?cmdPortableStarted@CRealServer@@IAEPAUCESERVER_REQ@@PAXPAU2@I@Z 0049e602 f   RealServer.obj
 0001:0009d626       ?cmdQueryPalette@CRealServer@@IAEPAUCESERVER_REQ@@PAXPAU2@I@Z 0049e626 f   RealServer.obj
 0001:0009d693       ?cmdRegPanelView@CRealServer@@IAEPAUCESERVER_REQ@@PAXPAU2@I@Z 0049e693 f   RealServer.obj
 0001:0009d6e7       ?cmdRenameTab@CRealServer@@IAEPAUCESERVER_REQ@@PAXPAU2@I@Z 0049e6e7 f   RealServer.obj
 0001:0009d71e       ?cmdResources@CRealServer@@IAEPAUCESERVER_REQ@@PAXPAU2@I@Z 0049e71e f   RealServer.obj
 0001:0009d8aa       ?cmdSetBackground@CRealServer@@IAEPAUCESERVER_REQ@@PAXPAU2@I@Z 0049e8aa f   RealServer.obj
 0001:0009d8f8       ?cmdSetForeground@CRealServer@@IAEPAUCESERVER_REQ@@PAXPAU2@I@Z 0049e8f8 f   RealServer.obj
 0001:0009d965       ?cmdSetProgress@CRealServer@@IAEPAUCESERVER_REQ@@PAXPAU2@I@Z 0049e965 f   RealServer.obj
 0001:0009d9a9       ?cmdSshAgentStarted@CRealServer@@IAEPAUCESERVER_REQ@@PAXPAU2@I@Z 0049e9a9 f   RealServer.obj
 0001:0009d9cf       ?cmdStartStop@CRealServer@@IAEPAUCESERVER_REQ@@PAXPAU2@I@Z 0049e9cf f   RealServer.obj
 0001:0009e40b       ?cmdStartXTerm@CRealServer@@IAEPAUCESERVER_REQ@@PAXPAU2@I@Z 0049f40b f   RealServer.obj
 0001:0009e513       ?cmdTabsChanged@CRealServer@@IAEPAUCESERVER_REQ@@PAXPAU2@I@Z 0049f513 f   RealServer.obj
 0001:0009e657       ?cmdTabsCmd@CRealServer@@IAEPAUCESERVER_REQ@@PAXPAU2@I@Z 0049f657 f   RealServer.obj
 0001:0009e67a       ??0CRecreateDlg@@QAE@XZ    0049f67a f   Recreate.obj
 0001:0009e6cb       ??1CRecreateDlg@@QAE@XZ    0049f6cb f   Recreate.obj
 0001:0009e713       ?AddCommandList@CRecreateDlg@@IAEXPB_WH@Z 0049f713 f   Recreate.obj
 0001:0009e76c       ?AddDirectoryList@CRecreateDlg@@IAEXPB_WH@Z 0049f76c f   Recreate.obj
 0001:0009e7b5       ?BrowseCallbackProc@CRecreateDlg@@SGHPAUHWND__@@IJJ@Z 0049f7b5 f   Recreate.obj
 0001:0009e7e2       ?Close@CRecreateDlg@@QAEXXZ 0049f7e2 f   Recreate.obj
 0001:0009e814       ?FreeVars@CRecreateDlg@@IAEXXZ 0049f814 f   Recreate.obj
 0001:0009e897       ?InitVars@CRecreateDlg@@IAEXXZ 0049f897 f   Recreate.obj
 0001:0009ea95       ?OnButtonClicked@CRecreateDlg@@IAEHPAUHWND__@@IIJ@Z 0049fa95 f   Recreate.obj
 0001:0009f039       ?OnComboSetFocus@CRecreateDlg@@IAEHPAUHWND__@@IIJ@Z 004a0039 f   Recreate.obj
 0001:0009f06d       ?OnCtlColorStatic@CRecreateDlg@@IAEHPAUHWND__@@IIJ@Z 004a006d f   Recreate.obj
 0001:0009f0b2       ?OnEditSetFocus@CRecreateDlg@@IAEHPAUHWND__@@IIJ@Z 004a00b2 f   Recreate.obj
 0001:0009f0f3       ?OnFillCmdList@CRecreateDlg@@IAEHPAUHWND__@@IIJ@Z 004a00f3 f   Recreate.obj
 0001:0009f17f       ?OnInitDialog@CRecreateDlg@@IAEHPAUHWND__@@IIJ@Z 004a017f f   Recreate.obj
 0001:0009fdfb       ?OnSysCommand@CRecreateDlg@@IAEHPAUHWND__@@IIJ@Z 004a0dfb f   Recreate.obj
 0001:0009ff17       ?OnUserControls@CRecreateDlg@@IAEHPAUHWND__@@IIJ@Z 004a0f17 f   Recreate.obj
 0001:000a01b1       ?RecreateDlg@CRecreateDlg@@QAEHPAURConStartArgsEx@@_N@Z 004a11b1 f   Recreate.obj
 0001:000a02b1       ?RecreateDlgProc@CRecreateDlg@@SGHPAUHWND__@@IIJ@Z 004a12b1 f   Recreate.obj
 0001:000a0470       ??$SafeDelete@V?$xml_document@D@rapidxml@@@@YAXAAPAV?$xml_document@D@rapidxml@@@Z 004a1470 f i Registry.obj
 0001:000a04a1       ??$_Emplace_reallocate@D@?$vector@DV?$MArrayAllocator@D@@@std@@QAEPADQAD$$QAD@Z 004a14a1 f i Registry.obj
 0001:000a064d       ??$compare@D@internal@rapidxml@@YA_NPBDI0I_N@Z 004a164d f i Registry.obj
 0001:000a0a79       ??$emplace_back@D@?$vector@DV?$MArrayAllocator@D@@@std@@QAEX$$QAD@Z 004a1a79 f i Registry.obj
 0001:000a0adf       ??$find_char@D$0CC@@internal@rapidxml@@YA_NPBD0@Z 004a1adf f i Registry.obj
 0001:000a0afb       ??$insert_coded_character@$0GA@@?$xml_document@D@rapidxml@@CAXAAPADK@Z 004a1afb f i Registry.obj
 0001:000a0bc9       ??$parse@$0GA@@?$xml_document@D@rapidxml@@QAEXPAD@Z 004a1bc9 f i Registry.obj
 0001:000a0c40       ??$parse_and_append_data@$0GA@@?$xml_document@D@rapidxml@@AAEDPAV?$xml_node@D@1@AAPADPAD@Z 004a1c40 f i Registry.obj
 0001:000a0cb9       ??$parse_bom@$0GA@@?$xml_document@D@rapidxml@@AAEXAAPAD@Z 004a1cb9 f i Registry.obj
 0001:000a0cdb       ??$parse_cdata@$0GA@@?$xml_document@D@rapidxml@@AAEPAV?$xml_node@D@1@AAPAD@Z 004a1cdb f i Registry.obj
 0001:000a0d5e       ??$parse_comment@$0GA@@?$xml_document@D@rapidxml@@AAEPAV?$xml_node@D@1@AAPAD@Z 004a1d5e f i Registry.obj
 0001:000a0de3       ??$parse_doctype@$0GA@@?$xml_document@D@rapidxml@@AAEPAV?$xml_node@D@1@AAPAD@Z 004a1de3 f i Registry.obj
 0001:000a0e4c       ??$parse_element@$0GA@@?$xml_document@D@rapidxml@@AAEPAV?$xml_node@D@1@AAPAD@Z 004a1e4c f i Registry.obj
 0001:000a0f16       ??$parse_node@$0GA@@?$xml_document@D@rapidxml@@AAEPAV?$xml_node@D@1@AAPAD@Z 004a1f16 f i Registry.obj
 0001:000a106c       ??$parse_node_attributes@$0GA@@?$xml_document@D@rapidxml@@AAEXAAPADPAV?$xml_node@D@1@@Z 004a206c f i Registry.obj
 0001:000a11ac       ??$parse_node_contents@$0GA@@?$xml_document@D@rapidxml@@AAEXAAPADPAV?$xml_node@D@1@@Z 004a21ac f i Registry.obj
 0001:000a1249       ??$parse_pi@$0GA@@?$xml_document@D@rapidxml@@AAEPAV?$xml_node@D@1@AAPAD@Z 004a2249 f i Registry.obj
 0001:000a1292       ??$parse_xml_declaration@$0GA@@?$xml_document@D@rapidxml@@AAEPAV?$xml_node@D@1@AAPAD@Z 004a2292 f i Registry.obj
 0001:000a1ded       ??$skip@U?$attribute_value_pure_pred@$0CC@@?$xml_document@D@rapidxml@@$0GA@@?$xml_document@D@rapidxml@@CAXAAPAD@Z 004a2ded f i Registry.obj
 0001:000a1e08       ??$skip@U?$attribute_value_pure_pred@$0CH@@?$xml_document@D@rapidxml@@$0GA@@?$xml_document@D@rapidxml@@CAXAAPAD@Z 004a2e08 f i Registry.obj
 0001:000a1e23       ??$skip@Uattribute_name_pred@?$xml_document@D@rapidxml@@$0GA@@?$xml_document@D@rapidxml@@CAXAAPAD@Z 004a2e23 f i Registry.obj
 0001:000a1e3e       ??$skip@Unode_name_pred@?$xml_document@D@rapidxml@@$0GA@@?$xml_document@D@rapidxml@@CAXAAPAD@Z 004a2e3e f i Registry.obj
 0001:000a1e59       ??$skip@Utext_pure_no_ws_pred@?$xml_document@D@rapidxml@@$0GA@@?$xml_document@D@rapidxml@@CAXAAPAD@Z 004a2e59 f i Registry.obj
 0001:000a1e74       ??$skip@Uwhitespace_pred@?$xml_document@D@rapidxml@@$0GA@@?$xml_document@D@rapidxml@@CAXAAPAD@Z 004a2e74 f i Registry.obj
 0001:000a1e8f       ??$skip_and_expand_character_refs@U?$attribute_value_pred@$0CC@@?$xml_document@D@rapidxml@@U?$attribute_value_pure_pred@$0CC@@23@$0GA@@?$xml_document@D@rapidxml@@CAPADAAPAD@Z 004a2e8f f i Registry.obj
 0001:000a2023       ??$skip_and_expand_character_refs@U?$attribute_value_pred@$0CH@@?$xml_document@D@rapidxml@@U?$attribute_value_pure_pred@$0CH@@23@$0GA@@?$xml_document@D@rapidxml@@CAPADAAPAD@Z 004a3023 f i Registry.obj
 0001:000a21b7       ??$skip_and_expand_character_refs@Utext_pred@?$xml_document@D@rapidxml@@Utext_pure_no_ws_pred@23@$0GA@@?$xml_document@D@rapidxml@@CAPADAAPAD@Z 004a31b7 f i Registry.obj
 0001:000a234b       ??$sprintf_c@$03@@YAHAAY03DPBDZZ 004a334b f i Registry.obj
 0001:000a2361       ??0?$xml_document@D@rapidxml@@QAE@XZ 004a3361 f i Registry.obj
 0001:000a246b       ??0SettingsBase@@IAE@ABUSettingsStorage@@@Z 004a346b f   Registry.obj
 0001:000a2495       ??0SettingsBase@@IAE@XZ    004a3495 f   Registry.obj
 0001:000a24b2       ??0SettingsINI@@QAE@ABUSettingsStorage@@@Z 004a34b2 f   Registry.obj
 0001:000a24e0       ??0SettingsRegistry@@QAE@XZ 004a34e0 f   Registry.obj
 0001:000a251f       ??0SettingsXML@@QAE@ABUSettingsStorage@@@Z 004a351f f   Registry.obj
 0001:000a255a       ??0parse_error@rapidxml@@QAE@ABV01@@Z 004a355a f i Registry.obj
 0001:000a2584       ??0parse_error@rapidxml@@QAE@PBDPAX@Z 004a3584 f i Registry.obj
 0001:000a25ab       ??1?$MArray@D@@QAE@XZ      004a35ab f i Registry.obj
 0001:000a2634       ??1SettingsINI@@UAE@XZ     004a3634 f   Registry.obj
 0001:000a2678       ??1SettingsRegistry@@UAE@XZ 004a3678 f   Registry.obj
 0001:000a268e       ??1SettingsXML@@UAE@XZ     004a368e f   Registry.obj
 0001:000a2718       ??_G?$xml_document@D@rapidxml@@QAEPAXI@Z 004a3718 f i Registry.obj
 0001:000a276e       ??_Escheduler_resource_allocation_error@Concurrency@@UAEPAXI@Z 004a376e f   libconcrt:Platform.obj
 0001:000a276e       ??_Gscheduler_worker_creation_error@Concurrency@@UAEPAXI@Z 004a376e f   libconcrt:Exceptions.obj
 0001:000a276e       ??_Escheduler_worker_creation_error@Concurrency@@UAEPAXI@Z 004a376e f   libconcrt:Exceptions.obj
 0001:000a276e       ??_Gscheduler_resource_allocation_error@Concurrency@@UAEPAXI@Z 004a376e f   libconcrt:Platform.obj
 0001:000a279b       ??_ESettingsBase@@UAEPAXI@Z 004a379b f i Registry.obj
 0001:000a279b       ??_GSettingsBase@@UAEPAXI@Z 004a379b f i Registry.obj
 0001:000a27be       ??_ESettingsINI@@UAEPAXI@Z 004a37be f i Registry.obj
 0001:000a27be       ??_GSettingsINI@@UAEPAXI@Z 004a37be f i Registry.obj
 0001:000a27e0       ??_ESettingsRegistry@@UAEPAXI@Z 004a37e0 f i Registry.obj
 0001:000a27e0       ??_GSettingsRegistry@@UAEPAXI@Z 004a37e0 f i Registry.obj
 0001:000a2802       ??_ESettingsXML@@UAEPAXI@Z 004a3802 f i Registry.obj
 0001:000a2802       ??_GSettingsXML@@UAEPAXI@Z 004a3802 f i Registry.obj
 0001:000a2824       ??_Eparse_error@rapidxml@@UAEPAXI@Z 004a3824 f i Registry.obj
 0001:000a2824       ??_Gparse_error@rapidxml@@UAEPAXI@Z 004a3824 f i Registry.obj
 0001:000a2824       ??_Esystem_error@std@@UAEPAXI@Z 004a3824 f i libcpmt:thread0.obj
 0001:000a2824       ??_Gsystem_error@std@@UAEPAXI@Z 004a3824 f i libcpmt:thread0.obj
 0001:000a2824       ??_G_System_error@std@@UAEPAXI@Z 004a3824 f i libcpmt:thread0.obj
 0001:000a2824       ??_E_System_error@std@@UAEPAXI@Z 004a3824 f i libcpmt:thread0.obj
 0001:000a2851       ?ClearChildrenTail@SettingsXML@@IAEXPAV?$xml_node@D@rapidxml@@0PBD@Z 004a3851 f   Registry.obj
 0001:000a288a       ?CloseKey@SettingsINI@@UAEXXZ 004a388a f   Registry.obj
 0001:000a28ae       ?CloseKey@SettingsRegistry@@UAEXXZ 004a38ae f   Registry.obj
 0001:000a28c6       ?CloseKey@SettingsXML@@UAEXXZ 004a38c6 f   Registry.obj
 0001:000a28e7       ?CloseStorage@SettingsXML@@IAEXXZ 004a38e7 f   Registry.obj
 0001:000a2b76       ?ConvertData@SettingsXML@@SA_NPBD0PAEK@Z 004a3b76 f   Registry.obj
 0001:000a2d6a       ?Delete@SettingsINI@@UAEXPB_W@Z 004a3d6a f   Registry.obj
 0001:000a2da3       ?Delete@SettingsRegistry@@UAEXPB_W@Z 004a3da3 f   Registry.obj
 0001:000a2db6       ?Delete@SettingsXML@@UAEXPB_W@Z 004a3db6 f   Registry.obj
 0001:000a2dca       ?DeleteImpl@SettingsXML@@IAEXPB_W0@Z 004a3dca f   Registry.obj
 0001:000a2e38       ?DeleteKey@SettingsRegistry@@UAEXPB_W@Z 004a3e38 f   Registry.obj
 0001:000a2e4b       ?DeleteKey@SettingsXML@@UAEXPB_W@Z 004a3e4b f   Registry.obj
 0001:000a2e5f       ?FindItem@SettingsXML@@IAEPAV?$xml_node@D@rapidxml@@PAV23@PB_W1_N@Z 004a3e5f f   Registry.obj
 0001:000a2f8d       ?GetAttr@SettingsXML@@IAEPBDPAV?$xml_node@D@rapidxml@@PBD@Z 004a3f8d f   Registry.obj
 0001:000a2fc8       ?Load@SettingsBase@@QAE_NPB_WAAD@Z 004a3fc8 f   Registry.obj
 0001:000a2fc8       ?Load@SettingsBase@@QAE_NPB_WAAE@Z 004a3fc8 f   Registry.obj
 0001:000a2fdc       ?Load@SettingsBase@@QAE_NPB_WAAH@Z 004a3fdc f   Registry.obj
 0001:000a2fdc       ?Load@SettingsBase@@QAE_NPB_WAAI@Z 004a3fdc f   Registry.obj
 0001:000a2fdc       ?Load@SettingsBase@@QAE_NPB_WAAJ@Z 004a3fdc f   Registry.obj
 0001:000a2fdc       ?Load@SettingsBase@@QAE_NPB_WAAK@Z 004a3fdc f   Registry.obj
 0001:000a2ff0       ?Load@SettingsBase@@QAE_NPB_WAAUtagRECT@@@Z 004a3ff0 f   Registry.obj
 0001:000a30eb       ?Load@SettingsBase@@QAE_NPB_WAA_N@Z 004a40eb f   Registry.obj
 0001:000a3115       ?Load@SettingsINI@@UAE_NPB_WPAEK@Z 004a4115 f   Registry.obj
 0001:000a3115       ?Load@SettingsINI@@UAE_NPB_WPA_WH@Z 004a4115 f   Registry.obj
 0001:000a311a       ?Load@SettingsRegistry@@UAE_NPB_WPAEK@Z 004a411a f   Registry.obj
 0001:000a3189       ?Load@SettingsRegistry@@UAE_NPB_WPAPA_W@Z 004a4189 f   Registry.obj
 0001:000a322e       ?Load@SettingsRegistry@@UAE_NPB_WPA_WH@Z 004a422e f   Registry.obj
 0001:000a329d       ?Load@SettingsXML@@UAE_NPB_WPAEK@Z 004a429d f   Registry.obj
 0001:000a3354       ?Load@SettingsXML@@UAE_NPB_WPAPA_W@Z 004a4354 f   Registry.obj
 0001:000a35bc       ?Load@SettingsXML@@UAE_NPB_WPA_WH@Z 004a45bc f   Registry.obj
 0001:000a3641       ?OpenKey@SettingsINI@@UAE_NPB_WIH@Z 004a4641 f   Registry.obj
 0001:000a3842       ?OpenKey@SettingsRegistry@@QAE_NPAUHKEY__@@PB_WIH@Z 004a4842 f   Registry.obj
 0001:000a388b       ?OpenKey@SettingsRegistry@@UAE_NPB_WIH@Z 004a488b f   Registry.obj
 0001:000a38a4       ?OpenKey@SettingsXML@@UAE_NPB_WIH@Z 004a48a4 f   Registry.obj
 0001:000a3b9a       ?OpenStorage@SettingsXML@@IAE_NIAAPA_W@Z 004a4b9a f   Registry.obj
 0001:000a3ec6       ?Save@SettingsBase@@QAEXPB_W0@Z 004a4ec6 f   Registry.obj
 0001:000a3f05       ?Save@SettingsBase@@QAEXPB_WAB_N@Z 004a4f05 f   Registry.obj
 0001:000a3f05       ?Save@SettingsBase@@QAEXPB_WABE@Z 004a4f05 f   Registry.obj
 0001:000a3f05       ?Save@SettingsBase@@QAEXPB_WABD@Z 004a4f05 f   Registry.obj
 0001:000a3f24       ?Save@SettingsBase@@QAEXPB_WABH@Z 004a4f24 f   Registry.obj
 0001:000a3f24       ?Save@SettingsBase@@QAEXPB_WABJ@Z 004a4f24 f   Registry.obj
 0001:000a3f3d       ?Save@SettingsBase@@QAEXPB_WABI@Z 004a4f3d f   Registry.obj
 0001:000a3f56       ?Save@SettingsBase@@QAEXPB_WABK@Z 004a4f56 f   Registry.obj
 0001:000a3f6c       ?Save@SettingsBase@@QAEXPB_WABUtagRECT@@@Z 004a4f6c f   Registry.obj
 0001:000a3fc7       ?CreateNodeTopology@ResourceManager@details@Concurrency@@UAEXIPAIPAPAI0@Z 004a4fc7 f   libconcrt:ResourceManager.obj
 0001:000a3fc7       ?Save@SettingsINI@@UAEXPB_WPBEKK@Z 004a4fc7 f   Registry.obj
 0001:000a3fca       ?Save@SettingsRegistry@@UAEXPB_WPBEKK@Z 004a4fca f   Registry.obj
 0001:000a3ffa       ?Save@SettingsXML@@UAEXPB_WPBEKK@Z 004a4ffa f   Registry.obj
 0001:000a43d8       ?SaveMSZ@SettingsBase@@QAEXPB_W0K@Z 004a53d8 f   Registry.obj
 0001:000a4404       ?SetAttr@SettingsXML@@IAE_NPAV?$xml_node@D@rapidxml@@PBD1@Z 004a5404 f   Registry.obj
 0001:000a44bd       ?SetAttr@SettingsXML@@IAE_NPAV?$xml_node@D@rapidxml@@PBDPB_W@Z 004a54bd f   Registry.obj
 0001:000a44ef       ?SetMultiLine@SettingsXML@@IAE_NPAV?$xml_node@D@rapidxml@@PB_WJ@Z 004a54ef f   Registry.obj
 0001:000a45fe       ?TouchKey@SettingsXML@@IAEXPAV?$xml_node@D@rapidxml@@@Z 004a55fe f   Registry.obj
 0001:000a475d       ?_Calculate_growth@?$vector@DV?$MArrayAllocator@D@@@std@@ABEII@Z 004a575d f i Registry.obj
 0001:000a4783       ?_Change_array@?$vector@DV?$MArrayAllocator@D@@@std@@AAEXQADII@Z 004a5783 f i Registry.obj
 0001:000a47b5       ?_Reallocate_exactly@?$vector@DV?$MArrayAllocator@D@@@std@@AAEXI@Z 004a57b5 f i Registry.obj
 0001:000a47f0       ?_Tidy@?$vector@DV?$MArrayAllocator@D@@@std@@AAEXXZ 004a57f0 f i Registry.obj
 0001:000a4811       ?allocate@?$MArrayAllocator@D@@QAEPADI@Z 004a5811 f i Registry.obj
 0001:000a4848       ?allocate_aligned@?$memory_pool@D@rapidxml@@AAEPAXI@Z 004a5848 f i Registry.obj
 0001:000a48ae       ?allocate_attribute@?$memory_pool@D@rapidxml@@QAEPAV?$xml_attribute@D@2@PBD0II@Z 004a58ae f i Registry.obj
 0001:000a4907       ?allocate_node@?$memory_pool@D@rapidxml@@QAEPAV?$xml_node@D@2@W4node_type@2@PBD1II@Z 004a5907 f i Registry.obj
 0001:000a496c       ?allocate_raw@?$memory_pool@D@rapidxml@@AAEPADI@Z 004a596c f i Registry.obj
 0001:000a498a       ?allocate_string@?$memory_pool@D@rapidxml@@QAEPADPBDI@Z 004a598a f i Registry.obj
 0001:000a49d0       ?append_attribute@?$xml_node@D@rapidxml@@QAEXPAV?$xml_attribute@D@2@@Z 004a59d0 f i Registry.obj
 0001:000a49ff       ?append_node@?$xml_node@D@rapidxml@@QAEXPAV12@@Z 004a59ff f i Registry.obj
 0001:000a4a2e       ?clear@?$memory_pool@D@rapidxml@@QAEXXZ 004a5a2e f i Registry.obj
 0001:000a4a7e       ?first_attribute@?$xml_node@D@rapidxml@@QBEPAV?$xml_attribute@D@2@PBDI_N@Z 004a5a7e f i Registry.obj
 0001:000a4ae9       ?first_node@?$xml_node@D@rapidxml@@QBEPAV12@PBDI_N@Z 004a5ae9 f i Registry.obj
 0001:000a4b54       ?insert_node@?$xml_node@D@rapidxml@@QAEXPAV12@0@Z 004a5b54 f i Registry.obj
 0001:000a4b97       ?name@?$xml_base@D@rapidxml@@QAEXPBD@Z 004a5b97 f i Registry.obj
 0001:000a4bb5       ?next_sibling@?$xml_node@D@rapidxml@@QBEPAV12@PBDI_N@Z 004a5bb5 f i Registry.obj
 0001:000a4c20       ?prepend_node@?$xml_node@D@rapidxml@@QAEXPAV12@@Z 004a5c20 f i Registry.obj
 0001:000a4c4d       ?remove_all_attributes@?$xml_node@D@rapidxml@@QAEXXZ 004a5c4d f i Registry.obj
 0001:000a4c61       ?remove_all_nodes@?$xml_node@D@rapidxml@@QAEXXZ 004a5c61 f i Registry.obj
 0001:000a4c75       ?remove_attribute@?$xml_node@D@rapidxml@@QAEXPAV?$xml_attribute@D@2@@Z 004a5c75 f i Registry.obj
 0001:000a4cad       ?remove_first_attribute@?$xml_node@D@rapidxml@@QAEXXZ 004a5cad f i Registry.obj
 0001:000a4ccc       ?remove_first_node@?$xml_node@D@rapidxml@@QAEXXZ 004a5ccc f i Registry.obj
 0001:000a4ceb       ?remove_last_attribute@?$xml_node@D@rapidxml@@QAEXXZ 004a5ceb f i Registry.obj
 0001:000a4d0a       ?remove_last_node@?$xml_node@D@rapidxml@@QAEXXZ 004a5d0a f i Registry.obj
 0001:000a4d29       ?remove_node@?$xml_node@D@rapidxml@@QAEXPAV12@@Z 004a5d29 f i Registry.obj
 0001:000a4d61       ?reserve@?$vector@DV?$MArrayAllocator@D@@@std@@QAEXI@Z 004a5d61 f i Registry.obj
 0001:000a4d87       ?utf2wcs@SettingsXML@@KAPB_WPBDAAUCEStr@@@Z 004a5d87 f   Registry.obj
 0001:000a4def       ?value@?$xml_base@D@rapidxml@@QAEXPBD@Z 004a5def f i Registry.obj
 0001:000a4e0e       ?wcs2utf@SettingsXML@@IAEPBDPB_W@Z 004a5e0e f   Registry.obj
 0001:000a4e68       ?wcs2utf@SettingsXML@@IBEPBDPB_WAAUCEStrA@@@Z 004a5e68 f   Registry.obj
 0001:000a4ee4       ?GetId@InternalContextBase@details@Concurrency@@UBEIXZ 004a5ee4 f i libconcrt:InternalContextBase.obj
 0001:000a4ee4       ?what@parse_error@rapidxml@@UBEPBDXZ 004a5ee4 f i Registry.obj
 0001:000a4f34       ??0CRunQueue@@QAE@XZ       004a5f34 f   RunQueue.obj
 0001:000a4fbc       ??1CRunQueue@@QAE@XZ       004a5fbc f   RunQueue.obj
 0001:000a5057       ?AdvanceQueue@CRunQueue@@QAEXXZ 004a6057 f   RunQueue.obj
 0001:000a5094       ?ProcessRunQueue@CRunQueue@@AAEXXZ 004a6094 f   RunQueue.obj
 0001:000a51b0       ?RequestRConStartup@CRunQueue@@QAEXPAVCRealConsole@@@Z 004a61b0 f   RunQueue.obj
 0001:000a522d       ?RunQueueThread@CRunQueue@@AAEKXZ 004a622d f   RunQueue.obj
 0001:000a5288       ?RunQueueThreadHelper@CRunQueue@@CGKPAX@Z 004a6288 f   RunQueue.obj
 0001:000a52a2       ?StartQueue@CRunQueue@@QAEXXZ 004a62a2 f   RunQueue.obj
 0001:000a52ce       ?Terminate@CRunQueue@@QAEXXZ 004a62ce f   RunQueue.obj
 0001:000a531d       ??$swprintf_c@$0BAF@@@YAHAAY0BAF@_WPB_WZZ 004a631d f i ScreenDump.obj
 0001:000a5336       ?DumpImage@@YAHPAUHDC__@@PAUHBITMAP__@@HHHHPB_W_N@Z 004a6336 f   ScreenDump.obj
 0001:000a55eb       ?DumpImage@@YAHPAUHDC__@@PAUHBITMAP__@@HHPB_W@Z 004a65eb f   ScreenDump.obj
 0001:000a560d       ?LoadScreen@@YAHPAUHDC__@@HHHHPAPAEPAK_N@Z 004a660d f   ScreenDump.obj
 0001:000a57cf       ?AllocateBlock@?$MMap@HUCEIconDrawHandles@@$0A@@@IAEPAUMapItems@1@XZ 004a67cf f i SearchCtrl.obj
 0001:000a5804       ?AllocateBlock@?$MMap@PAUHWND__@@UCEIconHintInfo@@$0A@@@IAEPAUMapItems@1@XZ 004a6804 f i SearchCtrl.obj
 0001:000a583a       ?AllocateBlock@?$MMap@PAUHWND__@@UCEIconHintOthers@@$0A@@@IAEPAUMapItems@1@XZ 004a683a f i SearchCtrl.obj
 0001:000a583a       ?AllocateBlock@?$MMap@PAUHWND__@@UTabPanelWinMap@@$0A@@@IAEPAUMapItems@1@XZ 004a683a f i WinObjBase.obj
 0001:000a6336       ?EditIconHint_Process@@YA_NPAUHWND__@@IIJAAH@Z 004a7336 f   SearchCtrl.obj
 0001:000a663c       ?EditIconHint_ResChanged@@YAXPAUHWND__@@@Z 004a763c f   SearchCtrl.obj
 0001:000a66b5       ?EditIconHint_Set@@YAXPAUHWND__@@0_NPB_W1IG@Z 004a76b5 f   SearchCtrl.obj
 0001:000a68b7       ?EditIconHint_SetTimer@@YAXPAUHWND__@@@Z 004a78b7 f   SearchCtrl.obj
 0001:000a68d1       ?EditIconHint_Subclass@@YAXPAUHWND__@@0@Z 004a78d1 f   SearchCtrl.obj
 0001:000a68f0       ?FindBlockItem@?$MMap@HUCEIconDrawHandles@@$0A@@@IAE_NABHAAPAUMapItems@1@AAPAUMapItem@1@@Z 004a78f0 f i SearchCtrl.obj
 0001:000a6950       ?FindBlockItem@?$MMap@PAUHWND__@@UCEIconHintInfo@@$0A@@@IAE_NABQAUHWND__@@AAPAUMapItems@1@AAPAUMapItem@1@@Z 004a7950 f i SearchCtrl.obj
 0001:000a69b3       ?FindBlockItem@?$MMap@PAUHWND__@@UTabPanelWinMap@@$0A@@@IAE_NABQAUHWND__@@AAPAUMapItems@1@AAPAUMapItem@1@@Z 004a79b3 f i WinObjBase.obj
 0001:000a69b3       ?FindBlockItem@?$MMap@PAUHWND__@@UCEIconHintOthers@@$0A@@@IAE_NABQAUHWND__@@AAPAUMapItems@1@AAPAUMapItem@1@@Z 004a79b3 f i SearchCtrl.obj
 0001:000a6a13       ?Get@?$MMap@HUCEIconDrawHandles@@$0A@@@QAE_NABHPAUCEIconDrawHandles@@_N@Z 004a7a13 f i SearchCtrl.obj
 0001:000a6a75       ?Get@?$MMap@PAUHWND__@@UCEIconHintInfo@@$0A@@@QAE_NABQAUHWND__@@PAUCEIconHintInfo@@_N@Z 004a7a75 f i SearchCtrl.obj
 0001:000a6ae8       ?Get@?$MMap@PAUHWND__@@UCEIconHintOthers@@$0A@@@QAE_NABQAUHWND__@@PAUCEIconHintOthers@@_N@Z 004a7ae8 f i SearchCtrl.obj
 0001:000a6ae8       ?Get@?$MMap@PAUHWND__@@UTabPanelWinMap@@$0A@@@QAE_NABQAUHWND__@@PAUTabPanelWinMap@@_N@Z 004a7ae8 f i WinObjBase.obj
 0001:000a6b48       ?GetNext@?$MMap@PAUHWND__@@UCEIconHintInfo@@$0A@@@QAE_NPBQAUHWND__@@PAPAU2@PAUCEIconHintInfo@@@Z 004a7b48 f i SearchCtrl.obj
 0001:000a6bf7       ?Init@?$MMap@HUCEIconDrawHandles@@$0A@@@QAE_NI_N@Z 004a7bf7 f i SearchCtrl.obj
 0001:000a6c2f       ?Init@?$MMap@PAUHWND__@@UCEIconHintInfo@@$0A@@@QAE_NI_N@Z 004a7c2f f i SearchCtrl.obj
 0001:000a6c67       ?Init@?$MMap@PAUHWND__@@UCEIconHintOthers@@$0A@@@QAE_NI_N@Z 004a7c67 f i SearchCtrl.obj
 0001:000a6c9f       ?Set@?$MMap@HUCEIconDrawHandles@@$0A@@@QAE_NABHABUCEIconDrawHandles@@@Z 004a7c9f f i SearchCtrl.obj
 0001:000a6d97       ?Set@?$MMap@PAUHWND__@@UCEIconHintInfo@@$0A@@@QAE_NABQAUHWND__@@ABUCEIconHintInfo@@@Z 004a7d97 f i SearchCtrl.obj
 0001:000a6e82       ?Set@?$MMap@PAUHWND__@@UTabPanelWinMap@@$0A@@@QAE_NABQAUHWND__@@ABUTabPanelWinMap@@@Z 004a7e82 f i WinObjBase.obj
 0001:000a6e82       ?Set@?$MMap@PAUHWND__@@UCEIconHintOthers@@$0A@@@QAE_NABQAUHWND__@@ABUCEIconHintOthers@@@Z 004a7e82 f i SearchCtrl.obj
 0001:000a6f69       ?BackColorIdx@AppSettings@@QBEEXZ 004a7f69 f   SetAppSettings.obj
 0001:000a6f88       ?CTSBashMargin@AppSettings@@QBE_NXZ 004a7f88 f   SetAppSettings.obj
 0001:000a6faa       ?CTSClickPromptPosition@AppSettings@@QBEEXZ 004a7faa f   SetAppSettings.obj
 0001:000a6fcc       ?CTSDeleteLeftWord@AppSettings@@QBEEXZ 004a7fcc f   SetAppSettings.obj
 0001:000a6ff0       ?CTSDetectLineEnd@AppSettings@@QBE_NXZ 004a7ff0 f   SetAppSettings.obj
 0001:000a7012       ?CTSEOL@AppSettings@@QBEEXZ 004a8012 f   SetAppSettings.obj
 0001:000a7034       ?CTSShiftArrowStart@AppSettings@@QBE_NXZ 004a8034 f   SetAppSettings.obj
 0001:000a7056       ?CTSTrimTrailing@AppSettings@@QBEEXZ 004a8056 f   SetAppSettings.obj
 0001:000a7078       ?Cursor@AppSettings@@QBE?ATCECursorType@@_N@Z 004a8078 f   SetAppSettings.obj
 0001:000a70d2       ?CursorBlink@AppSettings@@QBE_N_N@Z 004a80d2 f   SetAppSettings.obj
 0001:000a70ec       ?CursorFixedSize@AppSettings@@QBEE_N@Z 004a80ec f   SetAppSettings.obj
 0001:000a7106       ?CursorIgnoreSize@AppSettings@@QBE_N_N@Z 004a8106 f   SetAppSettings.obj
 0001:000a7120       ?ExtendFonts@AppSettings@@QBE_NXZ 004a8120 f   SetAppSettings.obj
 0001:000a7142       ?FontBoldColor@AppSettings@@QBEEXZ 004a8142 f   SetAppSettings.obj
 0001:000a7164       ?FontItalicColor@AppSettings@@QBEEXZ 004a8164 f   SetAppSettings.obj
 0001:000a7186       ?FontNormalColor@AppSettings@@QBEEXZ 004a8186 f   SetAppSettings.obj
 0001:000a71a8       ?FreeApps@AppSettings@@QAEXXZ 004a81a8 f   SetAppSettings.obj
 0001:000a71ed       ?PasteAllLines@AppSettings@@QBEEXZ 004a81ed f   SetAppSettings.obj
 0001:000a720f       ?PasteFirstLine@AppSettings@@QBEEXZ 004a820f f   SetAppSettings.obj
 0001:000a7231       ?PopBackColorIdx@AppSettings@@QBEEXZ 004a8231 f   SetAppSettings.obj
 0001:000a7250       ?PopTextColorIdx@AppSettings@@QBEEXZ 004a8250 f   SetAppSettings.obj
 0001:000a726f       ?PosixAllLines@AppSettings@@QBEEXZ 004a826f f   SetAppSettings.obj
 0001:000a7291       ?PosixFirstLine@AppSettings@@QBEEXZ 004a8291 f   SetAppSettings.obj
 0001:000a72b3       ?SetNames@AppSettings@@QAEXPB_W@Z 004a82b3 f   SetAppSettings.obj
 0001:000a737f       ?TextColorIdx@AppSettings@@QBEEXZ 004a837f f   SetAppSettings.obj
 0001:000a739e       ?FreePtr@CommandTasks@@QAEXXZ 004a839e f   SetCmdTask.obj
 0001:000a7404       ?LoadCmdTask@CommandTasks@@QAE_NPAUSettingsBase@@H@Z 004a8404 f   SetCmdTask.obj
 0001:000a771c       ?ParseGuiArgs@CommandTasks@@QBEXPAURConStartArgsEx@@@Z 004a871c f   SetCmdTask.obj
 0001:000a7a01       ?SaveCmdTask@CommandTasks@@QAE_NPAUSettingsBase@@_N@Z 004a8a01 f   SetCmdTask.obj
 0001:000a7c1c       ?SetCommands@CommandTasks@@QAE_NPB_W@Z 004a8c1c f   SetCmdTask.obj
 0001:000a7ced       ?SetGuiArg@CommandTasks@@QAE_NPB_W@Z 004a8ced f   SetCmdTask.obj
 0001:000a7db8       ?SetName@CommandTasks@@QAEXPB_WH@Z 004a8db8 f   SetCmdTask.obj
 0001:000a7ec5       ?FreePtr@ColorPalette@@QAEXXZ 004a8ec5 f   SetColorPalette.obj
 0001:000a7ef2       ?GetColors@ColorPalette@@QAEPAK_N@Z 004a8ef2 f   SetColorPalette.obj
 0001:000a7f18       ??$GetPageObj@VCSetPgComspec@@@CSettings@@QAE_NAAPAVCSetPgComspec@@@Z 004a8f18 f i SetDlgButtons.obj
 0001:000a7f47       ??$GetPageObj@VCSetPgFeatures@@@CSettings@@QAE_NAAPAVCSetPgFeatures@@@Z 004a8f47 f i SetDlgButtons.obj
 0001:000a7f76       ??$GetPageObj@VCSetPgTasks@@@CSettings@@QAE_NAAPAVCSetPgTasks@@@Z 004a8f76 f i SetDlgButtons.obj
 0001:000a7fa5       ??$swprintf_c@$0BMM@@@YAHAAY0BMM@_WPB_WZZ 004a8fa5 f i SetDlgButtons.obj
 0001:000a7fbe       ?CheckButtonMacro@CSetDlgButtons@@SAPA_WGE@Z 004a8fbe f   SetDlgButtons.obj
 0001:000a8089       ?OnBtn_ActivateSplitMouseOver@CSetDlgButtons@@KAXPAUHWND__@@GE@Z 004a9089 f   SetDlgButtons.obj
 0001:000a80b7       ?OnBtn_ActivityReset@CSetDlgButtons@@KAXPAUHWND__@@GE@Z 004a90b7 f   SetDlgButtons.obj
 0001:000a80ff       ?OnBtn_ActivitySaveAs@CSetDlgButtons@@KAXPAUHWND__@@GE@Z 004a90ff f   SetDlgButtons.obj
 0001:000a8118       ?OnBtn_AddConEmu2Path@CSetDlgButtons@@KAXPAUHWND__@@GE@Z 004a9118 f   SetDlgButtons.obj
 0001:000a8143       ?OnBtn_AddConEmuBase2Path@CSetDlgButtons@@KAXPAUHWND__@@GE@Z 004a9143 f   SetDlgButtons.obj
 0001:000a816b       ?OnBtn_AddDefaults@CSetDlgButtons@@KAXPAUHWND__@@GE@Z 004a916b f   SetDlgButtons.obj
 0001:000a81f1       ?OnBtn_AdminSuffixOrShield@CSetDlgButtons@@KAXPAUHWND__@@GE@Z 004a91f1 f   SetDlgButtons.obj
 0001:000a82e3       ?OnBtn_AlwaysOnTop@CSetDlgButtons@@KAXPAUHWND__@@GE@Z 004a92e3 f   SetDlgButtons.obj
 0001:000a830a       ?OnBtn_AlwaysShowTrayIcon@CSetDlgButtons@@KAXPAUHWND__@@GE@Z 004a930a f   SetDlgButtons.obj
 0001:000a832a       ?OnBtn_AnsiSecureRadio@CSetDlgButtons@@KAXPAUHWND__@@GE@Z 004a932a f   SetDlgButtons.obj
 0001:000a8383       ?OnBtn_AntiAliasing2@CSetDlgButtons@@KAXPAUHWND__@@GE@Z 004a9383 f   SetDlgButtons.obj
 0001:000a83b5       ?OnBtn_ApplyPos@CSetDlgButtons@@KAXPAUHWND__@@GE@Z 004a93b5 f   SetDlgButtons.obj
 0001:000a8611       ?OnBtn_BgAllowPlugin@CSetDlgButtons@@KAXPAUHWND__@@GE@Z 004a9611 f   SetDlgButtons.obj
 0001:000a863c       ?OnBtn_BgImageChoose@CSetDlgButtons@@KAXPAUHWND__@@GE@Z 004a963c f   SetDlgButtons.obj
 0001:000a886b       ?OnBtn_BgImageEnable@CSetDlgButtons@@KAXPAUHWND__@@GE@Z 004a986b f   SetDlgButtons.obj
 0001:000a8977       ?OnBtn_CTSAutoCopy@CSetDlgButtons@@KAXPAUHWND__@@GE@Z 004a9977 f   SetDlgButtons.obj
 0001:000a89dc       ?OnBtn_CTSBlockSelection@CSetDlgButtons@@KAXPAUHWND__@@GE@Z 004a99dc f   SetDlgButtons.obj
 0001:000a8a01       ?OnBtn_CTSClickPromptPosition@CSetDlgButtons@@KAXPAUHWND__@@GE@Z 004a9a01 f   SetDlgButtons.obj
 0001:000a8a22       ?OnBtn_CTSEndCopyAuto@CSetDlgButtons@@KAXPAUHWND__@@GE@Z 004a9a22 f   SetDlgButtons.obj
 0001:000a8b01       ?OnBtn_CTSIBeam@CSetDlgButtons@@KAXPAUHWND__@@GE@Z 004a9b01 f   SetDlgButtons.obj
 0001:000a8b27       ?OnBtn_CTSTextSelection@CSetDlgButtons@@KAXPAUHWND__@@GE@Z 004a9b27 f   SetDlgButtons.obj
 0001:000a8b4c       ?OnBtn_CascadeFixed@CSetDlgButtons@@KAXPAUHWND__@@GE@Z 004a9b4c f   SetDlgButtons.obj
 0001:000a8bac       ?OnBtn_ClinkWebPage@CSetDlgButtons@@KAXPAUHWND__@@GE@Z 004a9bac f   SetDlgButtons.obj
 0001:000a8bc4       ?OnBtn_CloseConEmuOptions@CSetDlgButtons@@KAXPAUHWND__@@GE@Z 004a9bc4 f   SetDlgButtons.obj
 0001:000a8d99       ?OnBtn_CloseConfirmFlags@CSetDlgButtons@@KAXPAUHWND__@@GE@Z 004a9d99 f   SetDlgButtons.obj
 0001:000a8de5       ?OnBtn_CmdAutoActions@CSetDlgButtons@@KAXPAUHWND__@@GE@Z 004a9de5 f   SetDlgButtons.obj
 0001:000a8e2e       ?OnBtn_CmdGroupApp@CSetDlgButtons@@KAXPAUHWND__@@GE@Z 004a9e2e f   SetDlgButtons.obj
 0001:000a9026       ?OnBtn_CmdGroupKey@CSetDlgButtons@@KAXPAUHWND__@@GE@Z 004aa026 f   SetDlgButtons.obj
 0001:000a90ee       ?OnBtn_CmdTaskbarUpdate@CSetDlgButtons@@KAXPAUHWND__@@GE@Z 004aa0ee f   SetDlgButtons.obj
 0001:000a9136       ?OnBtn_CmdTasksActive@CSetDlgButtons@@KAXPAUHWND__@@GE@Z 004aa136 f   SetDlgButtons.obj
 0001:000a9171       ?OnBtn_CmdTasksAdd@CSetDlgButtons@@KAXPAUHWND__@@GE@Z 004aa171 f   SetDlgButtons.obj
 0001:000a9206       ?OnBtn_CmdTasksDel@CSetDlgButtons@@KAXPAUHWND__@@GE@Z 004aa206 f   SetDlgButtons.obj
 0001:000a94b9       ?OnBtn_CmdTasksDir@CSetDlgButtons@@KAXPAUHWND__@@GE@Z 004aa4b9 f   SetDlgButtons.obj
 0001:000a95f2       ?OnBtn_CmdTasksDup@CSetDlgButtons@@KAXPAUHWND__@@GE@Z 004aa5f2 f   SetDlgButtons.obj
 0001:000a96f9       ?OnBtn_CmdTasksFlags@CSetDlgButtons@@KAXPAUHWND__@@GE@Z 004aa6f9 f   SetDlgButtons.obj
 0001:000a9848       ?OnBtn_CmdTasksParm@CSetDlgButtons@@KAXPAUHWND__@@GE@Z 004aa848 f   SetDlgButtons.obj
 0001:000a994b       ?OnBtn_CmdTasksReload@CSetDlgButtons@@KAXPAUHWND__@@GE@Z 004aa94b f   SetDlgButtons.obj
 0001:000a99c1       ?OnBtn_CmdTasksUpDown@CSetDlgButtons@@KAXPAUHWND__@@GE@Z 004aa9c1 f   SetDlgButtons.obj
 0001:000a9a6a       ?OnBtn_ColorField@CSetDlgButtons@@KAXPAUHWND__@@GE@Z 004aaa6a f   SetDlgButtons.obj
 0001:000a9bc6       ?OnBtn_ColorFormat@CSetDlgButtons@@KAXPAUHWND__@@GE@Z 004aabc6 f   SetDlgButtons.obj
 0001:000a9c06       ?OnBtn_ColorKeyTransparent@CSetDlgButtons@@KAXPAUHWND__@@GE@Z 004aac06 f   SetDlgButtons.obj
 0001:000a9c27       ?OnBtn_ColorSchemeSaveDelete@CSetDlgButtons@@KAXPAUHWND__@@GE@Z 004aac27 f   SetDlgButtons.obj
 0001:000a9c53       ?OnBtn_CompressLongStrings@CSetDlgButtons@@KAXPAUHWND__@@GE@Z 004aac53 f   SetDlgButtons.obj
 0001:000a9c77       ?OnBtn_ComspecBitsRadio@CSetDlgButtons@@KAXPAUHWND__@@GE@Z 004aac77 f   SetDlgButtons.obj
 0001:000a9ccc       ?OnBtn_ComspecExplicit@CSetDlgButtons@@KAXPAUHWND__@@GE@Z 004aaccc f   SetDlgButtons.obj
 0001:000a9e0f       ?OnBtn_ComspecRadio@CSetDlgButtons@@KAXPAUHWND__@@GE@Z 004aae0f f   SetDlgButtons.obj
 0001:000a9ea7       ?OnBtn_ComspecTest@CSetDlgButtons@@KAXPAUHWND__@@GE@Z 004aaea7 f   SetDlgButtons.obj
 0001:000a9efb       ?OnBtn_ComspecUpdateEnv@CSetDlgButtons@@KAXPAUHWND__@@GE@Z 004aaefb f   SetDlgButtons.obj
 0001:000a9f16       ?OnBtn_ConsoleExceptionHandler@CSetDlgButtons@@KAXPAUHWND__@@GE@Z 004aaf16 f   SetDlgButtons.obj
 0001:000a9f37       ?OnBtn_CursorOptions@CSetDlgButtons@@KAXPAUHWND__@@GE@Z 004aaf37 f   SetDlgButtons.obj
 0001:000a9f69       ?OnBtn_DebugActivityRadio@CSetDlgButtons@@KAXPAUHWND__@@GE@Z 004aaf69 f   SetDlgButtons.obj
 0001:000a9fbe       ?OnBtn_DebugLog@CSetDlgButtons@@KAXPAUHWND__@@GE@Z 004aafbe f   SetDlgButtons.obj
 0001:000aa042       ?OnBtn_DefTerm@CSetDlgButtons@@KAXPAUHWND__@@GE@Z 004ab042 f   SetDlgButtons.obj
 0001:000aa2c3       ?OnBtn_DosBox@CSetDlgButtons@@KAXPAUHWND__@@GE@Z 004ab2c3 f   SetDlgButtons.obj
 0001:000aa369       ?OnBtn_DragLR@CSetDlgButtons@@KAXPAUHWND__@@GE@Z 004ab369 f   SetDlgButtons.obj
 0001:000aa3a7       ?OnBtn_DragPanel@CSetDlgButtons@@KAXPAUHWND__@@GE@Z 004ab3a7 f   SetDlgButtons.obj
 0001:000aa3c9       ?OnBtn_DragPanelBothEdges@CSetDlgButtons@@KAXPAUHWND__@@GE@Z 004ab3c9 f   SetDlgButtons.obj
 0001:000aa3ef       ?OnBtn_EnhanceButtons@CSetDlgButtons@@KAXPAUHWND__@@GE@Z 004ab3ef f   SetDlgButtons.obj
 0001:000aa413       ?OnBtn_EnhanceGraphics@CSetDlgButtons@@KAXPAUHWND__@@GE@Z 004ab413 f   SetDlgButtons.obj
 0001:000aa437       ?OnBtn_ExtendFonts@CSetDlgButtons@@KAXPAUHWND__@@GE@Z 004ab437 f   SetDlgButtons.obj
 0001:000aa475       ?OnBtn_ExtendUCharMap@CSetDlgButtons@@KAXPAUHWND__@@GE@Z 004ab475 f   SetDlgButtons.obj
 0001:000aa499       ?OnBtn_FARuseASCIIsort@CSetDlgButtons@@KAXPAUHWND__@@GE@Z 004ab499 f   SetDlgButtons.obj
 0001:000aa4b4       ?OnBtn_FadeInactive@CSetDlgButtons@@KAXPAUHWND__@@GE@Z 004ab4b4 f   SetDlgButtons.obj
 0001:000aa4cf       ?OnBtn_FarHourglass@CSetDlgButtons@@KAXPAUHWND__@@GE@Z 004ab4cf f   SetDlgButtons.obj
 0001:000aa4f5       ?OnBtn_FixFarBorders@CSetDlgButtons@@KAXPAUHWND__@@GE@Z 004ab4f5 f   SetDlgButtons.obj
 0001:000aa524       ?OnBtn_FontAuto@CSetDlgButtons@@KAXPAUHWND__@@GE@Z 004ab524 f   SetDlgButtons.obj
 0001:000aa5b9       ?OnBtn_NoneStandardCleartype@CSetDlgButtons@@KAXPAUHWND__@@GE@Z 004ab5b9 f   SetDlgButtons.obj
 0001:000aa5b9       ?OnBtn_FontStyles@CSetDlgButtons@@KAXPAUHWND__@@GE@Z 004ab5b9 f   SetDlgButtons.obj
 0001:000aa5d9       ?OnBtn_GotoEditorCmd@CSetDlgButtons@@KAXPAUHWND__@@GE@Z 004ab5d9 f   SetDlgButtons.obj
 0001:000aa75b       ?OnBtn_HideCaption@CSetDlgButtons@@KAXPAUHWND__@@GE@Z 004ab75b f   SetDlgButtons.obj
 0001:000aa7ac       ?OnBtn_HideCaptionAlways@CSetDlgButtons@@KAXPAUHWND__@@GE@Z 004ab7ac f   SetDlgButtons.obj
 0001:000aa826       ?OnBtn_HideChildCaption@CSetDlgButtons@@KAXPAUHWND__@@GE@Z 004ab826 f   SetDlgButtons.obj
 0001:000aa852       ?OnBtn_HideInactiveConTabs@CSetDlgButtons@@KAXPAUHWND__@@GE@Z 004ab852 f   SetDlgButtons.obj
 0001:000aa87c       ?OnBtn_HideOrMinOnLastTabClose@CSetDlgButtons@@KAXPAUHWND__@@GE@Z 004ab87c f   SetDlgButtons.obj
 0001:000aa981       ?OnBtn_HighlightMouseCol@CSetDlgButtons@@KAXPAUHWND__@@GE@Z 004ab981 f   SetDlgButtons.obj
 0001:000aa9a5       ?OnBtn_HighlightMouseRow@CSetDlgButtons@@KAXPAUHWND__@@GE@Z 004ab9a5 f   SetDlgButtons.obj
 0001:000aa9c9       ?OnBtn_InstallKeybHooks@CSetDlgButtons@@KAXPAUHWND__@@GE@Z 004ab9c9 f   SetDlgButtons.obj
 0001:000aaa1f       ?OnBtn_LongOutput@CSetDlgButtons@@KAXPAUHWND__@@GE@Z 004aba1f f   SetDlgButtons.obj
 0001:000aaa57       ?OnBtn_MinByEscRadio@CSetDlgButtons@@KAXPAUHWND__@@GE@Z 004aba57 f   SetDlgButtons.obj
 0001:000aaaae       ?OnBtn_MinMaxKey@CSetDlgButtons@@KAXPAUHWND__@@GE@Z 004abaae f   SetDlgButtons.obj
 0001:000aab6d       ?OnBtn_Monospace@CSetDlgButtons@@KAXPAUHWND__@@GE@Z 004abb6d f   SetDlgButtons.obj
 0001:000aabbe       ?OnBtn_MultiCon@CSetDlgButtons@@KAXPAUHWND__@@GE@Z 004abbbe f   SetDlgButtons.obj
 0001:000aabdf       ?OnBtn_MultiShowPanes@CSetDlgButtons@@KAXPAUHWND__@@GE@Z 004abbdf f   SetDlgButtons.obj
 0001:000aac30       ?OnBtn_NormalFullscreenMaximized@CSetDlgButtons@@KAXPAUHWND__@@GE@Z 004abc30 f   SetDlgButtons.obj
 0001:000aac69       ?OnBtn_NumberInCaption@CSetDlgButtons@@KAXPAUHWND__@@GE@Z 004abc69 f   SetDlgButtons.obj
 0001:000aac8a       ?OnBtn_OneTabPerGroup@CSetDlgButtons@@KAXPAUHWND__@@GE@Z 004abc8a f   SetDlgButtons.obj
 0001:000aacb4       ?OnBtn_ProcessAnsi@CSetDlgButtons@@KAXPAUHWND__@@GE@Z 004abcb4 f   SetDlgButtons.obj
 0001:000aacd5       ?OnBtn_ProcessCmdStart@CSetDlgButtons@@KAXPAUHWND__@@GE@Z 004abcd5 f   SetDlgButtons.obj
 0001:000aacf6       ?OnBtn_ProcessCtrlZ@CSetDlgButtons@@KAXPAUHWND__@@GE@Z 004abcf6 f   SetDlgButtons.obj
 0001:000aad17       ?OnBtn_ProcessNewConArg@CSetDlgButtons@@KAXPAUHWND__@@GE@Z 004abd17 f   SetDlgButtons.obj
 0001:000aad38       ?OnBtn_QuakeStyles@CSetDlgButtons@@KAXPAUHWND__@@GE@Z 004abd38 f   SetDlgButtons.obj
 0001:000aadad       ?OnBtn_RConVisible@CSetDlgButtons@@KAXPAUHWND__@@GE@Z 004abdad f   SetDlgButtons.obj
 0001:000aae19       ?OnBtn_RetardInactivePanes@CSetDlgButtons@@KAXPAUHWND__@@GE@Z 004abe19 f   SetDlgButtons.obj
 0001:000aae3b       ?OnBtn_ScrollbarDynamic@CSetDlgButtons@@KAXPAUHWND__@@GE@Z 004abe3b f   SetDlgButtons.obj
 0001:000aae5c       ?OnBtn_ScrollbarStyle@CSetDlgButtons@@KAXPAUHWND__@@GE@Z 004abe5c f   SetDlgButtons.obj
 0001:000aaf2d       ?OnBtn_SendConsoleSpecials@CSetDlgButtons@@KAXPAUHWND__@@GE@Z 004abf2d f   SetDlgButtons.obj
 0001:000aafbc       ?OnBtn_ShellNoZoneCheck@CSetDlgButtons@@KAXPAUHWND__@@GE@Z 004abfbc f   SetDlgButtons.obj
 0001:000aafd7       ?OnBtn_ShowFarWindows@CSetDlgButtons@@KAXPAUHWND__@@GE@Z 004abfd7 f   SetDlgButtons.obj
 0001:000ab001       ?OnBtn_ShowStatusBar@CSetDlgButtons@@KAXPAUHWND__@@GE@Z 004ac001 f   SetDlgButtons.obj
 0001:000ab01d       ?OnBtn_SleepInBackground@CSetDlgButtons@@KAXPAUHWND__@@GE@Z 004ac01d f   SetDlgButtons.obj
 0001:000ab03f       ?OnBtn_SnapToDesktopEdges@CSetDlgButtons@@KAXPAUHWND__@@GE@Z 004ac03f f   SetDlgButtons.obj
 0001:000ab079       ?OnBtn_StatusAddDel@CSetDlgButtons@@KAXPAUHWND__@@GE@Z 004ac079 f   SetDlgButtons.obj
 0001:000ab1de       ?OnBtn_StatusHorzSep@CSetDlgButtons@@KAXPAUHWND__@@GE@Z 004ac1de f   SetDlgButtons.obj
 0001:000ab217       ?OnBtn_StatusSystemColors@CSetDlgButtons@@KAXPAUHWND__@@GE@Z 004ac217 f   SetDlgButtons.obj
 0001:000ab26f       ?OnBtn_StatusVertPad@CSetDlgButtons@@KAXPAUHWND__@@GE@Z 004ac26f f   SetDlgButtons.obj
 0001:000ab2a8       ?OnBtn_StatusVertSep@CSetDlgButtons@@KAXPAUHWND__@@GE@Z 004ac2a8 f   SetDlgButtons.obj
 0001:000ab2dd       ?OnBtn_SuppressBells@CSetDlgButtons@@KAXPAUHWND__@@GE@Z 004ac2dd f   SetDlgButtons.obj
 0001:000ab2fe       ?OnBtn_TabsLocationBottom@CSetDlgButtons@@KAXPAUHWND__@@GE@Z 004ac2fe f   SetDlgButtons.obj
 0001:000ab337       ?OnBtn_TabsRadioAuto@CSetDlgButtons@@KAXPAUHWND__@@GE@Z 004ac337 f   SetDlgButtons.obj
 0001:000ab3bf       ?OnBtn_TaskbarBtnRadio@CSetDlgButtons@@KAXPAUHWND__@@GE@Z 004ac3bf f   SetDlgButtons.obj
 0001:000ab44c       ?OnBtn_TaskbarOverlay@CSetDlgButtons@@KAXPAUHWND__@@GE@Z 004ac44c f   SetDlgButtons.obj
 0001:000ab473       ?OnBtn_TaskbarProgress@CSetDlgButtons@@KAXPAUHWND__@@GE@Z 004ac473 f   SetDlgButtons.obj
 0001:000ab494       ?OnBtn_ThumbBackColors@CSetDlgButtons@@KAXPAUHWND__@@GE@Z 004ac494 f   SetDlgButtons.obj
 0001:000ab4e2       ?OnBtn_ThumbLoadFiles@CSetDlgButtons@@KAXPAUHWND__@@GE@Z 004ac4e2 f   SetDlgButtons.obj
 0001:000ab518       ?OnBtn_ThumbPreviewBoxColors@CSetDlgButtons@@KAXPAUHWND__@@GE@Z 004ac518 f   SetDlgButtons.obj
 0001:000ab566       ?OnBtn_ThumbSelectionBoxColors@CSetDlgButtons@@KAXPAUHWND__@@GE@Z 004ac566 f   SetDlgButtons.obj
 0001:000ab5b4       ?OnBtn_Transparent@CSetDlgButtons@@KAXPAUHWND__@@GE@Z 004ac5b4 f   SetDlgButtons.obj
 0001:000ab644       ?OnBtn_TransparentSeparate@CSetDlgButtons@@KAXPAUHWND__@@GE@Z 004ac644 f   SetDlgButtons.obj
 0001:000ab6fd       ?OnBtn_TrueColorer@CSetDlgButtons@@KAXPAUHWND__@@GE@Z 004ac6fd f   SetDlgButtons.obj
 0001:000ab726       ?OnBtn_TryToCenter@CSetDlgButtons@@KAXPAUHWND__@@GE@Z 004ac726 f   SetDlgButtons.obj
 0001:000ab75c       ?OnBtn_UnicodeRangesApply@CSetDlgButtons@@KAXPAUHWND__@@GE@Z 004ac75c f   SetDlgButtons.obj
 0001:000ab808       ?OnBtn_UpdateApplyAndCheck@CSetDlgButtons@@KAXPAUHWND__@@GE@Z 004ac808 f   SetDlgButtons.obj
 0001:000ab8bf       ?OnBtn_UpdateArcCmdLine@CSetDlgButtons@@KAXPAUHWND__@@GE@Z 004ac8bf f   SetDlgButtons.obj
 0001:000ab9e4       ?OnBtn_UpdateCheckFast@CSetDlgButtons@@KAXPAUHWND__@@GE@Z 004ac9e4 f   SetDlgButtons.obj
 0001:000aba25       ?OnBtn_UpdateDownloadPath@CSetDlgButtons@@KAXPAUHWND__@@GE@Z 004aca25 f   SetDlgButtons.obj
 0001:000abb4a       ?OnBtn_UpdateInetTool@CSetDlgButtons@@KAXPAUHWND__@@GE@Z 004acb4a f   SetDlgButtons.obj
 0001:000abbd5       ?OnBtn_UpdateInetToolCmd@CSetDlgButtons@@KAXPAUHWND__@@GE@Z 004acbd5 f   SetDlgButtons.obj
 0001:000abd33       ?OnBtn_UpdateTypeRadio@CSetDlgButtons@@KAXPAUHWND__@@GE@Z 004acd33 f   SetDlgButtons.obj
 0001:000abda9       ?OnBtn_UpdateUseProxy@CSetDlgButtons@@KAXPAUHWND__@@GE@Z 004acda9 f   SetDlgButtons.obj
 0001:000abe35       ?OnBtn_UseClink@CSetDlgButtons@@KAXPAUHWND__@@GE@Z 004ace35 f   SetDlgButtons.obj
 0001:000abed4       ?OnBtn_UseCurrentSizePos@CSetDlgButtons@@KAXPAUHWND__@@GE@Z 004aced4 f   SetDlgButtons.obj
 0001:000abf61       ?OnBtn_UseInjects@CSetDlgButtons@@KAXPAUHWND__@@GE@Z 004acf61 f   SetDlgButtons.obj
 0001:000abf82       ?OnBtn_UseWinArrowNumTab@CSetDlgButtons@@KAXPAUHWND__@@GE@Z 004acf82 f   SetDlgButtons.obj
 0001:000abfdf       ?OnBtn_UserScreenTransparent@CSetDlgButtons@@KAXPAUHWND__@@GE@Z 004acfdf f   SetDlgButtons.obj
 0001:000ac011       ?OnBtn_VividColors@CSetDlgButtons@@KAXPAUHWND__@@GE@Z 004ad011 f   SetDlgButtons.obj
 0001:000ac035       ?OnButtonClicked@CSetDlgButtons@@KAJPAUHWND__@@IJ@Z 004ad035 f   SetDlgButtons.obj
 0001:000ac071       ?OnButtonClicked_Cursor@CSetDlgButtons@@KAXPAUHWND__@@GEPAUAppSettings@@@Z 004ad071 f   SetDlgButtons.obj
 0001:000ac1be       ?ProcessButtonClick@CSetDlgButtons@@KA_NPAUHWND__@@GE@Z 004ad1be f   SetDlgButtons.obj
 0001:000adc1b       ?ColorBoxProc@CSetDlgColors@@KGJPAUHWND__@@IIJ@Z 004aec1b f   SetDlgColors.obj
 0001:000ade58       ?ColorCtlStatic@CSetDlgColors@@SAHPAUHWND__@@G0@Z 004aee58 f   SetDlgColors.obj
 0001:000adf81       ?ColorEditDialog@CSetDlgColors@@SA_NPAUHWND__@@G@Z 004aef81 f   SetDlgColors.obj
 0001:000adff0       ?ColorSetEdit@CSetDlgColors@@SAXPAUHWND__@@G@Z 004aeff0 f   SetDlgColors.obj
 0001:000ae122       ?FillBgImageColors@CSetDlgColors@@SAXPAUHWND__@@@Z 004af122 f   SetDlgColors.obj
 0001:000ae22a       ?GetColorById@CSetDlgColors@@SA_NGPAK@Z 004af22a f   SetDlgColors.obj
 0001:000ae2e3       ?GetColorRef@CSetDlgColors@@SA_NPAUHWND__@@GPAK@Z 004af2e3 f   SetDlgColors.obj
 0001:000ae343       ?OnSettingsLoaded@CSetDlgColors@@SAXAAY0BA@$$CBK@Z 004af343 f   SetDlgColors.obj
 0001:000ae35e       ?ReleaseHandles@CSetDlgColors@@SAXXZ 004af35e f   SetDlgColors.obj
 0001:000ae387       ?SetColorById@CSetDlgColors@@SA_NGK@Z 004af387 f   SetDlgColors.obj
 0001:000ae4ad       ?ShowColorDialog@CSetDlgColors@@SA_NPAUHWND__@@PAK@Z 004af4ad f   SetDlgColors.obj
 0001:000ae503       ?EnumFamCallBack@CSetDlgFonts@@KGHPAUtagLOGFONTW@@PAUtagNEWTEXTMETRICW@@KPAX@Z 004af503 f   SetDlgFonts.obj
 0001:000ae5c5       ?EnumFontCallBackEx@CSetDlgFonts@@KGHPAUtagENUMLOGFONTEXW@@PAUtagNEWTEXTMETRICEXW@@KJ@Z 004af5c5 f   SetDlgFonts.obj
 0001:000ae615       ?EnumFontsFinished@CSetDlgFonts@@SA_NXZ 004af615 f   SetDlgFonts.obj
 0001:000ae61b       ?EnumFontsThread@CSetDlgFonts@@CGKPAX@Z 004af61b f   SetDlgFonts.obj
 0001:000ae8eb       ?StartEnumFontsThread@CSetDlgFonts@@KA_NXZ 004af8eb f   SetDlgFonts.obj
 0001:000ae916       ?EnableDlgItems@CSetDlgLists@@SAXPAUHWND__@@PBKI_N@Z 004af916 f   SetDlgLists.obj
 0001:000ae948       ?EnableDlgItems@CSetDlgLists@@SAXPAUHWND__@@W4eWordItems@1@_N@Z 004af948 f   SetDlgLists.obj
 0001:000ae96c       ?FillCBList@CSetDlgLists@@SAXPAUHWND__@@_NPAPB_WPB_W@Z 004af96c f   SetDlgLists.obj
 0001:000ae9ff       ?FillListBox@CSetDlgLists@@SAXPAUHWND__@@GW4eFillListBoxItems@1@@Z 004af9ff f   SetDlgLists.obj
 0001:000aea4f       ?FillListBoxItems@CSetDlgLists@@SAXPAUHWND__@@W4eFillListBoxItems@1@AAE_N@Z 004afa4f f   SetDlgLists.obj
 0001:000aea86       ?FillListBoxItems@CSetDlgLists@@SAXPAUHWND__@@W4eFillListBoxItems@1@AAI_N@Z 004afa86 f   SetDlgLists.obj
 0001:000aeb4c       ?FillListBoxItems@CSetDlgLists@@SAXPAUHWND__@@W4eFillListBoxItems@1@ABI@Z 004afb4c f   SetDlgLists.obj
 0001:000aeb6d       ?FillListBoxItems@CSetDlgLists@@SAXPAUHWND__@@W4eWordItems@1@AAI_N@Z 004afb6d f   SetDlgLists.obj
 0001:000aec40       ?GetListBoxItem@CSetDlgLists@@SA_NPAUHWND__@@GW4eFillListBoxItems@1@AAE@Z 004afc40 f   SetDlgLists.obj
 0001:000aec6a       ?GetListBoxItem@CSetDlgLists@@SA_NPAUHWND__@@GW4eFillListBoxItems@1@AAI@Z 004afc6a f   SetDlgLists.obj
 0001:000aeceb       ?GetListBoxItem@CSetDlgLists@@SA_NPAUHWND__@@GW4eWordItems@1@AAI@Z 004afceb f   SetDlgLists.obj
 0001:000aed6c       ?GetListItems@CSetDlgLists@@SAIW4eFillListBoxItems@1@AAPBUListBoxItem@@@Z 004afd6c f   SetDlgLists.obj
 0001:000aee88       ?GetListItems@CSetDlgLists@@SAIW4eWordItems@1@AAPBK@Z 004afe88 f   SetDlgLists.obj
 0001:000aef18       ?GetListboxCurSel@CSetDlgLists@@SAHPAUHWND__@@I_N@Z 004aff18 f   SetDlgLists.obj
 0001:000aef90       ?GetListboxSelection@CSetDlgLists@@SAHPAUHWND__@@IAAPAH@Z 004aff90 f   SetDlgLists.obj
 0001:000af042       ?GetSelectedString@CSetDlgLists@@SAHPAUHWND__@@GAAUCEStr@@@Z 004b0042 f   SetDlgLists.obj
 0001:000af124       ?ListBoxMultiSel@CSetDlgLists@@SAXPAUHWND__@@IH@Z 004b0124 f   SetDlgLists.obj
 0001:000af175       ?SelectString@CSetDlgLists@@SAHPAUHWND__@@GPB_W@Z 004b0175 f   SetDlgLists.obj
 0001:000af19d       ?SelectStringExact@CSetDlgLists@@SAHPAUHWND__@@GPB_W@Z 004b019d f   SetDlgLists.obj
 0001:000af331       ??0CSetPgANSI@@QAE@XZ      004b0331 f   SetPgANSI.obj
 0001:000af34b       ??_ECSetPgANSI@@UAEPAXI@Z  004b034b f i SetPgANSI.obj
 0001:000af34b       ??_GCSetPgANSI@@UAEPAXI@Z  004b034b f i SetPgANSI.obj
 0001:000af373       ?GetPageType@CSetPgANSI@@UAE?AW4TabHwndIndex@@XZ 004b0373 f i SetPgANSI.obj
 0001:000af377       ?OnEditChanged@CSetPgANSI@@UAEJPAUHWND__@@G@Z 004b0377 f   SetPgANSI.obj
 0001:000af3d0       ?OnInitDialog@CSetPgANSI@@UAEJPAUHWND__@@_N@Z 004b03d0 f   SetPgANSI.obj
 0001:000af43c       ?PageDlgProc@CSetPgBase@@UAEHPAUHWND__@@IIJ@Z 004b043c f i SetPgANSI.obj
 0001:000af441       ___acrt_uninitialize_command_line 004b0441 f i libucrt:argv_data.obj
 0001:000af441       __should_initialize_environment 004b0441 f i LIBCMT:env_mode.obj
 0001:000af441       ?QueryDialogCancel@CSetPgBase@@UAE_NXZ 004b0441 f i SetPgANSI.obj
 0001:000af441       ?SweepWaitNode@SingleWaitBlock@details@Concurrency@@UAE_NXZ 004b0441 f i libconcrt:event.obj
 0001:000af441       ?AllowGeneralFetchOfReservedContexts@SchedulerBase@details@Concurrency@@MAE_NXZ 004b0441 f i libconcrt:SchedulerBase.obj
 0001:000af444       ??0CSetPgAppear@@QAE@XZ    004b0444 f   SetPgAppear.obj
 0001:000af45e       ??_ECSetPgAppear@@UAEPAXI@Z 004b045e f i SetPgAppear.obj
 0001:000af45e       ??_GCSetPgAppear@@UAEPAXI@Z 004b045e f i SetPgAppear.obj
 0001:000af486       ?GetPageType@CSetPgAppear@@UAE?AW4TabHwndIndex@@XZ 004b0486 f i SetPgAppear.obj
 0001:000af48a       ?OnEditChanged@CSetPgAppear@@UAEJPAUHWND__@@G@Z 004b048a f   SetPgAppear.obj
 0001:000af5eb       ?OnInitDialog@CSetPgAppear@@UAEJPAUHWND__@@_N@Z 004b05eb f   SetPgAppear.obj
 0001:000af7f5       ??$GetPageObj@VCSetPgApps@@@CSettings@@QAE_NAAPAVCSetPgApps@@@Z 004b07f5 f i SetPgApps.obj
 0001:000af824       ??0CSetPgApps@@QAE@XZ      004b0824 f   SetPgApps.obj
 0001:000af851       ??1CSetPgApps@@UAE@XZ      004b0851 f   SetPgApps.obj
 0001:000af8b2       ??_GCSetPgApps@@UAEPAXI@Z  004b08b2 f i SetPgApps.obj
 0001:000af8b2       ??_ECSetPgApps@@UAEPAXI@Z  004b08b2 f i SetPgApps.obj
 0001:000af8d4       ?CreateChildDlg@CSetPgApps@@IAE_NXZ 004b08d4 f   SetPgApps.obj
 0001:000afa99       ?DoAppAdd@CSetPgApps@@IAEXXZ 004b0a99 f   SetPgApps.obj
 0001:000afb1d       ?DoAppDel@CSetPgApps@@IAEXXZ 004b0b1d f   SetPgApps.obj
 0001:000afbf3       ?DoAppMove@CSetPgApps@@IAEX_N@Z 004b0bf3 f   SetPgApps.obj
 0001:000afcb0       ?DoEnableControls@CSetPgApps@@QAEXG@Z 004b0cb0 f   SetPgApps.obj
 0001:000afdc9       ?DoFillControls@CSetPgApps@@QAEXPBUAppSettings@@@Z 004b0dc9 f   SetPgApps.obj
 0001:000b0056       ?DoReloadApps@CSetPgApps@@IAEXXZ 004b1056 f   SetPgApps.obj
 0001:000b009e       ?GetPageType@CSetPgApps@@UAE?AW4TabHwndIndex@@XZ 004b109e f i SetPgApps.obj
 0001:000b00a2       ?NotifyVCon@CSetPgApps@@IAEXXZ 004b10a2 f   SetPgApps.obj
 0001:000b00db       ?OnAppSelectionChanged@CSetPgApps@@IAEXXZ 004b10db f   SetPgApps.obj
 0001:000b0183       ?OnButtonClicked@CSetPgApps@@UAEHPAUHWND__@@0G@Z 004b1183 f   SetPgApps.obj
 0001:000b05df       ?OnComboBox@CSetPgApps@@UAEHPAUHWND__@@GG@Z 004b15df f   SetPgApps.obj
 0001:000b0825       ?OnEditChanged@CSetPgApps@@UAEJPAUHWND__@@G@Z 004b1825 f   SetPgApps.obj
 0001:000b091a       ?OnInitDialog@CSetPgApps@@UAEJPAUHWND__@@_N@Z 004b191a f   SetPgApps.obj
 0001:000b0ac4       ?PageDlgProc@CSetPgApps@@UAEHPAUHWND__@@IIJ@Z 004b1ac4 f   SetPgApps.obj
 0001:000b0c3a       ?ProcessDpiChange@CSetPgApps@@UAEXPBVCDpiForDialog@@@Z 004b1c3a f   SetPgApps.obj
 0001:000b0ce1       ?SetListAppName@CSetPgApps@@IAEHPBUAppSettings@@HH@Z 004b1ce1 f   SetPgApps.obj
 0001:000b0ddd       ?pageOpProc_AppsChild@CSetPgApps@@SGHPAUHWND__@@IIJ@Z 004b1ddd f   SetPgApps.obj
 0001:000b0fcc       ??0CSetPgBackgr@@QAE@XZ    004b1fcc f   SetPgBackgr.obj
 0001:000b0fe6       ??_GCSetPgBackgr@@UAEPAXI@Z 004b1fe6 f i SetPgBackgr.obj
 0001:000b0fe6       ??_ECSetPgBackgr@@UAEPAXI@Z 004b1fe6 f i SetPgBackgr.obj
 0001:000b100e       ?GetPageType@CSetPgBackgr@@UAE?AW4TabHwndIndex@@XZ 004b200e f i SetPgBackgr.obj
 0001:000b1012       ?OnComboBox@CSetPgBackgr@@UAEHPAUHWND__@@GG@Z 004b2012 f   SetPgBackgr.obj
 0001:000b107b       ?OnEditChanged@CSetPgBackgr@@UAEJPAUHWND__@@G@Z 004b207b f   SetPgBackgr.obj
 0001:000b1285       ?OnInitDialog@CSetPgBackgr@@UAEJPAUHWND__@@_N@Z 004b2285 f   SetPgBackgr.obj
 0001:000b13b9       ??$GetPageObj@VCSetPgFonts@@@CSettings@@QAE_NAAPAVCSetPgFonts@@@Z 004b23b9 f i SetPgBase.obj
 0001:000b13e8       ??0CSetPgBase@@QAE@XZ      004b23e8 f   SetPgBase.obj
 0001:000b1415       ??1CSetPgBase@@UAE@XZ      004b2415 f   SetPgBase.obj
 0001:000b146f       ??_ECSetPgBase@@UAEPAXI@Z  004b246f f i SetPgBase.obj
 0001:000b146f       ??_GCSetPgBase@@UAEPAXI@Z  004b246f f i SetPgBase.obj
 0001:000b1491       ?CreatePage@CSetPgBase@@SAPAUHWND__@@PAUConEmuSetupPages@@PAU2@IPBVCDpiForDialog@@@Z 004b2491 f   SetPgBase.obj
 0001:000b1539       ?InitObject@CSetPgBase@@UAEXPAUHWND__@@IPBVCDpiForDialog@@PAUConEmuSetupPages@@@Z 004b2539 f   SetPgBase.obj
 0001:000b1575       ?OnButtonClicked@CSetPgBase@@UAEHPAUHWND__@@0G@Z 004b2575 f   SetPgBase.obj
 0001:000b158f       ?OnComboBox@CSetPgBase@@UAEHPAUHWND__@@GG@Z 004b258f f   SetPgBase.obj
 0001:000b158f       ?OnComboBox@CSetPgComspec@@UAEHPAUHWND__@@GG@Z 004b258f f   SetPgComspec.obj
 0001:000b1594       ?OnCtlColorStatic@CSetPgBase@@UAEHPAUHWND__@@PAUHDC__@@0G@Z 004b2594 f   SetPgBase.obj
 0001:000b1626       ?OnDpiChanged@CSetPgBase@@UAEXPBVCDpiForDialog@@@Z 004b2626 f   SetPgBase.obj
 0001:000b1662       ?OnEditChanged@CSetPgBase@@UAEJPAUHWND__@@G@Z 004b2662 f i SetPgBase.obj
 0001:000b1667       ?OnSetCursor@CSetPgBase@@UAEHPAUHWND__@@0GGG@Z 004b2667 f   SetPgBase.obj
 0001:000b16ac       ?ProcessDpiChange@CSetPgBase@@UAEXPBVCDpiForDialog@@@Z 004b26ac f   SetPgBase.obj
 0001:000b1729       ?pageOpProc@CSetPgBase@@SGHPAUHWND__@@IIJ@Z 004b2729 f   SetPgBase.obj
 0001:000b1e1e       ?setCtrlTitleByHotkey@CSetPgBase@@SAXPAUHWND__@@GHPB_W1@Z 004b2e1e f   SetPgBase.obj
 0001:000b2036       ?setHotkeyCheckbox@CSetPgBase@@SAXPAUHWND__@@GHPB_W1I@Z 004b3036 f   SetPgBase.obj
 0001:000b218c       ??0CSetPgChildGui@@QAE@XZ  004b318c f   SetPgChildGui.obj
 0001:000b21a6       ??_ECSetPgChildGui@@UAEPAXI@Z 004b31a6 f i SetPgChildGui.obj
 0001:000b21a6       ??_GCSetPgChildGui@@UAEPAXI@Z 004b31a6 f i SetPgChildGui.obj
 0001:000b21ce       ?GetPageType@CSetPgChildGui@@UAE?AW4TabHwndIndex@@XZ 004b31ce f i SetPgChildGui.obj
 0001:000b21d2       ?OnInitDialog@CSetPgChildGui@@UAEJPAUHWND__@@_N@Z 004b31d2 f   SetPgChildGui.obj
 0001:000b2212       ??0CSetPgColors@@QAE@XZ    004b3212 f   SetPgColors.obj
 0001:000b222c       ??_GCSetPgColors@@UAEPAXI@Z 004b322c f i SetPgColors.obj
 0001:000b222c       ??_ECSetPgColors@@UAEPAXI@Z 004b322c f i SetPgColors.obj
 0001:000b2254       ?ColorSchemeSaveDelete@CSetPgColors@@QAEXGE@Z 004b3254 f   SetPgColors.obj
 0001:000b232c       ?GetPageType@CSetPgColors@@UAE?AW4TabHwndIndex@@XZ 004b332c f i SetPgColors.obj
 0001:000b2330       ?OnComboBox@CSetPgColors@@UAEHPAUHWND__@@GG@Z 004b3330 f   SetPgColors.obj
 0001:000b25c8       ?OnEditChanged@CSetPgColors@@UAEJPAUHWND__@@G@Z 004b35c8 f   SetPgColors.obj
 0001:000b26c2       ?OnInitDialog@CSetPgColors@@UAEJPAUHWND__@@_N@Z 004b36c2 f   SetPgColors.obj
 0001:000b2968       ??$swprintf_c@$0BIE@@@YAHAAY0BIE@_WPB_WZZ 004b3968 f i SetPgComspec.obj
 0001:000b2981       ??0CSetPgComspec@@QAE@XZ   004b3981 f   SetPgComspec.obj
 0001:000b299b       ??_ECSetPgComspec@@UAEPAXI@Z 004b399b f i SetPgComspec.obj
 0001:000b299b       ??_GCSetPgComspec@@UAEPAXI@Z 004b399b f i SetPgComspec.obj
 0001:000b29c3       ?GetPageType@CSetPgComspec@@UAE?AW4TabHwndIndex@@XZ 004b39c3 f i SetPgComspec.obj
 0001:000b29c7       ?LoadAutorunValue@CSetPgComspec@@QAEPA_WPAUHKEY__@@_N@Z 004b39c7 f   SetPgComspec.obj
 0001:000b2b45       ?OnEditChanged@CSetPgComspec@@UAEJPAUHWND__@@G@Z 004b3b45 f   SetPgComspec.obj
 0001:000b2b71       ?OnInitDialog@CSetPgComspec@@UAEJPAUHWND__@@_N@Z 004b3b71 f   SetPgComspec.obj
 0001:000b2c3a       ?RegisterCmdAutorun@CSetPgComspec@@QAEX_N0@Z 004b3c3a f   SetPgComspec.obj
 0001:000b2e7d       ?ReloadAutorun@CSetPgComspec@@QAEXXZ 004b3e7d f   SetPgComspec.obj
 0001:000b2f37       ??0CSetPgConfirm@@QAE@XZ   004b3f37 f   SetPgConfirm.obj
 0001:000b2f51       ??_GCSetPgConfirm@@UAEPAXI@Z 004b3f51 f i SetPgConfirm.obj
 0001:000b2f51       ??_ECSetPgConfirm@@UAEPAXI@Z 004b3f51 f i SetPgConfirm.obj
 0001:000b2f79       ?GetPageType@CSetPgConfirm@@UAE?AW4TabHwndIndex@@XZ 004b3f79 f i SetPgConfirm.obj
 0001:000b2f7d       ?OnInitDialog@CSetPgConfirm@@UAEJPAUHWND__@@_N@Z 004b3f7d f   SetPgConfirm.obj
 0001:000b3085       ??0CSetPgCursor@@QAE@XZ    004b4085 f   SetPgCursor.obj
 0001:000b309f       ??_GCSetPgCursor@@UAEPAXI@Z 004b409f f i SetPgCursor.obj
 0001:000b309f       ??_ECSetPgCursor@@UAEPAXI@Z 004b409f f i SetPgCursor.obj
 0001:000b30c7       ?GetPageType@CSetPgCursor@@UAE?AW4TabHwndIndex@@XZ 004b40c7 f i SetPgCursor.obj
 0001:000b30cb       ?InitCursorCtrls@CSetPgCursor@@SAXPAUHWND__@@PBUAppSettings@@@Z 004b40cb f   SetPgCursor.obj
 0001:000b3241       ?OnEditChanged@CSetPgCursor@@UAEJPAUHWND__@@G@Z 004b4241 f   SetPgCursor.obj
 0001:000b3291       ?OnEditChangedCursor@CSetPgCursor@@SA_NPAUHWND__@@GPAUAppSettings@@@Z 004b4291 f   SetPgCursor.obj
 0001:000b3386       ?OnInitDialog@CSetPgCursor@@UAEJPAUHWND__@@_N@Z 004b4386 f   SetPgCursor.obj
 0001:000b33a4       ??0CSetPgDebug@@QAE@XZ     004b43a4 f   SetPgDebug.obj
 0001:000b33c6       ??_ECSetPgDebug@@UAEPAXI@Z 004b43c6 f i SetPgDebug.obj
 0001:000b33c6       ??_GCSetPgDebug@@UAEPAXI@Z 004b43c6 f i SetPgDebug.obj
 0001:000b33ee       ?GetActivityLoggingType@CSetPgDebug@@SA?AW4GuiLoggingType@@XZ 004b43ee f   SetPgDebug.obj
 0001:000b3404       ?GetPageType@CSetPgDebug@@UAE?AW4TabHwndIndex@@XZ 004b4404 f i SetPgDebug.obj
 0001:000b3408       ?OnActivityLogNotify@CSetPgDebug@@QAEJIJ@Z 004b4408 f   SetPgDebug.obj
 0001:000b3613       ?OnInitDialog@CSetPgDebug@@UAEJPAUHWND__@@_N@Z 004b4613 f   SetPgDebug.obj
 0001:000b36e6       ?OnSaveActivityLogFile@CSetPgDebug@@QAEXXZ 004b46e6 f   SetPgDebug.obj
 0001:000b39f0       ?SetLoggingType@CSetPgDebug@@QAEXW4GuiLoggingType@@@Z 004b49f0 f   SetPgDebug.obj
 0001:000b4125       ?debugLog@CSetPgDebug@@QAEXIJ@Z 004b5125 f   SetPgDebug.obj
 0001:000b416b       ?debugLogCommand@CSetPgDebug@@QAEXPAULogCommandsData@1@@Z 004b516b f   SetPgDebug.obj
 0001:000b4411       ?debugLogCommand@CSetPgDebug@@SAXPAUCESERVER_REQ@@HKKPB_W0@Z 004b5411 f   SetPgDebug.obj
 0001:000b458e       ?debugLogInfo@CSetPgDebug@@QAEXPAUCESERVER_REQ_PEEKREADINFO@@@Z 004b558e f   SetPgDebug.obj
 0001:000b4c7c       ?debugLogShell@CSetPgDebug@@QAEXPAUDebugLogShellActivity@1@@Z 004b5c7c f   SetPgDebug.obj
 0001:000b517f       ?debugLogShell@CSetPgDebug@@SAXKPAUCESERVER_REQ_ONCREATEPROCESS@@@Z 004b617f f   SetPgDebug.obj
 0001:000b5531       ?debugLogShellText@CSetPgDebug@@KAXAAPA_WPB_W@Z 004b6531 f   SetPgDebug.obj
 0001:000b5613       ?debugLogString@CSetPgDebug@@QAEXPAULogRConString@1@@Z 004b6613 f   SetPgDebug.obj
 0001:000b5793       ??0CSetPgDefTerm@@QAE@XZ   004b6793 f   SetPgDefTerm.obj
 0001:000b57ad       ??_GCSetPgDefTerm@@UAEPAXI@Z 004b67ad f i SetPgDefTerm.obj
 0001:000b57ad       ??_ECSetPgDefTerm@@UAEPAXI@Z 004b67ad f i SetPgDefTerm.obj
 0001:000b57d5       ?GetPageType@CSetPgDefTerm@@UAE?AW4TabHwndIndex@@XZ 004b67d5 f i SetPgDefTerm.obj
 0001:000b57d9       ?OnEditChanged@CSetPgDefTerm@@UAEJPAUHWND__@@G@Z 004b67d9 f   SetPgDefTerm.obj
 0001:000b5854       ?OnInitDialog@CSetPgDefTerm@@UAEJPAUHWND__@@_N@Z 004b6854 f   SetPgDefTerm.obj
 0001:000b59b6       ??0CSetPgEnvironment@@QAE@XZ 004b69b6 f   SetPgEnvironment.obj
 0001:000b59d0       ??_GCSetPgEnvironment@@UAEPAXI@Z 004b69d0 f i SetPgEnvironment.obj
 0001:000b59d0       ??_ECSetPgEnvironment@@UAEPAXI@Z 004b69d0 f i SetPgEnvironment.obj
 0001:000b59f8       ?GetPageType@CSetPgEnvironment@@UAE?AW4TabHwndIndex@@XZ 004b69f8 f i SetPgEnvironment.obj
 0001:000b59fc       ?OnEditChanged@CSetPgEnvironment@@UAEJPAUHWND__@@G@Z 004b69fc f   SetPgEnvironment.obj
 0001:000b5a55       ?OnInitDialog@CSetPgEnvironment@@UAEJPAUHWND__@@_N@Z 004b6a55 f   SetPgEnvironment.obj
 0001:000b5ad7       ??0CSetPgFar@@QAE@XZ       004b6ad7 f   SetPgFar.obj
 0001:000b5af1       ??_GCSetPgFar@@UAEPAXI@Z   004b6af1 f i SetPgFar.obj
 0001:000b5af1       ??_ECSetPgFar@@UAEPAXI@Z   004b6af1 f i SetPgFar.obj
 0001:000b5b19       ?GetPageType@CSetPgFar@@UAE?AW4TabHwndIndex@@XZ 004b6b19 f i SetPgFar.obj
 0001:000b5b1d       ?OnComboBox@CSetPgFar@@UAEHPAUHWND__@@GG@Z 004b6b1d f   SetPgFar.obj
 0001:000b5b64       ?OnEditChanged@CSetPgFar@@UAEJPAUHWND__@@G@Z 004b6b64 f   SetPgFar.obj
 0001:000b5c76       ?OnInitDialog@CSetPgFar@@UAEJPAUHWND__@@_N@Z 004b6c76 f   SetPgFar.obj
 0001:000b5ee1       ??0CSetPgFarMacro@@QAE@XZ  004b6ee1 f   SetPgFarMacro.obj
 0001:000b5efb       ??_GCSetPgFarMacro@@UAEPAXI@Z 004b6efb f i SetPgFarMacro.obj
 0001:000b5efb       ??_ECSetPgFarMacro@@UAEPAXI@Z 004b6efb f i SetPgFarMacro.obj
 0001:000b5f23       ?GetPageType@CSetPgFarMacro@@UAE?AW4TabHwndIndex@@XZ 004b6f23 f i SetPgFarMacro.obj
 0001:000b5f27       ?OnComboBox@CSetPgFarMacro@@UAEHPAUHWND__@@GG@Z 004b6f27 f   SetPgFarMacro.obj
 0001:000b5fdb       ?OnInitDialog@CSetPgFarMacro@@UAEJPAUHWND__@@_N@Z 004b6fdb f   SetPgFarMacro.obj
 0001:000b6149       ??0CSetPgFeatures@@QAE@XZ  004b7149 f   SetPgFeatures.obj
 0001:000b6163       ??_GCSetPgFeatures@@UAEPAXI@Z 004b7163 f i SetPgFeatures.obj
 0001:000b6163       ??_ECSetPgFeatures@@UAEPAXI@Z 004b7163 f i SetPgFeatures.obj
 0001:000b618b       ?GetPageType@CSetPgFeatures@@UAE?AW4TabHwndIndex@@XZ 004b718b f i SetPgFeatures.obj
 0001:000b618f       ?OnEditChanged@CSetPgFeatures@@UAEJPAUHWND__@@G@Z 004b718f f   SetPgFeatures.obj
 0001:000b61e7       ?OnInitDialog@CSetPgFeatures@@UAEJPAUHWND__@@_N@Z 004b71e7 f   SetPgFeatures.obj
 0001:000b647c       ?UpdateLogLocation@CSetPgFeatures@@IAEXXZ 004b747c f   SetPgFeatures.obj
 0001:000b64f7       ??0CSetPgFonts@@QAE@XZ     004b74f7 f   SetPgFonts.obj
 0001:000b6511       ??_GCSetPgFonts@@UAEPAXI@Z 004b7511 f i SetPgFonts.obj
 0001:000b6511       ??_ECSetPgFonts@@UAEPAXI@Z 004b7511 f i SetPgFonts.obj
 0001:000b6539       ?CopyFontsTo@CSetPgFonts@@QAAXPAUHWND__@@HZZ 004b7539 f   SetPgFonts.obj
 0001:000b674f       ?OnComboBox@CSetPgFonts@@UAEHPAUHWND__@@GG@Z 004b774f f   SetPgFonts.obj
 0001:000b68d1       ?OnInitDialog@CSetPgFonts@@UAEJPAUHWND__@@_N@Z 004b78d1 f   SetPgFonts.obj
 0001:000b6d8d       ??0CSetPgGeneral@@QAE@XZ   004b7d8d f   SetPgGeneral.obj
 0001:000b6db5       ??1CSetPgGeneral@@UAE@XZ   004b7db5 f   SetPgGeneral.obj
 0001:000b6dce       ??_ECSetPgGeneral@@UAEPAXI@Z 004b7dce f i SetPgGeneral.obj
 0001:000b6dce       ??_GCSetPgGeneral@@UAEPAXI@Z 004b7dce f i SetPgGeneral.obj
 0001:000b6df0       ?ColorBoxProc@CSetPgGeneral@@KGJPAUHWND__@@IIJ@Z 004b7df0 f   SetPgGeneral.obj
 0001:000b6ebf       ?OnComboBox@CSetPgGeneral@@UAEHPAUHWND__@@GG@Z 004b7ebf f   SetPgGeneral.obj
 0001:000b701d       ?OnInitDialog@CSetPgGeneral@@UAEJPAUHWND__@@_N@Z 004b801d f   SetPgGeneral.obj
 0001:000b74f6       ??0CSetPgHilight@@QAE@XZ   004b84f6 f   SetPgHilight.obj
 0001:000b7510       ??_ECSetPgHilight@@UAEPAXI@Z 004b8510 f i SetPgHilight.obj
 0001:000b7510       ??_GCSetPgHilight@@UAEPAXI@Z 004b8510 f i SetPgHilight.obj
 0001:000b7538       ?GetPageType@CSetPgHilight@@UAE?AW4TabHwndIndex@@XZ 004b8538 f i SetPgHilight.obj
 0001:000b753c       ?OnComboBox@CSetPgHilight@@UAEHPAUHWND__@@GG@Z 004b853c f   SetPgHilight.obj
 0001:000b75c3       ?OnInitDialog@CSetPgHilight@@UAEJPAUHWND__@@_N@Z 004b85c3 f   SetPgHilight.obj
 0001:000b76c1       ??0CSetPgInfo@@QAE@XZ      004b86c1 f   SetPgInfo.obj
 0001:000b76db       ??_ECSetPgInfo@@UAEPAXI@Z  004b86db f i SetPgInfo.obj
 0001:000b76db       ??_GCSetPgInfo@@UAEPAXI@Z  004b86db f i SetPgInfo.obj
 0001:000b7703       ?FillConsoleMode@CSetPgInfo@@QAEXPAUHWND__@@PAVCRealConsole@@@Z 004b8703 f   SetPgInfo.obj
 0001:000b77eb       ?FillCursorInfo@CSetPgInfo@@QAEXPAUHWND__@@PBUConsoleInfoArg@@@Z 004b87eb f   SetPgInfo.obj
 0001:000b785a       ?FillFontInfo@CSetPgInfo@@QAEXPAUHWND__@@@Z 004b885a f   SetPgInfo.obj
 0001:000b794d       ?GetPageType@CSetPgInfo@@UAE?AW4TabHwndIndex@@XZ 004b894d f i SetPgInfo.obj
 0001:000b7951       ?OnInitDialog@CSetPgInfo@@UAEJPAUHWND__@@_N@Z 004b8951 f   SetPgInfo.obj
 0001:000b79fa       ?OnPostLocalize@CSetPgInfo@@UAEXPAUHWND__@@@Z 004b89fa f   SetPgInfo.obj
 0001:000b7a5f       ??$SafeDelete@USwitch@@@@YAXAAPAUSwitch@@@Z 004b8a5f f i SetPgIntegr.obj
 0001:000b7a90       ??0CSetPgIntegr@@QAE@XZ    004b8a90 f   SetPgIntegr.obj
 0001:000b7aaa       ??0Switch@@QAE@$$QAPA_W0@Z 004b8aaa f i SetPgIntegr.obj
 0001:000b7aef       ??0SwitchParser@@QAE@XZ    004b8aef f i SetPgIntegr.obj
 0001:000b7b54       ??1SwitchParser@@QAE@XZ    004b8b54 f i SetPgIntegr.obj
 0001:000b7bbe       ??_ECSetPgIntegr@@UAEPAXI@Z 004b8bbe f i SetPgIntegr.obj
 0001:000b7bbe       ??_GCSetPgIntegr@@UAEPAXI@Z 004b8bbe f i SetPgIntegr.obj
 0001:000b7be6       ??_GSwitch@@QAEPAXI@Z      004b8be6 f i SetPgIntegr.obj
 0001:000b7c12       ?CreateCommand@SwitchParser@@QAEPB_WAAUCEStr@@@Z 004b8c12 f i SetPgIntegr.obj
 0001:000b7d54       ?FillHereValues@CSetPgIntegr@@IAEXG@Z 004b8d54 f   SetPgIntegr.obj
 0001:000b807d       ?GetNextPair@SwitchParser@@QAEPAUSwitch@@AAPB_W@Z 004b907d f i SetPgIntegr.obj
 0001:000b80e1       ?GetNextSwitch@SwitchParser@@QAEPAUSwitch@@AAPB_WAAUCEStr@@@Z 004b90e1 f i SetPgIntegr.obj
 0001:000b8179       ?GetPageType@CSetPgIntegr@@UAE?AW4TabHwndIndex@@XZ 004b9179 f i SetPgIntegr.obj
 0001:000b817d       ?IsIgnored@SwitchParser@@QAE_NPAUSwitch@@AAV?$MArray@PAUSwitch@@@@@Z 004b917d f i SetPgIntegr.obj
 0001:000b81dd       ?IsIgnored@SwitchParser@@QAE_NPAUSwitch@@PAPB_W@Z 004b91dd f i SetPgIntegr.obj
 0001:000b8211       ?LoadCommand@SwitchParser@@QAEXPB_W@Z 004b9211 f i SetPgIntegr.obj
 0001:000b8488       ?OnInitDialog@CSetPgIntegr@@UAEJPAUHWND__@@_N@Z 004b9488 f   SetPgIntegr.obj
 0001:000b8658       ?PageDlgProc@CSetPgIntegr@@UAEHPAUHWND__@@IIJ@Z 004b9658 f   SetPgIntegr.obj
 0001:000b8833       ?ParseStdSwitches@SwitchParser@@QAEXXZ 004b9833 f i SetPgIntegr.obj
 0001:000b88db       ?RegisterShell@CSetPgIntegr@@SAXPB_W0000@Z 004b98db f   SetPgIntegr.obj
 0001:000b8cec       ?ReleaseVectors@SwitchParser@@QAEXXZ 004b9cec f i SetPgIntegr.obj
 0001:000b8d2d       ?ReloadHereList@CSetPgIntegr@@IAE_NPAH0@Z 004b9d2d f   SetPgIntegr.obj
 0001:000b9189       ?ShellIntegration@CSetPgIntegr@@QAEXPAUHWND__@@W4ShellIntegrType@1@_N2@Z 004ba189 f   SetPgIntegr.obj
 0001:000b941c       ?UnregisterShell@CSetPgIntegr@@SAXPB_W@Z 004ba41c f   SetPgIntegr.obj
 0001:000b9478       ?UnregisterShellInvalids@CSetPgIntegr@@SAXXZ 004ba478 f   SetPgIntegr.obj
 0001:000b9705       ??0CSetPgKeyboard@@QAE@XZ  004ba705 f   SetPgKeyboard.obj
 0001:000b971f       ??_GCSetPgKeyboard@@UAEPAXI@Z 004ba71f f i SetPgKeyboard.obj
 0001:000b971f       ??_ECSetPgKeyboard@@UAEPAXI@Z 004ba71f f i SetPgKeyboard.obj
 0001:000b9747       ?GetPageType@CSetPgKeyboard@@UAE?AW4TabHwndIndex@@XZ 004ba747 f i SetPgKeyboard.obj
 0001:000b974b       ?OnInitDialog@CSetPgKeyboard@@UAEJPAUHWND__@@_N@Z 004ba74b f   SetPgKeyboard.obj
 0001:000b98c6       ??$GetPageObj@VCSetPgKeys@@@CSettings@@QAE_NAAPAVCSetPgKeys@@@Z 004ba8c6 f i SetPgKeys.obj
 0001:000b98f5       ??0CSetPgKeys@@QAE@XZ      004ba8f5 f   SetPgKeys.obj
 0001:000b992f       ??1CSetPgKeys@@UAE@XZ      004ba92f f   SetPgKeys.obj
 0001:000b9948       ??_ECSetPgKeys@@UAEPAXI@Z  004ba948 f i SetPgKeys.obj
 0001:000b9948       ??_GCSetPgKeys@@UAEPAXI@Z  004ba948 f i SetPgKeys.obj
 0001:000b996a       ?FillHotKeysList@CSetPgKeys@@QAEXPAUHWND__@@_N@Z 004ba96a f   SetPgKeys.obj
 0001:000b9f0a       ?GetPageType@CSetPgKeys@@UAE?AW4TabHwndIndex@@XZ 004baf0a f i SetPgKeys.obj
 0001:000b9f0e       ?HotkeysCompare@CSetPgKeys@@SGHJJJ@Z 004baf0e f   SetPgKeys.obj
 0001:000ba05e       ?OnButtonClicked@CSetPgKeys@@UAEHPAUHWND__@@0G@Z 004bb05e f   SetPgKeys.obj
 0001:000ba07f       ?OnComboBox@CSetPgKeys@@UAEHPAUHWND__@@GG@Z 004bb07f f   SetPgKeys.obj
 0001:000ba326       ?OnEditChanged@CSetPgKeys@@UAEJPAUHWND__@@G@Z 004bb326 f   SetPgKeys.obj
 0001:000ba439       ?OnHotkeysNotify@CSetPgKeys@@QAEJPAUHWND__@@IJ@Z 004bb439 f   SetPgKeys.obj
 0001:000ba945       ?OnInitDialog@CSetPgKeys@@UAEJPAUHWND__@@_N@Z 004bb945 f   SetPgKeys.obj
 0001:000babea       ?PageDlgProc@CSetPgKeys@@UAEHPAUHWND__@@IIJ@Z 004bbbea f   SetPgKeys.obj
 0001:000baca7       ?QueryDialogCancel@CSetPgKeys@@UAE_NXZ 004bbca7 f   SetPgKeys.obj
 0001:000bacf8       ?ReInitHotkeys@CSetPgKeys@@SAXXZ 004bbcf8 f   SetPgKeys.obj
 0001:000bad2e       ?RefilterHotkeys@CSetPgKeys@@QAEX_N@Z 004bbd2e f   SetPgKeys.obj
 0001:000bad55       ?SetHotkeyVkMod@CSetPgKeys@@QAEXPAUConEmuHotKey@@K@Z 004bbd55 f   SetPgKeys.obj
 0001:000bad80       ??$GetPageObj@VCSetPgMarkCopy@@@CSettings@@QAE_NAAPAVCSetPgMarkCopy@@@Z 004bbd80 f i SetPgMarkCopy.obj
 0001:000badaf       ??0CSetPgMarkCopy@@QAE@XZ  004bbdaf f   SetPgMarkCopy.obj
 0001:000badcd       ??_GCSetPgMarkCopy@@UAEPAXI@Z 004bbdcd f i SetPgMarkCopy.obj
 0001:000badcd       ??_ECSetPgMarkCopy@@UAEPAXI@Z 004bbdcd f i SetPgMarkCopy.obj
 0001:000badf5       ?GetPageType@CSetPgMarkCopy@@UAE?AW4TabHwndIndex@@XZ 004bbdf5 f i SetPgMarkCopy.obj
 0001:000badf9       ?MarkCopyPreviewProc@CSetPgMarkCopy@@KGJPAUHWND__@@IIJ@Z 004bbdf9 f   SetPgMarkCopy.obj
 0001:000bb0cf       ?OnComboBox@CSetPgMarkCopy@@UAEHPAUHWND__@@GG@Z 004bc0cf f   SetPgMarkCopy.obj
 0001:000bb26a       ?OnEditChanged@CSetPgMarkCopy@@UAEJPAUHWND__@@G@Z 004bc26a f   SetPgMarkCopy.obj
 0001:000bb2b0       ?OnInitDialog@CSetPgMarkCopy@@UAEJPAUHWND__@@_N@Z 004bc2b0 f   SetPgMarkCopy.obj
 0001:000bb645       ??0CSetPgMouse@@QAE@XZ     004bc645 f   SetPgMouse.obj
 0001:000bb65f       ??_ECSetPgMouse@@UAEPAXI@Z 004bc65f f i SetPgMouse.obj
 0001:000bb65f       ??_GCSetPgMouse@@UAEPAXI@Z 004bc65f f i SetPgMouse.obj
 0001:000bb687       ?GetPageType@CSetPgMouse@@UAE?AW4TabHwndIndex@@XZ 004bc687 f i SetPgMouse.obj
 0001:000bb68b       ?OnComboBox@CSetPgMouse@@UAEHPAUHWND__@@GG@Z 004bc68b f   SetPgMouse.obj
 0001:000bb756       ?OnInitDialog@CSetPgMouse@@UAEJPAUHWND__@@_N@Z 004bc756 f   SetPgMouse.obj
 0001:000bb8a9       ?OnPostLocalize@CSetPgMouse@@UAEXPAUHWND__@@@Z 004bc8a9 f   SetPgMouse.obj
 0001:000bb8cc       ??0CSetPgPaste@@QAE@XZ     004bc8cc f   SetPgPaste.obj
 0001:000bb8e6       ??_GCSetPgPaste@@UAEPAXI@Z 004bc8e6 f i SetPgPaste.obj
 0001:000bb8e6       ??_ECSetPgPaste@@UAEPAXI@Z 004bc8e6 f i SetPgPaste.obj
 0001:000bb90e       ?GetPageType@CSetPgPaste@@UAE?AW4TabHwndIndex@@XZ 004bc90e f i SetPgPaste.obj
 0001:000bb912       ?OnBtn_AutoTrimSingleLine@CSetPgPaste@@SAXPAUHWND__@@GE@Z 004bc912 f   SetPgPaste.obj
 0001:000bb929       ?OnBtn_ClipConfirmEnter@CSetPgPaste@@SAXPAUHWND__@@GE@Z 004bc929 f   SetPgPaste.obj
 0001:000bb940       ?OnBtn_ClipConfirmLimit@CSetPgPaste@@SAXPAUHWND__@@GE@Z 004bc940 f   SetPgPaste.obj
 0001:000bb9b2       ?OnBtn_ClipCtrlV@CSetPgPaste@@SAXPAUHWND__@@GE@Z 004bc9b2 f   SetPgPaste.obj
 0001:000bba07       ?OnBtn_ClipPosixCvt@CSetPgPaste@@SAXPAUHWND__@@GE@Z 004bca07 f   SetPgPaste.obj
 0001:000bba4b       ?OnBtn_ClipShiftIns@CSetPgPaste@@SAXPAUHWND__@@GE@Z 004bca4b f   SetPgPaste.obj
 0001:000bbaa0       ?OnEditChanged@CSetPgPaste@@UAEJPAUHWND__@@G@Z 004bcaa0 f   SetPgPaste.obj
 0001:000bbb44       ?OnInitDialog@CSetPgPaste@@UAEJPAUHWND__@@_N@Z 004bcb44 f   SetPgPaste.obj
 0001:000bbc5b       ?OnPostLocalize@CSetPgPaste@@UAEXPAUHWND__@@@Z 004bcc5b f   SetPgPaste.obj
 0001:000bbc9b       ??0CSetPgQuake@@QAE@XZ     004bcc9b f   SetPgQuake.obj
 0001:000bbcb5       ??_ECSetPgQuake@@UAEPAXI@Z 004bccb5 f i SetPgQuake.obj
 0001:000bbcb5       ??_GCSetPgQuake@@UAEPAXI@Z 004bccb5 f i SetPgQuake.obj
 0001:000bbcdd       ?GetPageType@CSetPgQuake@@UAE?AW4TabHwndIndex@@XZ 004bccdd f i SetPgQuake.obj
 0001:000bbce1       ?OnEditChanged@CSetPgQuake@@UAEJPAUHWND__@@G@Z 004bcce1 f   SetPgQuake.obj
 0001:000bbdf7       ?OnInitDialog@CSetPgQuake@@UAEJPAUHWND__@@_N@Z 004bcdf7 f   SetPgQuake.obj
 0001:000bbf0b       ??0CSetPgSizePos@@QAE@XZ   004bcf0b f   SetPgSizePos.obj
 0001:000bbf25       ??_ECSetPgSizePos@@UAEPAXI@Z 004bcf25 f i SetPgSizePos.obj
 0001:000bbf25       ??_GCSetPgSizePos@@UAEPAXI@Z 004bcf25 f i SetPgSizePos.obj
 0001:000bbf4d       ?EnablePosSizeControls@CSetPgSizePos@@QAEXPAUHWND__@@@Z 004bcf4d f   SetPgSizePos.obj
 0001:000bbffe       ?FillSizeControls@CSetPgSizePos@@QAEXPAUHWND__@@@Z 004bcffe f   SetPgSizePos.obj
 0001:000bc0aa       ?GetPageType@CSetPgSizePos@@UAE?AW4TabHwndIndex@@XZ 004bd0aa f i SetPgSizePos.obj
 0001:000bc0ae       ?OnComboBox@CSetPgSizePos@@UAEHPAUHWND__@@GG@Z 004bd0ae f   SetPgSizePos.obj
 0001:000bc106       ?OnEditChanged@CSetPgSizePos@@UAEJPAUHWND__@@G@Z 004bd106 f   SetPgSizePos.obj
 0001:000bc362       ?OnInitDialog@CSetPgSizePos@@UAEJPAUHWND__@@_N@Z 004bd362 f   SetPgSizePos.obj
 0001:000bc694       ?OnPostLocalize@CSetPgSizePos@@UAEXPAUHWND__@@@Z 004bd694 f   SetPgSizePos.obj
 0001:000bc734       ??0CSetPgStartup@@QAE@XZ   004bd734 f   SetPgStartup.obj
 0001:000bc74e       ??_GCSetPgStartup@@UAEPAXI@Z 004bd74e f i SetPgStartup.obj
 0001:000bc74e       ??_ECSetPgStartup@@UAEPAXI@Z 004bd74e f i SetPgStartup.obj
 0001:000bc776       ?GetPageType@CSetPgStartup@@UAE?AW4TabHwndIndex@@XZ 004bd776 f i SetPgStartup.obj
 0001:000bc77a       ?OnInitDialog@CSetPgStartup@@UAEJPAUHWND__@@_N@Z 004bd77a f   SetPgStartup.obj
 0001:000bc797       ?PageDlgProc@CSetPgStartup@@UAEHPAUHWND__@@IIJ@Z 004bd797 f   SetPgStartup.obj
 0001:000bcef3       ??0CSetPgStatus@@QAE@XZ    004bdef3 f   SetPgStatus.obj
 0001:000bcf0d       ??_ECSetPgStatus@@UAEPAXI@Z 004bdf0d f i SetPgStatus.obj
 0001:000bcf0d       ??_GCSetPgStatus@@UAEPAXI@Z 004bdf0d f i SetPgStatus.obj
 0001:000bcf35       ?GetPageType@CSetPgStatus@@UAE?AW4TabHwndIndex@@XZ 004bdf35 f i SetPgStatus.obj
 0001:000bcf39       ?OnComboBox@CSetPgStatus@@UAEHPAUHWND__@@GG@Z 004bdf39 f   SetPgStatus.obj
 0001:000bd068       ?OnEditChanged@CSetPgStatus@@UAEJPAUHWND__@@G@Z 004be068 f   SetPgStatus.obj
 0001:000bd0d9       ?OnInitDialog@CSetPgStatus@@UAEJPAUHWND__@@_N@Z 004be0d9 f   SetPgStatus.obj
 0001:000bd24b       ?UpdateStatusItems@CSetPgStatus@@QAEXPAUHWND__@@@Z 004be24b f   SetPgStatus.obj
 0001:000bd384       ??0CSetPgTabs@@QAE@XZ      004be384 f   SetPgTabs.obj
 0001:000bd39e       ??_GCSetPgTabs@@UAEPAXI@Z  004be39e f i SetPgTabs.obj
 0001:000bd39e       ??_ECSetPgTabs@@UAEPAXI@Z  004be39e f i SetPgTabs.obj
 0001:000bd3c6       ?GetPageType@CSetPgTabs@@UAE?AW4TabHwndIndex@@XZ 004be3c6 f i SetPgTabs.obj
 0001:000bd3ca       ?OnComboBox@CSetPgTabs@@UAEHPAUHWND__@@GG@Z 004be3ca f   SetPgTabs.obj
 0001:000bd597       ?OnEditChanged@CSetPgTabs@@UAEJPAUHWND__@@G@Z 004be597 f   SetPgTabs.obj
 0001:000bd78e       ?OnInitDialog@CSetPgTabs@@UAEJPAUHWND__@@_N@Z 004be78e f   SetPgTabs.obj
 0001:000bda39       ??0CSetPgTaskbar@@QAE@XZ   004bea39 f   SetPgTaskbar.obj
 0001:000bda53       ??_ECSetPgTaskbar@@UAEPAXI@Z 004bea53 f i SetPgTaskbar.obj
 0001:000bda53       ??_GCSetPgTaskbar@@UAEPAXI@Z 004bea53 f i SetPgTaskbar.obj
 0001:000bda7b       ?GetPageType@CSetPgTaskbar@@UAE?AW4TabHwndIndex@@XZ 004bea7b f i SetPgTaskbar.obj
 0001:000bda7f       ?OnInitDialog@CSetPgTaskbar@@UAEJPAUHWND__@@_N@Z 004bea7f f   SetPgTaskbar.obj
 0001:000bdd70       ??0CSetPgTasks@@QAE@XZ     004bed70 f   SetPgTasks.obj
 0001:000bdd90       ??_GCSetPgTasks@@UAEPAXI@Z 004bed90 f i SetPgTasks.obj
 0001:000bdd90       ??_ECSetPgTasks@@UAEPAXI@Z 004bed90 f i SetPgTasks.obj
 0001:000bddb8       ?GetPageType@CSetPgTasks@@UAE?AW4TabHwndIndex@@XZ 004bedb8 f i SetPgTasks.obj
 0001:000bddbc       ?OnComboBox@CSetPgTasks@@UAEHPAUHWND__@@GG@Z 004bedbc f   SetPgTasks.obj
 0001:000be01d       ?OnEditChanged@CSetPgTasks@@UAEJPAUHWND__@@G@Z 004bf01d f   SetPgTasks.obj
 0001:000be1c3       ?OnInitDialog@CSetPgTasks@@UAEJPAUHWND__@@_N@Z 004bf1c3 f   SetPgTasks.obj
 0001:000be3bb       ?SelectNextItem@CSetPgTasks@@UAE_N_N0@Z 004bf3bb f   SetPgTasks.obj
 0001:000be42a       ??0CSetPgTransparent@@QAE@XZ 004bf42a f   SetPgTransparent.obj
 0001:000be444       ??_GCSetPgTransparent@@UAEPAXI@Z 004bf444 f i SetPgTransparent.obj
 0001:000be444       ??_ECSetPgTransparent@@UAEPAXI@Z 004bf444 f i SetPgTransparent.obj
 0001:000be46c       ?GetPageType@CSetPgTransparent@@UAE?AW4TabHwndIndex@@XZ 004bf46c f i SetPgTransparent.obj
 0001:000be470       ?OnInitDialog@CSetPgTransparent@@UAEJPAUHWND__@@_N@Z 004bf470 f   SetPgTransparent.obj
 0001:000be5d0       ??0CSetPgUpdate@@QAE@XZ    004bf5d0 f   SetPgUpdate.obj
 0001:000be5ea       ??_GCSetPgUpdate@@UAEPAXI@Z 004bf5ea f i SetPgUpdate.obj
 0001:000be5ea       ??_ECSetPgUpdate@@UAEPAXI@Z 004bf5ea f i SetPgUpdate.obj
 0001:000be612       ?GetPageType@CSetPgUpdate@@UAE?AW4TabHwndIndex@@XZ 004bf612 f i SetPgUpdate.obj
 0001:000be616       ?OnEditChanged@CSetPgUpdate@@UAEJPAUHWND__@@G@Z 004bf616 f   SetPgUpdate.obj
 0001:000be6fe       ?OnInitDialog@CSetPgUpdate@@UAEJPAUHWND__@@_N@Z 004bf6fe f   SetPgUpdate.obj
 0001:000be946       ??0CSetPgViews@@QAE@XZ     004bf946 f   SetPgViews.obj
 0001:000be960       ??_GCSetPgViews@@UAEPAXI@Z 004bf960 f i SetPgViews.obj
 0001:000be960       ??_ECSetPgViews@@UAEPAXI@Z 004bf960 f i SetPgViews.obj
 0001:000be988       ?GetPageType@CSetPgViews@@UAE?AW4TabHwndIndex@@XZ 004bf988 f i SetPgViews.obj
 0001:000be98c       ?OnComboBox@CSetPgViews@@UAEHPAUHWND__@@GG@Z 004bf98c f   SetPgViews.obj
 0001:000bebb4       ?OnEditChanged@CSetPgViews@@UAEJPAUHWND__@@G@Z 004bfbb4 f   SetPgViews.obj
 0001:000bed98       ?OnInitDialog@CSetPgViews@@UAEJPAUHWND__@@_N@Z 004bfd98 f   SetPgViews.obj
 0001:000bf1c8       ??0<unnamed-type-m_size>@SizeInfo@@QAE@XZ 004c01c8 f i SizeInfo.obj
 0001:000bf1f0       ??0SizeInfo@@QAE@ABV0@@Z   004c01f0 f   SizeInfo.obj
 0001:000bf237       ??0SizeInfo@@QAE@PAVCConEmuMain@@@Z 004c0237 f   SizeInfo.obj
 0001:000bf279       ??1SizeInfo@@UAE@XZ        004c0279 f   SizeInfo.obj
 0001:000bf287       ??_GSizeInfo@@UAEPAXI@Z    004c0287 f i SizeInfo.obj
 0001:000bf287       ??_ESizeInfo@@UAEPAXI@Z    004c0287 f i SizeInfo.obj
 0001:000bf2ac       ?ClientRect@SizeInfo@@QAE?AUtagRECT@@XZ 004c02ac f   SizeInfo.obj
 0001:000bf2cd       ?CreateSelfFrameRgn@SizeInfo@@QAEPAUHRGN__@@XZ 004c02cd f   SizeInfo.obj
 0001:000bf37b       ?DoCalculate@SizeInfo@@IAEXXZ 004c037b f   SizeInfo.obj
 0001:000bf7ed       ?FrameMargins@SizeInfo@@QAE?AUtagRECT@@XZ 004c07ed f   SizeInfo.obj
 0001:000bf80b       ?GetDefaultTabbarHeight@SizeInfo@@QBEHXZ 004c080b f   SizeInfo.obj
 0001:000bf88d       ?GetRectState@SizeInfo@@QBEABUWindowRectangles@1@XZ 004c088d f   SizeInfo.obj
 0001:000bf891       ?IsRectMinimized@SizeInfo@@SA_NABUtagRECT@@@Z 004c0891 f   SizeInfo.obj
 0001:000bf8bc       ?IsRectMinimized@SizeInfo@@SA_NHH@Z 004c08bc f   SizeInfo.obj
 0001:000bf8d6       ?LogRequest@SizeInfo@@IAEXABUtagRECT@@PB_W@Z 004c08d6 f   SizeInfo.obj
 0001:000bf967       ?LogRequest@SizeInfo@@IAEXHPB_W@Z 004c0967 f   SizeInfo.obj
 0001:000bf9bc       ?LogRequest@SizeInfo@@IAEXPB_W0@Z 004c09bc f   SizeInfo.obj
 0001:000bfa36       ?RealClientRect@SizeInfo@@QAE?AUtagRECT@@XZ 004c0a36 f   SizeInfo.obj
 0001:000bfa54       ?RebarRect@SizeInfo@@QAE?AUtagRECT@@XZ 004c0a54 f   SizeInfo.obj
 0001:000bfa75       ?RequestDpi@SizeInfo@@QAEXABUDpiValue@@@Z 004c0a75 f   SizeInfo.obj
 0001:000bfacb       ?RequestPos@SizeInfo@@QAEXHH@Z 004c0acb f   SizeInfo.obj
 0001:000bfb4c       ?RequestRecalc@SizeInfo@@QAEXXZ 004c0b4c f   SizeInfo.obj
 0001:000bfb51       ?RequestRect@SizeInfo@@QAEXABUtagRECT@@@Z 004c0b51 f   SizeInfo.obj
 0001:000bfb65       ?RequestRectInt@SizeInfo@@IAEXABUtagRECT@@PB_W@Z 004c0b65 f   SizeInfo.obj
 0001:000bfd82       ?RequestSize@SizeInfo@@QAEXHH@Z 004c0d82 f   SizeInfo.obj
 0001:000bfdd8       ?StatusRect@SizeInfo@@QAE?AUtagRECT@@XZ 004c0dd8 f   SizeInfo.obj
 0001:000bfdf9       ?WindowRect@SizeInfo@@QAE?AUtagRECT@@XZ 004c0df9 f   SizeInfo.obj
 0001:000bfe17       ?WorkspaceRect@SizeInfo@@QAE?AUtagRECT@@XZ 004c0e17 f   SizeInfo.obj
 0001:000bfe38       ?isCalculated@SizeInfo@@QBE_NXZ 004c0e38 f   SizeInfo.obj
 0001:000bfe3c       ?Transparent_IsMenuChecked@CStatus@@SAHHPAH@Z 004c0e3c f   Status.obj
 0001:000bfedc       ?Zoom_IsMenuChecked@CStatus@@SAHHPAH@Z 004c0edc f   Status.obj
 0001:000bff17       ?TermMode_IsMenuChecked@CStatus@@SAHHPAH@Z 004c0f17 f   Status.obj
 0001:000bff9f       ??0CStatus@@QAE@PAVCConEmuMain@@@Z 004c0f9f f   Status.obj
 0001:000c01c5       ??1CStatus@@UAE@XZ         004c11c5 f   Status.obj
 0001:000c01ff       ??_GCStatus@@UAEPAXI@Z     004c11ff f i Status.obj
 0001:000c01ff       ??_ECStatus@@UAEPAXI@Z     004c11ff f i Status.obj
 0001:000c0224       ?CreateStatusMenu@CStatus@@IAEPAUHMENU__@@PAUStatusMenuOptions@1@I@Z 004c1224 f   Status.obj
 0001:000c02f9       ?GetAllStatusCols@CStatus@@SAIPAPAUStatusColInfo@@@Z 004c12f9 f   Status.obj
 0001:000c030e       ?GetSettingName@CStatus@@QAEPB_WW4CEStatusItems@@@Z 004c130e f   Status.obj
 0001:000c0331       ?GetStatusBarClientRect@CStatus@@QAE_NAAUtagRECT@@@Z 004c1331 f   Status.obj
 0001:000c0385       ?GetStatusBarItemRect@CStatus@@QAE_NW4CEStatusItems@@PAUtagRECT@@@Z 004c1385 f   Status.obj
 0001:000c03e8       ?GetStatusMenuItem@CStatus@@IAEPAUStatusMenuOptions@1@GPAU21@I@Z 004c13e8 f   Status.obj
 0001:000c041e       ?InvalidateStatusBar@CStatus@@QAEXPAUtagRECT@@@Z 004c141e f   Status.obj
 0001:000c0494       ?IsCursorOverResizeMark@CStatus@@QAE_NABUtagPOINT@@@Z 004c1494 f   Status.obj
 0001:000c04c7       ?IsKeyboardChanged@CStatus@@AAE_NXZ 004c14c7 f   Status.obj
 0001:000c0635       ?IsResizeAllowed@CStatus@@QAE_NXZ 004c1635 f   Status.obj
 0001:000c0673       ?IsTimeChanged@CStatus@@AAE_NXZ 004c1673 f   Status.obj
 0001:000c0716       ?IsWindowChanged@CStatus@@AAE_NXZ 004c1716 f   Status.obj
 0001:000c08d8       ?LoadActiveProcess@CStatus@@AAE_NPAVCRealConsole@@PA_WH@Z 004c18d8 f   Status.obj
 0001:000c0933       ?OnActiveVConChanged@CStatus@@QAEXHPAVCRealConsole@@@Z 004c1933 f   Status.obj
 0001:000c0adc       ?OnConsoleBufferChanged@CStatus@@QAEXPAVCRealConsole@@@Z 004c1adc f   Status.obj
 0001:000c0bb4       ?OnConsoleChanged@CStatus@@QAEXPBU_CONSOLE_SCREEN_BUFFER_INFO@@PBU_CONSOLE_CURSOR_INFO@@PBUTOPLEFTCOORD@@_N@Z 004c1bb4 f   Status.obj
 0001:000c0e8c       ?OnCursorChanged@CStatus@@QAEXPBU_COORD@@PBU_CONSOLE_CURSOR_INFO@@HH@Z 004c1e8c f   Status.obj
 0001:000c10a4       ?OnDataChanged@CStatus@@AAE_NPAW4CEStatusItems@@I_N@Z 004c20a4 f   Status.obj
 0001:000c1123       ?OnKeyboardChanged@CStatus@@QAEXXZ 004c2123 f   Status.obj
 0001:000c113c       ?OnServerChanged@CStatus@@QAEXKK@Z 004c213c f   Status.obj
 0001:000c11cc       ?OnTimer@CStatus@@QAEXXZ   004c21cc f   Status.obj
 0001:000c12c8       ?OnTransparency@CStatus@@QAEXXZ 004c22c8 f   Status.obj
 0001:000c134e       ?OnWindowReposition@CStatus@@QAEXPBUtagRECT@@@Z 004c234e f   Status.obj
 0001:000c1629       ?PaintStatus@CStatus@@QAEXPAUHDC__@@PAUtagRECT@@@Z 004c2629 f   Status.obj
 0001:000c268b       ?ProcessMenuHighlight@CStatus@@QAEXPAUHMENU__@@GG@Z 004c368b f   Status.obj
 0001:000c26f3       ?ProcessStatusMessage@CStatus@@QAE_NPAUHWND__@@IIJUtagPOINT@@AAJ@Z 004c36f3 f   Status.obj
 0001:000c2b22       ?ProcessTermModeMenuId@CStatus@@AAE_NG@Z 004c3b22 f   Status.obj
 0001:000c2ba6       ?ProcessTransparentMenuId@CStatus@@AAE_NG_N@Z 004c3ba6 f   Status.obj
 0001:000c2c75       ?ProcessZoomMenuId@CStatus@@AAE_NG@Z 004c3c75 f   Status.obj
 0001:000c2ca5       ?SetClickedItemDesc@CStatus@@AAEXW4CEStatusItems@@@Z 004c3ca5 f   Status.obj
 0001:000c2cde       ?SetStatus@CStatus@@QAEXPB_W@Z 004c3cde f   Status.obj
 0001:000c2d5a       ?ShowStatusBarMenu@CStatus@@IAEHUtagPOINT@@PAUHMENU__@@W4CEStatusItems@@@Z 004c3d5a f   Status.obj
 0001:000c2e09       ?ShowStatusSetupMenu@CStatus@@AAEXXZ 004c3e09 f   Status.obj
 0001:000c313e       ?ShowTermModeMenu@CStatus@@AAEXUtagPOINT@@@Z 004c413e f   Status.obj
 0001:000c318a       ?ShowTransparencyMenu@CStatus@@AAEXUtagPOINT@@@Z 004c418a f   Status.obj
 0001:000c3238       ?ShowVConMenu@CStatus@@AAEXUtagPOINT@@@Z 004c4238 f   Status.obj
 0001:000c326d       ?ShowZoomMenu@CStatus@@AAEXUtagPOINT@@@Z 004c426d f   Status.obj
 0001:000c32f0       ?UpdateStatusBar@CStatus@@QAEX_N0@Z 004c42f0 f   Status.obj
 0001:000c3385       ?isSettingsOpened@CStatus@@AAE_NI@Z 004c4385 f   Status.obj
 0001:000c33d8       ??$?0V?$tuple@ABV?$basic_string@_WU?$char_traits@_W@std@@V?$allocator@_W@2@@std@@@std@@V?$tuple@$$V@1@$0A@$$Z$S@?$pair@$$CBV?$basic_string@_WU?$char_traits@_W@std@@V?$allocator@_W@2@@std@@UVariableData@SystemEnvironment@@@std@@QAE@AAV?$tuple@ABV?$basic_string@_WU?$char_traits@_W@std@@V?$allocator@_W@2@@std@@@1@AAV?$tuple@$$V@1@U?$integer_sequence@I$0A@@1@U?$integer_sequence@I$S@1@@Z 004c43d8 f i SystemEnvironment.obj
 0001:000c3428       ??$_Buynode@ABUpiecewise_construct_t@std@@V?$tuple@ABV?$basic_string@_WU?$char_traits@_W@std@@V?$allocator@_W@2@@std@@@2@V?$tuple@$$V@2@@?$_List_buy@U?$pair@$$CBV?$basic_string@_WU?$char_traits@_W@std@@V?$allocator@_W@2@@std@@UVariableData@SystemEnvironment@@@std@@V?$allocator@U?$pair@$$CBV?$basic_string@_WU?$char_traits@_W@std@@V?$allocator@_W@2@@std@@UVariableData@SystemEnvironment@@@std@@@2@@std@@QAEPAU?$_List_node@U?$pair@$$CBV?$basic_string@_WU?$char_traits@_W@std@@V?$allocator@_W@2@@std@@UVariableData@SystemEnvironment@@@std@@PAX@1@PAU21@0ABUpiecewise_construct_t@1@$$QAV?$tuple@ABV?$basic_string@_WU?$char_traits@_W@std@@V?$allocator@_W@2@@std@@@1@$$QAV?$tuple@$$V@1@@Z 004c4428 f i SystemEnvironment.obj
 0001:000c3484       ??$_Buynode@ABV?$basic_string@_WU?$char_traits@_W@std@@V?$allocator@_W@2@@std@@@?$_Tree_comp_alloc@V?$_Tset_traits@V?$basic_string@_WU?$char_traits@_W@std@@V?$allocator@_W@2@@std@@U?$less@V?$basic_string@_WU?$char_traits@_W@std@@V?$allocator@_W@2@@std@@@2@V?$allocator@V?$basic_string@_WU?$char_traits@_W@std@@V?$allocator@_W@2@@std@@@2@$0A@@std@@@std@@QAEPAU?$_Tree_node@V?$basic_string@_WU?$char_traits@_W@std@@V?$allocator@_W@2@@std@@PAX@1@ABV?$basic_string@_WU?$char_traits@_W@std@@V?$allocator@_W@2@@1@@Z 004c4484 f i SystemEnvironment.obj
 0001:000c34d6       ??$_Insert@AAU?$pair@$$CBV?$basic_string@_WU?$char_traits@_W@std@@V?$allocator@_W@2@@std@@UVariableData@SystemEnvironment@@@std@@V?$_List_unchecked_iterator@V?$_List_val@U?$_List_simple_types@U?$pair@$$CBV?$basic_string@_WU?$char_traits@_W@std@@V?$allocator@_W@2@@std@@UVariableData@SystemEnvironment@@@std@@@std@@@std@@@2@@?$_Hash@V?$_Umap_traits@V?$basic_string@_WU?$char_traits@_W@std@@V?$allocator@_W@2@@std@@UVariableData@SystemEnvironment@@V?$_Uhash_compare@V?$basic_string@_WU?$char_traits@_W@std@@V?$allocator@_W@2@@std@@U?$hash@V?$basic_string@_WU?$char_traits@_W@std@@V?$allocator@_W@2@@std@@@2@U?$equal_to@V?$basic_string@_WU?$char_traits@_W@std@@V?$allocator@_W@2@@std@@@2@@2@V?$allocator@U?$pair@$$CBV?$basic_string@_WU?$char_traits@_W@std@@V?$allocator@_W@2@@std@@UVariableData@SystemEnvironment@@@std@@@2@$0A@@std@@@std@@IAE?AU?$pair@V?$_List_iterator@V?$_List_val@U?$_List_simple_types@U?$pair@$$CBV?$basic_string@_WU?$char_traits@_W@std@@V?$allocator@_W@2@@std@@UVariableData@SystemEnvironment@@@std@@@std@@@std@@@std@@_N@1@AAU?$pair@$$CBV?$basic_string@_WU?$char_traits@_W@std@@V?$allocator@_W@2@@std@@UVariableData@SystemEnvironment@@@1@V?$_List_unchecked_iterator@V?$_List_val@U?$_List_simple_types@U?$pair@$$CBV?$basic_string@_WU?$char_traits@_W@std@@V?$allocator@_W@2@@std@@UVariableData@SystemEnvironment@@@std@@@std@@@std@@@1@@Z 004c44d6 f i SystemEnvironment.obj
 0001:000c35af       ??$_Insert@ABUpiecewise_construct_t@std@@V?$tuple@ABV?$basic_string@_WU?$char_traits@_W@std@@V?$allocator@_W@2@@std@@@2@V?$tuple@$$V@2@@?$list@U?$pair@$$CBV?$basic_string@_WU?$char_traits@_W@std@@V?$allocator@_W@2@@std@@UVariableData@SystemEnvironment@@@std@@V?$allocator@U?$pair@$$CBV?$basic_string@_WU?$char_traits@_W@std@@V?$allocator@_W@2@@std@@UVariableData@SystemEnvironment@@@std@@@2@@std@@QAEXV?$_List_unchecked_const_iterator@V?$_List_val@U?$_List_simple_types@U?$pair@$$CBV?$basic_string@_WU?$char_traits@_W@std@@V?$allocator@_W@2@@std@@UVariableData@SystemEnvironment@@@std@@@std@@@std@@U_Iterator_base0@2@@1@ABUpiecewise_construct_t@1@$$QAV?$tuple@ABV?$basic_string@_WU?$char_traits@_W@std@@V?$allocator@_W@2@@std@@@1@$$QAV?$tuple@$$V@1@@Z 004c45af f i SystemEnvironment.obj
 0001:000c35e9       ??$_Insert_at@ABV?$basic_string@_WU?$char_traits@_W@std@@V?$allocator@_W@2@@std@@U_Not_a_node_tag@2@@?$_Tree@V?$_Tset_traits@V?$basic_string@_WU?$char_traits@_W@std@@V?$allocator@_W@2@@std@@U?$less@V?$basic_string@_WU?$char_traits@_W@std@@V?$allocator@_W@2@@std@@@2@V?$allocator@V?$basic_string@_WU?$char_traits@_W@std@@V?$allocator@_W@2@@std@@@2@$0A@@std@@@std@@IAE?AV?$_Tree_const_iterator@V?$_Tree_val@U?$_Tree_simple_types@V?$basic_string@_WU?$char_traits@_W@std@@V?$allocator@_W@2@@std@@@std@@@std@@@1@_NPAU?$_Tree_node@V?$basic_string@_WU?$char_traits@_W@std@@V?$allocator@_W@2@@std@@PAX@1@ABV?$basic_string@_WU?$char_traits@_W@std@@V?$allocator@_W@2@@1@U_Not_a_node_tag@1@@Z 004c45e9 f i SystemEnvironment.obj
 0001:000c370b       ??$_Insert_nohint@ABV?$basic_string@_WU?$char_traits@_W@std@@V?$allocator@_W@2@@std@@U_Not_a_node_tag@2@@?$_Tree@V?$_Tset_traits@V?$basic_string@_WU?$char_traits@_W@std@@V?$allocator@_W@2@@std@@U?$less@V?$basic_string@_WU?$char_traits@_W@std@@V?$allocator@_W@2@@std@@@2@V?$allocator@V?$basic_string@_WU?$char_traits@_W@std@@V?$allocator@_W@2@@std@@@2@$0A@@std@@@std@@IAE?AU?$pair@V?$_Tree_const_iterator@V?$_Tree_val@U?$_Tree_simple_types@V?$basic_string@_WU?$char_traits@_W@std@@V?$allocator@_W@2@@std@@@std@@@std@@@std@@_N@1@_NABV?$basic_string@_WU?$char_traits@_W@std@@V?$allocator@_W@2@@1@U_Not_a_node_tag@1@@Z 004c470b f i SystemEnvironment.obj
 0001:000c37e3       ??$_Reallocate_grow_by@V<lambda_09fe38f6114539daa867a3e4d6874f49>@@IPB_WI@?$basic_string@_WU?$char_traits@_W@std@@V?$allocator@_W@2@@std@@QAEAAV01@IV<lambda_09fe38f6114539daa867a3e4d6874f49>@@IPB_WI@Z 004c47e3 f i SystemEnvironment.obj
 0001:000c3875       ??$_Reallocate_grow_by@V<lambda_38fb7828f6004e9a4c6a38bfc6df7f44>@@_W@?$basic_string@_WU?$char_traits@_W@std@@V?$allocator@_W@2@@std@@QAEAAV01@IV<lambda_38fb7828f6004e9a4c6a38bfc6df7f44>@@_W@Z 004c4875 f i SystemEnvironment.obj
 0001:000c3933       ??$_Traits_compare@U?$char_traits@_W@std@@@std@@YAHQB_WI0I@Z 004c4933 f i SystemEnvironment.obj
 0001:000c3966       ??$_Try_emplace@ABV?$basic_string@_WU?$char_traits@_W@std@@V?$allocator@_W@2@@std@@$$V@?$unordered_map@V?$basic_string@_WU?$char_traits@_W@std@@V?$allocator@_W@2@@std@@UVariableData@SystemEnvironment@@U?$hash@V?$basic_string@_WU?$char_traits@_W@std@@V?$allocator@_W@2@@std@@@2@U?$equal_to@V?$basic_string@_WU?$char_traits@_W@std@@V?$allocator@_W@2@@std@@@2@V?$allocator@U?$pair@$$CBV?$basic_string@_WU?$char_traits@_W@std@@V?$allocator@_W@2@@std@@UVariableData@SystemEnvironment@@@std@@@2@@std@@QAE?AU?$pair@V?$_List_iterator@V?$_List_val@U?$_List_simple_types@U?$pair@$$CBV?$basic_string@_WU?$char_traits@_W@std@@V?$allocator@_W@2@@std@@UVariableData@SystemEnvironment@@@std@@@std@@@std@@@std@@_N@1@ABV?$basic_string@_WU?$char_traits@_W@std@@V?$allocator@_W@2@@1@@Z 004c4966 f i SystemEnvironment.obj
 0001:000c39b3       ??$construct@U?$pair@$$CBV?$basic_string@_WU?$char_traits@_W@std@@V?$allocator@_W@2@@std@@UVariableData@SystemEnvironment@@@std@@ABUpiecewise_construct_t@2@V?$tuple@ABV?$basic_string@_WU?$char_traits@_W@std@@V?$allocator@_W@2@@std@@@2@V?$tuple@$$V@2@@?$_Default_allocator_traits@V?$allocator@U?$_List_node@U?$pair@$$CBV?$basic_string@_WU?$char_traits@_W@std@@V?$allocator@_W@2@@std@@UVariableData@SystemEnvironment@@@std@@PAX@std@@@std@@@std@@SAXAAV?$allocator@U?$_List_node@U?$pair@$$CBV?$basic_string@_WU?$char_traits@_W@std@@V?$allocator@_W@2@@std@@UVariableData@SystemEnvironment@@@std@@PAX@std@@@1@QAU?$pair@$$CBV?$basic_string@_WU?$char_traits@_W@std@@V?$allocator@_W@2@@std@@UVariableData@SystemEnvironment@@@1@ABUpiecewise_construct_t@1@$$QAV?$tuple@ABV?$basic_string@_WU?$char_traits@_W@std@@V?$allocator@_W@2@@std@@@1@$$QAV?$tuple@$$V@1@@Z 004c49b3 f i SystemEnvironment.obj
 0001:000c39d7       ??$emplace@ABUpiecewise_construct_t@std@@V?$tuple@ABV?$basic_string@_WU?$char_traits@_W@std@@V?$allocator@_W@2@@std@@@2@V?$tuple@$$V@2@@?$_Hash@V?$_Umap_traits@V?$basic_string@_WU?$char_traits@_W@std@@V?$allocator@_W@2@@std@@UVariableData@SystemEnvironment@@V?$_Uhash_compare@V?$basic_string@_WU?$char_traits@_W@std@@V?$allocator@_W@2@@std@@U?$hash@V?$basic_string@_WU?$char_traits@_W@std@@V?$allocator@_W@2@@std@@@2@U?$equal_to@V?$basic_string@_WU?$char_traits@_W@std@@V?$allocator@_W@2@@std@@@2@@2@V?$allocator@U?$pair@$$CBV?$basic_string@_WU?$char_traits@_W@std@@V?$allocator@_W@2@@std@@UVariableData@SystemEnvironment@@@std@@@2@$0A@@std@@@std@@QAE?AU?$pair@V?$_List_iterator@V?$_List_val@U?$_List_simple_types@U?$pair@$$CBV?$basic_string@_WU?$char_traits@_W@std@@V?$allocator@_W@2@@std@@UVariableData@SystemEnvironment@@@std@@@std@@@std@@@std@@_N@1@ABUpiecewise_construct_t@1@$$QAV?$tuple@ABV?$basic_string@_WU?$char_traits@_W@std@@V?$allocator@_W@2@@std@@@1@$$QAV?$tuple@$$V@1@@Z 004c49d7 f i SystemEnvironment.obj
 0001:000c3a11       ??$erase@V?$_List_iterator@V?$_List_val@U?$_List_simple_types@U?$pair@$$CBV?$basic_string@_WU?$char_traits@_W@std@@V?$allocator@_W@2@@std@@UVariableData@SystemEnvironment@@@std@@@std@@@std@@@std@@X@?$_Hash@V?$_Umap_traits@V?$basic_string@_WU?$char_traits@_W@std@@V?$allocator@_W@2@@std@@UVariableData@SystemEnvironment@@V?$_Uhash_compare@V?$basic_string@_WU?$char_traits@_W@std@@V?$allocator@_W@2@@std@@U?$hash@V?$basic_string@_WU?$char_traits@_W@std@@V?$allocator@_W@2@@std@@@2@U?$equal_to@V?$basic_string@_WU?$char_traits@_W@std@@V?$allocator@_W@2@@std@@@2@@2@V?$allocator@U?$pair@$$CBV?$basic_string@_WU?$char_traits@_W@std@@V?$allocator@_W@2@@std@@UVariableData@SystemEnvironment@@@std@@@2@$0A@@std@@@std@@QAE?AV?$_List_iterator@V?$_List_val@U?$_List_simple_types@U?$pair@$$CBV?$basic_string@_WU?$char_traits@_W@std@@V?$allocator@_W@2@@std@@UVariableData@SystemEnvironment@@@std@@@std@@@std@@@1@V21@@Z 004c4a11 f i SystemEnvironment.obj
 0001:000c3a26       ??0?$basic_string@_WU?$char_traits@_W@std@@V?$allocator@_W@2@@std@@QAE@QB_W@Z 004c4a26 f i SystemEnvironment.obj
 0001:000c3a4b       ??4?$basic_string@_WU?$char_traits@_W@std@@V?$allocator@_W@2@@std@@QAEAAV01@$$QAV01@@Z 004c4a4b f i SystemEnvironment.obj
 0001:000c3a82       ??F?$_Tree_unchecked_const_iterator@V?$_Tree_val@U?$_Tree_simple_types@V?$basic_string@_WU?$char_traits@_W@std@@V?$allocator@_W@2@@std@@@std@@@std@@U_Iterator_base0@2@@std@@QAEAAV01@XZ 004c4a82 f i SystemEnvironment.obj
 0001:000c3ae7       ??R<lambda_09fe38f6114539daa867a3e4d6874f49>@@QBEXQA_WQB_WII1I@Z 004c4ae7 f i SystemEnvironment.obj
 0001:000c3b40       ?GetKeys@SystemEnvironment@@QBE?AV?$set@V?$basic_string@_WU?$char_traits@_W@std@@V?$allocator@_W@2@@std@@U?$less@V?$basic_string@_WU?$char_traits@_W@std@@V?$allocator@_W@2@@std@@@2@V?$allocator@V?$basic_string@_WU?$char_traits@_W@std@@V?$allocator@_W@2@@std@@@2@@std@@XZ 004c4b40 f   SystemEnvironment.obj
 0001:000c3b9c       ?LoadFromRegistry@SystemEnvironment@@QAEXXZ 004c4b9c f   SystemEnvironment.obj
 0001:000c3bf7       ?MakeEnvName@SystemEnvironment@@SA?AV?$basic_string@_WU?$char_traits@_W@std@@V?$allocator@_W@2@@std@@ABV23@@Z 004c4bf7 f   SystemEnvironment.obj
 0001:000c3c8d       ?SysEnvValueCallback@SystemEnvironment@@SG_NPAUHKEY__@@PB_WKJ@Z 004c4c8d f   SystemEnvironment.obj
 0001:000c3e0b       ?_Buyheadnode@?$_Tree_comp_alloc@V?$_Tset_traits@V?$basic_string@_WU?$char_traits@_W@std@@V?$allocator@_W@2@@std@@U?$less@V?$basic_string@_WU?$char_traits@_W@std@@V?$allocator@_W@2@@std@@@2@V?$allocator@V?$basic_string@_WU?$char_traits@_W@std@@V?$allocator@_W@2@@std@@@2@$0A@@std@@@std@@QAEPAU?$_Tree_node@V?$basic_string@_WU?$char_traits@_W@std@@V?$allocator@_W@2@@std@@PAX@2@XZ 004c4e0b f i SystemEnvironment.obj
 0001:000c3e22       ?_Buynode0@?$_Tree_comp_alloc@V?$_Tset_traits@V?$basic_string@_WU?$char_traits@_W@std@@V?$allocator@_W@2@@std@@U?$less@V?$basic_string@_WU?$char_traits@_W@std@@V?$allocator@_W@2@@std@@@2@V?$allocator@V?$basic_string@_WU?$char_traits@_W@std@@V?$allocator@_W@2@@std@@@2@$0A@@std@@@std@@QAEPAU?$_Tree_node@V?$basic_string@_WU?$char_traits@_W@std@@V?$allocator@_W@2@@std@@PAX@2@XZ 004c4e22 f i SystemEnvironment.obj
 0001:000c3e3d       ?_Check_size@?$_Hash@V?$_Umap_traits@V?$basic_string@_WU?$char_traits@_W@std@@V?$allocator@_W@2@@std@@UVariableData@SystemEnvironment@@V?$_Uhash_compare@V?$basic_string@_WU?$char_traits@_W@std@@V?$allocator@_W@2@@std@@U?$hash@V?$basic_string@_WU?$char_traits@_W@std@@V?$allocator@_W@2@@std@@@2@U?$equal_to@V?$basic_string@_WU?$char_traits@_W@std@@V?$allocator@_W@2@@std@@@2@@2@V?$allocator@U?$pair@$$CBV?$basic_string@_WU?$char_traits@_W@std@@V?$allocator@_W@2@@std@@UVariableData@SystemEnvironment@@@std@@@2@$0A@@std@@@std@@IAEXXZ 004c4e3d f i SystemEnvironment.obj
 0001:000c3e80       ?_Construct_lv_contents@?$basic_string@_WU?$char_traits@_W@std@@V?$allocator@_W@2@@std@@QAEXABV12@@Z 004c4e80 f i SystemEnvironment.obj
 0001:000c3ee8       ?_Equal@?$basic_string@_WU?$char_traits@_W@std@@V?$allocator@_W@2@@std@@QBE_NQB_W@Z 004c4ee8 f i SystemEnvironment.obj
 0001:000c3f20       ?_Erase_bucket@?$_Hash@V?$_Umap_traits@V?$basic_string@_WU?$char_traits@_W@std@@V?$allocator@_W@2@@std@@UVariableData@SystemEnvironment@@V?$_Uhash_compare@V?$basic_string@_WU?$char_traits@_W@std@@V?$allocator@_W@2@@std@@U?$hash@V?$basic_string@_WU?$char_traits@_W@std@@V?$allocator@_W@2@@std@@@2@U?$equal_to@V?$basic_string@_WU?$char_traits@_W@std@@V?$allocator@_W@2@@std@@@2@@2@V?$allocator@U?$pair@$$CBV?$basic_string@_WU?$char_traits@_W@std@@V?$allocator@_W@2@@std@@UVariableData@SystemEnvironment@@@std@@@2@$0A@@std@@@std@@IAEXV?$_List_iterator@V?$_List_val@U?$_List_simple_types@U?$pair@$$CBV?$basic_string@_WU?$char_traits@_W@std@@V?$allocator@_W@2@@std@@UVariableData@SystemEnvironment@@@std@@@std@@@std@@@2@I@Z 004c4f20 f i SystemEnvironment.obj
 0001:000c3f20       ?_Erase_bucket@?$_Hash@V?$_Umap_traits@HGV?$_Uhash_compare@HU?$hash@H@std@@U?$equal_to@H@2@@std@@V?$allocator@U?$pair@$$CBHG@std@@@2@$0A@@std@@@std@@IAEXV?$_List_iterator@V?$_List_val@U?$_List_simple_types@U?$pair@$$CBHG@std@@@std@@@std@@@2@I@Z 004c4f20 f i VirtualConsole.obj
 0001:000c3f66       ?_Freenode0@?$_Tree_comp_alloc@V?$_Tset_traits@V?$basic_string@_WU?$char_traits@_W@std@@V?$allocator@_W@2@@std@@U?$less@V?$basic_string@_WU?$char_traits@_W@std@@V?$allocator@_W@2@@std@@@2@V?$allocator@V?$basic_string@_WU?$char_traits@_W@std@@V?$allocator@_W@2@@std@@@2@$0A@@std@@@std@@QAEXPAU?$_Tree_node@V?$basic_string@_WU?$char_traits@_W@std@@V?$allocator@_W@2@@std@@PAX@2@@Z 004c4f66 f i SystemEnvironment.obj
 0001:000c3f79       ?_Incsize@?$list@U?$pair@$$CBV?$basic_string@_WU?$char_traits@_W@std@@V?$allocator@_W@2@@std@@UVariableData@SystemEnvironment@@@std@@V?$allocator@U?$pair@$$CBV?$basic_string@_WU?$char_traits@_W@std@@V?$allocator@_W@2@@std@@UVariableData@SystemEnvironment@@@std@@@2@@std@@QAEXI@Z 004c4f79 f i SystemEnvironment.obj
 0001:000c3fa4       ?_Insert_bucket@?$_Hash@V?$_Umap_traits@V?$basic_string@_WU?$char_traits@_W@std@@V?$allocator@_W@2@@std@@UVariableData@SystemEnvironment@@V?$_Uhash_compare@V?$basic_string@_WU?$char_traits@_W@std@@V?$allocator@_W@2@@std@@U?$hash@V?$basic_string@_WU?$char_traits@_W@std@@V?$allocator@_W@2@@std@@@2@U?$equal_to@V?$basic_string@_WU?$char_traits@_W@std@@V?$allocator@_W@2@@std@@@2@@2@V?$allocator@U?$pair@$$CBV?$basic_string@_WU?$char_traits@_W@std@@V?$allocator@_W@2@@std@@UVariableData@SystemEnvironment@@@std@@@2@$0A@@std@@@std@@IAEXV?$_List_unchecked_iterator@V?$_List_val@U?$_List_simple_types@U?$pair@$$CBV?$basic_string@_WU?$char_traits@_W@std@@V?$allocator@_W@2@@std@@UVariableData@SystemEnvironment@@@std@@@std@@@std@@@2@0I@Z 004c4fa4 f i SystemEnvironment.obj
 0001:000c3fa4       ?_Insert_bucket@?$_Hash@V?$_Umap_traits@HGV?$_Uhash_compare@HU?$hash@H@std@@U?$equal_to@H@2@@std@@V?$allocator@U?$pair@$$CBHG@std@@@2@$0A@@std@@@std@@IAEXV?$_List_unchecked_iterator@V?$_List_val@U?$_List_simple_types@U?$pair@$$CBHG@std@@@std@@@std@@@2@0I@Z 004c4fa4 f i VirtualConsole.obj
 0001:000c3ff3       ?_Make_iter@?$_Hash@V?$_Umap_traits@V?$basic_string@_WU?$char_traits@_W@std@@V?$allocator@_W@2@@std@@UVariableData@SystemEnvironment@@V?$_Uhash_compare@V?$basic_string@_WU?$char_traits@_W@std@@V?$allocator@_W@2@@std@@U?$hash@V?$basic_string@_WU?$char_traits@_W@std@@V?$allocator@_W@2@@std@@@2@U?$equal_to@V?$basic_string@_WU?$char_traits@_W@std@@V?$allocator@_W@2@@std@@@2@@2@V?$allocator@U?$pair@$$CBV?$basic_string@_WU?$char_traits@_W@std@@V?$allocator@_W@2@@std@@UVariableData@SystemEnvironment@@@std@@@2@$0A@@std@@@std@@QBE?AV?$_List_iterator@V?$_List_val@U?$_List_simple_types@U?$pair@$$CBV?$basic_string@_WU?$char_traits@_W@std@@V?$allocator@_W@2@@std@@UVariableData@SystemEnvironment@@@std@@@std@@@std@@@2@V?$_List_unchecked_const_iterator@V?$_List_val@U?$_List_simple_types@U?$pair@$$CBV?$basic_string@_WU?$char_traits@_W@std@@V?$allocator@_W@2@@std@@UVariableData@SystemEnvironment@@@std@@@std@@@std@@U_Iterator_base0@2@@2@@Z 004c4ff3 f i SystemEnvironment.obj
 0001:000c3ff3       ?_Make_iter@?$_Hash@V?$_Umap_traits@HGV?$_Uhash_compare@HU?$hash@H@std@@U?$equal_to@H@2@@std@@V?$allocator@U?$pair@$$CBHG@std@@@2@$0A@@std@@@std@@QBE?AV?$_List_iterator@V?$_List_val@U?$_List_simple_types@U?$pair@$$CBHG@std@@@std@@@std@@@2@V?$_List_unchecked_const_iterator@V?$_List_val@U?$_List_simple_types@U?$pair@$$CBHG@std@@@std@@@std@@U_Iterator_base0@2@@2@@Z 004c4ff3 f i VirtualConsole.obj
 0001:000c4002       ?_Reinsert@?$_Hash@V?$_Umap_traits@V?$basic_string@_WU?$char_traits@_W@std@@V?$allocator@_W@2@@std@@UVariableData@SystemEnvironment@@V?$_Uhash_compare@V?$basic_string@_WU?$char_traits@_W@std@@V?$allocator@_W@2@@std@@U?$hash@V?$basic_string@_WU?$char_traits@_W@std@@V?$allocator@_W@2@@std@@@2@U?$equal_to@V?$basic_string@_WU?$char_traits@_W@std@@V?$allocator@_W@2@@std@@@2@@2@V?$allocator@U?$pair@$$CBV?$basic_string@_WU?$char_traits@_W@std@@V?$allocator@_W@2@@std@@UVariableData@SystemEnvironment@@@std@@@2@$0A@@std@@@std@@IAEXXZ 004c5002 f i SystemEnvironment.obj
 0001:000c4034       ?_Unchecked_splice@?$list@U?$pair@$$CBHG@std@@V?$allocator@U?$pair@$$CBHG@std@@@2@@std@@QAEXV?$_List_unchecked_const_iterator@V?$_List_val@U?$_List_simple_types@U?$pair@$$CBHG@std@@@std@@@std@@U_Iterator_base0@2@@2@00@Z 004c5034 f i VirtualConsole.obj
 0001:000c4034       ?_Unchecked_splice@?$list@U?$pair@$$CBV?$basic_string@_WU?$char_traits@_W@std@@V?$allocator@_W@2@@std@@UVariableData@SystemEnvironment@@@std@@V?$allocator@U?$pair@$$CBV?$basic_string@_WU?$char_traits@_W@std@@V?$allocator@_W@2@@std@@UVariableData@SystemEnvironment@@@std@@@2@@std@@QAEXV?$_List_unchecked_const_iterator@V?$_List_val@U?$_List_simple_types@U?$pair@$$CBV?$basic_string@_WU?$char_traits@_W@std@@V?$allocator@_W@2@@std@@UVariableData@SystemEnvironment@@@std@@@std@@@std@@U_Iterator_base0@2@@2@00@Z 004c5034 f i SystemEnvironment.obj
 0001:000c407d       ?_Xran@?$_String_val@U?$_Simple_types@_W@std@@@std@@SAXXZ 004c507d f i SystemEnvironment.obj
 0001:000c4088       ?compare@?$basic_string@_WU?$char_traits@_W@std@@V?$allocator@_W@2@@std@@QBEHABV12@@Z 004c5088 f i SystemEnvironment.obj
 0001:000c40b8       ?deallocate@?$allocator@U?$_List_node@U?$pair@$$CBV?$basic_string@_WU?$char_traits@_W@std@@V?$allocator@_W@2@@std@@UVariableData@SystemEnvironment@@@std@@PAX@std@@@std@@QAEXQAU?$_List_node@U?$pair@$$CBV?$basic_string@_WU?$char_traits@_W@std@@V?$allocator@_W@2@@std@@UVariableData@SystemEnvironment@@@std@@PAX@2@I@Z 004c50b8 f i SystemEnvironment.obj
 0001:000c40ce       ?erase@?$_Hash@V?$_Umap_traits@V?$basic_string@_WU?$char_traits@_W@std@@V?$allocator@_W@2@@std@@UVariableData@SystemEnvironment@@V?$_Uhash_compare@V?$basic_string@_WU?$char_traits@_W@std@@V?$allocator@_W@2@@std@@U?$hash@V?$basic_string@_WU?$char_traits@_W@std@@V?$allocator@_W@2@@std@@@2@U?$equal_to@V?$basic_string@_WU?$char_traits@_W@std@@V?$allocator@_W@2@@std@@@2@@2@V?$allocator@U?$pair@$$CBV?$basic_string@_WU?$char_traits@_W@std@@V?$allocator@_W@2@@std@@UVariableData@SystemEnvironment@@@std@@@2@$0A@@std@@@std@@QAE?AV?$_List_iterator@V?$_List_val@U?$_List_simple_types@U?$pair@$$CBV?$basic_string@_WU?$char_traits@_W@std@@V?$allocator@_W@2@@std@@UVariableData@SystemEnvironment@@@std@@@std@@@std@@@2@V?$_List_const_iterator@V?$_List_val@U?$_List_simple_types@U?$pair@$$CBV?$basic_string@_WU?$char_traits@_W@std@@V?$allocator@_W@2@@std@@UVariableData@SystemEnvironment@@@std@@@std@@@std@@@2@@Z 004c50ce f i SystemEnvironment.obj
 0001:000c4106       ?erase@?$list@U?$pair@$$CBV?$basic_string@_WU?$char_traits@_W@std@@V?$allocator@_W@2@@std@@UVariableData@SystemEnvironment@@@std@@V?$allocator@U?$pair@$$CBV?$basic_string@_WU?$char_traits@_W@std@@V?$allocator@_W@2@@std@@UVariableData@SystemEnvironment@@@std@@@2@@std@@QAE?AV?$_List_iterator@V?$_List_val@U?$_List_simple_types@U?$pair@$$CBV?$basic_string@_WU?$char_traits@_W@std@@V?$allocator@_W@2@@std@@UVariableData@SystemEnvironment@@@std@@@std@@@std@@@2@V?$_List_const_iterator@V?$_List_val@U?$_List_simple_types@U?$pair@$$CBV?$basic_string@_WU?$char_traits@_W@std@@V?$allocator@_W@2@@std@@UVariableData@SystemEnvironment@@@std@@@std@@@std@@@2@@Z 004c5106 f i SystemEnvironment.obj
 0001:000c413d       ?insert@?$basic_string@_WU?$char_traits@_W@std@@V?$allocator@_W@2@@std@@QAEAAV12@IQB_W@Z 004c513d f i SystemEnvironment.obj
 0001:000c4167       ?insert@?$basic_string@_WU?$char_traits@_W@std@@V?$allocator@_W@2@@std@@QAEAAV12@IQB_WI@Z 004c5167 f i SystemEnvironment.obj
 0001:000c4250       ?load_factor@?$_Hash@V?$_Umap_traits@V?$basic_string@_WU?$char_traits@_W@std@@V?$allocator@_W@2@@std@@UVariableData@SystemEnvironment@@V?$_Uhash_compare@V?$basic_string@_WU?$char_traits@_W@std@@V?$allocator@_W@2@@std@@U?$hash@V?$basic_string@_WU?$char_traits@_W@std@@V?$allocator@_W@2@@std@@@2@U?$equal_to@V?$basic_string@_WU?$char_traits@_W@std@@V?$allocator@_W@2@@std@@@2@@2@V?$allocator@U?$pair@$$CBV?$basic_string@_WU?$char_traits@_W@std@@V?$allocator@_W@2@@std@@UVariableData@SystemEnvironment@@@std@@@2@$0A@@std@@@std@@QBEMXZ 004c5250 f i SystemEnvironment.obj
 0001:000c4250       ?load_factor@?$_Hash@V?$_Umap_traits@HGV?$_Uhash_compare@HU?$hash@H@std@@U?$equal_to@H@2@@std@@V?$allocator@U?$pair@$$CBHG@std@@@2@$0A@@std@@@std@@QBEMXZ 004c5250 f i VirtualConsole.obj
 0001:000c4298       ?push_back@?$basic_string@_WU?$char_traits@_W@std@@V?$allocator@_W@2@@std@@QAEX_W@Z 004c5298 f i SystemEnvironment.obj
 0001:000c42d8       ??0CTabBarClass@@QAE@XZ    004c52d8 f   TabBar.obj
 0001:000c43de       ??1CTabBarClass@@UAE@XZ    004c53de f   TabBar.obj
 0001:000c4492       ??_ECTabBarClass@@UAEPAXI@Z 004c5492 f i TabBar.obj
 0001:000c4492       ??_GCTabBarClass@@UAEPAXI@Z 004c5492 f i TabBar.obj
 0001:000c44b7       ?Activate@CTabBarClass@@QAEXH@Z 004c54b7 f   TabBar.obj
 0001:000c4584       ?ActivateSearchPane@CTabBarClass@@QAEPAUHWND__@@_N@Z 004c5584 f   TabBar.obj
 0001:000c45a6       ?ActivateTabByPoint@CTabBarClass@@QAEHPAUtagPOINT@@_N1@Z 004c55a6 f   TabBar.obj
 0001:000c45f1       ?ActiveTabByName@CTabBarClass@@QAEHHPB_WPAVCVConGuard@@@Z 004c55f1 f   TabBar.obj
 0001:000c4772       ?AddStack@CTabBarClass@@IAE_NAAVCTab@@@Z 004c5772 f   TabBar.obj
 0001:000c480a       ?CanActivateTab@CTabBarClass@@AAE_NH@Z 004c580a f   TabBar.obj
 0001:000c4868       ?CheckRebarCreated@CTabBarClass@@QAEXXZ 004c5868 f   TabBar.obj
 0001:000c48cd       ?CheckStack@CTabBarClass@@IAE_NXZ 004c58cd f   TabBar.obj
 0001:000c49ed       ?CountActiveTabs@CTabBarClass@@AAEHH@Z 004c59ed f   TabBar.obj
 0001:000c4a81       ?CreateTabIcon@CTabBarClass@@QAEHPB_W_N0@Z 004c5a81 f   TabBar.obj
 0001:000c4aa2       ?Deactivate@CTabBarClass@@QAEXH@Z 004c5aa2 f   TabBar.obj
 0001:000c4ada       ?DeleteItem@CTabBarClass@@AAEXH@Z 004c5ada f   TabBar.obj
 0001:000c4b28       ?GetActiveTabRect@CTabBarClass@@QAE_NPAUtagRECT@@@Z 004c5b28 f   TabBar.obj
 0001:000c4b58       ?GetCurSel@CTabBarClass@@QAEHXZ 004c5b58 f   TabBar.obj
 0001:000c4b77       ?GetFirstLastVConTab@CTabBarClass@@IAEHPAVCVirtualConsole@@_NH@Z 004c5b77 f   TabBar.obj
 0001:000c4c20       ?GetItemCount@CTabBarClass@@AAEHXZ 004c5c20 f   TabBar.obj
 0001:000c4c44       ?GetNextTab@CTabBarClass@@AAEH_N0@Z 004c5c44 f   TabBar.obj
 0001:000c4d3c       ?GetNextTabHelper@CTabBarClass@@AAEHH_N0@Z 004c5d3c f   TabBar.obj
 0001:000c4ed9       ?GetTabFromPoint@CTabBarClass@@QAEHPAUtagPOINT@@_N1@Z 004c5ed9 f   TabBar.obj
 0001:000c4f37       ?GetTabIcon@CTabBarClass@@QAEH_N@Z 004c5f37 f   TabBar.obj
 0001:000c4f43       ?GetTabIconByIndex@CTabBarClass@@QAEPAUHICON__@@H@Z 004c5f43 f   TabBar.obj
 0001:000c4f4f       ?GetTabIcons@CTabBarClass@@QAEPAU_IMAGELIST@@H@Z 004c5f4f f   TabBar.obj
 0001:000c4f77       ?GetVConFromTab@CTabBarClass@@QAE_NHPAVCVConGuard@@PAK@Z 004c5f77 f   TabBar.obj
 0001:000c502a       ?HighlightTab@CTabBarClass@@QAEXPBVCTabID@@_N@Z 004c602a f   TabBar.obj
 0001:000c5071       ?Invalidate@CTabBarClass@@QAEXXZ 004c6071 f   TabBar.obj
 0001:000c5090       ?IsInSwitch@CTabBarClass@@QAE_NXZ 004c6090 f   TabBar.obj
 0001:000c5097       ?IsSearchShown@CTabBarClass@@QAE_N_N@Z 004c6097 f   TabBar.obj
 0001:000c50bd       ?IsTabsActive@CTabBarClass@@QBE_NXZ 004c60bd f   TabBar.obj
 0001:000c50c8       ?NeedPostUpdate@CTabBarClass@@QAE_NXZ 004c60c8 f   TabBar.obj
 0001:000c50e0       ?OnAlternative@CTabBarClass@@QAEXH@Z 004c60e0 f   TabBar.obj
 0001:000c510f       ?OnBufferHeight@CTabBarClass@@QAEXH@Z 004c610f f   TabBar.obj
 0001:000c513e       ?OnCaptionHidden@CTabBarClass@@QAEXXZ 004c613e f   TabBar.obj
 0001:000c516b       ?OnChooseTabPopup@CTabBarClass@@QAEXXZ 004c616b f   TabBar.obj
 0001:000c51b2       ?OnCommand@CTabBarClass@@QAEXIJ@Z 004c61b2 f   TabBar.obj
 0001:000c54e4       ?OnConsoleActivated@CTabBarClass@@QAEXH@Z 004c64e4 f   TabBar.obj
 0001:000c5505       ?OnKeyboard@CTabBarClass@@QAE_NIIJ@Z 004c6505 f   TabBar.obj
 0001:000c55b9       ?OnNotify@CTabBarClass@@QAE_NPAUtagNMHDR@@AAJ@Z 004c65b9 f   TabBar.obj
 0001:000c58af       ?OnShowButtonsChanged@CTabBarClass@@QAEXXZ 004c68af f   TabBar.obj
 0001:000c58ec       ?OnTimer@CTabBarClass@@QAE_NI@Z 004c68ec f   TabBar.obj
 0001:000c5905       ?OnWindowStateChanged@CTabBarClass@@QAEXXZ 004c6905 f   TabBar.obj
 0001:000c592d       ?PrepareTab@CTabBarClass@@AAEHAAVCTab@@PAVCVirtualConsole@@@Z 004c692d f   TabBar.obj
 0001:000c614a       ?RePaint@CTabBarClass@@QAEXXZ 004c714a f   TabBar.obj
 0001:000c6152       ?Recreate@CTabBarClass@@QAEXXZ 004c7152 f   TabBar.obj
 0001:000c61b2       ?Reposition@CTabBarClass@@QAEXXZ 004c71b2 f   TabBar.obj
 0001:000c61cb       ?RequestPostUpdate@CTabBarClass@@AAEXXZ 004c71cb f   TabBar.obj
 0001:000c621c       ?Reset@CTabBarClass@@QAEXXZ 004c721c f   TabBar.obj
 0001:000c622a       ?Retrieve@CTabBarClass@@QAEXXZ 004c722a f   TabBar.obj
 0001:000c6251       ?SelectTab@CTabBarClass@@AAEXH@Z 004c7251 f   TabBar.obj
 0001:000c62e3       ?SetRedraw@CTabBarClass@@QAEX_N@Z 004c72e3 f   TabBar.obj
 0001:000c62f5       ?ShowSearchPane@CTabBarClass@@QAE_N_N0@Z 004c72f5 f   TabBar.obj
 0001:000c6304       ?ShowTabError@CTabBarClass@@QAEXPB_WH@Z 004c7304 f   TabBar.obj
 0001:000c6310       ?Switch@CTabBarClass@@QAEX_N0@Z 004c7310 f   TabBar.obj
 0001:000c6397       ?SwitchCommit@CTabBarClass@@QAEXXZ 004c7397 f   TabBar.obj
 0001:000c63da       ?SwitchNext@CTabBarClass@@QAEX_N@Z 004c73da f   TabBar.obj
 0001:000c63eb       ?SwitchPrev@CTabBarClass@@QAEX_N@Z 004c73eb f   TabBar.obj
 0001:000c63fc       ?SwitchRollback@CTabBarClass@@QAEXXZ 004c73fc f   TabBar.obj
 0001:000c6414       ?Toolbar_GetBtnRect@CTabBarClass@@QAE_NHPAUtagRECT@@@Z 004c7414 f   TabBar.obj
 0001:000c6431       ?Update@CTabBarClass@@QAEXH@Z 004c7431 f   TabBar.obj
 0001:000c6845       ?UpdateAddTab@CTabBarClass@@AAEHPAXAAH1AA_NPAVCVirtualConsole@@K@Z 004c7845 f   TabBar.obj
 0001:000c6a08       ?UpdatePosition@CTabBarClass@@QAEXXZ 004c7a08 f   TabBar.obj
 0001:000c6a8d       ?UpdateToolConsoles@CTabBarClass@@QAEX_N@Z 004c7a8d f   TabBar.obj
 0001:000c6ab3       ??0CTabPanelBase@@QAE@PAVCTabBarClass@@@Z 004c7ab3 f   TabCtrlBase.obj
 0001:000c6b22       ??1CTabPanelBase@@UAE@XZ   004c7b22 f   TabCtrlBase.obj
 0001:000c6b46       ??_GCTabPanelBase@@UAEPAXI@Z 004c7b46 f i TabCtrlBase.obj
 0001:000c6b46       ??_ECTabPanelBase@@UAEPAXI@Z 004c7b46 f i TabCtrlBase.obj
 0001:000c6b6b       ?DoTabDrag@CTabPanelBase@@IAEXI@Z 004c7b6b f   TabCtrlBase.obj
 0001:000c6de4       ?EndTabDrag@CTabPanelBase@@IAEXXZ 004c7de4 f   TabCtrlBase.obj
 0001:000c6e08       ?FarSendChangeTab@CTabPanelBase@@QAE_NHPAVCVConGuard@@@Z 004c7e08 f   TabCtrlBase.obj
 0001:000c7002       ?InitTooltips@CTabPanelBase@@IAEXPAUHWND__@@@Z 004c8002 f   TabCtrlBase.obj
 0001:000c711a       ?OnMouseRebar@CTabPanelBase@@QAEJIHH@Z 004c811a f   TabCtrlBase.obj
 0001:000c72c1       ?OnMouseTabbar@CTabPanelBase@@QAEJIHHH@Z 004c82c1 f   TabCtrlBase.obj
 0001:000c768a       ?OnMouseToolbar@CTabPanelBase@@QAEJIHHH@Z 004c868a f   TabCtrlBase.obj
 0001:000c777c       ?OnSetCursorRebar@CTabPanelBase@@QAE_NXZ 004c877c f   TabCtrlBase.obj
 0001:000c7815       ?OnTimerInt@CTabPanelBase@@UAE_NI@Z 004c8815 f   TabCtrlBase.obj
 0001:000c7863       ?ShowTabErrorInt@CTabPanelBase@@QAEXPB_WH@Z 004c8863 f   TabCtrlBase.obj
 0001:000c7953       ?UpdateTabFontInt@CTabPanelBase@@QAEXXZ 004c8953 f   TabCtrlBase.obj
 0001:000c7a42       ??$SafeDelete@VCFindPanel@@@@YAXAAPAVCFindPanel@@@Z 004c8a42 f i TabCtrlWin.obj
 0001:000c7a7f       ??0CTabPanelWin@@QAE@PAVCTabBarClass@@@Z 004c8a7f f   TabCtrlWin.obj
 0001:000c7af9       ??1CTabPanelWin@@UAE@XZ    004c8af9 f   TabCtrlWin.obj
 0001:000c7b53       ??_GCTabPanelWin@@UAEPAXI@Z 004c8b53 f i TabCtrlWin.obj
 0001:000c7b53       ??_ECTabPanelWin@@UAEPAXI@Z 004c8b53 f i TabCtrlWin.obj
 0001:000c7b78       ?ActivateSearchPaneInt@CTabPanelWin@@UAEPAUHWND__@@_N@Z 004c8b78 f   TabCtrlWin.obj
 0001:000c7ba0       ?AddTabInt@CTabPanelWin@@UAEXPB_WHIH@Z 004c8ba0 f   TabCtrlWin.obj
 0001:000c7d7d       ?CreateRebar@CTabPanelWin@@UAEXXZ 004c8d7d f   TabCtrlWin.obj
 0001:000c7efe       ?CreateTabbar@CTabPanelWin@@AAEPAUHWND__@@XZ 004c8efe f   TabCtrlWin.obj
 0001:000c80c6       ?CreateToolbar@CTabPanelWin@@AAEPAUHWND__@@XZ 004c90c6 f   TabCtrlWin.obj
 0001:000c8524       ?DeleteItemInt@CTabPanelWin@@UAEXH@Z 004c9524 f   TabCtrlWin.obj
 0001:000c8546       ?DestroyRebar@CTabPanelWin@@UAEXXZ 004c9546 f   TabCtrlWin.obj
 0001:000c85aa       ?GetCurSelInt@CTabPanelWin@@UAEHXZ 004c95aa f   TabCtrlWin.obj
 0001:000c85c8       ?GetItemCountInt@CTabPanelWin@@UAEHXZ 004c95c8 f   TabCtrlWin.obj
 0001:000c85de       ?GetRebarClientRect@CTabPanelWin@@UAE_NPAUtagRECT@@@Z 004c95de f   TabCtrlWin.obj
 0001:000c8624       ?GetRect@CTabPanelWin@@AAE?AUtagRECT@@XZ 004c9624 f   TabCtrlWin.obj
 0001:000c86f0       ?GetTabBarClientRect@CTabPanelWin@@UAE_NPAUtagRECT@@@Z 004c96f0 f   TabCtrlWin.obj
 0001:000c8711       ?GetTabFromPoint@CTabPanelWin@@UAEHUtagPOINT@@_N1@Z 004c9711 f   TabCtrlWin.obj
 0001:000c8822       ?GetTabRect@CTabPanelWin@@UAE_NHPAUtagRECT@@@Z 004c9822 f   TabCtrlWin.obj
 0001:000c88dc       ?GetTabText@CTabPanelWin@@UAE_NHPA_WH@Z 004c98dc f   TabCtrlWin.obj
 0001:000c8936       ?GetToolBtnChecked@CTabPanelWin@@UAE_NW4ToolbarCommandIdx@@@Z 004c9936 f   TabCtrlWin.obj
 0001:000c8955       ?GetToolBtnRect@CTabPanelWin@@UAE_NHPAUtagRECT@@@Z 004c9955 f   TabCtrlWin.obj
 0001:000c89a1       ?HighlightTab@CTabPanelWin@@UAEXH_N@Z 004c99a1 f   TabCtrlWin.obj
 0001:000c89da       ?InvalidateBar@CTabPanelWin@@UAEXXZ 004c99da f   TabCtrlWin.obj
 0001:000c8a08       ?IsCreated@CTabPanelWin@@UAE_NXZ 004c9a08 f   TabCtrlWin.obj
 0001:000c8a19       ?IsSearchShownInt@CTabPanelWin@@UAE_N_N@Z 004c9a19 f   TabCtrlWin.obj
 0001:000c8a70       ?IsTabbarCreated@CTabPanelWin@@UAE_NXZ 004c9a70 f   TabCtrlWin.obj
 0001:000c8a81       ?IsTabbarNotify@CTabPanelWin@@UAE_NPAUtagNMHDR@@@Z 004c9a81 f   TabCtrlWin.obj
 0001:000c8aa6       ?IsToolbarCommand@CTabPanelWin@@UAE_NIJ@Z 004c9aa6 f   TabCtrlWin.obj
 0001:000c8ac2       ?IsToolbarCreated@CTabPanelWin@@UAE_NXZ 004c9ac2 f   TabCtrlWin.obj
 0001:000c8ad3       ?IsToolbarNotify@CTabPanelWin@@UAE_NPAUtagNMHDR@@@Z 004c9ad3 f   TabCtrlWin.obj
 0001:000c8af1       ?OnCaptionHiddenChanged@CTabPanelWin@@UAEX_N@Z 004c9af1 f   TabCtrlWin.obj
 0001:000c8ba0       ?OnConsoleActivatedInt@CTabPanelWin@@UAEXH@Z 004c9ba0 f   TabCtrlWin.obj
 0001:000c8c82       ?OnNotifyInt@CTabPanelWin@@UAE_NPAUtagNMHDR@@AAJ@Z 004c9c82 f   TabCtrlWin.obj
 0001:000c8dd2       ?OnWindowStateChanged@CTabPanelWin@@UAEXW4ConEmuWindowMode@@@Z 004c9dd2 f   TabCtrlWin.obj
 0001:000c8e22       ?QueryTabbarHeight@CTabPanelWin@@UAEHXZ 004c9e22 f   TabCtrlWin.obj
 0001:000c8e9c       ?ReBarProc@CTabPanelWin@@AAEJPAUHWND__@@IIJP6GJ0IIJ@Z@Z 004c9e9c f   TabCtrlWin.obj
 0001:000c9007       ?RePaintInt@CTabPanelWin@@UAEXXZ 004ca007 f   TabCtrlWin.obj
 0001:000c909c       ?RepositionInt@CTabPanelWin@@UAEXXZ 004ca09c f   TabCtrlWin.obj
 0001:000c94b2       ?SelectTabInt@CTabPanelWin@@UAEHH@Z 004ca4b2 f   TabCtrlWin.obj
 0001:000c9554       ?SetTabbarFont@CTabPanelWin@@UAEXPAUHFONT__@@@Z 004ca554 f   TabCtrlWin.obj
 0001:000c957b       ?SetToolBtnChecked@CTabPanelWin@@UAEXW4ToolbarCommandIdx@@_N@Z 004ca57b f   TabCtrlWin.obj
 0001:000c95a0       ?ShowBar@CTabPanelWin@@UAEX_N@Z 004ca5a0 f   TabCtrlWin.obj
 0001:000c95d7       ?ShowSearchPane@CTabPanelWin@@UAE_N_N0@Z 004ca5d7 f   TabCtrlWin.obj
 0001:000c97df       ?ShowTabsPane@CTabPanelWin@@UAEX_N@Z 004ca7df f   TabCtrlWin.obj
 0001:000c98a5       ?ShowToolsPane@CTabPanelWin@@UAEX_N@Z 004ca8a5 f   TabCtrlWin.obj
 0001:000c9a60       ?TabHitTest@CTabPanelWin@@AAEJ_NPAH@Z 004caa60 f   TabCtrlWin.obj
 0001:000c9ae5       ?TabProc@CTabPanelWin@@AAEJPAUHWND__@@IIJP6GJ0IIJ@Z@Z 004caae5 f   TabCtrlWin.obj
 0001:000c9c21       ?ToolProc@CTabPanelWin@@AAEJPAUHWND__@@IIJP6GJ0IIJ@Z@Z 004cac21 f   TabCtrlWin.obj
 0001:000c9de5       ?UpdateToolbarPos@CTabPanelWin@@AAEXXZ 004cade5 f   TabCtrlWin.obj
 0001:000c9f50       ?_ReBarProc@CTabPanelWin@@CGJPAUHWND__@@IIJ@Z 004caf50 f   TabCtrlWin.obj
 0001:000c9fad       ?_TabProc@CTabPanelWin@@CGJPAUHWND__@@IIJ@Z 004cafad f   TabCtrlWin.obj
 0001:000ca00a       ?_ToolProc@CTabPanelWin@@CGJPAUHWND__@@IIJ@Z 004cb00a f   TabCtrlWin.obj
 0001:000ca067       ??0CTab@@QAE@PBDH@Z        004cb067 f   TabID.obj
 0001:000ca06f       ??0CTabID@@QAE@PAVCVirtualConsole@@PB_WIHHH@Z 004cb06f f   TabID.obj
 0001:000ca0f2       ??0CTabStack@@QAE@XZ       004cb0f2 f   TabID.obj
 0001:000ca152       ??0TabDrawInfo@@QAE@XZ     004cb152 f i TabID.obj
 0001:000ca177       ??1CTab@@QAE@XZ            004cb177 f   TabID.obj
 0001:000ca1b1       ??1CTabID@@MAE@XZ          004cb1b1 f   TabID.obj
 0001:000ca1dd       ??1CTabStack@@QAE@XZ       004cb1dd f   TabID.obj
 0001:000ca23d       ??_GCTabID@@MAEPAXI@Z      004cb23d f i TabID.obj
 0001:000ca23d       ??_ECTabID@@MAEPAXI@Z      004cb23d f i TabID.obj
 0001:000ca262       ?AddRef@CTab@@QAEPAVCTabID@@PBDH@Z 004cb262 f   TabID.obj
 0001:000ca27b       ?AppendInt@CTabStack@@IAEHPAVCTabID@@HPAUMSectionLockSimple@@@Z 004cb27b f   TabID.obj
 0001:000ca2eb       ?CleanNulls@CTabStack@@IAEXXZ 004cb2eb f   TabID.obj
 0001:000ca33e       ?Empty@TabName@@QBE_NXZ    004cb33e f   TabID.obj
 0001:000ca347       ?GetCount@CTabStack@@QAEHXZ 004cb347 f   TabID.obj
 0001:000ca347       ?GetId@ContextBase@details@Concurrency@@UBEIXZ 004cb347 f   libconcrt:ContextBase.obj
 0001:000ca34b       ?GetIndexByTab@CTabStack@@QAEHPBVCTabID@@@Z 004cb34b f   TabID.obj
 0001:000ca3b0       ?GetLabel@CTabID@@QAEPB_WXZ 004cb3b0 f   TabID.obj
 0001:000ca3c6       ?GetName@CTabID@@QAEPB_WXZ 004cb3c6 f   TabID.obj
 0001:000ca3e5       ?GetTabByIndex@CTabStack@@QAE_NHAAVCTab@@@Z 004cb3e5 f   TabID.obj
 0001:000ca462       ?GetTabInfoByIndex@CTabStack@@QAE_NHAAUTabInfo@@@Z 004cb462 f   TabID.obj
 0001:000ca4cf       ?GetVisualToRealIndex@CTabStack@@IAEHH@Z 004cb4cf f   TabID.obj
 0001:000ca502       ?Init@CTab@@QAEXAAV1@@Z    004cb502 f   TabID.obj
 0001:000ca513       ?Init@CTab@@QAEXPAVCTabID@@@Z 004cb513 f   TabID.obj
 0001:000ca542       ?IsEqual@CTabID@@QAE_NPAVCVirtualConsole@@PB_WIHHI@Z 004cb542 f   TabID.obj
 0001:000ca5cb       ?MarkTabsInvalid@CTabStack@@QAEXW4MatchTabEnum@1@K@Z 004cb5cb f   TabID.obj
 0001:000ca648       ?RefreshFarStatus@CTabStack@@QAE_NKAAVCTab@@AAH1AA_N@Z 004cb648 f   TabID.obj
 0001:000ca7fc       ?ReleaseDrawRegion@CTabID@@QAEXXZ 004cb7fc f   TabID.obj
 0001:000ca819       ?ReleaseTabs@CTabStack@@QAEXH@Z 004cb819 f   TabID.obj
 0001:000ca8d4       ?RequestSize@CTabStack@@IAEXHPAUMSectionLockSimple@@@Z 004cb8d4 f   TabID.obj
 0001:000ca93f       ?Set@CTabID@@QAE_NPB_WIHHHI@Z 004cb93f f   TabID.obj
 0001:000ca9d5       ?Set@TabName@@QAEPB_WPB_W_N@Z 004cb9d5 f   TabID.obj
 0001:000caa5b       ?SetLabel@CTabID@@QAEXPB_W@Z 004cba5b f   TabID.obj
 0001:000caa72       ?SetName@CTabID@@QAE_NPB_W@Z 004cba72 f   TabID.obj
 0001:000caac1       ?UpdateAppend@CTabStack@@QAEXPAXAAVCTab@@H@Z 004cbac1 f   TabID.obj
 0001:000caad8       ?UpdateAppend@CTabStack@@QAEXPAXPAVCTabID@@H@Z 004cbad8 f   TabID.obj
 0001:000cabc8       ?UpdateBegin@CTabStack@@QAEPAXXZ 004cbbc8 f   TabID.obj
 0001:000cac12       ?UpdateEnd@CTabStack@@QAE_NPAXK@Z 004cbc12 f   TabID.obj
 0001:000cad79       ?UpdateFarWindow@CTabStack@@QAE_NPAXPAVCVirtualConsole@@PB_WIHHHAAVCTab@@@Z 004cbd79 f   TabID.obj
 0001:000cae97       ??0CTaskBar@@QAE@PAVCConEmuMain@@@Z 004cbe97 f   TaskBar.obj
 0001:000caeed       ??1CTaskBar@@UAE@XZ        004cbeed f   TaskBar.obj
 0001:000caf4e       ??_GCTaskBar@@UAEPAXI@Z    004cbf4e f i TaskBar.obj
 0001:000caf4e       ??_ECTaskBar@@UAEPAXI@Z    004cbf4e f i TaskBar.obj
 0001:000caf70       ?Taskbar_AddTabXP@CTaskBar@@QAEJPAUHWND__@@@Z 004cbf70 f   TaskBar.obj
 0001:000caf8e       ?Taskbar_DeleteTabXP@CTaskBar@@QAEJPAUHWND__@@@Z 004cbf8e f   TaskBar.obj
 0001:000cafac       ?Taskbar_GhostAppend@CTaskBar@@IAEXPAX@Z 004cbfac f   TaskBar.obj
 0001:000cafe2       ?Taskbar_GhostRemove@CTaskBar@@IAEXPAX@Z 004cbfe2 f   TaskBar.obj
 0001:000cb01b       ?Taskbar_GhostReorder@CTaskBar@@QAEXXZ 004cc01b f   TaskBar.obj
 0001:000cb0e1       ?Taskbar_GhostSnapshotRequired@CTaskBar@@QAE_NXZ 004cc0e1 f   TaskBar.obj
 0001:000cb0e9       ?Taskbar_Init@CTaskBar@@QAEXXZ 004cc0e9 f   TaskBar.obj
 0001:000cb18e       ?Taskbar_MarkFullscreenWindow@CTaskBar@@QAEJPAUHWND__@@H@Z 004cc18e f   TaskBar.obj
 0001:000cb2a8       ?Taskbar_RegisterTab@CTaskBar@@QAEJPAUHWND__@@PAXH@Z 004cc2a8 f   TaskBar.obj
 0001:000cb328       ?Taskbar_Release@CTaskBar@@QAEXXZ 004cc328 f   TaskBar.obj
 0001:000cb371       ?Taskbar_SetActiveTab@CTaskBar@@QAEJPAUHWND__@@@Z 004cc371 f   TaskBar.obj
 0001:000cb3b7       ?Taskbar_SetOverlay@CTaskBar@@QAEXPAUHICON__@@@Z 004cc3b7 f   TaskBar.obj
 0001:000cb459       ?Taskbar_SetProgressState@CTaskBar@@QAEJI@Z 004cc459 f   TaskBar.obj
 0001:000cb484       ?Taskbar_SetProgressValue@CTaskBar@@QAEJH@Z 004cc484 f   TaskBar.obj
 0001:000cb4c5       ?Taskbar_SetShield@CTaskBar@@QAEX_N@Z 004cc4c5 f   TaskBar.obj
 0001:000cb50b       ?Taskbar_UnregisterTab@CTaskBar@@QAEJPAUHWND__@@PAX@Z 004cc50b f   TaskBar.obj
 0001:000cb547       ?Taskbar_UpdateOverlay@CTaskBar@@QAEXXZ 004cc547 f   TaskBar.obj
 0001:000cb610       ?isTaskbarSmallIcons@CTaskBar@@QAE_NXZ 004cc610 f   TaskBar.obj
 0001:000cb68c       ??0CTaskBarGhost@@QAE@PAVCVirtualConsole@@@Z 004cc68c f   TaskBarGhost.obj
 0001:000cb6ff       ??1CTaskBarGhost@@UAE@XZ   004cc6ff f   TaskBarGhost.obj
 0001:000cb79b       ??_GCTaskBarGhost@@UAEPAXI@Z 004cc79b f i TaskBarGhost.obj
 0001:000cb79b       ??_ECTaskBarGhost@@UAEPAXI@Z 004cc79b f i TaskBarGhost.obj
 0001:000cb7c0       ?ActivateTaskbar@CTaskBarGhost@@QAEXXZ 004cc7c0 f   TaskBarGhost.obj
 0001:000cb7db       ?CalcThumbnailSize@CTaskBarGhost@@IAE_NHHAAH0@Z 004cc7db f   TaskBarGhost.obj
 0001:000cb85c       ?CheckTitle@CTaskBarGhost@@QAEPB_WH@Z 004cc85c f   TaskBarGhost.obj
 0001:000cb8f5       ?Create@CTaskBarGhost@@SAPAV1@PAVCVirtualConsole@@@Z 004cc8f5 f   TaskBarGhost.obj
 0001:000cba0e       ?CreateTabSnapshot@CTaskBarGhost@@QAEHXZ 004cca0e f   TaskBarGhost.obj
 0001:000cbd5d       ?CreateThumbnail@CTaskBarGhost@@IAEPAUHBITMAP__@@HH@Z 004ccd5d f   TaskBarGhost.obj
 0001:000cbff9       ?GetPreviewPosSize@CTaskBarGhost@@IAEXPAUtagPOINT@@000@Z 004ccff9 f   TaskBarGhost.obj
 0001:000cc0e6       ?GhostProc@CTaskBarGhost@@IAEJIIJ@Z 004cd0e6 f   TaskBarGhost.obj
 0001:000cc21b       ?GhostStatic@CTaskBarGhost@@KGJPAUHWND__@@IIJ@Z 004cd21b f   TaskBarGhost.obj
 0001:000cc2a3       ?GhostWnd@CTaskBarGhost@@QAEPAUHWND__@@XZ 004cd2a3 f   TaskBarGhost.obj
 0001:000cc2ae       ?NeedSnapshotCache@CTaskBarGhost@@QAE_NXZ 004cd2ae f   TaskBarGhost.obj
 0001:000cc32f       ?OnActivate@CTaskBarGhost@@IAEJIJ@Z 004cd32f f   TaskBarGhost.obj
 0001:000cc43c       ?OnClose@CTaskBarGhost@@IAEJXZ 004cd43c f   TaskBarGhost.obj
 0001:000cc464       ?OnCreate@CTaskBarGhost@@IAEJXZ 004cd464 f   TaskBarGhost.obj
 0001:000cc554       ?OnDestroy@CTaskBarGhost@@IAEJXZ 004cd554 f   TaskBarGhost.obj
 0001:000cc587       ?OnDwmSendIconicLivePreviewBitmap@CTaskBarGhost@@IAEJXZ 004cd587 f   TaskBarGhost.obj
 0001:000cc61d       ?OnDwmSendIconicThumbnail@CTaskBarGhost@@IAEJFF@Z 004cd61d f   TaskBarGhost.obj
 0001:000cc657       ?OnSysCommand@CTaskBarGhost@@IAEJIJ@Z 004cd657 f   TaskBarGhost.obj
 0001:000cc712       ?OnTimer@CTaskBarGhost@@IAEJI@Z 004cd712 f   TaskBarGhost.obj
 0001:000cc75a       ?UpdateGhostSize@CTaskBarGhost@@IAEXXZ 004cd75a f   TaskBarGhost.obj
 0001:000cc824       ?UpdateTabSnapshot@CTaskBarGhost@@QAEHHH@Z 004cd824 f   TaskBarGhost.obj
 0001:000cc899       ??$SafeDelete@VMModule@@@@YAXAAPAVMModule@@@Z 004cd899 f i TaskScheduler.obj
 0001:000cc8d6       ??0CTaskScheduler1@@QAE@XZ 004cd8d6 f   TaskScheduler.obj
 0001:000cc908       ??0CTaskScheduler2@@QAE@XZ 004cd908 f   TaskScheduler.obj
 0001:000cc946       ??0CTaskSchedulerBase@@QAE@XZ 004cd946 f   TaskScheduler.obj
 0001:000cc9a0       ??1CTaskScheduler1@@UAE@XZ 004cd9a0 f   TaskScheduler.obj
 0001:000cca3a       ??1CTaskScheduler2@@UAE@XZ 004cda3a f   TaskScheduler.obj
 0001:000ccb64       ??1CTaskSchedulerBase@@UAE@XZ 004cdb64 f   TaskScheduler.obj
 0001:000ccb8e       ??_ECTaskScheduler1@@UAEPAXI@Z 004cdb8e f i TaskScheduler.obj
 0001:000ccb8e       ??_GCTaskScheduler1@@UAEPAXI@Z 004cdb8e f i TaskScheduler.obj
 0001:000ccbb0       ??_ECTaskScheduler2@@UAEPAXI@Z 004cdbb0 f i TaskScheduler.obj
 0001:000ccbb0       ??_GCTaskScheduler2@@UAEPAXI@Z 004cdbb0 f i TaskScheduler.obj
 0001:000ccbd2       ??_ECTaskSchedulerBase@@UAEPAXI@Z 004cdbd2 f i TaskScheduler.obj
 0001:000ccbd2       ??_GCTaskSchedulerBase@@UAEPAXI@Z 004cdbd2 f i TaskScheduler.obj
 0001:000ccbf4       ?Create@CTaskScheduler1@@UAEJ_NPB_W111@Z 004cdbf4 f   TaskScheduler.obj
 0001:000ccefb       ?Create@CTaskScheduler2@@UAEJ_NPB_W111@Z 004cdefb f   TaskScheduler.obj
 0001:000cd367       ?CreateProcessScheduled@@YAH_NKPA_WPAU_SECURITY_ATTRIBUTES@@2HKPAXPB_WPAU_STARTUPINFOW@@PAU_PROCESS_INFORMATION@@PAK@Z 004ce367 f   TaskScheduler.obj
 0001:000cd708       ?DisplaySchedulerError@CTaskSchedulerBase@@QAEXPB_W@Z 004ce708 f   TaskScheduler.obj
 0001:000cd7b5       ?GetState@CTaskScheduler1@@UAE?AW4TaskSchedulerState@@XZ 004ce7b5 f   TaskScheduler.obj
 0001:000cd911       ?GetState@CTaskScheduler2@@UAE?AW4TaskSchedulerState@@XZ 004ce911 f   TaskScheduler.obj
 0001:000cda64       ?Run@CTaskScheduler1@@UAEJXZ 004cea64 f   TaskScheduler.obj
 0001:000cdb76       ?Run@CTaskScheduler2@@UAEJXZ 004ceb76 f   TaskScheduler.obj
 0001:000cdc5a       ??0TermX@@QAE@XZ           004cec5a f   TermX.obj
 0001:000cdc66       ?GetSubstitute@TermX@@QAE_NABU_KEY_EVENT_RECORD@@AAUCEStr@@@Z 004cec66 f   TermX.obj
 0001:000ce16f       ?GetSubstitute@TermX@@QAE_NABU_MOUSE_EVENT_RECORD@@W4TermMouseMode@@AAUCEStr@@@Z 004cf16f f   TermX.obj
 0001:000ce55b       ?Reset@TermX@@QAEXXZ       004cf55b f   TermX.obj
 0001:000ce604       ??0CToolImg@@QAE@XZ        004cf604 f   ToolImg.obj
 0001:000ce637       ??1CToolImg@@QAE@XZ        004cf637 f   ToolImg.obj
 0001:000ce676       ?AddBitmap@CToolImg@@IAEHPAUHBITMAP__@@H@Z 004cf676 f   ToolImg.obj
 0001:000ce714       ?AddButtons@CToolImg@@QAEHPAUHINSTANCE__@@HH@Z 004cf714 f   ToolImg.obj
 0001:000ce755       ?AddButtonsMapped@CToolImg@@QAAHPAUHINSTANCE__@@HHHKKZZ 004cf755 f   ToolImg.obj
 0001:000ce79e       ?Create@CToolImg@@QAE_NHHHK@Z 004cf79e f   ToolImg.obj
 0001:000ce7f0       ?CreateButtonField@CToolImg@@IAE_NPB_WKPAUButtonRowInfo@1@H_N@Z 004cf7f0 f   ToolImg.obj
 0001:000ce8c7       ?CreateDonateButton@CToolImg@@SAPAV1@XZ 004cf8c7 f   ToolImg.obj
 0001:000ce977       ?CreateField@CToolImg@@IAE_NHHK@Z 004cf977 f   ToolImg.obj
 0001:000cea9a       ?CreateSearchButton@CToolImg@@SAPAV1@XZ 004cfa9a f   ToolImg.obj
 0001:000ceb55       ?FreeBMP@CToolImg@@IAEXXZ  004cfb55 f   ToolImg.obj
 0001:000ceb8a       ?FreeDC@CToolImg@@IAEXXZ   004cfb8a f   ToolImg.obj
 0001:000cebce       ?GetBitmap@CToolImg@@QAEPAUHBITMAP__@@XZ 004cfbce f   ToolImg.obj
 0001:000cebda       ?GetSizeForHeight@CToolImg@@QAE_NHAAH0@Z 004cfbda f   ToolImg.obj
 0001:000cec9f       ?PaintBitmap@CToolImg@@IAE_NPAUHBITMAP__@@HHPAUHDC__@@HHHH@Z 004cfc9f f   ToolImg.obj
 0001:000ced25       ?PaintButton@CToolImg@@QAE_NHPAUHDC__@@HHHH@Z 004cfd25 f   ToolImg.obj
 0001:000cef11       ?AddTrayIcon@TrayIcon@@QAEXXZ 004cff11 f   TrayIcon.obj
 0001:000cef58       ?HideWindowToTray@TrayIcon@@QAEXPB_W@Z 004cff58 f   TrayIcon.obj
 0001:000ceff1       ?LoadIconW@TrayIcon@@QAEXPAUHWND__@@H@Z 004cfff1 f   TrayIcon.obj
 0001:000cf02b       ?OnTaskbarCreated@TrayIcon@@QAEXXZ 004d002b f   TrayIcon.obj
 0001:000cf041       ?OnTryIcon@TrayIcon@@QAEJPAUHWND__@@IIJ@Z 004d0041 f   TrayIcon.obj
 0001:000cf2eb       ?RemoveTrayIcon@TrayIcon@@QAEX_N@Z 004d02eb f   TrayIcon.obj
 0001:000cf331       ?RestoreWindowFromTray@TrayIcon@@QAEX_N0@Z 004d0331 f   TrayIcon.obj
 0001:000cf3f1       ?SetMenuItemText@TrayIcon@@AAEXPAUHMENU__@@IPB_W@Z 004d03f1 f   TrayIcon.obj
 0001:000cf475       ?SettingsChanged@TrayIcon@@QAEXXZ 004d0475 f   TrayIcon.obj
 0001:000cf4dd       ?ShowTrayIcon@TrayIcon@@QAEXPB_WW4TrayIconMsgSource@@@Z 004d04dd f   TrayIcon.obj
 0001:000cf555       ?UpdateTitle@TrayIcon@@QAEXXZ 004d0555 f   TrayIcon.obj
 0001:000cf620       ??$swprintf_c@$0IAA@@@YAHAAY0IAA@_WPB_WZZ 004d0620 f i Update.obj
 0001:000cf639       ??0CConEmuUpdate@@QAE@XZ   004d0639 f   Update.obj
 0001:000cf779       ??1CConEmuUpdate@@QAE@XZ   004d0779 f   Update.obj
 0001:000cfa03       ?Check7zipInstalled@CConEmuUpdate@@IAE_NXZ 004d0a03 f   Update.obj
 0001:000cfa9c       ?CheckProcInt@CConEmuUpdate@@IAEKXZ 004d0a9c f   Update.obj
 0001:000d019b       ?CheckThreadProc@CConEmuUpdate@@KGKPAX@Z 004d119b f   Update.obj
 0001:000d01cf       ?CreateBatchFile@CConEmuUpdate@@IAEPA_WPB_W@Z 004d11cf f   Update.obj
 0001:000d10d2       ?CreateTempFile@CConEmuUpdate@@IAEPA_WPB_W0AAPAX@Z 004d20d2 f   Update.obj
 0001:000d1449       ?CreateVersionOnServerInfo@CConEmuUpdate@@IAEPA_W_NPB_W@Z 004d2449 f   Update.obj
 0001:000d1488       ?Deinit@wininet@CConEmuUpdate@@QAE_N_N@Z 004d2488 f   Update.obj
 0001:000d14ae       ?DeleteBadTempFiles@CConEmuUpdate@@IAEXXZ 004d24ae f   Update.obj
 0001:000d152d       ?DownloadFile@CConEmuUpdate@@IAEHPB_W0AAKHPAT_LARGE_INTEGER@@@Z 004d252d f   Update.obj
 0001:000d16c7       ?ErrorCallback@CConEmuUpdate@@KGXPBUCEDownloadInfo@@@Z 004d26c7 f   Update.obj
 0001:000d16ed       ?GetCurVerInfo@CConEmuUpdate@@QAEPA_WXZ 004d26ed f   Update.obj
 0001:000d175d       ?GetFormatted@CEDownloadInfo@@QBEPA_W_N@Z 004d275d f i Update.obj
 0001:000d1867       ?GetUpdateProgress@CConEmuUpdate@@QAEFXZ 004d2867 f   Update.obj
 0001:000d18e0       ?GetVersionsFromIni@CConEmuUpdate@@IAEXPB_WAAY0GE@_W11@Z 004d28e0 f   Update.obj
 0001:000d1afb       ?InUpdate@CConEmuUpdate@@QAE?AW4UpdateStep@1@XZ 004d2afb f   Update.obj
 0001:000d1b35       ?Init@wininet@CConEmuUpdate@@QAE_NPAV2@@Z 004d2b35 f   Update.obj
 0001:000d1c7c       ?IsLocalFile@CConEmuUpdate@@IAE_NAAPA_W@Z 004d2c7c f   Update.obj
 0001:000d1d18       ?IsLocalFile@CConEmuUpdate@@IAE_NAAPB_W@Z 004d2d18 f   Update.obj
 0001:000d1d37       ?IsUpdatePackage@CConEmuUpdate@@SA_NPB_W@Z 004d2d37 f   Update.obj
 0001:000d1e91       ?LoadVersionInfoFromServer@CConEmuUpdate@@IAE_NXZ 004d2e91 f   Update.obj
 0001:000d2185       ?LocalUpdate@CConEmuUpdate@@SA_NPB_W@Z 004d3185 f   Update.obj
 0001:000d21dd       ?LogCallback@CConEmuUpdate@@KGXPBUCEDownloadInfo@@@Z 004d31dd f   Update.obj
 0001:000d2251       ?NeedRunElevation@CConEmuUpdate@@SA_NXZ 004d3251 f   Update.obj
 0001:000d23d8       ?ProgressCallback@CConEmuUpdate@@KGXPBUCEDownloadInfo@@@Z 004d33d8 f   Update.obj
 0001:000d2417       ?QueryConfirmation@CConEmuUpdate@@IAEHW4UpdateStep@1@@Z 004d3417 f   Update.obj
 0001:000d2513       ?QueryConfirmationCallback@CConEmuUpdate@@KAJJ@Z 004d3513 f   Update.obj
 0001:000d2536       ?QueryConfirmationDownload@CConEmuUpdate@@IAEHXZ 004d3536 f   Update.obj
 0001:000d2954       ?QueryConfirmationNoNewVer@CConEmuUpdate@@IAEHXZ 004d3954 f   Update.obj
 0001:000d2c88       ?QueryConfirmationUpdate@CConEmuUpdate@@IAEHXZ 004d3c88 f   Update.obj
 0001:000d2efe       ?QueryRetryVersionCheck@CConEmuUpdate@@KAJJ@Z 004d3efe f   Update.obj
 0001:000d308b       ?ReportBrokenIni@CConEmuUpdate@@IAEXPB_W000@Z 004d408b f   Update.obj
 0001:000d311f       ?ReportError@CConEmuUpdate@@IAEXPB_W00K@Z 004d411f f   Update.obj
 0001:000d31dd       ?ReportError@CConEmuUpdate@@IAEXPB_W0K@Z 004d41dd f   Update.obj
 0001:000d3268       ?ReportError@CConEmuUpdate@@IAEXPB_WK@Z 004d4268 f   Update.obj
 0001:000d32cc       ?ReportErrorInt@CConEmuUpdate@@IAEXPA_W@Z 004d42cc f   Update.obj
 0001:000d344d       ?RequestExitUpdate@CConEmuUpdate@@KAJJ@Z 004d444d f   Update.obj
 0001:000d3488       ?RequestTerminate@CConEmuUpdate@@IAEXXZ 004d4488 f   Update.obj
 0001:000d34b2       ?SetCallback@wininet@CConEmuUpdate@@QAEXW4CEDownloadCommand@@P6GXPBUCEDownloadInfo@@@ZJ@Z 004d44b2 f   Update.obj
 0001:000d34dd       ?ShowLastError@CConEmuUpdate@@KAJJ@Z 004d44dd f   Update.obj
 0001:000d35d5       ?StartCheckProcedure@CConEmuUpdate@@QAEXI@Z 004d45d5 f   Update.obj
 0001:000d381f       ?StartLocalUpdate@CConEmuUpdate@@IAE_NPB_W@Z 004d481f f   Update.obj
 0001:000d3c70       ?StopChecking@CConEmuUpdate@@QAEXXZ 004d4c70 f   Update.obj
 0001:000d3d60       ?WaitAllInstances@CConEmuUpdate@@IAEXXZ 004d4d60 f   Update.obj
 0001:000d3e29       ??0ConEmuUpdateSettings@@QAE@XZ 004d4e29 f   UpdateSet.obj
 0001:000d3e5d       ??1ConEmuUpdateSettings@@QAE@XZ 004d4e5d f   UpdateSet.obj
 0001:000d3ed2       ?CheckHourlyUpdate@ConEmuUpdateSettings@@QAEXXZ 004d4ed2 f   UpdateSet.obj
 0001:000d3f04       ?FreePointers@ConEmuUpdateSettings@@QAEXXZ 004d4f04 f   UpdateSet.obj
 0001:000d3ff2       ?GetDefaultUpdateChannel@ConEmuUpdateSettings@@SA?AW4Builds@1@XZ 004d4ff2 f   UpdateSet.obj
 0001:000d3ff5       ?GetUpdateInetToolCmd@ConEmuUpdateSettings@@QAEPB_WXZ 004d4ff5 f   UpdateSet.obj
 0001:000d400e       ?IsVerLocationDeprecated@ConEmuUpdateSettings@@QAE_NPB_W@Z 004d500e f   UpdateSet.obj
 0001:000d409a       ?LoadFrom@ConEmuUpdateSettings@@QAEXPAU1@@Z 004d509a f   UpdateSet.obj
 0001:000d418f       ?ResetToDefaults@ConEmuUpdateSettings@@QAEXXZ 004d518f f   UpdateSet.obj
 0001:000d448e       ?SetUpdateVerLocation@ConEmuUpdateSettings@@QAEXPB_W@Z 004d548e f   UpdateSet.obj
 0001:000d4516       ?UpdateArcCmdLine@ConEmuUpdateSettings@@QAEPB_WXZ 004d5516 f   UpdateSet.obj
 0001:000d4531       ?UpdateDownloadSetup@ConEmuUpdateSettings@@QAEEXZ 004d5531 f   UpdateSet.obj
 0001:000d46d5       ?UpdateExeCmdLine@ConEmuUpdateSettings@@QAEPB_WAAY03_W@Z 004d56d5 f   UpdateSet.obj
 0001:000d4716       ?UpdateVerLocation@ConEmuUpdateSettings@@QAEPB_WXZ 004d5716 f   UpdateSet.obj
 0001:000d4728       ?UpdateVerLocationDefault@ConEmuUpdateSettings@@QAEPB_WXZ 004d5728 f   UpdateSet.obj
 0001:000d472e       ?UpdatesAllowed@ConEmuUpdateSettings@@QAE_NAAY0IA@_W@Z 004d572e f   UpdateSet.obj
 0001:000d48cb       ??0CConEmuChild@@QAE@PAVCVirtualConsole@@@Z 004d58cb f   VConChild.obj
 0001:000d4a29       ??1CConEmuChild@@MAE@XZ    004d5a29 f   VConChild.obj
 0001:000d4a62       ??_GCConEmuChild@@MAEPAXI@Z 004d5a62 f i VConChild.obj
 0001:000d4a62       ??_ECConEmuChild@@MAEPAXI@Z 004d5a62 f i VConChild.obj
 0001:000d4a87       ?BackWndProc@CConEmuChild@@SGJPAUHWND__@@IIJ@Z 004d5a87 f   VConChild.obj
 0001:000d4e9a       ?CalcDCMargins@CConEmuChild@@QAE?AUtagRECT@@ABU2@@Z 004d5e9a f   VConChild.obj
