 ConEmu

 Timestamp is 60d8de78 (Sun Jun 27 22:24:24 2021)

 Preferred load address is 10000000

 Start         Length     Name                   Class
 0001:00000000 00000010H .text$di                CODE
 0001:00000010 00028925H .text$mn                CODE
 0001:00028935 0000055eH .text$x                 CODE
 0001:00028e93 0000000aH .text$yd                CODE
 0002:00000000 00000338H .idata$5                DATA
 0002:00000338 00000004H .00cfg                  DATA
 0002:0000033c 00000004H .CRT$XCA                DATA
 0002:00000340 00000004H .CRT$XCU                DATA
 0002:00000344 00000004H .CRT$XCZ                DATA
 0002:00000348 00000004H .CRT$XIA                DATA
 0002:0000034c 00000010H .CRT$XIC                DATA
 0002:0000035c 00000004H .CRT$XIZ                DATA
 0002:00000360 00000004H .CRT$XLA                DATA
 0002:00000364 00000004H .CRT$XLZ                DATA
 0002:00000368 00000004H .CRT$XPA                DATA
 0002:0000036c 00000008H .CRT$XPX                DATA
 0002:00000374 00000004H .CRT$XPXA               DATA
 0002:00000378 00000004H .CRT$XPZ                DATA
 0002:0000037c 00000004H .CRT$XTA                DATA
 0002:00000380 00000010H .CRT$XTZ                DATA
 0002:00000384 00000000H .gfids$x                DATA
 0002:00000384 00000000H .gfids$y                DATA
 0002:00000390 000096d8H .rdata                  DATA
 0002:00009a68 00000018H .rdata$T                DATA
 0002:00009a80 000005b0H .rdata$r                DATA
 0002:0000a030 00000088H .rdata$sxdata           DATA
 0002:0000a0b8 000003b0H .rdata$zzzdbg           DATA
 0002:0000a468 00000004H .rtc$IAA                DATA
 0002:0000a46c 00000004H .rtc$IZZ                DATA
 0002:0000a470 00000004H .rtc$TAA                DATA
 0002:0000a474 00000004H .rtc$TZZ                DATA
 0002:0000a478 00000004H .tls                    DATA
 0002:0000a47c 00000004H .tls$                   DATA
 0002:0000a480 00000008H .tls$ZZZ                DATA
 0002:0000a488 00000b88H .xdata$x                DATA
 0002:0000b010 000002e0H .edata                  DATA
 0002:0000b2f0 00000064H .idata$2                DATA
 0002:0000b354 00000014H .idata$3                DATA
 0002:0000b368 00000338H .idata$4                DATA
 0002:0000b6a0 00000e9eH .idata$6                DATA
 0003:00000000 00000988H .data                   DATA
 0003:00000988 00000388H .data$r                 DATA
 0003:00000d10 0000a248H .bss                    DATA
 0004:00000000 000000a0H .rsrc$01                DATA
 0004:000000a0 00000488H .rsrc$02                DATA

  Address         Publics by Value              Rva+Base       Lib:Object

 0000:00000000       ___guard_fids_count        00000000     <absolute>
 0000:00000000       ___hybrid_code_map_count   00000000     <absolute>
 0000:00000000       ___guard_iat_count         00000000     <absolute>
 0000:00000000       ___dynamic_value_reloc_table 00000000     <absolute>
 0000:00000000       ___guard_longjmp_count     00000000     <absolute>
 0000:00000000       __except_list              00000000     <absolute>
 0000:00000000       ___guard_fids_table        00000000     <absolute>
 0000:00000000       ___guard_longjmp_table     00000000     <absolute>
 0000:00000000       ___guard_iat_table         00000000     <absolute>
 0000:00000000       ___hybrid_auxiliary_iat    00000000     <absolute>
 0000:00000000       ___volatile_metadata       00000000     <absolute>
 0000:00000000       ___enclave_config          00000000     <absolute>
 0000:00000000       ___hybrid_code_map         00000000     <absolute>
 0000:00000022       ___safe_se_handler_count   00000022     <absolute>
 0000:0000002c       __tls_array                0000002c     <absolute>
 0000:00000100       ___guard_flags             00000100     <absolute>
 0000:00000000       ___ImageBase               10000000     <linker-defined>
 0001:00000010       ??$swprintf_c@$0EA@@@YAHAAY0EA@_WPB_WZZ 10001010 f i ConEmuInjects.obj
 0001:00000026       ??$swprintf_c@$0IA@@@YAHAAY0IA@_WPB_WZZ 10001026 f i ConEmuInjects.obj
 0001:0000003f       ??$swprintf_c@$0PP@@@YAHAAY0PP@_WPB_WZZ 1000103f f i ConEmuInjects.obj
 0001:00000058       ?ShutdownHooks@@YAXXZ      10001058 f   ConEmuInjects.obj
 0001:00000189       ?StartupConsoleHooks@@YAXXZ 10001189 f   ConEmuInjects.obj
 0001:000001f2       ?StartupHooks@@YA_NPAUHINSTANCE__@@@Z 100011f2 f   ConEmuInjects.obj
 0001:000004c3       ?StringCchVPrintfW@@YGJPA_WIPB_WPAD@Z 100014c3 f i ConEmuInjects.obj
 0001:0000051a       ___local_stdio_printf_options 1000151a f i ConEmuInjects.obj
 0001:00000520       __vsnwprintf_l             10001520 f i ConEmuInjects.obj
 0001:00000552       ?ProcessSynchroEventW3@@YGHPAX@Z 10001552 f   ConEmuPlugin.obj
 0001:00000562       ?ProcessEditorEventW3@@YGHPAX@Z 10001562 f   ConEmuPlugin.obj
 0001:00000572       ?ProcessViewerEventW3@@YGHPAX@Z 10001572 f   ConEmuPlugin.obj
 0001:00000582       ?ExitFARW3@@YGXPAX@Z       10001582 f   ConEmuPlugin.obj
 0001:000005c4       _ExitFARW@0                100015c4 f   ConEmuPlugin.obj
 0001:00000604       ?ProcessEditorEvent@@YGHHPAX@Z 10001604 f   ConEmuPlugin.obj
 0001:00000604       _ProcessEditorEventW@8     10001604 f   ConEmuPlugin.obj
 0001:0000061c       _ProcessSynchroEventW@8    1000161c f   ConEmuPlugin.obj
 0001:00000635       _ProcessViewerEventW@8     10001635 f   ConEmuPlugin.obj
 0001:00000635       ?ProcessViewerEvent@@YGHHPAX@Z 10001635 f   ConEmuPlugin.obj
 0001:0000064d       ?ActivateConsole@@YGHXZ    1000164d f   ConEmuPlugin.obj
 0001:000007f9       ?ExitFAR@@YGXXZ            100017f9 f   ConEmuPlugin.obj
 0001:00000839       ?GetFarHWND2@@YGPAUHWND__@@H@Z 10001839 f   ConEmuPlugin.obj
 0001:0000089a       ?GetFarHWND@@YGPAUHWND__@@XZ 1000189a f   ConEmuPlugin.obj
 0001:000008a2       ?GetFarVersion@@YGXPAUFarVersion@@@Z 100018a2 f   ConEmuPlugin.obj
 0001:000008bc       ?GetMinFarVersion@@YGHXZ   100018bc f   ConEmuPlugin.obj
 0001:000008da       ?GetPluginInfo@@YGXPAX@Z   100018da f   ConEmuPlugin.obj
 0001:0000090e       ?GetPluginInfoW@@YGXPAX@Z  1000190e f   ConEmuPlugin.obj
 0001:0000091e       ?IsConsoleActive@@YGHXZ    1000191e f   ConEmuPlugin.obj
 0001:0000095d       ?IsTerminalMode@@YGHXZ     1000195d f   ConEmuPlugin.obj
 0001:00000963       ?OpenPlugin@@YGPAXHH@Z     10001963 f   ConEmuPlugin.obj
 0001:0000097e       ?OpenW@@YGPAXPBX@Z         1000197e f   ConEmuPlugin.obj
 0001:0000098e       ?ProcessEditorInput@@YGHPBU_INPUT_RECORD@@@Z 1000198e f   ConEmuPlugin.obj
 0001:000009a6       ?RegisterBackground@@YGHPAURegisterBackgroundArg@@@Z 100019a6 f   ConEmuPlugin.obj
 0001:00000a15       ?RegisterPanelView@@YGHPAUPanelViewInit@@@Z 10001a15 f   ConEmuPlugin.obj
 0001:00000b45       ?SetStartupInfo@@YGXPAX@Z  10001b45 f   ConEmuPlugin.obj
 0001:00000b8b       ?SetupExportsFar3@@YAXXZ   10001b8b f   ConEmuPlugin.obj
 0001:00000b9e       ?SyncExecute@@YGHPAUHINSTANCE__@@P6GXJ@ZJ@Z 10001b9e f   ConEmuPlugin.obj
 0001:00000bdc       _DllMain@12                10001bdc f   ConEmuPlugin.obj
 0001:00000c03       _GetMinFarVersionW@0       10001c03 f   ConEmuPlugin.obj
 0001:00000c09       _OpenPluginW@8             10001c09 f   ConEmuPlugin.obj
 0001:00000c36       _ProcessEditorInputW@4     10001c36 f   ConEmuPlugin.obj
 0001:00000c46       _SetStartupInfoW@4         10001c46 f   ConEmuPlugin.obj
 0001:00000c68       ??0CPluginW1900@@QAE@XZ    10001c68 f   ConEmuPlugin1900.obj
 0001:00000df1       ??_GCPluginW1900@@UAEPAXI@Z 10001df1 f i ConEmuPlugin1900.obj
 0001:00000df1       ??_ECPluginW1900@@UAEPAXI@Z 10001df1 f i ConEmuPlugin1900.obj
 0001:0000116e       ?CheckPanelExist@CPluginW1900@@UAE_NXZ 1000216e f   ConEmuPlugin1900.obj
 0001:00001191       ?Color2BgIndex@Far3Color@@SAXKHAAGPBK@Z 10002191 f i ConEmuPlugin1900.obj
 0001:00001263       ?Color2FgIndex@Far3Color@@SAXKAAGPBK@Z 10002263 f i ConEmuPlugin1900.obj
 0001:0000131b       ?ExecuteSynchroApi@CPluginW1900@@UAE_NXZ 1000231b f   ConEmuPlugin1900.obj
 0001:0000133e       ?ExitFar@CPluginW1900@@UAEXXZ 1000233e f   ConEmuPlugin1900.obj
 0001:000013a5       ?FarColor_3_2@@YAEABUFarColor@@_N@Z 100023a5 f i ConEmuPlugin1900.obj
 0001:00001450       ?GetActiveWindowType@CPluginW1900@@UAEHXZ 10002450 f   ConEmuPlugin1900.obj
 0001:000014c9       ?GetEditorModifiedState@CPluginW1900@@UAEKXZ 100024c9 f   ConEmuPlugin1900.obj
 0001:00001505       ?GetFarRect@CPluginW1900@@UAE_NAAU_SMALL_RECT@@@Z 10002505 f   ConEmuPlugin1900.obj
 0001:00001592       ?GetMacroArea@CPluginW1900@@UAEHXZ 10002592 f   ConEmuPlugin1900.obj
 0001:000015a6       ?GetMsg@CPluginW1900@@UAEPB_WHPA_WI@Z 100025a6 f   ConEmuPlugin1900.obj
 0001:000015ec       ?GetPanelDir@CPluginW1900@@UAEPA_WKPA_WH@Z 100025ec f   ConEmuPlugin1900.obj
 0001:000016f1       ?GetPanelInfo@CPluginW1900@@UAE_NKPAUCEPanelInfo@@@Z 100026f1 f   ConEmuPlugin1900.obj
 0001:00001958       ?GetPanelItemInfo@CPluginW1900@@UAE_NABUCEPanelInfo@@_NHAAU_WIN32_FIND_DATAW@@PAPA_W@Z 10002958 f   ConEmuPlugin1900.obj
 0001:00001ab2       ?GetPluginInfoPtr@CPluginW1900@@UAEXPAX@Z 10002ab2 f   ConEmuPlugin1900.obj
 0001:00001afb       ?GetStdIndex@Far3Color@@SAHKPBK@Z 10002afb f i ConEmuPlugin1900.obj
 0001:00001b20       ?GetWindowCount@CPluginW1900@@UAEHXZ 10002b20 f   ConEmuPlugin1900.obj
 0001:00001b41       ?GetWindowTypeName@CPluginW995@@UAEPB_WH@Z 10002b41 f   ConEmuPlugin995.obj
 0001:00001b41       ?GetWindowTypeName@CPluginW2800@@UAEPB_WH@Z 10002b41 f   ConEmuPlugin2800.obj
 0001:00001b41       ?GetWindowTypeName@CPluginAnsi@@UAEPB_WH@Z 10002b41 f   ConEmuPluginA.obj
 0001:00001b41       ?GetWindowTypeName@CPluginW1900@@UAEPB_WH@Z 10002b41 f   ConEmuPlugin1900.obj
 0001:00001b98       ?GuiMacroDlg@CPluginW1900@@UAEXXZ 10002b98 f   ConEmuPlugin1900.obj
 0001:00001b9d       ?InputBox@CPluginW1900@@UAE_NPB_W000AAPA_W@Z 10002b9d f   ConEmuPlugin1900.obj
 0001:00001c27       ?IsMacroActive@CPluginW1900@@UAE_NXZ 10002c27 f   ConEmuPlugin1900.obj
 0001:00001c51       ?LoadFarColors@CPluginW1900@@UAEXAAY0BAA@E@Z 10002c51 f   ConEmuPlugin1900.obj
 0001:00001da8       ?LoadFarSettings@CPluginW1900@@UAEXPAUCEFarInterfaceSettings@@PAUCEFarPanelSettings@@@Z 10002da8 f   ConEmuPlugin1900.obj
 0001:00001eb6       ?Open@CPluginW1900@@UAEPAXPBX@Z 10002eb6 f   ConEmuPlugin1900.obj
 0001:00001f82       ?OpenEditor@CPluginW1900@@UAE_NPB_W_N11HH@Z 10002f82 f   ConEmuPlugin1900.obj
 0001:00002023       ?PanelControlApi@CPluginW1900@@UAEHPAXHH0@Z 10003023 f   ConEmuPlugin1900.obj
 0001:00002040       ?PostMacroApi@CPluginW1900@@UAEXPB_WPAU_INPUT_RECORD@@_N@Z 10003040 f   ConEmuPlugin1900.obj
 0001:00002529       ?ProcessEditorEventPtr@CPluginW1900@@UAEHPAX@Z 10003529 f   ConEmuPlugin1900.obj
 0001:00002529       ?ProcessEditorEventPtr@CPluginW2800@@UAEHPAX@Z 10003529 f   ConEmuPlugin2800.obj
 0001:0000253d       ?ProcessEditorInputPtr@CPluginW1900@@UAEHPBX@Z 1000353d f   ConEmuPlugin1900.obj
 0001:0000255b       ?ProcessSynchroEventPtr@CPluginW2800@@UAEHPAX@Z 1000355b f   ConEmuPlugin2800.obj
 0001:0000255b       ?ProcessSynchroEventPtr@CPluginW1900@@UAEHPAX@Z 1000355b f   ConEmuPlugin1900.obj
 0001:00002577       ?ProcessViewerEventPtr@CPluginW1900@@UAEHPAX@Z 10003577 f   ConEmuPlugin1900.obj
 0001:00002577       ?ProcessViewerEventPtr@CPluginW2800@@UAEHPAX@Z 10003577 f   ConEmuPlugin2800.obj
 0001:0000258b       ?RedrawAll@CPluginW1900@@UAEXXZ 1000358b f   ConEmuPlugin1900.obj
 0001:000025ac       ?SetStartupInfoPtr@CPluginW1900@@UAEXPAX@Z 100035ac f   ConEmuPlugin1900.obj
 0001:000026af       ?SetWindow@CPluginW1900@@UAEXH@Z 100036af f   ConEmuPlugin1900.obj
 0001:000026ea       ?ShowMessage@CPluginW1900@@UAEHPB_WH_N@Z 100036ea f   ConEmuPlugin1900.obj
 0001:0000274f       ?ShowPluginMenu@CPluginW1900@@UAEHPAUConEmuPluginMenuItem@@HH@Z 1000374f f   ConEmuPlugin1900.obj
 0001:0000288f       ?ShowUserScreen@CPluginW1900@@UAEX_N@Z 1000388f f   ConEmuPlugin1900.obj
 0001:000028b4       ?ShutdownPluginStep@CPluginBase@@SAXPB_WHHHH@Z 100038b4 f   ConEmuPluginBase.obj
 0001:000028b4       ?StopWaitEndSynchro@CPluginW1900@@UAEXXZ 100038b4 f   ConEmuPlugin1900.obj
 0001:000028b4       @_guard_check_icall_nop@4  100038b4 f   LIBCMT:guard_support.obj
 0001:000028b4       ?StopWaitEndSynchro@CPluginW2800@@UAEXXZ 100038b4 f   ConEmuPlugin2800.obj
 0001:000028b4       ?PlugServerInit@@YAXXZ     100038b4 f   PluginSrv.obj
 0001:000028b4       ?WaitEndSynchro@CPluginW1900@@UAEXXZ 100038b4 f   ConEmuPlugin1900.obj
 0001:000028b4       ?StopWaitEndSynchro@CPluginAnsi@@UAEXXZ 100038b4 f   ConEmuPluginA.obj
 0001:000028b4       ?_Doraise@exception@stdext@@MBEXXZ 100038b4 f   common-kernel32:CEStr.obj
 0001:000028b4       ?WaitEndSynchro@CPluginAnsi@@UAEXXZ 100038b4 f   ConEmuPluginA.obj
 0001:000028b4       ?WaitEndSynchro@CPluginW2800@@UAEXXZ 100038b4 f   ConEmuPlugin2800.obj
 0001:000028b5       ?UpdateConEmuTabsApi@CPluginW1900@@UAE_NH@Z 100038b5 f   ConEmuPlugin1900.obj
 0001:00002d0a       ??$_Emplace_reallocate@ABUWindowInfo@@@?$vector@UWindowInfo@@V?$MArrayAllocator@UWindowInfo@@@@@std@@QAEPAUWindowInfo@@QAU2@ABU2@@Z 10003d0a f i ConEmuPlugin2800.obj
 0001:00002dc7       ??$_Fill_unchecked1@PAUWindowInfo@@U1@@std@@YAXPAUWindowInfo@@0ABU1@U?$integral_constant@_N$0A@@0@@Z 10003dc7 f i ConEmuPlugin2800.obj
 0001:00002dea       ??$_Uninit_alloc_fill_n1@PAUWindowInfo@@IV?$MArrayAllocator@UWindowInfo@@@@@std@@YAPAUWindowInfo@@QAU1@IABU1@AAV?$MArrayAllocator@UWindowInfo@@@@U?$integral_constant@_N$0A@@0@@Z 10003dea f i ConEmuPlugin2800.obj
 0001:00002e0f       ??$_Uninitialized_fill_n@PAUWindowInfo@@IV?$MArrayAllocator@UWindowInfo@@@@@std@@YAPAUWindowInfo@@QAU1@IABU1@AAV?$MArrayAllocator@UWindowInfo@@@@@Z 10003e0f f i ConEmuPlugin2800.obj
 0001:00002e30       ??$emplace_back@ABUWindowInfo@@@?$vector@UWindowInfo@@V?$MArrayAllocator@UWindowInfo@@@@@std@@QAEXABUWindowInfo@@@Z 10003e30 f i ConEmuPlugin2800.obj
 0001:00002e5e       ??0CPluginW2800@@QAE@XZ    10003e5e f   ConEmuPlugin2800.obj
 0001:00002fe7       ??0bad_alloc@std@@QAE@ABV01@@Z 10003fe7 f i ConEmuPlugin2800.obj
 0001:00003002       ??0bad_alloc@std@@QAE@XZ   10004002 f i ConEmuPlugin2800.obj
 0001:0000301a       ??0exception@std@@QAE@ABV01@@Z 1000401a f i ConEmuPlugin2800.obj
 0001:00003046       ??1?$MArray@UWindowInfo@@@@QAE@XZ 10004046 f i ConEmuPlugin2800.obj
 0001:0000307e       ??1bad_function_call@std@@UAE@XZ 1000407e f i libcpmt:xthrow.obj
 0001:0000307e       ??1bad_exception@std@@UAE@XZ 1000407e f i libvcruntime:frame.obj
 0001:0000307e       ??1bad_alloc@std@@UAE@XZ   1000407e f i ConEmuPlugin2800.obj
 0001:0000307e       ??1length_error@std@@UAE@XZ 1000407e f i libcpmt:xthrow.obj
 0001:0000308f       ??_ECPluginW2800@@UAEPAXI@Z 1000408f f i ConEmuPlugin2800.obj
 0001:0000308f       ??_GCPluginW2800@@UAEPAXI@Z 1000408f f i ConEmuPlugin2800.obj
 0001:000030ba       ??_Glength_error@std@@UAEPAXI@Z 100040ba f i libcpmt:xthrow.obj
 0001:000030ba       ??_Eexception@std@@UAEPAXI@Z 100040ba f i ConEmuPlugin2800.obj
 0001:000030ba       ??_Ebad_exception@std@@UAEPAXI@Z 100040ba f i libvcruntime:frame.obj
 0001:000030ba       ??_Gbad_function_call@std@@UAEPAXI@Z 100040ba f i libcpmt:xthrow.obj
 0001:000030ba       ??_Gexception@std@@UAEPAXI@Z 100040ba f i ConEmuPlugin2800.obj
 0001:000030ba       ??_Glogic_error@std@@UAEPAXI@Z 100040ba f i libcpmt:xthrow.obj
 0001:000030ba       ??_Gbad_alloc@std@@UAEPAXI@Z 100040ba f i ConEmuPlugin2800.obj
 0001:000030ba       ??_Elength_error@std@@UAEPAXI@Z 100040ba f i libcpmt:xthrow.obj
 0001:000030ba       ??_Elogic_error@std@@UAEPAXI@Z 100040ba f i libcpmt:xthrow.obj
 0001:000030ba       ??_Gbad_exception@std@@UAEPAXI@Z 100040ba f i libvcruntime:frame.obj
 0001:000030ba       ??_Ebad_function_call@std@@UAEPAXI@Z 100040ba f i libcpmt:xthrow.obj
 0001:000030ba       ??_Ebad_alloc@std@@UAEPAXI@Z 100040ba f i ConEmuPlugin2800.obj
 0001:00003450       ?CheckPanelExist@CPluginW2800@@UAE_NXZ 10004450 f   ConEmuPlugin2800.obj
 0001:00003473       ?ExecuteSynchroApi@CPluginW2800@@UAE_NXZ 10004473 f   ConEmuPlugin2800.obj
 0001:00003496       ?ExitFar@CPluginW2800@@UAEXXZ 10004496 f   ConEmuPlugin2800.obj
 0001:00003510       ?GetActiveWindowType@CPluginW2800@@UAEHXZ 10004510 f   ConEmuPlugin2800.obj
 0001:0000358f       ?GetEditorModifiedState@CPluginW2800@@UAEKXZ 1000458f f   ConEmuPlugin2800.obj
 0001:000035cb       ?GetFarRect@CPluginW2800@@UAE_NAAU_SMALL_RECT@@@Z 100045cb f   ConEmuPlugin2800.obj
 0001:0000365b       ?GetMacroArea@CPluginW2800@@UAEHXZ 1000465b f   ConEmuPlugin2800.obj
 0001:0000366f       ?GetMsg@CPluginW2800@@UAEPB_WHPA_WI@Z 1000466f f   ConEmuPlugin2800.obj
 0001:000036b5       ?GetPanelDir@CPluginW2800@@UAEPA_WKPA_WH@Z 100046b5 f   ConEmuPlugin2800.obj
 0001:000037ba       ?GetPanelInfo@CPluginW2800@@UAE_NKPAUCEPanelInfo@@@Z 100047ba f   ConEmuPlugin2800.obj
 0001:00003a21       ?GetPanelItemInfo@CPluginW2800@@UAE_NABUCEPanelInfo@@_NHAAU_WIN32_FIND_DATAW@@PAPA_W@Z 10004a21 f   ConEmuPlugin2800.obj
 0001:00003b84       ?GetPluginInfoPtr@CPluginW2800@@UAEXPAX@Z 10004b84 f   ConEmuPlugin2800.obj
 0001:00003bcd       ?GetWindowCount@CPluginW2800@@UAEHXZ 10004bcd f   ConEmuPlugin2800.obj
 0001:00003bee       ?GuiMacroDlg@CPluginW2800@@UAEXXZ 10004bee f   ConEmuPlugin2800.obj
 0001:00003bf3       ?InputBox@CPluginW2800@@UAE_NPB_W000AAPA_W@Z 10004bf3 f   ConEmuPlugin2800.obj
 0001:00003c7d       ?IsMacroActive@CPluginW2800@@UAE_NXZ 10004c7d f   ConEmuPlugin2800.obj
 0001:00003ca7       ?LoadFarColors@CPluginW2800@@UAEXAAY0BAA@E@Z 10004ca7 f   ConEmuPlugin2800.obj
 0001:00003dfe       ?LoadFarSettings@CPluginW2800@@UAEXPAUCEFarInterfaceSettings@@PAUCEFarPanelSettings@@@Z 10004dfe f   ConEmuPlugin2800.obj
 0001:00003f06       ?Open@CPluginW2800@@UAEPAXPBX@Z 10004f06 f   ConEmuPlugin2800.obj
 0001:0000404d       ?OpenEditor@CPluginW2800@@UAE_NPB_W_N11HH@Z 1000504d f   ConEmuPlugin2800.obj
 0001:000040ee       ?PanelControlApi@CPluginW2800@@UAEHPAXHH0@Z 100050ee f   ConEmuPlugin2800.obj
 0001:0000410b       ?PostMacroApi@CPluginW2800@@UAEXPB_WPAU_INPUT_RECORD@@_N@Z 1000510b f   ConEmuPlugin2800.obj
 0001:0000439e       ?ProcessEditorInputPtr@CPluginW2800@@UAEHPBX@Z 1000539e f   ConEmuPlugin2800.obj
 0001:000043bc       ?RedrawAll@CPluginW2800@@UAEXXZ 100053bc f   ConEmuPlugin2800.obj
 0001:000043dd       ?SetStartupInfoPtr@CPluginW2800@@UAEXPAX@Z 100053dd f   ConEmuPlugin2800.obj
 0001:000044e0       ?SetWindow@CPluginW2800@@UAEXH@Z 100054e0 f   ConEmuPlugin2800.obj
 0001:000045c2       ?ShowMessage@CPluginW2800@@UAEHPB_WH_N@Z 100055c2 f   ConEmuPlugin2800.obj
 0001:00004627       ?ShowPluginMenu@CPluginW2800@@UAEHPAUConEmuPluginMenuItem@@HH@Z 10005627 f   ConEmuPlugin2800.obj
 0001:00004767       ?ShowUserScreen@CPluginW2800@@UAEX_N@Z 10005767 f   ConEmuPlugin2800.obj
 0001:0000478c       ?UpdateConEmuTabsApi@CPluginW2800@@UAE_NH@Z 1000578c f   ConEmuPlugin2800.obj
 0001:00004dda       ?_Calculate_growth@?$vector@UWindowInfo@@V?$MArrayAllocator@UWindowInfo@@@@@std@@ABEII@Z 10005dda f i ConEmuPlugin2800.obj
 0001:00004e05       ?_Change_array@?$vector@UWindowInfo@@V?$MArrayAllocator@UWindowInfo@@@@@std@@AAEXQAUWindowInfo@@II@Z 10005e05 f i ConEmuPlugin2800.obj
 0001:00004e34       ?_Tidy@?$vector@UWindowInfo@@V?$MArrayAllocator@UWindowInfo@@@@@std@@AAEXXZ 10005e34 f i ConEmuPlugin2800.obj
 0001:00004e50       ?_Xlength@?$vector@UtagPROCESSENTRY32W@@V?$MArrayAllocator@UtagPROCESSENTRY32W@@@@@std@@CAXXZ 10005e50 f i common-kernel32:MProcess.obj
 0001:00004e50       ?_Xlength@?$vector@UWindowInfo@@V?$MArrayAllocator@UWindowInfo@@@@@std@@CAXXZ 10005e50 f i ConEmuPlugin2800.obj
 0001:00004e5b       ?allocate@?$MArrayAllocator@UWindowInfo@@@@QAEPAUWindowInfo@@I@Z 10005e5b f i ConEmuPlugin2800.obj
 0001:00004e8b       ?erase@?$MArray@UWindowInfo@@@@QAEXHH@Z 10005e8b f i ConEmuPlugin2800.obj
 0001:00004ed6       ?erase@?$vector@UWindowInfo@@V?$MArrayAllocator@UWindowInfo@@@@@std@@QAE?AV?$_Vector_iterator@V?$_Vector_val@U?$_Simple_types@UWindowInfo@@@std@@@std@@@2@V?$_Vector_const_iterator@V?$_Vector_val@U?$_Simple_types@UWindowInfo@@@std@@@std@@@2@0@Z 10005ed6 f i ConEmuPlugin2800.obj
 0001:00004f0e       ?insert@?$MArray@UWindowInfo@@@@QAEHHABUWindowInfo@@H@Z 10005f0e f i ConEmuPlugin2800.obj
 0001:00004f66       ?insert@?$vector@UWindowInfo@@V?$MArrayAllocator@UWindowInfo@@@@@std@@QAE?AV?$_Vector_iterator@V?$_Vector_val@U?$_Simple_types@UWindowInfo@@@std@@@std@@@2@V?$_Vector_const_iterator@V?$_Vector_val@U?$_Simple_types@UWindowInfo@@@std@@@std@@@2@IABUWindowInfo@@@Z 10005f66 f i ConEmuPlugin2800.obj
 0001:00005131       ?what@exception@std@@UBEPBDXZ 10006131 f i ConEmuPlugin2800.obj
 0001:0000513f       _GetGlobalInfoW@4          1000613f f   ConEmuPlugin2800.obj
 0001:000051d2       ??0CPluginW995@@QAE@XZ     100061d2 f   ConEmuPlugin995.obj
 0001:00005356       ??_ECPluginW995@@UAEPAXI@Z 10006356 f i ConEmuPlugin995.obj
 0001:00005356       ??_GCPluginW995@@UAEPAXI@Z 10006356 f i ConEmuPlugin995.obj
 0001:000056ab       ?CheckPanelExist@CPluginW995@@UAE_NXZ 100066ab f   ConEmuPlugin995.obj
 0001:000056ce       ?ExecuteSynchroApi@CPluginW995@@UAE_NXZ 100066ce f   ConEmuPlugin995.obj
 0001:000056ed       ?ExitFar@CPluginW995@@UAEXXZ 100066ed f   ConEmuPlugin995.obj
 0001:00005754       ?GetActiveWindowType@CPluginW995@@UAEHXZ 10006754 f   ConEmuPlugin995.obj
 0001:000057f4       ?GetEditorModifiedState@CPluginW995@@UAEKXZ 100067f4 f   ConEmuPlugin995.obj
 0001:0000582c       ?GetFarRect@CPluginW995@@UAE_NAAU_SMALL_RECT@@@Z 1000682c f   ConEmuPlugin995.obj
 0001:0000586f       ?GetMacroArea@CPluginW995@@UAEHXZ 1000686f f   ConEmuPlugin995.obj
 0001:000058a7       ?GetMsg@CPluginW995@@UAEPB_WHPA_WI@Z 100068a7 f   ConEmuPlugin995.obj
 0001:000058eb       ?GetPanelDir@CPluginW995@@UAEPA_WKPA_WH@Z 100068eb f   ConEmuPlugin995.obj
 0001:000059b5       ?GetPanelInfo@CPluginW995@@UAE_NKPAUCEPanelInfo@@@Z 100069b5 f   ConEmuPlugin995.obj
 0001:00005b9f       ?GetPanelItemInfo@CPluginW995@@UAE_NABUCEPanelInfo@@_NHAAU_WIN32_FIND_DATAW@@PAPA_W@Z 10006b9f f   ConEmuPlugin995.obj
 0001:00005cea       ?GetPluginInfoPtr@CPluginW995@@UAEXPAX@Z 10006cea f   ConEmuPlugin995.obj
 0001:00005d43       ?GetWindowCount@CPluginW995@@UAEHXZ 10006d43 f   ConEmuPlugin995.obj
 0001:00005d60       ?GuiMacroDlg@CPluginW995@@UAEXXZ 10006d60 f   ConEmuPlugin995.obj
 0001:00005d65       ?InputBox@CPluginW995@@UAE_NPB_W000AAPA_W@Z 10006d65 f   ConEmuPlugin995.obj
 0001:00005de3       ?IsMacroActive@CPluginW995@@UAE_NXZ 10006de3 f   ConEmuPlugin995.obj
 0001:00005e32       ?LoadFarColors@CPluginW995@@UAEXAAY0BAA@E@Z 10006e32 f   ConEmuPlugin995.obj
 0001:00005ee9       ?LoadFarSettings@CPluginW995@@UAEXPAUCEFarInterfaceSettings@@PAUCEFarPanelSettings@@@Z 10006ee9 f   ConEmuPlugin995.obj
 0001:00005f20       ?Open@CPluginW995@@UAEPAXPBX@Z 10006f20 f i ConEmuPlugin995.obj
 0001:00005f20       ?Open@CPluginAnsi@@UAEPAXPBX@Z 10006f20 f i ConEmuPluginA.obj
 0001:00005f29       ?OpenEditor@CPluginW995@@UAE_NPB_W_N11HH@Z 10006f29 f   ConEmuPlugin995.obj
 0001:00005fc2       ?PanelControlApi@CPluginW995@@UAEHPAXHH0@Z 10006fc2 f   ConEmuPlugin995.obj
 0001:00005fdf       ?PostMacroApi@CPluginW995@@UAEXPB_WPAU_INPUT_RECORD@@_N@Z 10006fdf f   ConEmuPlugin995.obj
 0001:00006081       ?ProcessSynchroEventPtr@CPluginAnsi@@UAEHPAX@Z 10007081 f i ConEmuPluginA.obj
 0001:00006081       ?ProcessViewerEventPtr@CPluginAnsi@@UAEHPAX@Z 10007081 f i ConEmuPluginA.obj
 0001:00006081       ?ProcessSynchroEventPtr@CPluginW995@@UAEHPAX@Z 10007081 f i ConEmuPlugin995.obj
 0001:00006081       ?ProcessEditorEventPtr@CPluginW995@@UAEHPAX@Z 10007081 f i ConEmuPlugin995.obj
 0001:00006081       ?ProcessEditorInputPtr@CPluginAnsi@@UAEHPBX@Z 10007081 f i ConEmuPluginA.obj
 0001:00006081       ?ProcessEditorEventPtr@CPluginAnsi@@UAEHPAX@Z 10007081 f i ConEmuPluginA.obj
 0001:00006081       ?ProcessViewerEventPtr@CPluginW995@@UAEHPAX@Z 10007081 f i ConEmuPlugin995.obj
 0001:00006086       ?ProcessEditorInputPtr@CPluginW995@@UAEHPBX@Z 10007086 f   ConEmuPlugin995.obj
 0001:000060a0       ?RedrawAll@CPluginW995@@UAEXXZ 100070a0 f   ConEmuPlugin995.obj
 0001:000060bd       ?SetStartupInfoPtr@CPluginW995@@UAEXPAX@Z 100070bd f   ConEmuPlugin995.obj
 0001:000061af       ?SetWindow@CPluginW995@@UAEXH@Z 100071af f   ConEmuPlugin995.obj
 0001:000061e3       ?ShowMessage@CPluginW995@@UAEHPB_WH_N@Z 100071e3 f   ConEmuPlugin995.obj
 0001:0000622c       ?ShowPluginMenu@CPluginW995@@UAEHPAUConEmuPluginMenuItem@@HH@Z 1000722c f   ConEmuPlugin995.obj
 0001:00006311       ?ShowUserScreen@CPluginW995@@UAEX_N@Z 10007311 f   ConEmuPlugin995.obj
 0001:00006336       ?StopWaitEndSynchro@CPluginW995@@UAEXXZ 10007336 f   ConEmuPlugin995.obj
 0001:0000634f       ?UpdateConEmuTabsApi@CPluginW995@@UAE_NH@Z 1000734f f   ConEmuPlugin995.obj
 0001:00006596       ?WaitEndSynchro@CPluginW995@@UAEXXZ 10007596 f   ConEmuPlugin995.obj
 0001:000066a7       ??0CPluginAnsi@@QAE@XZ     100076a7 f   ConEmuPluginA.obj
 0001:000067fb       ??_ECPluginAnsi@@UAEPAXI@Z 100077fb f i ConEmuPluginA.obj
 0001:000067fb       ??_GCPluginAnsi@@UAEPAXI@Z 100077fb f i ConEmuPluginA.obj
 0001:00006c66       ?CheckPanelExist@CPluginAnsi@@UAE_NXZ 10007c66 f   ConEmuPluginA.obj
 0001:00006c8a       ?ExecuteSynchroApi@CPluginAnsi@@UAE_NXZ 10007c8a f i ConEmuPluginA.obj
 0001:00006c8d       ?ExitFar@CPluginAnsi@@UAEXXZ 10007c8d f   ConEmuPluginA.obj
 0001:00006cc2       ?GetActiveWindowType@CPluginAnsi@@UAEHXZ 10007cc2 f   ConEmuPluginA.obj
 0001:00006d33       ?GetEditorModifiedState@CPluginAnsi@@UAEKXZ 10007d33 f   ConEmuPluginA.obj
 0001:00006d6e       ?GetFarRect@CPluginAnsi@@UAE_NAAU_SMALL_RECT@@@Z 10007d6e f i ConEmuPluginA.obj
 0001:00006d73       __get_startup_argv_mode    10007d73 f   LIBCMT:argv_mode.obj
 0001:00006d73       ?GetMacroArea@CPluginAnsi@@UAEHXZ 10007d73 f   ConEmuPluginA.obj
 0001:00006d77       ?GetMsg@CPluginAnsi@@UAEPB_WHPA_WI@Z 10007d77 f   ConEmuPluginA.obj
 0001:00006de7       ?GetPanelDir@CPluginAnsi@@UAEPA_WKPA_WH@Z 10007de7 f   ConEmuPluginA.obj
 0001:00006ea9       ?GetPanelInfo@CPluginAnsi@@UAE_NKPAUCEPanelInfo@@@Z 10007ea9 f   ConEmuPluginA.obj
 0001:00007079       ?GetPanelItemInfo@CPluginAnsi@@UAE_NABUCEPanelInfo@@_NHAAU_WIN32_FIND_DATAW@@PAPA_W@Z 10008079 f   ConEmuPluginA.obj
 0001:00007175       ?GetPluginInfoPtr@CPluginAnsi@@UAEXPAX@Z 10008175 f   ConEmuPluginA.obj
 0001:000071e2       ?GetWindowCount@CPluginAnsi@@UAEHXZ 100081e2 f   ConEmuPluginA.obj
 0001:00007205       ?GuiMacroDlg@CPluginAnsi@@UAEXXZ 10008205 f   ConEmuPluginA.obj
 0001:0000720a       ?InputBox@CPluginAnsi@@UAE_NPB_W000AAPA_W@Z 1000820a f   ConEmuPluginA.obj
 0001:00007335       ?IsMacroActive@CPluginAnsi@@UAE_NXZ 10008335 f   ConEmuPluginA.obj
 0001:0000738a       ?LoadFarColors@CPluginAnsi@@UAEXAAY0BAA@E@Z 1000838a f   ConEmuPluginA.obj
 0001:00007447       ?LoadFarSettings@CPluginAnsi@@UAEXPAUCEFarInterfaceSettings@@PAUCEFarPanelSettings@@@Z 10008447 f   ConEmuPluginA.obj
 0001:0000748a       ?OpenEditor@CPluginAnsi@@UAE_NPB_W_N11HH@Z 1000848a f   ConEmuPluginA.obj
 0001:00007568       ?PanelControlApi@CPluginAnsi@@UAEHPAXHH0@Z 10008568 f   ConEmuPluginA.obj
 0001:00007592       ?PostMacroApi@CPluginAnsi@@UAEXPB_WPAU_INPUT_RECORD@@_N@Z 10008592 f   ConEmuPluginA.obj
 0001:00007632       ?RedrawAll@CPluginAnsi@@UAEXXZ 10008632 f   ConEmuPluginA.obj
 0001:00007655       ?SetStartupInfoPtr@CPluginAnsi@@UAEXPAX@Z 10008655 f   ConEmuPluginA.obj
 0001:00007756       ?SetWindow@CPluginAnsi@@UAEXH@Z 10008756 f   ConEmuPluginA.obj
 0001:00007796       ?ShowMessage@CPluginAnsi@@UAEHPB_WH_N@Z 10008796 f   ConEmuPluginA.obj
 0001:00007820       ?ShowPluginMenu@CPluginAnsi@@UAEHPAUConEmuPluginMenuItem@@HH@Z 10008820 f   ConEmuPluginA.obj
 0001:00007946       ?ShowUserScreen@CPluginAnsi@@UAEX_N@Z 10008946 f   ConEmuPluginA.obj
 0001:0000796c       ?UpdateConEmuTabsApi@CPluginAnsi@@UAE_NH@Z 1000896c f   ConEmuPluginA.obj
 0001:00007bd7       ??$swprintf_c@$0BAE@@@YAHAAY0BAE@_WPB_WZZ 10008bd7 f i ConEmuPluginBase.obj
 0001:00007bf0       ??$swprintf_c@$0DAM@@@YAHAAY0DAM@_WPB_WZZ 10008bf0 f i ConEmuPluginBase.obj
 0001:00007c09       ??$swprintf_c@$0EAA@@@YAHAAY0EAA@_WPB_WZZ 10008c09 f i ConEmuPluginBase.obj
 0001:00007c22       ??$swprintf_c@$0MI@@@YAHAAY0MI@_WPB_WZZ 10008c22 f i ConEmuPluginBase.obj
 0001:00007c3b       ??0?$MFileMapping@UCESERVER_CONSOLE_MAPPING_HDR@@@@QAE@XZ 10008c3b f i ConEmuPluginBase.obj
 0001:00007c98       ??0CPluginBase@@QAE@XZ     10008c98 f   ConEmuPluginBase.obj
 0001:00007da9       ??0MWow64Disable@@QAE@XZ   10008da9 f i ConEmuPluginBase.obj
 0001:00007dee       ??1?$MFileMapping@UConEmuGuiMapping@@@@QAE@XZ 10008dee f i common-user32:ConEmuCheckEx.obj
 0001:00007dee       ??1?$MFileMapping@UCESERVER_CONSOLE_MAPPING_HDR@@@@QAE@XZ 10008dee f i ConEmuPluginBase.obj
 0001:00007dee       ??1?$MFileMapping@UPanelViewSetMapping@@@@QAE@XZ 10008dee f i PluginBackground.obj
 0001:00007df8       ??1CPluginBase@@UAE@XZ     10008df8 f   ConEmuPluginBase.obj
 0001:00007dff       ??1MWow64Disable@@QAE@XZ   10008dff f i ConEmuPluginBase.obj
 0001:00007e33       ??_G?$MFileMapping@UCESERVER_CONSOLE_MAPPING_HDR@@@@QAEPAXI@Z 10008e33 f i ConEmuPluginBase.obj
 0001:00007e5d       ??_ECPluginBase@@UAEPAXI@Z 10008e5d f i ConEmuPluginBase.obj
 0001:00007e5d       ??_GCPluginBase@@UAEPAXI@Z 10008e5d f i ConEmuPluginBase.obj
 0001:00007e83       ?ActivatePlugin@CPluginBase@@QAE_NKPAXK@Z 10008e83 f   ConEmuPluginBase.obj
 0001:00008016       ?AddTab@CPluginBase@@QAE_NAAHH_N1HPB_W2HHHH@Z 10009016 f   ConEmuPluginBase.obj
 0001:000082f7       ?AddTabFinish@CPluginBase@@QAEXH@Z 100092f7 f   ConEmuPluginBase.obj
 0001:00008309       ?Attach2Gui@CPluginBase@@QAE_N_N@Z 10009309 f   ConEmuPluginBase.obj
 0001:00008697       ?BackgroundMacroError@CPluginBase@@SGKPAX@Z 10009697 f   ConEmuPluginBase.obj
 0001:000086be       ?CheckBufferEnabled@CPluginBase@@QAE_NXZ 100096be f   ConEmuPluginBase.obj
 0001:00008717       ?CheckConEmuDetached@CPluginBase@@SAXXZ 10009717 f   ConEmuPluginBase.obj
 0001:000087b2       ?CheckResources@CPluginBase@@QAEX_N@Z 100097b2 f   ConEmuPluginBase.obj
 0001:00008952       ?CloseMap@?$MFileMapping@UConEmuGuiMapping@@@@QAEXXZ 10009952 f i common-kernel32:ConEmuCheck.obj
 0001:00008952       ?CloseMap@?$MFileMapping@UPanelViewSetMapping@@@@QAEXXZ 10009952 f i PluginBackground.obj
 0001:00008952       ?CloseMap@?$MFileMapping@UCESERVER_CONSOLE_MAPPING_HDR@@@@QAEXXZ 10009952 f i ConEmuPluginBase.obj
 0001:000089a3       ?CloseMapHeader@CPluginBase@@SAXXZ 100099a3 f   ConEmuPluginBase.obj
 0001:000089ba       ?ClosePtr@?$MFileMapping@UPanelViewSetMapping@@@@QAEXXZ 100099ba f i PluginBackground.obj
 0001:000089ba       ?ClosePtr@?$MFileMapping@UCESERVER_CONSOLE_MAPPING_HDR@@@@QAEXXZ 100099ba f i ConEmuPluginBase.obj
 0001:000089ba       ?ClosePtr@?$MFileMapping@UConEmuGuiMapping@@@@QAEXXZ 100099ba f i common-kernel32:ConEmuCheck.obj
 0001:000089d2       ?CloseTabs@CPluginBase@@SAXXZ 100099d2 f   ConEmuPluginBase.obj
 0001:00008a5a       ?CommonPluginStartup@CPluginBase@@QAEXXZ 10009a5a f   ConEmuPluginBase.obj
 0001:00008b46       ?CreateTabs@CPluginBase@@SA_NH@Z 10009b46 f   ConEmuPluginBase.obj
 0001:00008bf0       ?Disable@MWow64Disable@@QAEXXZ 10009bf0 f i ConEmuPluginBase.obj
 0001:00008c0a       ?DllCheckUnique@CPluginBase@@KA_N_N@Z 10009c0a f   ConEmuPluginBase.obj
 0001:00008dcf       ?DllMain_ProcessAttach@CPluginBase@@KAXPAUHINSTANCE__@@@Z 10009dcf f   ConEmuPluginBase.obj
 0001:00008ec3       ?DllMain_ProcessDetach@CPluginBase@@KAXXZ 10009ec3 f   ConEmuPluginBase.obj
 0001:00008f95       ?EditViewConsoleOutput@CPluginBase@@QAEX_N@Z 10009f95 f   ConEmuPluginBase.obj
 0001:0000901e       ?EmergencyShow@CPluginBase@@KAXXZ 1000a01e f   ConEmuPluginBase.obj
 0001:00009069       ?ExecuteSynchro@CPluginBase@@QAEXXZ 1000a069 f   ConEmuPluginBase.obj
 0001:000090de       ?ExitFarCommon@CPluginBase@@QAEX_N@Z 1000a0de f   ConEmuPluginBase.obj
 0001:00009101       ?FarSetConsoleSize@CPluginBase@@SA_NFF@Z 1000a101 f   ConEmuPluginBase.obj
 0001:000091e5       ?FillLoadedParm@CPluginBase@@SAXPAUConEmuLoadedArg@@PAUHINSTANCE__@@H@Z 1000a1e5 f   ConEmuPluginBase.obj
 0001:00009273       ?FillUpdateBackground@CPluginBase@@QAEXPAUPaintBackgroundArg@@@Z 1000a273 f   ConEmuPluginBase.obj
 0001:000093b4       ?FindServerCmd@CPluginBase@@QAE_NKAAK_N@Z 1000a3b4 f   ConEmuPluginBase.obj
 0001:0000949a       ?GetMainThreadId@CPluginBase@@SAKXZ 1000a49a f   ConEmuPluginBase.obj
 0001:00009525       ?GetPanelInfo@CPluginBase@@QAE_NKPAUBkPanelInfo@@@Z 1000a525 f   ConEmuPluginBase.obj
 0001:000095a5       ?InitHWND@CPluginBase@@SAXXZ 1000a5a5 f   ConEmuPluginBase.obj
 0001:000097bb       ?InitName@?$MFileMapping@UPanelViewSetMapping@@@@QAEPB_WPB_WKK@Z 1000a7bb f i PluginBackground.obj
 0001:000097bb       ?InitName@?$MFileMapping@UCESERVER_CONSOLE_MAPPING_HDR@@@@QAEPB_WPB_WKK@Z 1000a7bb f i ConEmuPluginBase.obj
 0001:000097bb       ?InitName@?$MFileMapping@UConEmuGuiMapping@@@@QAEPB_WPB_WKK@Z 1000a7bb f i common-kernel32:ConEmuCheck.obj
 0001:000097ec       ?InitResources@CPluginBase@@QAEXXZ 1000a7ec f   ConEmuPluginBase.obj
 0001:000099a8       ?InitRootRegKey@CPluginBase@@IAEXXZ 1000a9a8 f   ConEmuPluginBase.obj
 0001:00009a64       ?InternalOpenCreate@?$MFileMapping@UConEmuGuiMapping@@@@IAEPAUConEmuGuiMapping@@_N0H@Z 1000aa64 f i common-kernel32:ConEmuCheck.obj
 0001:00009a64       ?InternalOpenCreate@?$MFileMapping@UPanelViewSetMapping@@@@IAEPAUPanelViewSetMapping@@_N0H@Z 1000aa64 f i PluginBackground.obj
 0001:00009a64       ?InternalOpenCreate@?$MFileMapping@UCESERVER_CONSOLE_MAPPING_HDR@@@@IAEPAUCESERVER_CONSOLE_MAPPING_HDR@@_N0H@Z 1000aa64 f i ConEmuPluginBase.obj
 0001:00009c46       ?IsCurrentTabModal@CPluginBase@@QAE_NXZ 1000ac46 f   ConEmuPluginBase.obj
 0001:00009ccf       ?IsFarLua@FarVersion@@QBE_NXZ 1000accf f i ConEmuPluginBase.obj
 0001:00009e00       ?LoadFarVersion@CPluginBase@@SA_NXZ 1000ae00 f   ConEmuPluginBase.obj
 0001:0000a047       ?LoadPanelTabsFromRegistry@CPluginBase@@IAEXXZ 1000b047 f   ConEmuPluginBase.obj
 0001:0000a11d       ?MonitorThreadProcW@CPluginBase@@SGKPAX@Z 1000b11d f   ConEmuPluginBase.obj
 0001:0000a4eb       ?NotifyConEmuUnloaded@CPluginBase@@SAXXZ 1000b4eb f   ConEmuPluginBase.obj
 0001:0000a5e6       ?OnConsoleDetaching@CPluginBase@@SGHPAUHookCallbackArg@@@Z 1000b5e6 f   ConEmuPluginBase.obj
 0001:0000a6fa       ?OnConsolePeekInput@CPluginBase@@SGHPAUHookCallbackArg@@@Z 1000b6fa f   ConEmuPluginBase.obj
 0001:0000a759       ?OnConsolePeekInputPost@CPluginBase@@SGHPAUHookCallbackArg@@@Z 1000b759 f   ConEmuPluginBase.obj
 0001:0000a789       ?OnConsolePeekReadInput@CPluginBase@@SAX_N@Z 1000b789 f   ConEmuPluginBase.obj
 0001:0000a940       ?OnConsoleReadInput@CPluginBase@@SGHPAUHookCallbackArg@@@Z 1000b940 f   ConEmuPluginBase.obj
 0001:0000a950       ?OnConsoleReadInputPost@CPluginBase@@SGHPAUHookCallbackArg@@@Z 1000b950 f   ConEmuPluginBase.obj
 0001:0000aad2       ?OnConsoleReadInputWork@CPluginBase@@SAHPAUHookCallbackArg@@@Z 1000bad2 f   ConEmuPluginBase.obj
 0001:0000ab3c       ?OnConsoleWasAttached@CPluginBase@@SGHPAUHookCallbackArg@@@Z 1000bb3c f   ConEmuPluginBase.obj
 0001:0000ab92       ?OnCurDirChanged@CPluginBase@@SGXXZ 1000bb92 f   ConEmuPluginBase.obj
 0001:0000abe7       ?OnGetNumberOfConsoleInputEventsPost@CPluginBase@@SGHPAUHookCallbackArg@@@Z 1000bbe7 f   ConEmuPluginBase.obj
 0001:0000ac1b       ?OnLibraryLoaded@CPluginBase@@SGXPAUHINSTANCE__@@@Z 1000bc1b f   ConEmuPluginBase.obj
 0001:0000ac89       ?OnMainThreadActivated@CPluginBase@@QAEXXZ 1000bc89 f   ConEmuPluginBase.obj
 0001:0000adf3       ?OnPanelViewCallbacks@CPluginBase@@SA_NPAUHookCallbackArg@@P6GHPAXPAU_INPUT_RECORD@@KPAKPAH@Z5@Z 1000bdf3 f   ConEmuPluginBase.obj
 0001:0000ae94       ?OnPostWriteConsoleOutput@CPluginBase@@SGHPAUHookCallbackArg@@@Z 1000be94 f   ConEmuPluginBase.obj
 0001:0000ae9f       ?OnShellExecuteExW_Except@CPluginBase@@SGHPAUHookCallbackArg@@@Z 1000be9f f   ConEmuPluginBase.obj
 0001:0000aed4       ?OnWriteConsoleOutput@CPluginBase@@SGHPAUHookCallbackArg@@@Z 1000bed4 f   ConEmuPluginBase.obj
 0001:0000af61       ?OpenMapHeader@CPluginBase@@SAHXZ 1000bf61 f   ConEmuPluginBase.obj
 0001:0000b01d       ?OpenPluginCommon@CPluginBase@@QAEPAXHH_N@Z 1000c01d f   ConEmuPluginBase.obj
 0001:0000b27a       ?OutDataAlloc@CPluginBase@@SA_NK@Z 1000c27a f   ConEmuPluginBase.obj
 0001:0000b2c9       ?OutDataRealloc@CPluginBase@@SA_NK@Z 1000c2c9 f   ConEmuPluginBase.obj
 0001:0000b360       ?OutDataWrite@CPluginBase@@SA_NPAXK@Z 1000c360 f   ConEmuPluginBase.obj
 0001:0000b3df       ?PanelControl@CPluginBase@@QAEHPAXHH0@Z 1000c3df f   ConEmuPluginBase.obj
 0001:0000b446       ?Plugin@@YAPAVCPluginBase@@XZ 1000c446 f   ConEmuPluginBase.obj
 0001:0000b515       ?PostMacro@CPluginBase@@QAEXPB_WPAU_INPUT_RECORD@@_N@Z 1000c515 f   ConEmuPluginBase.obj
 0001:0000b556       ?PrintText@CPluginBase@@QAE_NPB_W@Z 1000c556 f   ConEmuPluginBase.obj
 0001:0000b62e       ?ProcessCommand@CPluginBase@@QAE_NKHPAXPAPAUCESERVER_REQ@@_N@Z 1000c62e f   ConEmuPluginBase.obj
 0001:0000ba3e       ?ProcessCommandLine@CPluginBase@@QAE_NPA_W@Z 1000ca3e f   ConEmuPluginBase.obj
 0001:0000ba77       ?ProcessDragFrom@CPluginBase@@QAEXXZ 1000ca77 f   ConEmuPluginBase.obj
 0001:0000bfd3       ?ProcessDragTo@CPluginBase@@QAEXXZ 1000cfd3 f   ConEmuPluginBase.obj
 0001:0000c2f1       ?ProcessEditorInputInternal@CPluginBase@@QAEXABU_INPUT_RECORD@@@Z 1000d2f1 f   ConEmuPluginBase.obj
 0001:0000c323       ?ProcessEditorViewerEvent@CPluginBase@@QAEHHH@Z 1000d323 f   ConEmuPluginBase.obj
 0001:0000c3c0       ?ProcessSetWindowCommand@CPluginBase@@QAEXXZ 1000d3c0 f   ConEmuPluginBase.obj
 0001:0000c48c       ?ProcessSynchroEvent@CPluginBase@@QAEHHPAX@Z 1000d48c f   ConEmuPluginBase.obj
 0001:0000c4fe       ?ReloadFarInfo@CPluginBase@@QAE_N_N@Z 1000d4fe f   ConEmuPluginBase.obj
 0001:0000c719       ?ReloadFarInfoApi@CPluginBase@@IAE_NXZ 1000d719 f   ConEmuPluginBase.obj
 0001:0000c8a6       ?Restore@MWow64Disable@@QAEXXZ 1000d8a6 f i ConEmuPluginBase.obj
 0001:0000c8bd       ?RunExternalProgram@CPluginBase@@QAE_NPA_W@Z 1000d8bd f   ConEmuPluginBase.obj
 0001:0000c9ed       ?RunExternalProgramW@CPluginBase@@SA_NPA_W0_N@Z 1000d9ed f   ConEmuPluginBase.obj
 0001:0000cbc1       ?SendTabs@CPluginBase@@SAXH_N@Z 1000dbc1 f   ConEmuPluginBase.obj
 0001:0000cd4c       ?SetRootRegKey@CPluginBase@@IAEXPA_W@Z 1000dd4c f   ConEmuPluginBase.obj
 0001:0000cdcf       ?ShowConsoleInfo@CPluginBase@@QAEXXZ 1000ddcf f   ConEmuPluginBase.obj
 0001:0000cf40       ?ShowMessage@CPluginBase@@QAEHHH@Z 1000df40 f   ConEmuPluginBase.obj
 0001:0000cfa4       ?ShowMessageBox@CPluginBase@@KAHPB_WI@Z 1000dfa4 f   ConEmuPluginBase.obj
 0001:0000d038       ?ShowMessageGui@CPluginBase@@QAEHHH@Z 1000e038 f   ConEmuPluginBase.obj
 0001:0000d0a0       ?ShowPanelsList@CPluginBase@@QAEXXZ 1000e0a0 f   ConEmuPluginBase.obj
 0001:0000d1a0       ?ShowPluginMenu@CPluginBase@@QAEXW4PluginCallCommands@@@Z 1000e1a0 f   ConEmuPluginBase.obj
 0001:0000d355       ?ShowProtocolWarning@CPluginBase@@KAXXZ 1000e355 f   ConEmuPluginBase.obj
 0001:0000d495       ?ShowTabsList@CPluginBase@@QAEXXZ 1000e495 f   ConEmuPluginBase.obj
 0001:0000d6b7       ?StartDebugger@CPluginBase@@QAE_NXZ 1000e6b7 f   ConEmuPluginBase.obj
 0001:0000d925       ?StopThread@CPluginBase@@QAEX_N@Z 1000e925 f   ConEmuPluginBase.obj
 0001:0000dae8       ?StorePanelDirs@CPluginBase@@QAE_NPB_W0@Z 1000eae8 f   ConEmuPluginBase.obj
 0001:0000dc04       ?StringCchCatW@@YGJPA_WIPB_W@Z 1000ec04 f i ConEmuPluginBase.obj
 0001:0000dc42       ?StringCchCopyW@@YGJPA_WIPB_W@Z 1000ec42 f i ConEmuPluginBase.obj
 0001:0000dd58       ?SwitchTabCommand@CPluginBase@@QAEXW4PluginMenuCommands@@@Z 1000ed58 f   ConEmuPluginBase.obj
 0001:0000ddd0       ?ToOem@CPluginBase@@SAPADPB_W@Z 1000edd0 f   ConEmuPluginBase.obj
 0001:0000de0e       ?ToOem@CPluginBase@@SAXPB_WPADH@Z 1000ee0e f   ConEmuPluginBase.obj
 0001:0000de35       ?ToUnicode@CPluginBase@@SAPA_WPBD@Z 1000ee35 f   ConEmuPluginBase.obj
 0001:0000de8c       ?TouchReadPeekConsoleInputs@CPluginBase@@SAXH@Z 1000ee8c f   ConEmuPluginBase.obj
 0001:0000dec7       ?UngetDummyMouseEvent@CPluginBase@@SA_N_NPAUHookCallbackArg@@@Z 1000eec7 f   ConEmuPluginBase.obj
 0001:0000e040       ?UpdateConEmuTabs@CPluginBase@@QAE_N_N@Z 1000f040 f   ConEmuPluginBase.obj
 0001:0000e238       ?UpdatePanelDirs@CPluginBase@@QAEXXZ 1000f238 f   ConEmuPluginBase.obj
 0001:0000e3a6       ?WaitPluginActivation@CPluginBase@@SAKKPAPAXHK@Z 1000f3a6 f   ConEmuPluginBase.obj
 0001:0000e48c       ?cmd_CloseQSearch@CPluginBase@@QAEXXZ 1000f48c f   ConEmuPluginBase.obj
 0001:0000e4b6       ?cmd_ConSetFont@CPluginBase@@QAEXPAX@Z 1000f4b6 f   ConEmuPluginBase.obj
 0001:0000e4e8       ?cmd_EMenu@CPluginBase@@QAEXPAX@Z 1000f4e8 f   ConEmuPluginBase.obj
 0001:0000e583       ?cmd_ExternalCallback@CPluginBase@@QAE_NPAX@Z 1000f583 f   ConEmuPluginBase.obj
 0001:0000e5c6       ?cmd_GuiChanged@CPluginBase@@QAEXPAX@Z 1000f5c6 f   ConEmuPluginBase.obj
 0001:0000e63d       ?cmd_LeftClickSync@CPluginBase@@QAEXPAX@Z 1000f63d f   ConEmuPluginBase.obj
 0001:0000e70a       ?cmd_OpenEditorLine@CPluginBase@@QAE_NPAUCESERVER_REQ_FAREDITOR@@@Z 1000f70a f   ConEmuPluginBase.obj
 0001:0000e79d       ?cmd_RedrawFarCall@CPluginBase@@QAE_NAAPAUCESERVER_REQ@@PAPAU2@@Z 1000f79d f   ConEmuPluginBase.obj
 0001:0000e831       ?cmd_SetWindow@CPluginBase@@QAE_NPAX_N@Z 1000f831 f   ConEmuPluginBase.obj
 0001:0000e8a1       ?isEditorViewer@CPluginBase@@QAE_NXZ 1000f8a1 f   ConEmuPluginBase.obj
 0001:0000e8bf       ?isMacroActive@CPluginBase@@QAE_NAAH@Z 1000f8bf f   ConEmuPluginBase.obj
 0001:0000e8f7       ?isModalEditorViewer@CPluginBase@@QAE_NXZ 1000f8f7 f   ConEmuPluginBase.obj
 0001:0000e91e       ?pcc_Disabled@CPluginBase@@SA_NW4PluginMenuCommands@@@Z 1000f91e f   ConEmuPluginBase.obj
 0001:0000e98b       ?pcc_Selected@CPluginBase@@SA_NW4PluginMenuCommands@@@Z 1000f98b f   ConEmuPluginBase.obj
 0001:0000e9de       _wmemcmp                   1000f9de f i ConEmuPluginBase.obj
 0001:0000ea14       ??0?$MFileMapping@UPanelViewSetMapping@@@@QAE@XZ 1000fa14 f i PluginBackground.obj
 0001:0000ea71       ??0CPluginBackground@@QAE@XZ 1000fa71 f   PluginBackground.obj
 0001:0000ebe2       ??1CPluginBackground@@QAE@XZ 1000fbe2 f   PluginBackground.obj
 0001:0000ed4d       ?CheckPanelFolders@CPluginBackground@@IAEXH@Z 1000fd4d f   PluginBackground.obj
 0001:0000edfa       ?GetTo@?$MFileMapping@UPanelViewSetMapping@@@@QAE_NPAUPanelViewSetMapping@@H@Z 1000fdfa f i PluginBackground.obj
 0001:0000eec9       ?IsParmChanged@CPluginBackground@@IAE_NPAUPaintBackgroundArg@@0@Z 1000fec9 f   PluginBackground.obj
 0001:0000f0ea       ?LoadThSet@CPluginBackground@@IAEHH@Z 100100ea f   PluginBackground.obj
 0001:0000f25f       ?MonitorBackground@CPluginBackground@@QAEXXZ 1001025f f   PluginBackground.obj
 0001:0000f2b7       ?OnMainThreadActivated@CPluginBackground@@QAEXHH@Z 100102b7 f   PluginBackground.obj
 0001:0000f371       ?ReallocItems@CPluginBackground@@IAEXH@Z 10010371 f   PluginBackground.obj
 0001:0000f3bb       ?RegisterSubplugin@CPluginBackground@@QAEHPAURegisterBackgroundArg@@@Z 100103bb f   PluginBackground.obj
 0001:0000f5ca       ?SetDcPanelRect@CPluginBackground@@IAEXPAUtagRECT@@PAUBkPanelInfo@@PAUPaintBackgroundArg@@@Z 100105ca f   PluginBackground.obj
 0001:0000f6a5       ?SetForceThLoad@CPluginBackground@@QAEXXZ 100106a5 f   PluginBackground.obj
 0001:0000f6b8       ?SetForceUpdate@CPluginBackground@@QAEX_N@Z 100106b8 f   PluginBackground.obj
 0001:0000f6da       ?UpdateBackground@CPluginBackground@@IAEXXZ 100106da f   PluginBackground.obj
 0001:0000fe35       ?UpdateBackground_Exec@CPluginBackground@@KAXPAURegisterBackgroundArg@@PAUPaintBackgroundArg@@@Z 10010e35 f   PluginBackground.obj
 0001:0000feab       ??$swprintf_c@$09@@YAHAAY09_WPB_WZZ 10010eab f i PluginSrv.obj
 0001:0000fec1       ??$wcscpy_c@$0BAE@@@YAHAAY0BAE@_WPB_W@Z 10010ec1 f i PluginSrv.obj
 0001:0000fed6       ?AllocRequestBuf@PipeInst@?$PipeServer@UCESERVER_REQ@@@@QAEPAUCESERVER_REQ@@K@Z 10010ed6 f i PluginSrv.obj
 0001:0000ff12       ?DumpError@?$PipeServer@UCESERVER_REQ@@@@IAEXPAUPipeInst@1@PB_WH@Z 10010f12 f i PluginSrv.obj
 0001:0000ffe5       ?PipeServerRead@?$PipeServer@UCESERVER_REQ@@@@IAEHPAUPipeInst@1@@Z 10010fe5 f i PluginSrv.obj
 0001:00010248       ?PipeServerThread@?$PipeServer@UCESERVER_REQ@@@@IAEKPAUPipeInst@1@@Z 10011248 f i PluginSrv.obj
 0001:00010475       ?PipeServerWrite@?$PipeServer@UCESERVER_REQ@@@@IAEHPAUPipeInst@1@PBXKPAKH@Z 10011475 f i PluginSrv.obj
 0001:00010551       ?PlugServerCommand@@YGHPAXPAUCESERVER_REQ@@AAPAU1@AAK3J@Z 10011551 f   PluginSrv.obj
 0001:000109c8       ?PlugServerFree@@YGXPAUCESERVER_REQ@@J@Z 100119c8 f   PluginSrv.obj
 0001:000109d9       ?PlugServerStart@@YA_NXZ   100119d9 f   PluginSrv.obj
 0001:00010a88       ?PlugServerStop@@YAX_N@Z   10011a88 f   PluginSrv.obj
 0001:00010ac1       ?SetMaxCount@?$PipeServer@UCESERVER_REQ@@@@QAEXH@Z 10011ac1 f i PluginSrv.obj
 0001:00010ae8       ?StartPipeInstance@?$PipeServer@UCESERVER_REQ@@@@IAE_NPAUPipeInst@1@@Z 10011ae8 f i PluginSrv.obj
 0001:00010c17       ?StartPipeServer@?$PipeServer@UCESERVER_REQ@@@@QAE_N_NPB_WJPAU_SECURITY_ATTRIBUTES@@P6GHPAXPAUCESERVER_REQ@@AAPAU3@AAK6J@ZP6GX4J@ZP6GH3J@Z99@Z 10011c17 f i PluginSrv.obj
 0001:00010d49       ?StopPipeServer@?$PipeServer@UCESERVER_REQ@@@@QAEX_NAA_N@Z 10011d49 f i PluginSrv.obj
 0001:00011022       ?TerminatePipeThread@?$PipeServer@UCESERVER_REQ@@@@KAXAAPAXABUPipeInst@1@AA_N@Z 10012022 f i PluginSrv.obj
 0001:00011078       ?WaitForClient@?$PipeServer@UCESERVER_REQ@@@@IAE_NPAUPipeInst@1@AAH1@Z 10012078 f i PluginSrv.obj
 0001:0001130a       ?WaitOverlapped@?$PipeServer@UCESERVER_REQ@@@@IAEHPAUPipeInst@1@PAK@Z 1001230a f i PluginSrv.obj
 0001:00011459       ?WriteDummyAnswer@?$PipeServer@UCESERVER_REQ@@@@IAEHPAUPipeInst@1@@Z 10012459 f i PluginSrv.obj
 0001:000114b1       ?_Disconnect@?$PipeServer@UCESERVER_REQ@@@@IAEXPAUPipeInst@1@_N11@Z 100124b1 f i PluginSrv.obj
 0001:00011505       ?_PipeServerThread@?$PipeServer@UCESERVER_REQ@@@@KGKPAX@Z 10012505 f i PluginSrv.obj
 0001:0001154c       ?cmd_FarSetChanged@@YAXPAUFAR_REQ_FARSETCHANGED@@@Z 1001254c f   PluginSrv.obj
 0001:0001159a       _GetFileVersionInfoSizeW@8 1001259a f   version:VERSION.dll
 0001:000115a0       _GetFileVersionInfoW@16    100125a0 f   version:VERSION.dll
 0001:000115a6       _VerQueryValueW@16         100125a6 f   version:VERSION.dll
 0001:000115ac       _CreateToolhelp32Snapshot@8 100125ac f   kernel32:KERNEL32.dll
 0001:000115b2       _Thread32First@8           100125b2 f   kernel32:KERNEL32.dll
 0001:000115b8       _Thread32Next@8            100125b8 f   kernel32:KERNEL32.dll
 0001:000115be       _Module32FirstW@8          100125be f   kernel32:KERNEL32.dll
 0001:000115c4       _Module32NextW@8           100125c4 f   kernel32:KERNEL32.dll
 0001:000115ca       ??2@YAPAXI@Z               100125ca f   common-kernel32:Memory.obj
 0001:000115eb       ??_V@YAXPAX@Z              100125eb f   common-kernel32:Memory.obj
 0001:000115eb       ??3@YAXPAX@Z               100125eb f   common-kernel32:Memory.obj
 0001:000115f0       ??_U@YAPAXI@Z              100125f0 f   common-kernel32:Memory.obj
 0001:000115f9       ?HeapDeinitialize@@YAXXZ   100125f9 f   common-kernel32:Memory.obj
 0001:0001164f       ?HeapInitialize@@YA_NXZ    1001264f f   common-kernel32:Memory.obj
 0001:0001167d       ?xf_calloc@@YAPAXII@Z      1001267d f   common-kernel32:Memory.obj
 0001:000116a8       ?xf_free@@YAXPAX@Z         100126a8 f   common-kernel32:Memory.obj
 0001:000116e8       ?xf_malloc@@YAPAXI@Z       100126e8 f   common-kernel32:Memory.obj
 0001:0001170e       ?xf_realloc@@YAPAXPAXI@Z   1001270e f   common-kernel32:Memory.obj
 0001:00011735       ??0?$MFileMapping@UConEmuGuiMapping@@@@QAE@XZ 10012735 f i common-kernel32:ConEmuCheck.obj
 0001:00011792       ?ExecuteCmd@@YAPAUCESERVER_REQ@@PB_WPAU1@KPAUHWND__@@HKH@Z 10012792 f   common-kernel32:ConEmuCheck.obj
 0001:00011967       ?ExecuteFreeResult@@YAXAAPAUCESERVER_REQ@@@Z 10012967 f   common-kernel32:ConEmuCheck.obj
 0001:0001197f       ?ExecuteGuiCmd@@YAPAUCESERVER_REQ@@PAUHWND__@@PAU1@0H@Z 1001297f f   common-kernel32:ConEmuCheck.obj
 0001:00011a00       ?ExecuteNewCmd@@YAPAUCESERVER_REQ@@KI@Z 10012a00 f   common-kernel32:ConEmuCheck.obj
 0001:00011a3e       ?ExecuteNewCmd@@YA_NAAPAUCESERVER_REQ@@AAKKI@Z 10012a3e f   common-kernel32:ConEmuCheck.obj
 0001:00011a9c       ?ExecuteOpenPipe@@YAPAXPB_WAAY0CAI@_W0KKHPAXH@Z 10012a9c f   common-kernel32:ConEmuCheck.obj
 0001:00011bd6       ?ExecutePrepareCmd@@YAXPAUCESERVER_REQ@@KI@Z 10012bd6 f   common-kernel32:ConEmuCheck.obj
 0001:00011c0d       ?ExecutePrepareCmd@@YAXPAUCESERVER_REQ_HDR@@KI@Z 10012c0d f   common-kernel32:ConEmuCheck.obj
 0001:00011c75       ?ExecuteSrvCmd@@YAPAUCESERVER_REQ@@KPAU1@PAUHWND__@@HKH@Z 10012c75 f   common-kernel32:ConEmuCheck.obj
 0001:00011d0c       ?GetConEmuHWND@@YAPAUHWND__@@W4ConEmuWndType@@@Z 10012d0c f   common-kernel32:ConEmuCheck.obj
 0001:00011d88       ?GetConEmuWindows@@YA?AUConEmuWindows@@PAUHWND__@@@Z 10012d88 f   common-kernel32:ConEmuCheck.obj
 0001:00011e62       ?GetConEmuWindowsFromEnv@@YA?AUConEmuWindows@@XZ 10012e62 f   common-kernel32:ConEmuCheck.obj
 0001:00011f91       ?GuiMessageBox@@YAHPAUHWND__@@PB_W1H@Z 10012f91 f   common-kernel32:ConEmuCheck.obj
 0001:000120ae       ?IsConsoleClass@@YA_NPB_W@Z 100130ae f   common-kernel32:ConEmuCheck.obj
 0001:000120e8       ?IsConsoleWindow@@YA_NPAUHWND__@@@Z 100130e8 f   common-kernel32:ConEmuCheck.obj
 0001:000121af       ?IsPseudoConsoleWindow@@YA_NPAUHWND__@@@Z 100131af f   common-kernel32:ConEmuCheck.obj
 0001:0001221d       ?LoadGuiMapping@@YAHKAAUConEmuGuiMapping@@@Z 1001321d f   common-kernel32:ConEmuCheck.obj
 0001:000122d1       ?LoadSrvMapping@@YAHPAUHWND__@@AAUCESERVER_CONSOLE_MAPPING_HDR@@@Z 100132d1 f   common-kernel32:ConEmuCheck.obj
 0001:00012385       ?ModuleName@@YAPB_WPB_W@Z  10013385 f   common-kernel32:ConEmuCheck.obj
 0001:0001241b       ?StringCchCopyNW@@YGJPA_WIPB_WI@Z 1001341b f i common-kernel32:ConEmuCheck.obj
 0001:00012467       ?myGetConsoleWindow@@YAPAUHWND__@@XZ 10013467 f   common-kernel32:ConEmuCheck.obj
 0001:0001253b       ?StringCchVPrintfA@@YGJPADIPBD0@Z 1001353b f i common-kernel32:MStrSafe.obj
 0001:00012590       ?lstrcmpni@@YAHPB_W0H@Z    10013590 f   common-kernel32:MStrSafe.obj
 0001:0001267b       ?msprintf@@YAPB_WPA_WIPB_WZZ 1001367b f   common-kernel32:MStrSafe.obj
 0001:00012695       ?mvsprintf@@YAPB_WPA_WIPB_WPAD@Z 10013695 f   common-kernel32:MStrSafe.obj
 0001:00012af8       ?sprintf_c@@YAHPADHPBDZZ   10013af8 f   common-kernel32:MStrSafe.obj
 0001:00012b1b       ?swprintf_c@@YAHPA_WHPB_WZZ 10013b1b f   common-kernel32:MStrSafe.obj
 0001:00012b3e       __vsnprintf_l              10013b3e f i common-kernel32:MStrSafe.obj
 0001:00012b70       ?IsFilePath@@YA_NPB_W_N@Z  10013b70 f   common-kernel32:CmdLine.obj
 0001:00012ce4       ?PointToExt@@YAPB_WPB_W@Z  10013ce4 f   common-kernel32:CmdLine.obj
 0001:00012d02       ?PointToName@@YAPB_WPB_W@Z 10013d02 f   common-kernel32:CmdLine.obj
 0001:00012d44       ?Unquote@@YAPB_WPA_W_N@Z   10013d44 f   common-kernel32:CmdLine.obj
 0001:00012d8f       ??$sprintf_c@$0CI@@@YAHAAY0CI@DPBDZZ 10013d8f f i common-kernel32:WThreads.obj
 0001:00012da5       ?SetThreadName@@YAXKPAD@Z  10013da5 f   common-kernel32:WThreads.obj
 0001:00012dfe       ?apiCreateThread@@YAPAXP6GKPAX@Z0PAKPBDH@Z 10013dfe f   common-kernel32:WThreads.obj
 0001:00012ef6       ?apiTerminateThreadEx@@YAHPAXKPBDH@Z 10013ef6 f   common-kernel32:WThreads.obj
 0001:00012fca       ?apiThreadHelper@@YGKPAX@Z 10013fca f   common-kernel32:WThreads.obj
 0001:00013156       ?lstrdup@@YAPA_WPB_WI@Z    10014156 f   common-kernel32:MStrDup.obj
 0001:000131a2       ?lstrmerge@@YAPA_WPB_W00000000@Z 100141a2 f   common-kernel32:MStrDup.obj
 0001:0001329c       ?lstrmerge@@YA_NPAPA_WPB_W1111111@Z 1001429c f   common-kernel32:MStrDup.obj
 0001:000132e5       ??0CEStr@@QAE@$$QAPA_W@Z   100142e5 f   common-kernel32:CEStr.obj
 0001:00013301       ??0CEStr@@QAE@$$QAU0@@Z    10014301 f   common-kernel32:CEStr.obj
 0001:0001332a       ??0CEStr@@QAE@PB_W00000000@Z 1001432a f   common-kernel32:CEStr.obj
 0001:0001336f       ??0CEStr@@QAE@XZ           1001436f f   common-kernel32:CEStr.obj
 0001:00013379       ??0bad_alloc@stdext@@QAE@ABV01@@Z 10014379 f i common-kernel32:CEStr.obj
 0001:00013397       ??0bad_alloc@stdext@@QAE@XZ 10014397 f i common-kernel32:CEStr.obj
 0001:000133a7       ??0exception@stdext@@QAE@ABV01@@Z 100143a7 f i common-kernel32:CEStr.obj
 0001:000133bf       ??1CEStr@@QAE@XZ           100143bf f   common-kernel32:CEStr.obj
 0001:000133c4       ??1bad_alloc@stdext@@UAE@XZ 100143c4 f i common-kernel32:CEStr.obj
 0001:000133cb       ??4CEStr@@QAEAAU0@$$QAU0@@Z 100143cb f   common-kernel32:CEStr.obj
 0001:00013400       ??4CEStr@@QAEAAU0@PB_W@Z   10014400 f   common-kernel32:CEStr.obj
 0001:0001341c       ?data@CEStr@@QBEPA_WXZ     1001441c f   common-kernel32:CEStr.obj
 0001:0001341c       ??BCEStr@@QBEPB_WXZ        1001441c f   common-kernel32:CEStr.obj
 0001:0001341f       ??BCEStr@@QBE_NXZ          1001441f f   common-kernel32:CEStr.obj
 0001:00013427       ??_Eexception@stdext@@UAEPAXI@Z 10014427 f i common-kernel32:CEStr.obj
 0001:00013427       ??_Ebad_alloc@stdext@@UAEPAXI@Z 10014427 f i common-kernel32:CEStr.obj
 0001:00013427       ??_Gbad_alloc@stdext@@UAEPAXI@Z 10014427 f i common-kernel32:CEStr.obj
 0001:00013427       ??_Gexception@stdext@@UAEPAXI@Z 10014427 f i common-kernel32:CEStr.obj
 0001:0001344a       ?AttachInt@CEStr@@AAEPB_WAAPA_W@Z 1001444a f   common-kernel32:CEStr.obj
 0001:000134ad       ?Clear@CEStr@@QAEXXZ       100144ad f   common-kernel32:CEStr.obj
 0001:000134bb       ?Compare@CEStr@@QBEHPB_W_N@Z 100144bb f   common-kernel32:CEStr.obj
 0001:000134f6       ?Detach@CEStr@@QAEPA_WXZ   100144f6 f   common-kernel32:CEStr.obj
 0001:00013500       ?GetBuffer@CEStr@@QAEPA_WH@Z 10014500 f   common-kernel32:CEStr.obj
 0001:00013592       ?GetLen@CEStr@@QBEHXZ      10014592 f   common-kernel32:CEStr.obj
 0001:000135bc       ?GetMaxCount@CEStr@@QAEHXZ 100145bc f   common-kernel32:CEStr.obj
 0001:000135d8       ?IsEmpty@CEStr@@QBE_NXZ    100145d8 f   common-kernel32:CEStr.obj
 0001:000135e8       ?Release@CEStr@@QAEXXZ     100145e8 f   common-kernel32:CEStr.obj
 0001:000135fd       ?Set@CEStr@@QAEPB_WPB_WH@Z 100145fd f   common-kernel32:CEStr.obj
 0001:000136c2       ?SetAt@CEStr@@QAE_WH_W@Z   100146c2 f   common-kernel32:CEStr.obj
 0001:000136f8       ?_Doraise@bad_alloc@stdext@@MBEXXZ 100146f8 f i common-kernel32:CEStr.obj
 0001:00013705       ?c_str@CEStr@@QBEPB_WPB_W@Z 10014705 f   common-kernel32:CEStr.obj
 0001:00013715       ?what@exception@stdext@@UBEPBDXZ 10014715 f i common-kernel32:CEStr.obj
 0001:00013930       ??0CEnvStrings@@QAE@PA_W@Z 10014930 f   common-kernel32:EnvVar.obj
 0001:0001398e       ??1CEnvStrings@@QAE@XZ     1001498e f   common-kernel32:EnvVar.obj
 0001:000139a3       ?Clear@CEnvRestorer@@QAEXXZ 100149a3 f   common-kernel32:EnvVar.obj
 0001:000139ba       ?ExpandEnvStr@@YA?AUCEStr@@PB_W@Z 100149ba f   common-kernel32:EnvVar.obj
 0001:000139db       ?GetEnvVar@@YA?AUCEStr@@PB_W@Z 100149db f   common-kernel32:EnvVar.obj
 0001:000139f7       ?SavePathVar@CEnvRestorer@@QAEXPB_W@Z 100149f7 f   common-kernel32:EnvVar.obj
 0001:00013a23       ?CommonShutdown@@YAXXZ     10014a23 f   common-kernel32:Common.obj
 0001:00013a32       ?GetCommand@CESERVER_REQ_NEWCMD@@QAEPA_WXZ 10014a32 f   common-kernel32:Common.obj
 0001:00013a4b       ?GetEnvStrings@CESERVER_REQ_NEWCMD@@QAEPA_WXZ 10014a4b f   common-kernel32:Common.obj
 0001:00013a68       ?IsEnvBlockVariableValid@@YA_NPB_W@Z 10014a68 f   common-kernel32:Common.obj
 0001:00013a94       ?IsEnvBlockVariableValid@@YA_NPB_WAAPB_W@Z 10014a94 f   common-kernel32:Common.obj
 0001:00013aca       ?SetCommand@CESERVER_REQ_NEWCMD@@QAEXPB_W@Z 10014aca f   common-kernel32:Common.obj
 0001:00013b16       ?SetEnvStrings@CESERVER_REQ_NEWCMD@@QAEXPB_WK@Z 10014b16 f   common-kernel32:Common.obj
 0001:00013be2       ??0MNullDesc@@QAE@XZ       10014be2 f i common-kernel32:MSecurity.obj
 0001:00013c04       ??1MNullDesc@@QAE@XZ       10014c04 f i common-kernel32:MSecurity.obj
 0001:00013c3c       ?LoadAdvApi@MNullDesc@@IAEHXZ 10014c3c f i common-kernel32:MSecurity.obj
 0001:00013d14       ?LocalSecurity@@YAPAU_SECURITY_ATTRIBUTES@@XZ 10014d14 f   common-kernel32:MSecurity.obj
 0001:00013d40       ?LocalSecurity@MNullDesc@@QAEPAU_SECURITY_ATTRIBUTES@@XZ 10014d40 f i common-kernel32:MSecurity.obj
 0001:00013e5d       ?ShutdownSecurity@@YAXXZ   10014e5d f   common-kernel32:MSecurity.obj
 0001:00013e82       ?UnloadAdvApi@MNullDesc@@IAEXXZ 10014e82 f i common-kernel32:MSecurity.obj
 0001:00013e9a       ??$?0P6GHPAX@ZX@?$function@$$A6AXPAX@Z@std@@QAE@P6GHPAX@Z@Z 10014e9a f i common-kernel32:WObjects.obj
 0001:00013eba       ??$GetProcAddress@$$A6GHPAU_OSVERSIONINFOEXW@@K_K@Z@MModule@@QBE_NQBDAAP6GHPAU_OSVERSIONINFOEXW@@K_K@Z@Z 10014eba f i common-kernel32:WObjects.obj
 0001:00013ef7       ??0MHandle@@QAE@PAXV?$function@$$A6AXPAX@Z@std@@@Z 10014ef7 f i common-kernel32:WObjects.obj
 0001:00013f21       ??R?$_Func_class@XPAX@std@@QBEXPAX@Z 10014f21 f i common-kernel32:WObjects.obj
 0001:00013f3e       ?Close@MHandle@@QAEXXZ     10014f3e f i common-kernel32:WObjects.obj
 0001:00013f6b       ?FileExists@@YA_NPB_WPA_K@Z 10014f6b f   common-kernel32:WObjects.obj
 0001:00014153       ?IsWin6@@YA_NXZ            10015153 f   common-kernel32:WObjects.obj
 0001:00014181       ?IsWin7@@YA_NXZ            10015181 f   common-kernel32:WObjects.obj
 0001:000141af       ?IsWinVerOrHigher@@YA_NG@Z 100151af f   common-kernel32:WObjects.obj
 0001:0001422c       ?IsWindows64@@YA_NXZ       1001522c f   common-kernel32:WObjects.obj
 0001:0001429c       ?MakeOsVersionEx@@YA?AU_OSVERSIONINFOEXW@@KK@Z 1001529c f   common-kernel32:WObjects.obj
 0001:000142cd       ?SetHandle@MHandle@@QAE_NPAXV?$function@$$A6AXPAX@Z@std@@@Z 100152cd f i common-kernel32:WObjects.obj
 0001:00014321       ?_Move@?$_Func_impl_no_alloc@P6GHPAX@ZXPAX@std@@EAEPAV?$_Func_base@XPAX@2@PAX@Z 10015321 f i common-kernel32:WObjects.obj
 0001:00014321       ?_Copy@?$_Func_impl_no_alloc@P6GHPAX@ZXPAX@std@@EBEPAV?$_Func_base@XPAX@2@PAX@Z 10015321 f i common-kernel32:WObjects.obj
 0001:00014337       ?_Delete_this@?$_Func_impl_no_alloc@P6GHPAX@ZXPAX@std@@EAEX_N@Z 10015337 f i common-kernel32:WObjects.obj
 0001:00014337       ?_Delete_this@?$_Func_impl_no_alloc@V<lambda_9e7323793ed24b1a5fadb4d27ba29021>@@_NABUtagPROCESSENTRY32W@@@std@@EAEX_N@Z 10015337 f i common-kernel32:MProcess.obj
 0001:0001434e       ?_Do_call@?$_Func_impl_no_alloc@P6GHPAX@ZXPAX@std@@EAEX$$QAPAX@Z 1001534e f i common-kernel32:WObjects.obj
 0001:0001435d       ?_Get@?$_Func_impl_no_alloc@P6GHPAX@ZXPAX@std@@EBEPBXXZ 1001535d f i common-kernel32:WObjects.obj
 0001:0001435d       ?_Get@?$_Func_impl_no_alloc@V<lambda_9e7323793ed24b1a5fadb4d27ba29021>@@_NABUtagPROCESSENTRY32W@@@std@@EBEPBXXZ 1001535d f i common-kernel32:MProcess.obj
 0001:00014361       ?_Reset_move@?$_Func_class@XPAX@std@@IAEX$$QAV12@@Z 10015361 f i common-kernel32:WObjects.obj
 0001:00014395       ?_Target_type@?$_Func_impl_no_alloc@P6GHPAX@ZXPAX@std@@EBEABVtype_info@@XZ 10015395 f i common-kernel32:WObjects.obj
 0001:0001439b       ?_Tidy@?$_Func_class@_NABUtagPROCESSENTRY32W@@@std@@IAEXXZ 1001539b f i common-kernel32:MProcess.obj
 0001:0001439b       ?_Tidy@?$_Func_class@XPAX@std@@IAEXXZ 1001539b f i common-kernel32:WObjects.obj
 0001:000143b9       ?_VerifyVersionInfo@@YA_NPAU_OSVERSIONINFOEXW@@K_K@Z 100153b9 f   common-kernel32:WObjects.obj
 0001:00014433       ?Init@HkFunc@@QAE_NPB_WPAUHINSTANCE__@@@Z 10015433 f   common-kernel32:HkFunc.obj
 0001:00014491       ?isConEmuHk@HkFunc@@QAE_NXZ 10015491 f   common-kernel32:HkFunc.obj
 0001:00014498       ??$_Emplace_reallocate@ABUtagPROCESSENTRY32W@@@?$vector@UtagPROCESSENTRY32W@@V?$MArrayAllocator@UtagPROCESSENTRY32W@@@@@std@@QAEPAUtagPROCESSENTRY32W@@QAU2@ABU2@@Z 10015498 f i common-kernel32:MProcess.obj
 0001:0001455b       ??$emplace_back@ABUtagPROCESSENTRY32W@@@?$vector@UtagPROCESSENTRY32W@@V?$MArrayAllocator@UtagPROCESSENTRY32W@@@@@std@@QAEXABUtagPROCESSENTRY32W@@@Z 1001555b f i common-kernel32:MProcess.obj
 0001:0001458e       ??0?$MToolHelp@UtagPROCESSENTRY32W@@$1?Process32FirstW@@YGHPAXPAU1@@Z$1?Process32NextW@@YGH01@Z@@QAE@KK@Z 1001558e f i common-kernel32:MProcess.obj
 0001:000145fc       ??1?$MToolHelp@UtagPROCESSENTRY32W@@$1?Process32FirstW@@YGHPAXPAU1@@Z$1?Process32NextW@@YGH01@Z@@UAE@XZ 100155fc f i common-kernel32:MProcess.obj
 0001:00014616       ??_EMToolHelpProcess@@UAEPAXI@Z 10015616 f i common-kernel32:MProcess.obj
 0001:00014616       ??_GMToolHelpProcess@@UAEPAXI@Z 10015616 f i common-kernel32:MProcess.obj
 0001:00014616       ??_G?$MToolHelp@UtagPROCESSENTRY32W@@$1?Process32FirstW@@YGHPAXPAU1@@Z$1?Process32NextW@@YGH01@Z@@UAEPAXI@Z 10015616 f i common-kernel32:MProcess.obj
 0001:00014616       ??_E?$MToolHelp@UtagPROCESSENTRY32W@@$1?Process32FirstW@@YGHPAXPAU1@@Z$1?Process32NextW@@YGH01@Z@@UAEPAXI@Z 10015616 f i common-kernel32:MProcess.obj
 0001:0001463b       ?Close@?$MToolHelp@UtagPROCESSENTRY32W@@$1?Process32FirstW@@YGHPAXPAU1@@Z$1?Process32NextW@@YGH01@Z@@QAEXXZ 1001563b f i common-kernel32:MProcess.obj
 0001:000146a8       ?Filter@?$MToolHelp@UtagPROCESSENTRY32W@@$1?Process32FirstW@@YGHPAXPAU1@@Z$1?Process32NextW@@YGH01@Z@@MAE_NABUtagPROCESSENTRY32W@@@Z 100156a8 f i common-kernel32:MProcess.obj
 0001:000146ad       ?Find@?$MToolHelp@UtagPROCESSENTRY32W@@$1?Process32FirstW@@YGHPAXPAU1@@Z$1?Process32NextW@@YGH01@Z@@QAE_NABV?$function@$$A6A_NABUtagPROCESSENTRY32W@@@Z@std@@AAUtagPROCESSENTRY32W@@@Z 100156ad f i common-kernel32:MProcess.obj
 0001:00014747       ?Find@MToolHelpProcess@@QAE_NKAAUtagPROCESSENTRY32W@@@Z 10015747 f i common-kernel32:MProcess.obj
 0001:00014790       ?Next@?$MToolHelp@UtagPROCESSENTRY32W@@$1?Process32FirstW@@YGHPAXPAU1@@Z$1?Process32NextW@@YGH01@Z@@QAE_NAAUtagPROCESSENTRY32W@@@Z 10015790 f i common-kernel32:MProcess.obj
 0001:000147e8       ?Open@?$MToolHelp@UtagPROCESSENTRY32W@@$1?Process32FirstW@@YGHPAXPAU1@@Z$1?Process32NextW@@YGH01@Z@@QAE_NXZ 100157e8 f i common-kernel32:MProcess.obj
 0001:00014847       ?_Calculate_growth@?$vector@UtagPROCESSENTRY32W@@V?$MArrayAllocator@UtagPROCESSENTRY32W@@@@@std@@ABEII@Z 10015847 f i common-kernel32:MProcess.obj
 0001:00014874       ?_Change_array@?$vector@UtagPROCESSENTRY32W@@V?$MArrayAllocator@UtagPROCESSENTRY32W@@@@@std@@AAEXQAUtagPROCESSENTRY32W@@II@Z 10015874 f i common-kernel32:MProcess.obj
 0001:000148a9       ?_Move@?$_Func_impl_no_alloc@V<lambda_9e7323793ed24b1a5fadb4d27ba29021>@@_NABUtagPROCESSENTRY32W@@@std@@EAEPAV?$_Func_base@_NABUtagPROCESSENTRY32W@@@2@PAX@Z 100158a9 f i common-kernel32:MProcess.obj
 0001:000148a9       ?_Copy@?$_Func_impl_no_alloc@V<lambda_9e7323793ed24b1a5fadb4d27ba29021>@@_NABUtagPROCESSENTRY32W@@@std@@EBEPAV?$_Func_base@_NABUtagPROCESSENTRY32W@@@2@PAX@Z 100158a9 f i common-kernel32:MProcess.obj
 0001:000148bf       ?_Do_call@?$_Func_impl_no_alloc@V<lambda_9e7323793ed24b1a5fadb4d27ba29021>@@_NABUtagPROCESSENTRY32W@@@std@@EAE_NABUtagPROCESSENTRY32W@@@Z 100158bf f i common-kernel32:MProcess.obj
 0001:000148d2       ?_Target_type@?$_Func_impl_no_alloc@V<lambda_9e7323793ed24b1a5fadb4d27ba29021>@@_NABUtagPROCESSENTRY32W@@@std@@EBEABVtype_info@@XZ 100158d2 f i common-kernel32:MProcess.obj
 0001:000148d8       ?_Tidy@?$vector@UtagPROCESSENTRY32W@@V?$MArrayAllocator@UtagPROCESSENTRY32W@@@@@std@@AAEXXZ 100158d8 f i common-kernel32:MProcess.obj
 0001:000148f4       ?allocate@?$MArrayAllocator@UtagPROCESSENTRY32W@@@@QAEPAUtagPROCESSENTRY32W@@I@Z 100158f4 f i common-kernel32:MProcess.obj
 0001:00014926       ?getNext@?$MToolHelp@UtagPROCESSENTRY32W@@$1?Process32FirstW@@YGHPAXPAU1@@Z$1?Process32NextW@@YGH01@Z@@IAE_NXZ 10015926 f i common-kernel32:MProcess.obj
 0001:000149a7       ?isTerminalMode@@YA_NXZ    100159a7 f   common-kernel32:MProcess.obj
 0001:00014a9a       ?push_back@?$MArray@UtagPROCESSENTRY32W@@@@QAEHABUtagPROCESSENTRY32W@@@Z 10015a9a f i common-kernel32:MProcess.obj
 0001:00014abc       ?swap@?$vector@UtagPROCESSENTRY32W@@V?$MArrayAllocator@UtagPROCESSENTRY32W@@@@@std@@QAEXAAV12@@Z 10015abc f i common-kernel32:MProcess.obj
 0001:00014af0       ??0MSection@@QAE@XZ        10015af0 f   common-kernel32:MSection.obj
 0001:00014b4f       ??0MSectionLock@@QAE@XZ    10015b4f f   common-kernel32:MSection.obj
 0001:00014b5c       ??0MSectionThread@@QAE@PAVMSection@@@Z 10015b5c f   common-kernel32:MSection.obj
 0001:00014b77       ??1MSection@@QAE@XZ        10015b77 f   common-kernel32:MSection.obj
 0001:00014bd1       ??1MSectionLock@@QAE@XZ    10015bd1 f   common-kernel32:MSection.obj
 0001:00014bea       ??1MSectionThread@@QAE@XZ  10015bea f   common-kernel32:MSection.obj
 0001:00014c00       ?AddRef@MSection@@IAEXK@Z  10015c00 f   common-kernel32:MSection.obj
 0001:00014c69       ?Lock@MSection@@IAEHHK@Z   10015c69 f   common-kernel32:MSection.obj
 0001:00014d2f       ?Lock@MSectionLock@@QAEHPAVMSection@@HK@Z 10015d2f f   common-kernel32:MSection.obj
 0001:00014d7a       ?MyEnterCriticalSection@MSection@@IAE_NK@Z 10015d7a f   common-kernel32:MSection.obj
 0001:00014e62       ?ReleaseRef@MSection@@IAEHK@Z 10015e62 f   common-kernel32:MSection.obj
 0001:00014ecf       ?ThreadTerminated@MSection@@QAEXK@Z 10015ecf f   common-kernel32:MSection.obj
 0001:00014ef5       ?Unlock@MSection@@IAEXH@Z  10015ef5 f   common-kernel32:MSection.obj
 0001:00014f33       ?Unlock@MSectionLock@@QAEXXZ 10015f33 f   common-kernel32:MSection.obj
 0001:00014f50       ?WaitUnlocked@MSection@@IAEXKK@Z 10015f50 f   common-kernel32:MSection.obj
 0001:00014fab       ?CheckCallbackPtr@@YA_NPAUHINSTANCE__@@IPAP6GHXZHHH@Z 10015fab f   common-kernel32:WModuleCheck.obj
 0001:00015078       ?IsModuleValid@@YA_NPAUHINSTANCE__@@H@Z 10016078 f   common-kernel32:WModuleCheck.obj
 0001:00015150       ??0MModule@@QAE@PAUHINSTANCE__@@@Z 10016150 f   common-kernel32:MModule.obj
 0001:00015166       ??1MModule@@QAE@XZ         10016166 f   common-kernel32:MModule.obj
 0001:0001516b       ?Free@MModule@@QAEXXZ      1001616b f   common-kernel32:MModule.obj
 0001:00015196       ??0MSectionSimple@@QAE@_N@Z 10016196 f   common-kernel32:MSectionSimple.obj
 0001:000151c0       ??1MSectionSimple@@QAE@XZ  100161c0 f   common-kernel32:MSectionSimple.obj
 0001:000151c5       ?Close@MSectionSimple@@QAEXXZ 100161c5 f   common-kernel32:MSectionSimple.obj
 0001:000151db       ?Enter@MSectionSimple@@QAEXXZ 100161db f   common-kernel32:MSectionSimple.obj
 0001:000151e3       ?Init@MSectionSimple@@QAEXXZ 100161e3 f   common-kernel32:MSectionSimple.obj
 0001:000151f9       ?Leave@MSectionSimple@@QAEXXZ 100161f9 f   common-kernel32:MSectionSimple.obj
 0001:00015201       ?RecreateAndLock@MSectionSimple@@QAE_NXZ 10016201 f   common-kernel32:MSectionSimple.obj
 0001:00015248       ?TryEnter@MSectionSimple@@QAE_NXZ 10016248 f   common-kernel32:MSectionSimple.obj
 0001:00015267       ?SetConEmuEnvHWND@@YAXPB_WPAUHWND__@@@Z 10016267 f   common-user32:SetEnvVar.obj
 0001:000152b2       ?SetConEmuEnvVar@@YAXPAUHWND__@@@Z 100162b2 f   common-user32:SetEnvVar.obj
 0001:0001531c       ?SetConEmuEnvVarChild@@YAXPAUHWND__@@0@Z 1001631c f   common-user32:SetEnvVar.obj
 0001:0001533e       ??$wcscpy_add@$0BAF@@@YAHPA_WAAY0BAF@_WPB_W@Z 1001633e f i common-user32:ConEmuCheckEx.obj
 0001:0001536b       ??$wcscpy_c@$0BAF@@@YAHAAY0BAF@_WPB_W@Z 1001636b f i common-user32:ConEmuCheckEx.obj
 0001:00015380       ?FindConEmuBaseDir@@YAHAAY0BAF@_W0PAUHINSTANCE__@@@Z 10016380 f   common-user32:ConEmuCheckEx.obj
 0001:00015826       ?IsConEmuExeExist@@YAHPB_WAAY0BAF@_W@Z 10016826 f   common-user32:ConEmuCheckEx.obj
 0001:0001589d       ??$swprintf_c@$0FA@@@YAHAAY0FA@_WPB_WZZ 1001689d f i common-user32:EmergencyShow.obj
 0001:000158b3       ?CorrectConsolePos@@YAXPAUHWND__@@@Z 100168b3 f   common-user32:EmergencyShow.obj
 0001:00015988       ?EmergencyShow@@YAXPAUHWND__@@HH@Z 10016988 f   common-user32:EmergencyShow.obj
 0001:00015a79       ?EvaluateDefaultFontWidth@@YAHHPB_W@Z 10016a79 f   common-user32:EmergencyShow.obj
 0001:00015b69       ?SetUserFriendlyFont@@YAXPAUHWND__@@HH@Z 10016b69 f   common-user32:EmergencyShow.obj
 0001:00015e99       ??0MSetter@@QAE@PAJ@Z      10016e99 f   common-user32:MSetter.obj
 0001:00015ebd       ??1MSetter@@QAE@XZ         10016ebd f   common-user32:MSetter.obj
 0001:00015ec2       ?Unlock@MSetter@@QAEXXZ    10016ec2 f   common-user32:MSetter.obj
 0001:00015f1d       ?IsDotsName@@YA_NPB_W@Z    10016f1d f   common-user32:WFiles.obj
 0001:00015f4d       ?SearchAppPaths@@YA_NPB_WAAUCEStr@@_NPAVCEnvRestorer@@@Z 10016f4d f   common-user32:WFiles.obj
 0001:00016347       ??1ConsoleSectionHelper@@QAE@XZ 10017347 f i common-user32:WConsoleEx.obj
 0001:0001636f       ?CreateConsoleData@ConsoleSectionHelper@@QAEPAUCONSOLE_INFO@@XZ 1001736f f i common-user32:WConsoleEx.obj
 0001:00016394       ?CreateConsoleSection@ConsoleSectionHelper@@QAEPAXXZ 10017394 f i common-user32:WConsoleEx.obj
 0001:000163b5       ?GetConsoleSizeInfo@@YAXPAUCONSOLE_INFO@@@Z 100173b5 f   common-user32:WConsoleEx.obj
 0001:00016427       ?SetConsoleFontSizeTo@@YAXPAUHWND__@@HHPB_WGG@Z 10017427 f   common-user32:WConsoleEx.obj
 0001:00016744       ?SetConsoleInfo@@YAHPAUHWND__@@PAUCONSOLE_INFO@@@Z 10017744 f   common-user32:WConsoleEx.obj
 0001:0001691c       ?SetEnvVarExpanded@@YAXPB_W0@Z 1001791c f   common-user32:WUser.obj
 0001:000169c8       ?UpdateComspec@@YAXPAUConEmuComspec@@_N@Z 100179c8 f   common-user32:WUser.obj
 0001:00016c5b       ?apiShowWindow@@YA_NPAUHWND__@@H@Z 10017c5b f   common-user32:WUser.obj
 0001:00016c71       ?apiShowWindowAsync@@YA_NPAUHWND__@@H@Z 10017c71 f   common-user32:WUser.obj
 0001:00016c87       ?RegGetStringValue@@YAHPAUHKEY__@@PB_W1AAUCEStr@@K@Z 10017c87 f   common-user32:WRegistry.obj
 0001:00016de1       ?FindMonitorsWorkspace@@YGHPAUHMONITOR__@@PAUHDC__@@PAUtagRECT@@J@Z 10017de1 f   common-user32:Monitors.obj
 0001:00016e1a       ?GetAllMonitorsWorkspace@@YA?AUtagRECT@@XZ 10017e1a f   common-user32:Monitors.obj
 0001:00016e6a       ??0bad_function_call@std@@QAE@ABV01@@Z 10017e6a f i libcpmt:xthrow.obj
 0001:00016e85       ??0bad_function_call@std@@QAE@XZ 10017e85 f i libcpmt:xthrow.obj
 0001:00016e96       ??0exception@std@@QAE@QBD@Z 10017e96 f i libcpmt:xthrow.obj
 0001:00016ecb       ??0length_error@std@@QAE@ABV01@@Z 10017ecb f i libcpmt:xthrow.obj
 0001:00016ee6       ??0length_error@std@@QAE@PBD@Z 10017ee6 f i libcpmt:xthrow.obj
 0001:00016f05       ??0logic_error@std@@QAE@ABV01@@Z 10017f05 f i libcpmt:xthrow.obj
 0001:00016f20       ?_Xbad_function_call@std@@YAXXZ 10017f20 f   libcpmt:xthrow.obj
 0001:00016f3d       ?_Xlength_error@std@@YAXPBD@Z 10017f3d f   libcpmt:xthrow.obj
 0001:00016f5d       ?what@bad_function_call@std@@UBEPBDXZ 10017f5d f i libcpmt:xthrow.obj
 0001:00016f63       @__security_check_cookie@4 10017f63 f   LIBCMT:secchk.obj
 0001:00016f74       ??3@YAXPAXI@Z              10017f74 f   LIBCMT:delete_scalar_size.obj
 0001:00016f82       __EH_epilog3               10017f82 f   LIBCMT:ehprolg3.obj
 0001:00016f97       __EH_epilog3_GS            10017f97 f   LIBCMT:ehprolg3.obj
 0001:00016fa8       __EH_prolog3               10017fa8 f   LIBCMT:ehprolg3.obj
 0001:00016fdc       __EH_prolog3_GS            10017fdc f   LIBCMT:ehprolg3.obj
 0001:00017013       __EH_prolog3_catch         10018013 f   LIBCMT:ehprolg3.obj
 0001:00017050       __chkstk                   10018050 f   LIBCMT:chkstk.obj
 0001:00017050       __alloca_probe             10018050 f   LIBCMT:chkstk.obj
 0001:00017080       __aullshr                  10018080 f   LIBCMT:ullshr.obj
 0001:0001709f       ??_Etype_info@@UAEPAXI@Z   1001809f f i LIBCMT:std_type_info_static.obj
 0001:0001709f       ??_Gtype_info@@UAEPAXI@Z   1001809f f i LIBCMT:std_type_info_static.obj
 0001:000170e9       ??$__crt_fast_encode_pointer@P6GHPAU_RTL_CONDITION_VARIABLE@@PAU_RTL_CRITICAL_SECTION@@K@Z@@YAP6GHPAU_RTL_CONDITION_VARIABLE@@PAU_RTL_CRITICAL_SECTION@@K@ZQ6GH01K@Z@Z 100180e9 f i LIBCMT:thread_safe_statics.obj
 0001:000170e9       ??$__crt_fast_encode_pointer@PAP6AXXZ@@YAPAP6AXXZQAP6AXXZ@Z 100180e9 f i LIBCMT:utility.obj
 0001:000170e9       ??$__crt_fast_encode_pointer@PAX@@YAPAXQAX@Z 100180e9 f i libvcruntime:winapi_downlevel.obj
 0001:000170e9       ??$__crt_fast_encode_pointer@P6GXPAU_RTL_CONDITION_VARIABLE@@@Z@@YAP6GXPAU_RTL_CONDITION_VARIABLE@@@ZQ6GX0@Z@Z 100180e9 f i LIBCMT:thread_safe_statics.obj
 0001:00017211       __Init_thread_footer       10018211 f   LIBCMT:thread_safe_statics.obj
 0001:0001725b       __Init_thread_header       1001825b f   LIBCMT:thread_safe_statics.obj
 0001:000172ad       __Init_thread_notify       100182ad f   LIBCMT:thread_safe_statics.obj
 0001:000172ef       __Init_thread_wait         100182ef f   LIBCMT:thread_safe_statics.obj
 0001:00017350       __SEH_prolog4              10018350 f   LIBCMT:sehprolg4.obj
 0001:00017396       __SEH_epilog4              10018396 f   LIBCMT:sehprolg4.obj
 0001:000176cb       __DllMainCRTStartup@12     100186cb f   LIBCMT:dll_dllmain.obj
 0001:00017732       ___scrt_acquire_startup_lock 10018732 f   LIBCMT:utility.obj
 0001:00017764       ___scrt_dllmain_after_initialize_c 10018764 f   LIBCMT:utility.obj
 0001:0001778f       ___scrt_dllmain_before_initialize_c 1001878f f   LIBCMT:utility.obj
 0001:0001779d       ___scrt_dllmain_crt_thread_attach 1001879d f   LIBCMT:utility.obj
 0001:000177bc       ___scrt_dllmain_crt_thread_detach 100187bc f   LIBCMT:utility.obj
 0001:000177c9       ___scrt_dllmain_exception_filter 100187c9 f   LIBCMT:utility.obj
 0001:000177fd       ___scrt_dllmain_uninitialize_c 100187fd f   LIBCMT:utility.obj
 0001:00017820       ___scrt_dllmain_uninitialize_critical 10018820 f   LIBCMT:utility.obj
 0001:0001782d       ___scrt_initialize_crt     1001882d f   LIBCMT:utility.obj
 0001:00017866       ___scrt_initialize_onexit_tables 10018866 f   LIBCMT:utility.obj
 0001:0001790b       ___scrt_is_nonwritable_in_current_image 1001890b f   LIBCMT:utility.obj
 0001:0001799f       ___scrt_release_startup_lock 1001899f f   LIBCMT:utility.obj
 0001:000179bc       ___scrt_uninitialize_crt   100189bc f   LIBCMT:utility.obj
 0001:000179e4       __onexit                   100189e4 f   LIBCMT:utility.obj
 0001:00017a1f       _atexit                    10018a1f f   LIBCMT:utility.obj
 0001:00017a34       ___raise_securityfailure   10018a34 f   LIBCMT:gs_report.obj
 0001:00017a5c       ___report_gsfailure        10018a5c f   LIBCMT:gs_report.obj
 0001:00017b55       ___scrt_fastfail           10018b55 f   LIBCMT:utility_desktop.obj
 0001:00017c6f       __crt_debugger_hook        10018c6f f   LIBCMT:utility_desktop.obj
 0001:00017cc4       ___security_init_cookie    10018cc4 f   LIBCMT:gs_support.obj
 0001:00017d0f       ?__scrt_initialize_type_info@@YAXXZ 10018d0f f   LIBCMT:tncleanup.obj
 0001:00017d1b       ?__scrt_uninitialize_type_info@@YAXXZ 10018d1b f   LIBCMT:tncleanup.obj
 0001:00017d27       ___local_stdio_scanf_options 10018d27 f i LIBCMT:default_local_stdio_options.obj
 0001:00017d2d       ___scrt_initialize_default_local_stdio_options 10018d2d f   LIBCMT:default_local_stdio_options.obj
 0001:00017d4a       ___scrt_get_dyn_tls_init_callback 10018d4a f   LIBCMT:dyn_tls_init.obj
 0001:00017d50       __RTC_Initialize           10018d50 f   LIBCMT:initsect.obj
 0001:00017d7c       __RTC_Terminate            10018d7c f   LIBCMT:initsect.obj
 0001:00017da8       ___isa_available_init      10018da8 f   LIBCMT:cpu_disp.obj
 0001:00017f3f       ___scrt_is_ucrt_dll_in_use 10018f3f f   LIBCMT:ucrt_detection.obj
 0001:00017f4b       ?GetRangeOfTrysToCheck@__FrameHandler3@@SA?AU?$pair@Viterator@TryBlockMap@__FrameHandler3@@V123@@std@@AAVTryBlockMap@1@HH@Z 10018f4b f   libvcruntime:trnsctrl.obj
 0001:00017fcd       ?_CallCatchBlock2@@YAPAXPAUEHRegistrationNode@@PBU_s_FuncInfo@@PAXHK@Z 10018fcd f   libvcruntime:trnsctrl.obj
 0001:0001802b       ?_CallSETranslator@@YAHPAUEHExceptionRecord@@PAUEHRegistrationNode@@PAX2PBU_s_FuncInfo@@H1@Z 1001902b f   libvcruntime:trnsctrl.obj
 0001:00018106       ?_JumpToContinuation@@YGXPAXPAUEHRegistrationNode@@@Z 10019106 f   libvcruntime:trnsctrl.obj
 0001:00018136       ?_UnwindNestedFrames@@YGXPAUEHRegistrationNode@@PAUEHExceptionRecord@@@Z 10019136 f   libvcruntime:trnsctrl.obj
 0001:00018189       __CatchGuardHandler        10019189 f   libvcruntime:trnsctrl.obj
 0001:000181ba       __CreateFrameInfo          100191ba f   libvcruntime:trnsctrl.obj
 0001:000181de       __FindAndUnlinkFrame       100191de f   libvcruntime:trnsctrl.obj
 0001:00018223       __TranslatorGuardHandler   10019223 f   libvcruntime:trnsctrl.obj
 0001:000182c0       ___CxxFrameHandler3        100192c0 f   libvcruntime:trnsctrl.obj
 0001:000182f6       _wcschr                    100192f6 f   libvcruntime:wcschr.obj
 0001:000183bd       _wcsstr                    100193bd f   libvcruntime:wcsstr.obj
 0001:00018640       _memmove                   10019640 f   libvcruntime:memmove.obj
 0001:00018bc0       _memset                    10019bc0 f   libvcruntime:memset.obj
 0001:00018d1a       ___DestructExceptionObject 10019d1a f   libvcruntime:ehhelpers.obj
 0001:00018dba       ?_CallMemberFunction0@@YGXQAX0@Z 10019dba f i libvcruntime:ehhelpers.obj
 0001:00018dc7       __IsExceptionObjectToBeDestroyed 10019dc7 f   libvcruntime:ehhelpers.obj
 0001:00018ded       ___AdjustPointer           10019ded f   libvcruntime:ehhelpers.obj
 0001:00018e12       ___FrameUnwindFilter       10019e12 f   libvcruntime:ehhelpers.obj
 0001:00018e57       ___std_terminate           10019e57 f   libvcruntime:ehhelpers.obj
 0001:00018e5c       ___std_exception_copy      10019e5c f   libvcruntime:std_exception.obj
 0001:00018ebf       ___std_exception_destroy   10019ebf f   libvcruntime:std_exception.obj
 0001:00018ede       __CxxThrowException@8      10019ede f   libvcruntime:throw.obj
 0001:00018f4b       __get_purecall_handler     10019f4b f   libvcruntime:purevirt.obj
 0001:00018f60       __purecall                 10019f60 f   libvcruntime:purevirt.obj
 0001:00018f7c       _wcsrchr                   10019f7c f   libvcruntime:wcsrchr.obj
 0001:00019020       _memcpy                    1001a020 f   libvcruntime:memcpy.obj
 0001:000195e0       __except_handler4          1001a5e0 f   libvcruntime:chandler4.obj
 0001:00019740       _strrchr                   1001a740 f   libvcruntime:strrchr.obj
 0001:00019880       _strchr                    1001a880 f   libvcruntime:strchr.obj
 0001:000198ee       ___from_strstr_to_strchr   1001a8ee     libvcruntime:strchr.obj
 0001:000199ab       ___vcrt_initialize         1001a9ab f   libvcruntime:initialization.obj
 0001:000199d4       ___vcrt_thread_attach      1001a9d4 f   libvcruntime:initialization.obj
 0001:000199df       ___vcrt_thread_detach      1001a9df f   libvcruntime:initialization.obj
 0001:000199ea       ___vcrt_uninitialize       1001a9ea f   libvcruntime:initialization.obj
 0001:00019a09       ___vcrt_uninitialize_critical 1001aa09 f   libvcruntime:initialization.obj
 0001:00019a11       ___std_type_info_compare   1001aa11 f   libvcruntime:std_type_info.obj
 0001:00019a4d       ___std_type_info_destroy_list 1001aa4d f   libvcruntime:std_type_info.obj
 0001:00019a70       ___vcrt_freefls@4          1001aa70 f   libvcruntime:per_thread_data.obj
 0001:00019a8c       ___vcrt_freeptd            1001aa8c f   libvcruntime:per_thread_data.obj
 0001:00019ac2       ___vcrt_getptd             1001aac2 f   libvcruntime:per_thread_data.obj
 0001:00019ad0       ___vcrt_getptd_noexit      1001aad0 f   libvcruntime:per_thread_data.obj
 0001:00019b62       ___vcrt_initialize_ptd     1001ab62 f   libvcruntime:per_thread_data.obj
 0001:00019b95       ___vcrt_uninitialize_ptd   1001ab95 f   libvcruntime:per_thread_data.obj
 0001:0001a2a7       ??$TypeMatchHelper@$$CBU_s_HandlerType@@@@YAHPBU_s_HandlerType@@PBU_s_CatchableType@@PBU_s_ThrowInfo@@@Z 1001b2a7 f i libvcruntime:frame.obj
 0001:0001a335       ??$__InternalCxxFrameHandler@V__FrameHandler3@@@@YA?AW4_EXCEPTION_DISPOSITION@@PAUEHExceptionRecord@@PAUEHRegistrationNode@@PAU_CONTEXT@@PAXPBU_s_FuncInfo@@H1E@Z 1001b335 f i libvcruntime:frame.obj
 0001:0001a437       ??0bad_exception@std@@QAE@ABV01@@Z 1001b437 f i libvcruntime:frame.obj
 0001:0001a452       ??0bad_exception@std@@QAE@XZ 1001b452 f i libvcruntime:frame.obj
 0001:0001a46a       ??8type_info@@QBE_NABV0@@Z 1001b46a f i libvcruntime:frame.obj
 0001:0001a6d1       ?FrameUnwindToEmptyState@__FrameHandler3@@SAXPAUEHRegistrationNode@@PAXPBU_s_FuncInfo@@@Z 1001b6d1 f   libvcruntime:frame.obj
 0001:0001a6e9       ?FrameUnwindToState@__FrameHandler3@@SAXPAUEHRegistrationNode@@PAXPBU_s_FuncInfo@@H@Z 1001b6e9 f   libvcruntime:frame.obj
 0001:0001a86b       ?_CallMemberFunction1@@YGXQAX00@Z 1001b86b f i libvcruntime:frame.obj
 0001:0001a87b       ?_CallMemberFunction2@@YGXQAX00H@Z 1001b87b f i libvcruntime:frame.obj
 0001:0001a88e       ?getESTypes@__FrameHandler3@@SAPBU_s_ESTypeList@@PBU_s_FuncInfo@@@Z 1001b88e f i libvcruntime:frame.obj
 0001:0001a8a0       __CallSettingFrame@12      1001b8a0 f   libvcruntime:lowhelpr.obj
 0001:0001a8c7       __NLG_Return               1001b8c7     libvcruntime:lowhelpr.obj
 0001:0001a8ec       ___except_validate_context_record 1001b8ec f   libvcruntime:jbcxrval.obj
 0001:0001a91c       ___except_validate_jump_buffer 1001b91c f   libvcruntime:jbcxrval.obj
 0001:0001a949       ___vcrt_initialize_pure_virtual_call_handler 1001b949 f   libvcruntime:purevirt_data.obj
 0001:0001a960       __local_unwind4            1001b960 f   libvcruntime:exsup4.obj
 0001:0001aa38       __seh_longjmp_unwind4@4    1001ba38 f   libvcruntime:exsup4.obj
 0001:0001aa60       @_EH4_CallFilterFunc@8     1001ba60 f   libvcruntime:exsup4.obj
 0001:0001aa78       @_EH4_TransferToHandler@8  1001ba78 f   libvcruntime:exsup4.obj
 0001:0001aa94       @_EH4_GlobalUnwind2@8      1001ba94 f   libvcruntime:exsup4.obj
 0001:0001aab0       @_EH4_LocalUnwind@16       1001bab0 f   libvcruntime:exsup4.obj
 0001:0001aac7       ___vcrt_initialize_locks   1001bac7 f   libvcruntime:locks.obj
 0001:0001ab03       ___vcrt_uninitialize_locks 1001bb03 f   libvcruntime:locks.obj
 0001:0001ac65       ___vcrt_FlsAlloc           1001bc65 f   libvcruntime:winapi_downlevel.obj
 0001:0001aca0       ___vcrt_FlsFree            1001bca0 f   libvcruntime:winapi_downlevel.obj
 0001:0001acdb       ___vcrt_FlsGetValue        1001bcdb f   libvcruntime:winapi_downlevel.obj
 0001:0001ad16       ___vcrt_FlsSetValue        1001bd16 f   libvcruntime:winapi_downlevel.obj
 0001:0001ad54       ___vcrt_InitializeCriticalSectionEx 1001bd54 f   libvcruntime:winapi_downlevel.obj
 0001:0001ad9b       ___vcrt_initialize_winapi_thunks 1001bd9b f   libvcruntime:winapi_downlevel.obj
 0001:0001adc4       ___vcrt_uninitialize_winapi_thunks 1001bdc4 f   libvcruntime:winapi_downlevel.obj
 0001:0001adf6       _unexpected                1001bdf6 f   libvcruntime:unexpected.obj
 0001:0001ae13       ?GetCurrentState@__FrameHandler3@@SAHPAUEHRegistrationNode@@PAXPBU_s_FuncInfo@@@Z 1001be13 f   libvcruntime:ehstate.obj
 0001:0001ae30       ?SetState@__FrameHandler3@@SAXPAUEHRegistrationNode@@PBU_s_FuncInfo@@H@Z 1001be30 f   libvcruntime:ehstate.obj
 0001:0001ae40       __global_unwind2           1001be40 f   libvcruntime:exsup.obj
 0001:0001aea6       __local_unwind2            1001bea6 f   libvcruntime:exsup.obj
 0001:0001af2a       __abnormal_termination     1001bf2a f   libvcruntime:exsup.obj
 0001:0001af50       __NLG_Notify1              1001bf50 f   libvcruntime:exsup.obj
 0001:0001af5c       __NLG_Notify               1001bf5c f   libvcruntime:exsup.obj
 0001:0001af73       __NLG_Dispatch             1001bf73     libvcruntime:exsup.obj
 0001:0001af73       __NLG_Dispatch2            1001bf73     libvcruntime:exsup.obj
 0001:0001af7b       __NLG_Call                 1001bf7b f   libvcruntime:exsup.obj
 0001:0001af7d       __NLG_Return2              1001bf7d     libvcruntime:exsup.obj
 0001:0001b27f       ??$count@D@formatting_buffer@__crt_stdio_output@@QBEIXZ 1001c27f f i libucrt:output.obj
 0001:0001b297       ??$ensure_buffer_is_big_enough@D@formatting_buffer@__crt_stdio_output@@QAE_NI@Z 1001c297 f i libucrt:output.obj
 0001:0001b31d       ??$is_wide_character_specifier@D@__crt_stdio_output@@YA_N_KDW4length_modifier@0@@Z 1001c31d f i libucrt:output.obj
 0001:0001b35d       ??$is_wide_character_specifier@_W@__crt_stdio_output@@YA_N_K_WW4length_modifier@0@@Z 1001c35d f i libucrt:output.obj
 0001:0001b3ac       ??$scratch_data@D@formatting_buffer@__crt_stdio_output@@QAEPADXZ 1001c3ac f i libucrt:output.obj
 0001:0001b3ca       ??$type_case_integer_parse_into_buffer@I@?$output_processor@DV?$string_output_adapter@D@__crt_stdio_output@@V?$standard_base@DV?$string_output_adapter@D@__crt_stdio_output@@@2@@__crt_stdio_output@@AAEXII_N@Z 1001c3ca f i libucrt:output.obj
 0001:0001b3ca       ??$type_case_integer_parse_into_buffer@I@?$output_processor@_WV?$string_output_adapter@_W@__crt_stdio_output@@V?$standard_base@_WV?$string_output_adapter@_W@__crt_stdio_output@@@2@@__crt_stdio_output@@AAEXII_N@Z 1001c3ca f i libucrt:output.obj
 0001:0001b43f       ??$type_case_integer_parse_into_buffer@_K@?$output_processor@_WV?$string_output_adapter@_W@__crt_stdio_output@@V?$standard_base@_WV?$string_output_adapter@_W@__crt_stdio_output@@@2@@__crt_stdio_output@@AAEX_KI_N@Z 1001c43f f i libucrt:output.obj
 0001:0001b43f       ??$type_case_integer_parse_into_buffer@_K@?$output_processor@DV?$string_output_adapter@D@__crt_stdio_output@@V?$standard_base@DV?$string_output_adapter@D@__crt_stdio_output@@@2@@__crt_stdio_output@@AAEX_KI_N@Z 1001c43f f i libucrt:output.obj
 0001:0001b4c7       ??$write_multiple_characters@V?$string_output_adapter@D@__crt_stdio_output@@D@__crt_stdio_output@@YAXABV?$string_output_adapter@D@0@DHQAH@Z 1001c4c7 f i libucrt:output.obj
 0001:0001b4f3       ??$write_multiple_characters@V?$string_output_adapter@_W@__crt_stdio_output@@D@__crt_stdio_output@@YAXABV?$string_output_adapter@_W@0@DHQAH@Z 1001c4f3 f i libucrt:output.obj
 0001:0001b524       ??0?$common_data@D@__crt_stdio_output@@IAE@XZ 1001c524 f i libucrt:output.obj
 0001:0001b56b       ??0?$common_data@_W@__crt_stdio_output@@IAE@XZ 1001c56b f i libucrt:output.obj
 0001:0001b5b7       ??0?$output_adapter_data@DV?$string_output_adapter@D@__crt_stdio_output@@@__crt_stdio_output@@IAE@ABV?$string_output_adapter@D@1@_KQBDQAU__crt_locale_pointers@@QAD@Z 1001c5b7 f i libucrt:output.obj
 0001:0001b5f3       ??0?$output_adapter_data@_WV?$string_output_adapter@_W@__crt_stdio_output@@@__crt_stdio_output@@IAE@ABV?$string_output_adapter@_W@1@_KQB_WQAU__crt_locale_pointers@@QAD@Z 1001c5f3 f i libucrt:output.obj
 0001:0001b62f       ??0?$output_processor@DV?$string_output_adapter@D@__crt_stdio_output@@V?$standard_base@DV?$string_output_adapter@D@__crt_stdio_output@@@2@@__crt_stdio_output@@QAE@ABV?$string_output_adapter@D@1@_KQBDQAU__crt_locale_pointers@@QAD@Z 1001c62f f i libucrt:output.obj
 0001:0001b664       ??0?$output_processor@_WV?$string_output_adapter@_W@__crt_stdio_output@@V?$standard_base@_WV?$string_output_adapter@_W@__crt_stdio_output@@@2@@__crt_stdio_output@@QAE@ABV?$string_output_adapter@_W@1@_KQB_WQAU__crt_locale_pointers@@QAD@Z 1001c664 f i libucrt:output.obj
 0001:0001b699       ??0_LocaleUpdate@@QAE@QAU__crt_locale_pointers@@@Z 1001c699 f i libucrt:output.obj
 0001:0001b71c       ??1formatting_buffer@__crt_stdio_output@@QAE@XZ 1001c71c f i libucrt:output.obj
 0001:0001b736       ??4?$__crt_unique_heap_ptr@DU__crt_internal_free_policy@@@@QAEAAV0@$$QAV0@@Z 1001c736 f i libucrt:output.obj
 0001:0001b75a       ?crop_zeroes@__crt_stdio_output@@YAXPADQAU__crt_locale_pointers@@@Z 1001c75a f i libucrt:output.obj
 0001:0001b7b1       ?find_next_state@?$output_processor@DV?$string_output_adapter@D@__crt_stdio_output@@V?$standard_base@DV?$string_output_adapter@D@__crt_stdio_output@@@2@@__crt_stdio_output@@ABE?AW4state@2@DW432@@Z 1001c7b1 f i libucrt:output.obj
 0001:0001b7e3       ?find_next_state@?$output_processor@_WV?$string_output_adapter@_W@__crt_stdio_output@@V?$standard_base@_WV?$string_output_adapter@_W@__crt_stdio_output@@@2@@__crt_stdio_output@@ABE?AW4state@2@_WW432@@Z 1001c7e3 f i libucrt:output.obj
 0001:0001b817       ?force_decimal_point@__crt_stdio_output@@YAXPADQAU__crt_locale_pointers@@@Z 1001c817 f i libucrt:output.obj
 0001:0001b873       ?parse_int_from_format_string@?$output_processor@DV?$string_output_adapter@D@__crt_stdio_output@@V?$standard_base@DV?$string_output_adapter@D@__crt_stdio_output@@@2@@__crt_stdio_output@@AAE_NQAH@Z 1001c873 f i libucrt:output.obj
 0001:0001b8cf       ?parse_int_from_format_string@?$output_processor@_WV?$string_output_adapter@_W@__crt_stdio_output@@V?$standard_base@_WV?$string_output_adapter@_W@__crt_stdio_output@@@2@@__crt_stdio_output@@AAE_NQAH@Z 1001c8cf f i libucrt:output.obj
 0001:0001b92d       ?process@?$output_processor@DV?$string_output_adapter@D@__crt_stdio_output@@V?$standard_base@DV?$string_output_adapter@D@__crt_stdio_output@@@2@@__crt_stdio_output@@QAEHXZ 1001c92d f i libucrt:output.obj
 0001:0001ba49       ?process@?$output_processor@_WV?$string_output_adapter@_W@__crt_stdio_output@@V?$standard_base@_WV?$string_output_adapter@_W@__crt_stdio_output@@@2@@__crt_stdio_output@@QAEHXZ 1001ca49 f i libucrt:output.obj
 0001:0001bb69       ?state_case_flag@?$output_processor@DV?$string_output_adapter@D@__crt_stdio_output@@V?$standard_base@DV?$string_output_adapter@D@__crt_stdio_output@@@2@@__crt_stdio_output@@AAE_NXZ 1001cb69 f i libucrt:output.obj
 0001:0001bba6       ?state_case_flag@?$output_processor@_WV?$string_output_adapter@_W@__crt_stdio_output@@V?$standard_base@_WV?$string_output_adapter@_W@__crt_stdio_output@@@2@@__crt_stdio_output@@AAE_NXZ 1001cba6 f i libucrt:output.obj
 0001:0001bbe3       ?state_case_normal@?$output_processor@DV?$string_output_adapter@D@__crt_stdio_output@@V?$standard_base@DV?$string_output_adapter@D@__crt_stdio_output@@@2@@__crt_stdio_output@@AAE_NXZ 1001cbe3 f i libucrt:output.obj
 0001:0001bc02       ?state_case_normal@?$output_processor@_WV?$string_output_adapter@_W@__crt_stdio_output@@V?$standard_base@_WV?$string_output_adapter@_W@__crt_stdio_output@@@2@@__crt_stdio_output@@AAE_NXZ 1001cc02 f i libucrt:output.obj
 0001:0001bc21       ?state_case_normal_common@?$output_processor@DV?$string_output_adapter@D@__crt_stdio_output@@V?$standard_base@DV?$string_output_adapter@D@__crt_stdio_output@@@2@@__crt_stdio_output@@AAE_NXZ 1001cc21 f i libucrt:output.obj
 0001:0001bc4b       ?state_case_normal_common@?$output_processor@_WV?$string_output_adapter@_W@__crt_stdio_output@@V?$standard_base@_WV?$string_output_adapter@_W@__crt_stdio_output@@@2@@__crt_stdio_output@@AAE_NXZ 1001cc4b f i libucrt:output.obj
 0001:0001bc66       ?state_case_normal_tchar@?$output_processor@DV?$string_output_adapter@D@__crt_stdio_output@@V?$standard_base@DV?$string_output_adapter@D@__crt_stdio_output@@@2@@__crt_stdio_output@@AAE_ND@Z 1001cc66 f i libucrt:output.obj
 0001:0001bcc7       ?state_case_precision@?$output_processor@DV?$string_output_adapter@D@__crt_stdio_output@@V?$standard_base@DV?$string_output_adapter@D@__crt_stdio_output@@@2@@__crt_stdio_output@@AAE_NXZ 1001ccc7 f i libucrt:output.obj
 0001:0001bcef       ?state_case_precision@?$output_processor@_WV?$string_output_adapter@_W@__crt_stdio_output@@V?$standard_base@_WV?$string_output_adapter@_W@__crt_stdio_output@@@2@@__crt_stdio_output@@AAE_NXZ 1001ccef f i libucrt:output.obj
 0001:0001bd18       ?state_case_size@?$output_processor@DV?$string_output_adapter@D@__crt_stdio_output@@V?$standard_base@DV?$string_output_adapter@D@__crt_stdio_output@@@2@@__crt_stdio_output@@AAE_NXZ 1001cd18 f i libucrt:output.obj
 0001:0001be81       ?state_case_size@?$output_processor@_WV?$string_output_adapter@_W@__crt_stdio_output@@V?$standard_base@_WV?$string_output_adapter@_W@__crt_stdio_output@@@2@@__crt_stdio_output@@AAE_NXZ 1001ce81 f i libucrt:output.obj
 0001:0001bffd       ?state_case_type@?$output_processor@DV?$string_output_adapter@D@__crt_stdio_output@@V?$standard_base@DV?$string_output_adapter@D@__crt_stdio_output@@@2@@__crt_stdio_output@@AAE_NXZ 1001cffd f i libucrt:output.obj
 0001:0001c22c       ?state_case_type@?$output_processor@_WV?$string_output_adapter@_W@__crt_stdio_output@@V?$standard_base@_WV?$string_output_adapter@_W@__crt_stdio_output@@@2@@__crt_stdio_output@@AAE_NXZ 1001d22c f i libucrt:output.obj
 0001:0001c489       ?state_case_width@?$output_processor@DV?$string_output_adapter@D@__crt_stdio_output@@V?$standard_base@DV?$string_output_adapter@D@__crt_stdio_output@@@2@@__crt_stdio_output@@AAE_NXZ 1001d489 f i libucrt:output.obj
 0001:0001c4b4       ?state_case_width@?$output_processor@_WV?$string_output_adapter@_W@__crt_stdio_output@@V?$standard_base@_WV?$string_output_adapter@_W@__crt_stdio_output@@@2@@__crt_stdio_output@@AAE_NXZ 1001d4b4 f i libucrt:output.obj
 0001:0001c4e0       ?to_integer_size@__crt_stdio_output@@YAIW4length_modifier@1@@Z 1001d4e0 f i libucrt:output.obj
 0001:0001c53c       ?type_case_Z@?$output_processor@DV?$string_output_adapter@D@__crt_stdio_output@@V?$standard_base@DV?$string_output_adapter@D@__crt_stdio_output@@@2@@__crt_stdio_output@@AAE_NXZ 1001d53c f i libucrt:output.obj
 0001:0001c59f       ?type_case_Z@?$output_processor@_WV?$string_output_adapter@_W@__crt_stdio_output@@V?$standard_base@_WV?$string_output_adapter@_W@__crt_stdio_output@@@2@@__crt_stdio_output@@AAE_NXZ 1001d59f f i libucrt:output.obj
 0001:0001c602       ?type_case_a@?$output_processor@DV?$string_output_adapter@D@__crt_stdio_output@@V?$standard_base@DV?$string_output_adapter@D@__crt_stdio_output@@@2@@__crt_stdio_output@@AAE_NXZ 1001d602 f i libucrt:output.obj
 0001:0001c75c       ?type_case_a@?$output_processor@_WV?$string_output_adapter@_W@__crt_stdio_output@@V?$standard_base@_WV?$string_output_adapter@_W@__crt_stdio_output@@@2@@__crt_stdio_output@@AAE_NXZ 1001d75c f i libucrt:output.obj
 0001:0001c8ce       ?type_case_c_tchar@?$output_processor@DV?$string_output_adapter@D@__crt_stdio_output@@V?$standard_base@DV?$string_output_adapter@D@__crt_stdio_output@@@2@@__crt_stdio_output@@AAE_ND@Z 1001d8ce f i libucrt:output.obj
 0001:0001c95e       ?type_case_c_tchar@?$output_processor@_WV?$string_output_adapter@_W@__crt_stdio_output@@V?$standard_base@_WV?$string_output_adapter@_W@__crt_stdio_output@@@2@@__crt_stdio_output@@AAE_N_W@Z 1001d95e f i libucrt:output.obj
 0001:0001c9f6       ?type_case_integer@?$output_processor@_WV?$string_output_adapter@_W@__crt_stdio_output@@V?$standard_base@_WV?$string_output_adapter@_W@__crt_stdio_output@@@2@@__crt_stdio_output@@AAE_NI_N@Z 1001d9f6 f i libucrt:output.obj
 0001:0001c9f6       ?type_case_integer@?$output_processor@DV?$string_output_adapter@D@__crt_stdio_output@@V?$standard_base@DV?$string_output_adapter@D@__crt_stdio_output@@@2@@__crt_stdio_output@@AAE_NI_N@Z 1001d9f6 f i libucrt:output.obj
 0001:0001cb40       ?type_case_n@?$output_processor@_WV?$string_output_adapter@_W@__crt_stdio_output@@V?$standard_base@_WV?$string_output_adapter@_W@__crt_stdio_output@@@2@@__crt_stdio_output@@AAE_NXZ 1001db40 f i libucrt:output.obj
 0001:0001cb40       ?type_case_n@?$output_processor@DV?$string_output_adapter@D@__crt_stdio_output@@V?$standard_base@DV?$string_output_adapter@D@__crt_stdio_output@@@2@@__crt_stdio_output@@AAE_NXZ 1001db40 f i libucrt:output.obj
 0001:0001cbb4       ?type_case_o@?$output_processor@DV?$string_output_adapter@D@__crt_stdio_output@@V?$standard_base@DV?$string_output_adapter@D@__crt_stdio_output@@@2@@__crt_stdio_output@@AAE_NXZ 1001dbb4 f i libucrt:output.obj
 0001:0001cbb4       ?type_case_o@?$output_processor@_WV?$string_output_adapter@_W@__crt_stdio_output@@V?$standard_base@_WV?$string_output_adapter@_W@__crt_stdio_output@@@2@@__crt_stdio_output@@AAE_NXZ 1001dbb4 f i libucrt:output.obj
 0001:0001cbd3       ?type_case_p@?$output_processor@DV?$string_output_adapter@D@__crt_stdio_output@@V?$standard_base@DV?$string_output_adapter@D@__crt_stdio_output@@@2@@__crt_stdio_output@@AAE_NXZ 1001dbd3 f i libucrt:output.obj
 0001:0001cbd3       ?type_case_p@?$output_processor@_WV?$string_output_adapter@_W@__crt_stdio_output@@V?$standard_base@_WV?$string_output_adapter@_W@__crt_stdio_output@@@2@@__crt_stdio_output@@AAE_NXZ 1001dbd3 f i libucrt:output.obj
 0001:0001cbeb       ?type_case_s@?$output_processor@DV?$string_output_adapter@D@__crt_stdio_output@@V?$standard_base@DV?$string_output_adapter@D@__crt_stdio_output@@@2@@__crt_stdio_output@@AAE_NXZ 1001dbeb f i libucrt:output.obj
 0001:0001cc5e       ?type_case_s@?$output_processor@_WV?$string_output_adapter@_W@__crt_stdio_output@@V?$standard_base@_WV?$string_output_adapter@_W@__crt_stdio_output@@@2@@__crt_stdio_output@@AAE_NXZ 1001dc5e f i libucrt:output.obj
 0001:0001ccd2       ?type_case_s_compute_narrow_string_length@?$output_processor@_WV?$string_output_adapter@_W@__crt_stdio_output@@V?$standard_base@_WV?$string_output_adapter@_W@__crt_stdio_output@@@2@@__crt_stdio_output@@ABEHH_W@Z 1001dcd2 f i libucrt:output.obj
 0001:0001cd12       ?validate@?$c_string_character_source@_W@__crt_strtox@@QBE_NXZ 1001dd12 f i libucrt:strtox.obj
 0001:0001cd12       ?validate@?$string_output_adapter@_W@__crt_stdio_output@@QBE_NXZ 1001dd12 f i libucrt:output.obj
 0001:0001cd12       ?validate@?$string_output_adapter@D@__crt_stdio_output@@QBE_NXZ 1001dd12 f i libucrt:output.obj
 0001:0001cd12       ?validate@?$c_string_character_source@D@__crt_strtox@@QBE_NXZ 1001dd12 f i libucrt:strtox.obj
 0001:0001cd2d       ?write_character@?$string_output_adapter@D@__crt_stdio_output@@QBE_NDQAH@Z 1001dd2d f i libucrt:output.obj
 0001:0001cd6f       ?write_character@?$string_output_adapter@_W@__crt_stdio_output@@QBE_N_WQAH@Z 1001dd6f f i libucrt:output.obj
 0001:0001cdb4       ?write_stored_string_tchar@?$output_processor@DV?$string_output_adapter@D@__crt_stdio_output@@V?$standard_base@DV?$string_output_adapter@D@__crt_stdio_output@@@2@@__crt_stdio_output@@AAE_ND@Z 1001ddb4 f i libucrt:output.obj
 0001:0001ce5b       ?write_stored_string_tchar@?$output_processor@_WV?$string_output_adapter@_W@__crt_stdio_output@@V?$standard_base@_WV?$string_output_adapter@_W@__crt_stdio_output@@@2@@__crt_stdio_output@@AAE_N_W@Z 1001de5b f i libucrt:output.obj
 0001:0001cee6       ?write_string@?$string_output_adapter@D@__crt_stdio_output@@QBEXQBDHQAH1@Z 1001dee6 f i libucrt:output.obj
 0001:0001cf79       ?write_string@?$string_output_adapter@_W@__crt_stdio_output@@QBEXQB_WHQAH1@Z 1001df79 f i libucrt:output.obj
 0001:0001d013       ___stdio_common_vsprintf   1001e013 f   libucrt:output.obj
 0001:0001d037       ___stdio_common_vswprintf  1001e037 f   libucrt:output.obj
 0001:0001d05b       ??$is_overflow_condition@K@__crt_strtox@@YA_NIK@Z 1001e05b f i libucrt:strtox.obj
 0001:0001d08e       ??$make_c_string_character_source@DPAPAD@__crt_strtox@@YA?AV?$c_string_character_source@D@0@QBDQAPAD@Z 1001e08e f i libucrt:strtox.obj
 0001:0001d08e       ??$make_c_string_character_source@_WPAPA_W@__crt_strtox@@YA?AV?$c_string_character_source@_W@0@QB_WQAPA_W@Z 1001e08e f i libucrt:strtox.obj
 0001:0001d0a9       ??$parse_integer@KV?$c_string_character_source@D@__crt_strtox@@@__crt_strtox@@YAKQAU__crt_locale_pointers@@V?$c_string_character_source@D@0@H_N@Z 1001e0a9 f i libucrt:strtox.obj
 0001:0001d2d1       ??$parse_integer@KV?$c_string_character_source@_W@__crt_strtox@@@__crt_strtox@@YAKQAU__crt_locale_pointers@@V?$c_string_character_source@_W@0@H_N@Z 1001e2d1 f i libucrt:strtox.obj
 0001:0001d9b6       ?unget@?$c_string_character_source@D@__crt_strtox@@QAEXD@Z 1001e9b6 f i libucrt:strtox.obj
 0001:0001d9de       ?unget@?$c_string_character_source@_W@__crt_strtox@@QAEX_W@Z 1001e9de f i libucrt:strtox.obj
 0001:0001da0a       __chvalidchk_l             1001ea0a f i libucrt:strtox.obj
 0001:0001da34       __ischartype_l             1001ea34 f i libucrt:strtox.obj
 0001:0001da67       _strtol                    1001ea67 f   libucrt:strtox.obj
 0001:0001da93       _wcstol                    1001ea93 f   libucrt:strtox.obj
 0001:0001dabf       _wcstoul                   1001eabf f   libucrt:strtox.obj
 0001:0001daeb       _wcsncmp                   1001eaeb f   libucrt:wcsncmp.obj
 0001:0001db25       ?initialize@?$dual_state_global@P6AHI@Z@__crt_state_management@@QAEXQ6AHI@Z@Z 1001eb25 f i libucrt:new_handler.obj
 0001:0001db25       ?initialize@?$dual_state_global@PAU__crt_locale_data@@@__crt_state_management@@QAEXQAU__crt_locale_data@@@Z 1001eb25 f i libucrt:initialization.obj
 0001:0001db25       ?initialize@?$dual_state_global@PAPAD@__crt_state_management@@QAEXQAPAD@Z 1001eb25 f i libucrt:environment_initialization.obj
 0001:0001db25       ?initialize@?$dual_state_global@P6AHPAU_exception@@@Z@__crt_state_management@@QAEXQ6AHPAU_exception@@@Z@Z 1001eb25 f i libucrt:matherr.obj
 0001:0001db25       ?initialize@?$dual_state_global@P6AXH@Z@__crt_state_management@@QAEXQ6AXH@Z@Z 1001eb25 f i libucrt:signal.obj
 0001:0001db25       ?initialize@?$dual_state_global@P6AXPB_W00II@Z@__crt_state_management@@QAEXQ6AXPB_W00II@Z@Z 1001eb25 f i libucrt:invalid_parameter.obj
 0001:0001db56       ___acrt_call_reportfault   1001eb56 f   libucrt:invalid_parameter.obj
 0001:0001dc91       ___acrt_initialize_invalid_parameter_handler 1001ec91 f   libucrt:invalid_parameter.obj
 0001:0001dca5       __invalid_parameter        1001eca5 f   libucrt:invalid_parameter.obj
 0001:0001dd20       __invalid_parameter_noinfo 1001ed20 f   libucrt:invalid_parameter.obj
 0001:0001dd30       __invoke_watson            1001ed30 f   libucrt:invalid_parameter.obj
 0001:0001dd63       ___acrt_errno_from_os_error 1001ed63 f   libucrt:errno.obj
 0001:0001dda6       ___acrt_errno_map_os_error 1001eda6 f   libucrt:errno.obj
 0001:0001ddc9       ___doserrno                1001edc9 f   libucrt:errno.obj
 0001:0001dddc       __errno                    1001eddc f   libucrt:errno.obj
 0001:0001ddef       __initterm                 1001edef f   libucrt:initterm.obj
 0001:0001de4b       __initterm_e               1001ee4b f   libucrt:initterm.obj
 0001:0001de90       __seh_filter_dll           1001ee90 f   libucrt:exception_filter.obj
 0001:0001deb0       __seh_filter_exe           1001eeb0 f   libucrt:exception_filter.obj
 0001:0001e23e       ___acrt_initialize_thread_local_exit_callback 1001f23e f   libucrt:exit.obj
 0001:0001e24d       __cexit                    1001f24d f   libucrt:exit.obj
 0001:0001e25c       __exit                     1001f25c f   libucrt:exit.obj
 0001:0001e272       __is_c_termination_complete 1001f272 f   libucrt:exit.obj
 0001:0001e511       ___acrt_allocate_buffer_for_argv 1001f511 f   libucrt:argv_parsing.obj
 0001:0001e566       __configure_narrow_argv    1001f566 f   libucrt:argv_parsing.obj
 0001:0001e6ca       ??$uninitialize@A6AXAAPAPA_W@Z@?$dual_state_global@PAPA_W@__crt_state_management@@QAEXA6AXAAPAPA_W@Z@Z 1001f6ca f i libucrt:environment_initialization.obj
 0001:0001e6ca       ??$uninitialize@A6AXAAPAPAD@Z@?$dual_state_global@PAPAD@__crt_state_management@@QAEXA6AXAAPAPAD@Z@Z 1001f6ca f i libucrt:environment_initialization.obj
 0001:0001e740       ___dcrt_uninitialize_environments_nolock 1001f740 f   libucrt:environment_initialization.obj
 0001:0001e777       __initialize_narrow_environment 1001f777 f   libucrt:environment_initialization.obj
 0001:0001e77c       ??$?RV<lambda_800076c951b434888f4765a74a194fcc>@@AAV<lambda_4e60a939b0d047cfe11ddc22648dfba9>@@V<lambda_6dbb1268764f43b569ce7b67e331d33a>@@@?$__crt_seh_guarded_call@H@@QAEH$$QAV<lambda_800076c951b434888f4765a74a194fcc>@@AAV<lambda_4e60a939b0d047cfe11ddc22648dfba9>@@$$QAV<lambda_6dbb1268764f43b569ce7b67e331d33a>@@@Z 1001f77c f i libucrt:onexit.obj
 0001:0001e7cd       ??$?RV<lambda_995298e7d72eb4c2aab26c0585b3abe5>@@AAV<lambda_275893d493268fdec8709772e3fcec0e>@@V<lambda_293819299cbf9a7022e18b56a874bb5c>@@@?$__crt_seh_guarded_call@H@@QAEH$$QAV<lambda_995298e7d72eb4c2aab26c0585b3abe5>@@AAV<lambda_275893d493268fdec8709772e3fcec0e>@@$$QAV<lambda_293819299cbf9a7022e18b56a874bb5c>@@@Z 1001f7cd f i libucrt:onexit.obj
 0001:0001e81e       ??$__acrt_lock_and_call@V<lambda_275893d493268fdec8709772e3fcec0e>@@@@YAHW4__acrt_lock_id@@$$QAV<lambda_275893d493268fdec8709772e3fcec0e>@@@Z 1001f81e f i libucrt:onexit.obj
 0001:0001e846       ??$__acrt_lock_and_call@V<lambda_4e60a939b0d047cfe11ddc22648dfba9>@@@@YAHW4__acrt_lock_id@@$$QAV<lambda_4e60a939b0d047cfe11ddc22648dfba9>@@@Z 1001f846 f i libucrt:onexit.obj
 0001:0001e86e       ??$__crt_fast_encode_pointer@P6AHXZ@@YAP6AHXZQ6AHXZ@Z 1001f86e f i libucrt:onexit.obj
 0001:0001eaee       __crt_atexit               1001faee f   libucrt:onexit.obj
 0001:0001eb04       __execute_onexit_table     1001fb04 f   libucrt:onexit.obj
 0001:0001eb21       __initialize_onexit_table  1001fb21 f   libucrt:onexit.obj
 0001:0001eb5e       __register_onexit_function 1001fb5e f   libucrt:onexit.obj
 0001:0001ebae       ___acrt_uninitialize_command_line 1001fbae f   libucrt:argv_data.obj
 0001:0001ec76       ___acrt_initialize         1001fc76 f   libucrt:initialization.obj
 0001:0001ec88       ___acrt_thread_attach      1001fc88 f   libucrt:initialization.obj
 0001:0001ec93       ___acrt_thread_detach      1001fc93 f   libucrt:initialization.obj
 0001:0001ec9b       ___acrt_uninitialize       1001fc9b f   libucrt:initialization.obj
 0001:0001ecad       ___acrt_uninitialize_critical 1001fcad f   libucrt:initialization.obj
 0001:0001ecbf       _terminate                 1001fcbf f   libucrt:terminate.obj
 0001:0001ecfb       _free                      1001fcfb f   libucrt:free.obj
 0001:0001ed00       _malloc                    1001fd00 f   libucrt:malloc.obj
 0001:0001ed0b       _strcpy_s                  1001fd0b f   libucrt:strcpy_s.obj
 0001:0001ed65       _abort                     1001fd65 f   libucrt:abort.obj
 0001:0001eda8       _calloc                    1001fda8 f   libucrt:calloc.obj
 0001:0001edc0       _strncmp                   1001fdc0 f   libucrt:strncmp.obj
 0001:0001ee38       __isdigit_l                1001fe38 f i libucrt:_ctype.obj
 0001:0001ee70       _isdigit                   1001fe70 f i libucrt:_ctype.obj
 0001:0001f004       __tolower_l                10020004 f   libucrt:tolower_toupper.obj
 0001:0001f01e       _tolower                   1002001e f   libucrt:tolower_toupper.obj
 0001:0001f04e       __free_base                1002004e f   libucrt:free_base.obj
 0001:0001f088       __malloc_base              10020088 f   libucrt:malloc_base.obj
 0001:0001f0d6       __mbtowc_l                 100200d6 f   libucrt:mbtowc.obj
 0001:0001f1d0       _mbtowc                    100201d0 f   libucrt:mbtowc.obj
 0001:0001f1ea       __wctomb_s_l               100201ea f   libucrt:wctomb.obj
 0001:0001f30b       _wctomb_s                  1002030b f   libucrt:wctomb.obj
 0001:0001f328       _strnlen                   10020328 f   libucrt:strnlen.obj
 0001:0001f44f       _wcsnlen                   1002044f f   libucrt:strnlen.obj
 0001:0001f606       ??$?RV<lambda_3518db117f0e7cdb002338c5d3c47b6c>@@AAV<lambda_b2ea41f6bbb362cd97d94c6828d90b61>@@V<lambda_abdedf541bb04549bc734292b4a045d4>@@@?$__crt_seh_guarded_call@X@@QAEX$$QAV<lambda_3518db117f0e7cdb002338c5d3c47b6c>@@AAV<lambda_b2ea41f6bbb362cd97d94c6828d90b61>@@$$QAV<lambda_abdedf541bb04549bc734292b4a045d4>@@@Z 10020606 f i libucrt:per_thread_data.obj
 0001:0001f656       ??$?RV<lambda_51b6e8b1eb166f2a3faf91f424b38130>@@AAV<lambda_6250bd4b2a391816dd638c3bf72b0bcb>@@V<lambda_0b5a4a3e68152e1d9b943535f5f47bed>@@@?$__crt_seh_guarded_call@X@@QAEX$$QAV<lambda_51b6e8b1eb166f2a3faf91f424b38130>@@AAV<lambda_6250bd4b2a391816dd638c3bf72b0bcb>@@$$QAV<lambda_0b5a4a3e68152e1d9b943535f5f47bed>@@@Z 10020656 f i libucrt:per_thread_data.obj
 0001:0001f6b7       ??$?RV<lambda_5b71d36f03204c0beab531769a5b5694>@@AAV<lambda_be2b3da3f62db62e9dad5dc70221a656>@@V<lambda_8f9ce462984622f9bf76b59e2aaaf805>@@@?$__crt_seh_guarded_call@X@@QAEX$$QAV<lambda_5b71d36f03204c0beab531769a5b5694>@@AAV<lambda_be2b3da3f62db62e9dad5dc70221a656>@@$$QAV<lambda_8f9ce462984622f9bf76b59e2aaaf805>@@@Z 100206b7 f i libucrt:per_thread_data.obj
 0001:0001f702       ??$?RV<lambda_9df27f884b057bc3edfc946cb5b7cf47>@@AAV<lambda_e69574bed617af4e071282c136b37893>@@V<lambda_cc0d902bcbbeb830f749456577db4721>@@@?$__crt_seh_guarded_call@X@@QAEX$$QAV<lambda_9df27f884b057bc3edfc946cb5b7cf47>@@AAV<lambda_e69574bed617af4e071282c136b37893>@@$$QAV<lambda_cc0d902bcbbeb830f749456577db4721>@@@Z 10020702 f i libucrt:per_thread_data.obj
 0001:0001f74a       ??$__acrt_lock_and_call@V<lambda_6250bd4b2a391816dd638c3bf72b0bcb>@@@@YAXW4__acrt_lock_id@@$$QAV<lambda_6250bd4b2a391816dd638c3bf72b0bcb>@@@Z 1002074a f i libucrt:per_thread_data.obj
 0001:0001f772       ??$__acrt_lock_and_call@V<lambda_b2ea41f6bbb362cd97d94c6828d90b61>@@@@YAXW4__acrt_lock_id@@$$QAV<lambda_b2ea41f6bbb362cd97d94c6828d90b61>@@@Z 10020772 f i libucrt:per_thread_data.obj
 0001:0001f79a       ??$__acrt_lock_and_call@V<lambda_be2b3da3f62db62e9dad5dc70221a656>@@@@YAXW4__acrt_lock_id@@$$QAV<lambda_be2b3da3f62db62e9dad5dc70221a656>@@@Z 1002079a f i libucrt:per_thread_data.obj
 0001:0001f7c2       ??$__acrt_lock_and_call@V<lambda_e69574bed617af4e071282c136b37893>@@@@YAXW4__acrt_lock_id@@$$QAV<lambda_e69574bed617af4e071282c136b37893>@@@Z 100207c2 f i libucrt:per_thread_data.obj
 0001:0001f978       ___acrt_freeptd            10020978 f   libucrt:per_thread_data.obj
 0001:0001f9a4       ___acrt_getptd             100209a4 f   libucrt:per_thread_data.obj
 0001:0001fa28       ___acrt_getptd_noexit      10020a28 f   libucrt:per_thread_data.obj
 0001:0001faad       ___acrt_initialize_ptd     10020aad f   libucrt:per_thread_data.obj
 0001:0001fad9       ___acrt_uninitialize_ptd   10020ad9 f   libucrt:per_thread_data.obj
 0001:0001faf3       ___acrt_update_locale_info 10020af3 f   libucrt:locale_update.obj
 0001:0001fb20       ___acrt_update_multibyte_info 10020b20 f   libucrt:locale_update.obj
 0001:0001fb4d       ?__acrt_fp_classify@@YA?AW4__acrt_fp_class@@ABN@Z 10020b4d f i libucrt:cvt.obj
 0001:0001fbb9       ?__acrt_fp_is_negative@@YA_NABN@Z 10020bb9 f i libucrt:cvt.obj
 0001:00020418       ___acrt_fp_format          10021418 f   libucrt:cvt.obj
 0001:00020562       __fileno                   10021562 f   libucrt:fileno.obj
 0001:00020588       ___acrt_initialize_stdio   10021588 f   libucrt:_file.obj
 0001:00020650       ___acrt_uninitialize_stdio 10021650 f   libucrt:_file.obj
 0001:0002069c       __lock_file                1002169c f   libucrt:_file.obj
 0001:000206b0       __unlock_file              100216b0 f   libucrt:_file.obj
 0001:000206c4       __get_printf_count_output  100216c4 f   libucrt:printf_count_output.obj
 0001:000206d9       ___acrt_set_locale_changed 100216d9 f   libucrt:wsetlocale.obj
 0001:000206e4       ___acrt_uninitialize_locale 100216e4 f   libucrt:wsetlocale.obj
 0001:000208a2       ___acrt_initialize_lowio   100218a2 f   libucrt:ioinit.obj
 0001:000208f8       ___acrt_uninitialize_lowio 100218f8 f   libucrt:ioinit.obj
 0001:00020924       ___pctype_func             10021924 f   libucrt:ctype.obj
 0001:0002094a       _iswctype                  1002194a f   libucrt:iswctype.obj
 0001:000209a9       __isctype_l                100219a9 f   libucrt:isctype.obj
 0001:00020a7b       ___acrt_initialize_locks   10021a7b f   libucrt:locks.obj
 0001:00020abc       ___acrt_lock               10021abc f   libucrt:locks.obj
 0001:00020ad3       ___acrt_uninitialize_locks 10021ad3 f   libucrt:locks.obj
 0001:00020b04       ___acrt_unlock             10021b04 f   libucrt:locks.obj
 0001:00020c32       ___acrt_FlsAlloc@4         10021c32 f   libucrt:winapi_thunks.obj
 0001:00020c88       ___acrt_FlsFree@4          10021c88 f   libucrt:winapi_thunks.obj
 0001:00020cde       ___acrt_FlsGetValue@4      10021cde f   libucrt:winapi_thunks.obj
 0001:00020d34       ___acrt_FlsSetValue@8      10021d34 f   libucrt:winapi_thunks.obj
 0001:00020d8d       ___acrt_InitializeCriticalSectionEx@12 10021d8d f   libucrt:winapi_thunks.obj
 0001:00020def       ___acrt_LCMapStringEx@36   10021def f   libucrt:winapi_thunks.obj
 0001:00020e77       ___acrt_LocaleNameToLCID@8 10021e77 f   libucrt:winapi_thunks.obj
 0001:00020ed3       ___acrt_initialize_winapi_thunks 10021ed3 f   libucrt:winapi_thunks.obj
 0001:00020ef9       ___acrt_is_packaged_app    10021ef9 f   libucrt:winapi_thunks.obj
 0001:00020f80       ___acrt_uninitialize_winapi_thunks 10021f80 f   libucrt:winapi_thunks.obj
 0001:00020fb6       __calloc_base              10021fb6 f   libucrt:calloc_base.obj
 0001:000213d5       ??1?$argument_list@D@?A0xb0e4b824@@QAE@XZ 100223d5 f i libucrt:argv_wildcards.obj
 0001:000213fa       ?append@?$argument_list@D@?A0xb0e4b824@@QAEHQAD@Z 100223fa f i libucrt:argv_wildcards.obj
 0001:0002142f       ?expand_if_necessary@?$argument_list@D@?A0xb0e4b824@@AAEHXZ 1002242f f i libucrt:argv_wildcards.obj
 0001:000214b6       ___acrt_expand_narrow_argv_wildcards 100224b6 f   libucrt:argv_wildcards.obj
 0001:000214c1       ??$?RV<lambda_978dc153c237d78434369da87b74ff60>@@AAV<lambda_ad1ced32f4ac17aa236e5ef05d6b3b7c>@@V<lambda_4a8533e2866a575feecb8298ce776b0d>@@@?$__crt_seh_guarded_call@X@@QAEX$$QAV<lambda_978dc153c237d78434369da87b74ff60>@@AAV<lambda_ad1ced32f4ac17aa236e5ef05d6b3b7c>@@$$QAV<lambda_4a8533e2866a575feecb8298ce776b0d>@@@Z 100224c1 f i libucrt:mbctype.obj
 0001:00021504       ??$__acrt_lock_and_call@V<lambda_ad1ced32f4ac17aa236e5ef05d6b3b7c>@@@@YAXW4__acrt_lock_id@@$$QAV<lambda_ad1ced32f4ac17aa236e5ef05d6b3b7c>@@@Z 10022504 f i libucrt:mbctype.obj
 0001:0002199b       ___acrt_initialize_multibyte 1002299b f   libucrt:mbctype.obj
 0001:000219b9       ___acrt_update_thread_multibyte_data 100229b9 f   libucrt:mbctype.obj
 0001:00021a5b       __setmbcp_nolock           10022a5b f   libucrt:mbctype.obj
 0001:00021d26       __ismbblead                10022d26 f   libucrt:ismbbyte.obj
 0001:00021d3e       ___acrt_initialize_command_line 10022d3e f   libucrt:argv_data.obj
 0001:00021d8e       ___dcrt_get_narrow_environment_from_os 10022d8e f   libucrt:get_environment_from_os.obj
 0001:00021e11       __recalloc                 10022e11 f   libucrt:recalloc.obj
 0001:00021e1c       __recalloc_base            10022e1c f   libucrt:recalloc.obj
 0001:00021e89       ___acrt_initialize_heap    10022e89 f   libucrt:heap_handle.obj
 0001:00021e9a       ___acrt_uninitialize_heap  10022e9a f   libucrt:heap_handle.obj
 0001:00021ea4       ___acrt_execute_initializers 10022ea4 f   libucrt:shared_initialization.obj
 0001:00021f27       ___acrt_execute_uninitializers 10022f27 f   libucrt:shared_initialization.obj
 0001:00021f74       ___acrt_initialize_new_handler 10022f74 f   libucrt:new_handler.obj
 0001:00021f88       __callnewh                 10022f88 f   libucrt:new_handler.obj
 0001:00021fcc       __query_new_handler        10022fcc f   libucrt:new_handler.obj
 0001:0002201e       ??$?RV<lambda_a048d3beccc847880fc8490e18b82769>@@AAV<lambda_ec61778202f4f5fc7e7711acc23c3bca>@@V<lambda_f7496a158712204296dd6628a163878e>@@@?$__crt_seh_guarded_call@P6AXH@Z@@QAEP6AXH@Z$$QAV<lambda_a048d3beccc847880fc8490e18b82769>@@AAV<lambda_ec61778202f4f5fc7e7711acc23c3bca>@@$$QAV<lambda_f7496a158712204296dd6628a163878e>@@@Z 1002301e f i libucrt:signal.obj
 0001:00022078       ??$__acrt_lock_and_call@V<lambda_ec61778202f4f5fc7e7711acc23c3bca>@@@@YAP6AXH@ZW4__acrt_lock_id@@$$QAV<lambda_ec61778202f4f5fc7e7711acc23c3bca>@@@Z 10023078 f i libucrt:signal.obj
 0001:0002210a       ___acrt_get_sigabrt_handler 1002310a f   libucrt:signal.obj
 0001:00022121       ___acrt_initialize_signal_handlers 10023121 f   libucrt:signal.obj
 0001:0002215c       ___fpecode                 1002315c f   libucrt:signal.obj
 0001:00022165       _raise                     10023165 f   libucrt:signal.obj
 0001:0002236d       ___acrt_has_user_matherr   1002336d f   libucrt:matherr.obj
 0001:00022386       ___acrt_initialize_user_matherr 10023386 f   libucrt:matherr.obj
 0001:0002239a       ___acrt_invoke_user_matherr 1002339a f   libucrt:matherr.obj
 0001:000223e3       __isleadbyte_l             100233e3 f i libucrt:_wctype.obj
 0001:00022639       ___acrt_LCMapStringA       10023639 f   libucrt:lcmapstringa.obj
 0001:00022684       __freea_crt                10023684 f i libucrt:lcmapstringa.obj
 0001:000226a4       __query_new_mode           100236a4 f   libucrt:new_mode.obj
 0001:000226aa       ___acrt_add_locale_ref     100236aa f   libucrt:locale_refcounting.obj
 0001:00022727       ___acrt_free_locale        10023727 f   libucrt:locale_refcounting.obj
 0001:00022871       ___acrt_locale_add_lc_time_reference 10023871 f   libucrt:locale_refcounting.obj
 0001:0002289a       ___acrt_locale_free_lc_time_if_unreferenced 1002389a f   libucrt:locale_refcounting.obj
 0001:000228ca       ___acrt_locale_release_lc_time_reference 100238ca f   libucrt:locale_refcounting.obj
 0001:000228f3       ___acrt_release_locale_ref 100238f3 f   libucrt:locale_refcounting.obj
 0001:00022974       ___acrt_update_thread_locale_data 10023974 f   libucrt:locale_refcounting.obj
 0001:000229eb       __updatetlocinfoEx_nolock  100239eb f   libucrt:locale_refcounting.obj
 0001:00022a3b       ___acrt_fp_strflt_to_string 10023a3b f   libucrt:_fptostr.obj
 0001:00022af7       ??0scoped_fp_state_reset@?A0x48fbfdd4@@QAE@XZ 10023af7 f i libucrt:cfout.obj
 0001:00022b30       ?divide@__crt_strtox@@YA_KAAUbig_integer@1@ABU21@@Z 10023b30 f i libucrt:cfout.obj
 0001:00022fde       ___acrt_fltout             10023fde f   libucrt:cfout.obj
 0001:0002437a       __fcloseall                1002537a f   libucrt:closeall.obj
 0001:0002441a       ___acrt_stdio_flush_nolock 1002541a f   libucrt:fflush.obj
 0001:00024480       __fflush_nolock            10025480 f   libucrt:fflush.obj
 0001:000244c7       __flushall                 100254c7 f   libucrt:fflush.obj
 0001:000245a8       ___acrt_stdio_free_buffer_nolock 100255a8 f   libucrt:_freebuf.obj
 0001:000245e6       __isatty                   100255e6 f   libucrt:isatty.obj
 0001:0002463c       ___acrt_locale_free_monetary 1002563c f   libucrt:initmon.obj
 0001:0002473a       ___acrt_locale_free_numeric 1002573a f   libucrt:initnum.obj
 0001:000247df       ___acrt_locale_free_time   100257df f   libucrt:inittime.obj
 0001:000248c3       ___acrt_GetStringTypeA     100258c3 f   libucrt:getstringtypea.obj
 0001:000249e0       ___acrt_lowio_create_handle_array 100259e0 f   libucrt:osfinfo.obj
 0001:00024a5a       ___acrt_lowio_destroy_handle_array 10025a5a f   libucrt:osfinfo.obj
 0001:00024a8f       ___acrt_lowio_ensure_fh_exists 10025a8f f   libucrt:osfinfo.obj
 0001:00024b27       ___acrt_lowio_lock_fh      10025b27 f   libucrt:osfinfo.obj
 0001:00024b4a       ___acrt_lowio_unlock_fh    10025b4a f   libucrt:osfinfo.obj
 0001:00024b6d       __free_osfhnd              10025b6d f   libucrt:osfinfo.obj
 0001:00024bfe       __get_osfhandle            10025bfe f   libucrt:osfinfo.obj
 0001:00024d24       ___acrt_DownlevelLocaleNameToLCID 10025d24 f   libucrt:lcidtoname_downlevel.obj
 0001:00024e30       _qsort                     10025e30 f   libucrt:qsort.obj
 0001:0002527b       _strncpy_s                 1002627b f   libucrt:strncpy_s.obj
 0001:00025290       _strpbrk                   10026290 f   libucrt:strpbrk.obj
 0001:000252d0       __mbsdec                   100262d0 f   libucrt:mbsdec.obj
 0001:000252e7       __mbsdec_l                 100262e7 f   libucrt:mbsdec.obj
 0001:00025383       __msize                    10026383 f   libucrt:msize.obj
 0001:000253b6       __realloc_base             100263b6 f   libucrt:realloc_base.obj
 0001:0002541f       ___strncnt                 1002641f f   libucrt:strncnt.obj
 0001:0002543b       _fegetenv                  1002643b f   libucrt:fegetenv.obj
 0001:00025458       _fesetenv                  10026458 f   libucrt:fesetenv.obj
 0001:000254a1       _feholdexcept              100264a1 f   libucrt:feholdexcept.obj
 0001:000254f0       _log10                     100264f0 f   libucrt:log10.obj
 0001:00025530       __CIlog10                  10026530 f   libucrt:log10.obj
 0001:0002556b       __CIlog10_default          1002656b f   libucrt:log10.obj
 0001:0002557f       __log10_default            1002657f     libucrt:log10.obj
 0001:00025640       _ceil                      10026640 f   libucrt:ceil_pentium4.obj
 0001:00025680       __ceil_pentium4            10026680 f   libucrt:ceil_pentium4.obj
 0001:00025ced       __write                    10026ced f   libucrt:write.obj
 0001:00025dd8       __write_nolock             10026dd8 f   libucrt:write.obj
 0001:00026062       __lseeki64_nolock          10027062 f   libucrt:lseek.obj
 0001:0002607d       __fclose_nolock            1002707d f   libucrt:fclose.obj
 0001:000260f3       _fclose                    100270f3 f   libucrt:fclose.obj
 0001:00026173       ??$?RV<lambda_61cee617f5178ae960314fd4d05640a0>@@AAV<lambda_6978c1fb23f02e42e1d9e99668cc68aa>@@V<lambda_9cd88cf8ad10232537feb2133f08c833>@@@?$__crt_seh_guarded_call@H@@QAEH$$QAV<lambda_61cee617f5178ae960314fd4d05640a0>@@AAV<lambda_6978c1fb23f02e42e1d9e99668cc68aa>@@$$QAV<lambda_9cd88cf8ad10232537feb2133f08c833>@@@Z 10027173 f i libucrt:commit.obj
 0001:0002620b       ??$__acrt_lowio_lock_fh_and_call@V<lambda_6978c1fb23f02e42e1d9e99668cc68aa>@@@@YAHH$$QAV<lambda_6978c1fb23f02e42e1d9e99668cc68aa>@@@Z 1002720b f i libucrt:commit.obj
 0001:00026233       __commit                   10027233 f   libucrt:commit.obj
 0001:000262a2       __query_app_type           100272a2 f   libucrt:report_runtime_error.obj
 0001:0002654b       __getfpcontrolword         1002754b f   libucrt:_fenvutils.obj
 0001:0002658e       __getfpstatusword          1002758e f   libucrt:_fenvutils.obj
 0001:00026636       __setfpcontrolword         10027636 f   libucrt:_fenvutils.obj
 0001:000266b6       __setfpstatusword          100276b6 f   libucrt:_fenvutils.obj
 0001:00026736       __clearfp                  10027736 f   libucrt:ieee87.obj
 0001:00026814       ___acrt_initialize_sse2    10027814 f   libucrt:mathfcns.obj
 0001:00026830       __CIlog10_pentium4         10027830 f   libucrt:log10_pentium4.obj
 0001:00026848       __log10_pentium4           10027848     libucrt:log10_pentium4.obj
 0001:00026ad1       __fFEXP                    10027ad1     libucrt:87tran.obj
 0001:00026b28       __rtinfpopse               10027b28     libucrt:87tran.obj
 0001:00026b2a       __rtinfnpopse              10027b2a     libucrt:87tran.obj
 0001:00026b3a       __fFLN                     10027b3a     libucrt:87tran.obj
 0001:00026bef       __rtinfpop                 10027bef     libucrt:87tran.obj
 0001:00026bf1       __rtinfnpop                10027bf1     libucrt:87tran.obj
 0001:00026c0e       __ffexpm1                  10027c0e     libucrt:87tran.obj
 0001:00026cc0       __trandisp1                10027cc0 f   libucrt:87disp.obj
 0001:00026d27       __trandisp2                10027d27 f   libucrt:87disp.obj
 0001:00026db3       __rttospopde               10027db3     libucrt:87disp.obj
 0001:00026db8       __rttospop                 10027db8     libucrt:87disp.obj
 0001:00026dba       __rtnospop                 10027dba     libucrt:87disp.obj
 0001:00026dbc       __rttosnpop                10027dbc     libucrt:87disp.obj
 0001:00026dbd       __rtnospopde               10027dbd     libucrt:87disp.obj
 0001:00026dc4       __rtzeropop                10027dc4     libucrt:87disp.obj
 0001:00026dc6       __rtzeronpop               10027dc6     libucrt:87disp.obj
 0001:00026dcb       __rtzerospop               10027dcb     libucrt:87disp.obj
 0001:00026dd8       __rtonepop                 10027dd8     libucrt:87disp.obj
 0001:00026dda       __rtonenpop                10027dda     libucrt:87disp.obj
 0001:00026ddf       __tosnan1                  10027ddf     libucrt:87disp.obj
 0001:00026e0a       __nosnan2                  10027e0a     libucrt:87disp.obj
 0001:00026e0c       __tosnan2                  10027e0c     libucrt:87disp.obj
 0001:00026e34       __nan2                     10027e34     libucrt:87disp.obj
 0001:00026e73       __rtindfpop                10027e73     libucrt:87disp.obj
 0001:00026e75       __rtindfnpop               10027e75     libucrt:87disp.obj
 0001:00026e86       __rttosnpopde              10027e86     libucrt:87disp.obj
 0001:00026e90       __rtatan2inf               10027e90     libucrt:87disp.obj
 0001:00026ead       __rtchsifneg               10027ead     libucrt:87disp.obj
 0001:00026ec0       __twoToTOS                 10027ec0 f   libucrt:common.obj
 0001:00026ed5       __load_CW                  10027ed5 f   libucrt:common.obj
 0001:00026eec       __convertTOStoQNaN         10027eec f   libucrt:common.obj
 0001:00026f05       __fload_withFB             10027f05 f   libucrt:common.obj
 0001:00026f48       __checkTOS_withFB          10027f48 f   libucrt:common.obj
 0001:00026f5e       __fast_exit                10027f5e f   libucrt:common.obj
 0001:00026f6b       __math_exit                10027f6b f   libucrt:common.obj
 0001:00026f95       __check_overflow_exit      10027f95 f   libucrt:common.obj
 0001:00026fa9       __check_range_exit         10027fa9 f   libucrt:common.obj
 0001:00027050       __startTwoArgErrorHandling 10028050 f   libucrt:genexcep.obj
 0001:00027067       __startOneArgErrorHandling 10028067 f   libucrt:genexcep.obj
 0001:000270a3       ___libm_error_support      100280a3 f   libucrt:libm_error.obj
 0001:000272bb       __ceil_default             100282bb f   libucrt:ceil.obj
 0001:00027374       __putwch_nolock            10028374 f   libucrt:putwch.obj
 0001:000273b9       ??$?RV<lambda_123407a5e2ac06da108355a851863b7a>@@AAV<lambda_2fe9b910cf3cbf4a0ab98a02ba45b3ec>@@V<lambda_ae55bdf541ad94d75914d381c370e64d>@@@?$__crt_seh_guarded_call@H@@QAEH$$QAV<lambda_123407a5e2ac06da108355a851863b7a>@@AAV<lambda_2fe9b910cf3cbf4a0ab98a02ba45b3ec>@@$$QAV<lambda_ae55bdf541ad94d75914d381c370e64d>@@@Z 100283b9 f i libucrt:close.obj
 0001:0002743b       ??$__acrt_lowio_lock_fh_and_call@V<lambda_2fe9b910cf3cbf4a0ab98a02ba45b3ec>@@@@YAHH$$QAV<lambda_2fe9b910cf3cbf4a0ab98a02ba45b3ec>@@@Z 1002843b f i libucrt:close.obj
 0001:00027463       __close                    10028463 f   libucrt:close.obj
 0001:000274e2       __close_nolock             100284e2 f   libucrt:close.obj
 0001:0002757e       ?__acrt_stdio_free_stream@@YAXV__crt_stdio_stream@@@Z 1002857e f   libucrt:stream.obj
 0001:000275c0       ___ascii_strnicmp          100285c0 f   libucrt:_strnicm.obj
 0001:00027621       __clrfp                    10028621 f   libucrt:fpctrl.obj
 0001:00027634       __ctrlfp                   10028634 f   libucrt:fpctrl.obj
 0001:00027660       __set_statfp               10028660 f   libucrt:fpctrl.obj
 0001:000276bb       __statfp                   100286bb f   libucrt:fpctrl.obj
 0001:000276cd       __d_inttype                100286cd f   libucrt:powhlp.obj
 0001:00027737       __powhlp                   10028737 f   libucrt:powhlp.obj
 0001:00027862       __87except                 10028862 f   libucrt:87except.obj
 0001:0002796d       __frnd                     1002896d f   libucrt:frnd.obj
 0001:00027983       __errcode                  10028983 f   libucrt:fpexcept.obj
 0001:000279b7       __except1                  100289b7 f   libucrt:fpexcept.obj
 0001:00027a85       __handle_exc               10028a85 f   libucrt:fpexcept.obj
 0001:00027c65       __raise_exc                10028c65 f   libucrt:fpexcept.obj
 0001:00027c88       __raise_exc_ex             10028c88 f   libucrt:fpexcept.obj
 0001:00027f79       __set_errno_from_matherr   10028f79 f   libucrt:fpexcept.obj
 0001:00027fa8       __umatherr                 10028fa8 f   libucrt:fpexcept.obj
 0001:0002804a       __decomp                   1002904a f   libucrt:util.obj
 0001:0002811e       __set_exp                  1002911e f   libucrt:util.obj
 0001:0002814d       __sptype                   1002914d f   libucrt:util.obj
 0001:000281ab       ___dcrt_lowio_initialize_console_output 100291ab f   libucrt:initcon.obj
 0001:000281ca       ___dcrt_terminate_console_output 100291ca f   libucrt:initcon.obj
 0001:000281e1       __fpclass                  100291e1 f   libucrt:ieeemisc.obj
 0001:00028285       _Process32FirstW@8         10029285 f   kernel32:KERNEL32.dll
 0001:0002828b       _Process32NextW@8          1002928b f   kernel32:KERNEL32.dll
 0001:00028291       _IsProcessorFeaturePresent@4 10029291 f   kernel32:KERNEL32.dll
 0001:00028297       ?apiGetConsoleFontSize@@YAHPAXAAH1AAY0CA@_W@Z 10029297 f   common-kernel32:WConsole.obj
 0001:0002832e       ?apiGetCurrentConsoleFontEx@@YAHPAXHPAUMY_CONSOLE_FONT_INFOEX@@@Z 1002932e f   common-kernel32:WConsole.obj
 0001:0002837d       ?apiSetConsoleFontSize@@YAHPAXHHPB_W@Z 1002937d f   common-kernel32:WConsole.obj
 0001:00028467       ?apiSetCurrentConsoleFontEx@@YAHPAXHPAUMY_CONSOLE_FONT_INFOEX@@@Z 10029467 f   common-kernel32:WConsole.obj
 0001:000284c0       __FindPESection            100294c0 f   LIBCMT:pesect.obj
 0001:00028510       __IsNonwritableInCurrentImage 10029510 f   LIBCMT:pesect.obj
 0001:000285d0       __ValidateImageBase        100295d0 f   LIBCMT:pesect.obj
 0001:00028610       __aulldvrm                 10029610 f   LIBCMT:ulldvrm.obj
 0001:000286b0       __allmul                   100296b0 f   LIBCMT:llmul.obj
 0001:000286f0       __SEH_prolog4_GS           100296f0 f   LIBCMT:sehprolg4gs.obj
 0001:00028739       __SEH_epilog4_GS           10029739 f   LIBCMT:sehprolg4gs.obj
 0001:00028750       __alldvrm                  10029750 f   LIBCMT:lldvrm.obj
 0001:00028830       __alloca_probe_16          10029830 f   LIBCMT:alloca16.obj
 0001:00028846       __alloca_probe_8           10029846     LIBCMT:alloca16.obj
 0001:00028860       __allshl                   10029860 f   LIBCMT:llshl.obj
 0001:00028880       __ftol2_sse                10029880 f   LIBCMT:ftol2.obj
 0001:00028889       __ftol2_pentium4           10029889 f   LIBCMT:ftol2.obj
 0001:0002889c       __ftol2_sse_excpt          1002989c f   LIBCMT:ftol2.obj
 0001:000288c0       __ftol2                    100298c0 f   LIBCMT:ftol2.obj
 0002:00000000       __imp__RegQueryValueExW@24 1002a000     advapi32:ADVAPI32.dll
 0002:00000004       __imp__RegOpenKeyExW@20    1002a004     advapi32:ADVAPI32.dll
 0002:00000008       __imp__RegCloseKey@4       1002a008     advapi32:ADVAPI32.dll
 0002:0000000c       __imp__RegCreateKeyExW@36  1002a00c     advapi32:ADVAPI32.dll
 0002:00000010       \177ADVAPI32_NULL_THUNK_DATA 1002a010     advapi32:ADVAPI32.dll
 0002:00000014       __imp__GdiFlush@0          1002a014     gdi32:GDI32.dll
 0002:00000018       __imp__GetEnhMetaFileBits@12 1002a018     gdi32:GDI32.dll
 0002:0000001c       __imp__DeleteEnhMetaFile@4 1002a01c     gdi32:GDI32.dll
 0002:00000020       __imp__CreateEnhMetaFileW@16 1002a020     gdi32:GDI32.dll
 0002:00000024       __imp__CloseEnhMetaFile@4  1002a024     gdi32:GDI32.dll
 0002:00000028       __imp__GetDeviceCaps@8     1002a028     gdi32:GDI32.dll
 0002:0000002c       __imp__DeleteObject@4      1002a02c     gdi32:GDI32.dll
 0002:00000030       __imp__CreateSolidBrush@4  1002a030     gdi32:GDI32.dll
 0002:00000034       __imp__CreateCompatibleDC@4 1002a034     gdi32:GDI32.dll
 0002:00000038       __imp__CreateFontIndirectW@4 1002a038     gdi32:GDI32.dll
 0002:0000003c       __imp__DeleteDC@4          1002a03c     gdi32:GDI32.dll
 0002:00000040       __imp__SelectObject@8      1002a040     gdi32:GDI32.dll
 0002:00000044       __imp__GetTextMetricsW@8   1002a044     gdi32:GDI32.dll
 0002:00000048       \177GDI32_NULL_THUNK_DATA  1002a048     gdi32:GDI32.dll
 0002:0000004c       __imp__ResumeThread@4      1002a04c     kernel32:KERNEL32.dll
 0002:00000050       __imp__IsDebuggerPresent@0 1002a050     kernel32:KERNEL32.dll
 0002:00000054       __imp__SetEvent@4          1002a054     kernel32:KERNEL32.dll
 0002:00000058       __imp__ResetEvent@4        1002a058     kernel32:KERNEL32.dll
 0002:0000005c       __imp__ReleaseSemaphore@12 1002a05c     kernel32:KERNEL32.dll
 0002:00000060       __imp__WaitForSingleObject@8 1002a060     kernel32:KERNEL32.dll
 0002:00000064       __imp__WaitForMultipleObjects@16 1002a064     kernel32:KERNEL32.dll
 0002:00000068       __imp__Sleep@4             1002a068     kernel32:KERNEL32.dll
 0002:0000006c       __imp__GetStdHandle@4      1002a06c     kernel32:KERNEL32.dll
 0002:00000070       __imp__GetTickCount@0      1002a070     kernel32:KERNEL32.dll
 0002:00000074       __imp__MapViewOfFile@20    1002a074     kernel32:KERNEL32.dll
 0002:00000078       __imp__UnmapViewOfFile@4   1002a078     kernel32:KERNEL32.dll
 0002:0000007c       __imp__lstrcmpW@8          1002a07c     kernel32:KERNEL32.dll
 0002:00000080       __imp__lstrcmpiW@8         1002a080     kernel32:KERNEL32.dll
 0002:00000084       __imp__lstrcatW@8          1002a084     kernel32:KERNEL32.dll
 0002:00000088       __imp__CreateEventW@16     1002a088     kernel32:KERNEL32.dll
 0002:0000008c       __imp__CreateSemaphoreW@16 1002a08c     kernel32:KERNEL32.dll
 0002:00000090       __imp__CreateFileMappingW@24 1002a090     kernel32:KERNEL32.dll
 0002:00000094       __imp__OpenFileMappingW@12 1002a094     kernel32:KERNEL32.dll
 0002:00000098       __imp__GetModuleFileNameW@12 1002a098     kernel32:KERNEL32.dll
 0002:0000009c       __imp__CreateProcessW@40   1002a09c     kernel32:KERNEL32.dll
 0002:000000a0       __imp__GetEnvironmentVariableW@12 1002a0a0     kernel32:KERNEL32.dll
 0002:000000a4       __imp__DeleteFileW@4       1002a0a4     kernel32:KERNEL32.dll
 0002:000000a8       __imp__IsBadStringPtrW@8   1002a0a8     kernel32:KERNEL32.dll
 0002:000000ac       __imp__PeekConsoleInputW@16 1002a0ac     kernel32:KERNEL32.dll
 0002:000000b0       __imp__ReadConsoleInputW@16 1002a0b0     kernel32:KERNEL32.dll
 0002:000000b4       __imp__WriteConsoleInputW@16 1002a0b4     kernel32:KERNEL32.dll
 0002:000000b8       __imp__lstrcpynA@12        1002a0b8     kernel32:KERNEL32.dll
 0002:000000bc       __imp__GetNumberOfConsoleInputEvents@8 1002a0bc     kernel32:KERNEL32.dll
 0002:000000c0       __imp__GetConsoleScreenBufferInfo@8 1002a0c0     kernel32:KERNEL32.dll
 0002:000000c4       __imp__GetConsoleCursorInfo@8 1002a0c4     kernel32:KERNEL32.dll
 0002:000000c8       __imp__SetConsoleMode@8    1002a0c8     kernel32:KERNEL32.dll
 0002:000000cc       __imp__GetConsoleTitleW@8  1002a0cc     kernel32:KERNEL32.dll
 0002:000000d0       __imp__SuspendThread@4     1002a0d0     kernel32:KERNEL32.dll
 0002:000000d4       __imp__CreateToolhelp32Snapshot@8 1002a0d4     kernel32:KERNEL32.dll
 0002:000000d8       __imp__Thread32First@8     1002a0d8     kernel32:KERNEL32.dll
 0002:000000dc       __imp__Thread32Next@8      1002a0dc     kernel32:KERNEL32.dll
 0002:000000e0       __imp__Module32FirstW@8    1002a0e0     kernel32:KERNEL32.dll
 0002:000000e4       __imp__Module32NextW@8     1002a0e4     kernel32:KERNEL32.dll
 0002:000000e8       __imp__SetThreadPriority@8 1002a0e8     kernel32:KERNEL32.dll
 0002:000000ec       __imp__GetExitCodeThread@8 1002a0ec     kernel32:KERNEL32.dll
 0002:000000f0       __imp__GetOverlappedResult@16 1002a0f0     kernel32:KERNEL32.dll
 0002:000000f4       __imp__WriteFile@20        1002a0f4     kernel32:KERNEL32.dll
 0002:000000f8       __imp__ReadFile@20         1002a0f8     kernel32:KERNEL32.dll
 0002:000000fc       __imp__FlushFileBuffers@4  1002a0fc     kernel32:KERNEL32.dll
 0002:00000100       __imp__ConnectNamedPipe@8  1002a100     kernel32:KERNEL32.dll
 0002:00000104       __imp__DisconnectNamedPipe@4 1002a104     kernel32:KERNEL32.dll
 0002:00000108       __imp__CreateNamedPipeW@32 1002a108     kernel32:KERNEL32.dll
 0002:0000010c       __imp__SetEnvironmentVariableW@8 1002a10c     kernel32:KERNEL32.dll
 0002:00000110       __imp__lstrlenW@4          1002a110     kernel32:KERNEL32.dll
 0002:00000114       __imp__lstrcpyW@8          1002a114     kernel32:KERNEL32.dll
 0002:00000118       __imp__lstrcpynW@12        1002a118     kernel32:KERNEL32.dll
 0002:0000011c       __imp__CloseHandle@4       1002a11c     kernel32:KERNEL32.dll
 0002:00000120       __imp__VirtualProtect@16   1002a120     kernel32:KERNEL32.dll
 0002:00000124       __imp__GetModuleHandleW@4  1002a124     kernel32:KERNEL32.dll
 0002:00000128       __imp__LoadLibraryW@4      1002a128     kernel32:KERNEL32.dll
 0002:0000012c       __imp__GetLastError@0      1002a12c     kernel32:KERNEL32.dll
 0002:00000130       __imp__GetCurrentProcessId@0 1002a130     kernel32:KERNEL32.dll
 0002:00000134       __imp__GetProcAddress@8    1002a134     kernel32:KERNEL32.dll
 0002:00000138       __imp__SetLastError@4      1002a138     kernel32:KERNEL32.dll
 0002:0000013c       __imp__GetCurrentThreadId@0 1002a13c     kernel32:KERNEL32.dll
 0002:00000140       __imp__GetEnvironmentStringsW@0 1002a140     kernel32:KERNEL32.dll
 0002:00000144       __imp__GetExitCodeProcess@8 1002a144     kernel32:KERNEL32.dll
 0002:00000148       __imp__TerminateProcess@8  1002a148     kernel32:KERNEL32.dll
 0002:0000014c       __imp__GetCurrentProcess@0 1002a14c     kernel32:KERNEL32.dll
 0002:00000150       __imp__VirtualQuery@12     1002a150     kernel32:KERNEL32.dll
 0002:00000154       __imp__InterlockedDecrement@4 1002a154     kernel32:KERNEL32.dll
 0002:00000158       __imp__InterlockedIncrement@4 1002a158     kernel32:KERNEL32.dll
 0002:0000015c       __imp__WideCharToMultiByte@32 1002a15c     kernel32:KERNEL32.dll
 0002:00000160       __imp__MultiByteToWideChar@24 1002a160     kernel32:KERNEL32.dll
 0002:00000164       __imp__lstrlenA@4          1002a164     kernel32:KERNEL32.dll
 0002:00000168       __imp__SetConsoleTitleW@4  1002a168     kernel32:KERNEL32.dll
 0002:0000016c       __imp__lstrcpyA@8          1002a16c     kernel32:KERNEL32.dll
 0002:00000170       __imp__GetConsoleMode@8    1002a170     kernel32:KERNEL32.dll
 0002:00000174       __imp__FreeLibrary@4       1002a174     kernel32:KERNEL32.dll
 0002:00000178       __imp__HeapCreate@12       1002a178     kernel32:KERNEL32.dll
 0002:0000017c       __imp__HeapDestroy@4       1002a17c     kernel32:KERNEL32.dll
 0002:00000180       __imp__HeapAlloc@12        1002a180     kernel32:KERNEL32.dll
 0002:00000184       __imp__HeapReAlloc@16      1002a184     kernel32:KERNEL32.dll
 0002:00000188       __imp__HeapFree@12         1002a188     kernel32:KERNEL32.dll
 0002:0000018c       __imp__SetNamedPipeHandleState@16 1002a18c     kernel32:KERNEL32.dll
 0002:00000190       __imp__TransactNamedPipe@28 1002a190     kernel32:KERNEL32.dll
 0002:00000194       __imp__CreateFileW@28      1002a194     kernel32:KERNEL32.dll
 0002:00000198       __imp__WaitNamedPipeW@8    1002a198     kernel32:KERNEL32.dll
 0002:0000019c       __imp__GetConsoleWindow@0  1002a19c     kernel32:KERNEL32.dll
 0002:000001a0       __imp__DebugBreak@0        1002a1a0     kernel32:KERNEL32.dll
 0002:000001a4       __imp__RaiseException@16   1002a1a4     kernel32:KERNEL32.dll
 0002:000001a8       __imp__CreateThread@24     1002a1a8     kernel32:KERNEL32.dll
 0002:000001ac       __imp__TerminateThread@8   1002a1ac     kernel32:KERNEL32.dll
 0002:000001b0       __imp__FreeEnvironmentStringsW@4 1002a1b0     kernel32:KERNEL32.dll
 0002:000001b4       __imp__ExpandEnvironmentStringsW@12 1002a1b4     kernel32:KERNEL32.dll
 0002:000001b8       __imp__LocalAlloc@8        1002a1b8     kernel32:KERNEL32.dll
 0002:000001bc       __imp__LocalFree@4         1002a1bc     kernel32:KERNEL32.dll
 0002:000001c0       __imp__VerSetConditionMask@16 1002a1c0     kernel32:KERNEL32.dll
 0002:000001c4       __imp__GetFileInformationByHandle@8 1002a1c4     kernel32:KERNEL32.dll
 0002:000001c8       __imp__FindClose@4         1002a1c8     kernel32:KERNEL32.dll
 0002:000001cc       __imp__FindFirstFileW@8    1002a1cc     kernel32:KERNEL32.dll
 0002:000001d0       __imp__FindNextFileW@8     1002a1d0     kernel32:KERNEL32.dll
 0002:000001d4       __imp__VerifyVersionInfoW@16 1002a1d4     kernel32:KERNEL32.dll
 0002:000001d8       __imp__Process32FirstW@8   1002a1d8     kernel32:KERNEL32.dll
 0002:000001dc       __imp__Process32NextW@8    1002a1dc     kernel32:KERNEL32.dll
 0002:000001e0       __imp__OpenThread@12       1002a1e0     kernel32:KERNEL32.dll
 0002:000001e4       __imp__VirtualAlloc@16     1002a1e4     kernel32:KERNEL32.dll
 0002:000001e8       __imp__VirtualFree@12      1002a1e8     kernel32:KERNEL32.dll
 0002:000001ec       __imp__GetSystemInfo@4     1002a1ec     kernel32:KERNEL32.dll
 0002:000001f0       __imp__IsBadReadPtr@8      1002a1f0     kernel32:KERNEL32.dll
 0002:000001f4       __imp__InitializeCriticalSection@4 1002a1f4     kernel32:KERNEL32.dll
 0002:000001f8       __imp__EnterCriticalSection@4 1002a1f8     kernel32:KERNEL32.dll
 0002:000001fc       __imp__LeaveCriticalSection@4 1002a1fc     kernel32:KERNEL32.dll
 0002:00000200       __imp__TryEnterCriticalSection@4 1002a200     kernel32:KERNEL32.dll
 0002:00000204       __imp__DeleteCriticalSection@4 1002a204     kernel32:KERNEL32.dll
 0002:00000208       __imp__ReleaseMutex@4      1002a208     kernel32:KERNEL32.dll
 0002:0000020c       __imp__CreateMutexW@12     1002a20c     kernel32:KERNEL32.dll
 0002:00000210       __imp__GetConsoleOutputCP@0 1002a210     kernel32:KERNEL32.dll
 0002:00000214       __imp__GetStartupInfoW@4   1002a214     kernel32:KERNEL32.dll
 0002:00000218       __imp__InitializeCriticalSectionAndSpinCount@8 1002a218     kernel32:KERNEL32.dll
 0002:0000021c       __imp__WaitForSingleObjectEx@12 1002a21c     kernel32:KERNEL32.dll
 0002:00000220       __imp__UnhandledExceptionFilter@4 1002a220     kernel32:KERNEL32.dll
 0002:00000224       __imp__SetUnhandledExceptionFilter@4 1002a224     kernel32:KERNEL32.dll
 0002:00000228       __imp__IsProcessorFeaturePresent@4 1002a228     kernel32:KERNEL32.dll
 0002:0000022c       __imp__QueryPerformanceCounter@4 1002a22c     kernel32:KERNEL32.dll
 0002:00000230       __imp__GetSystemTimeAsFileTime@4 1002a230     kernel32:KERNEL32.dll
 0002:00000234       __imp__InitializeSListHead@4 1002a234     kernel32:KERNEL32.dll
 0002:00000238       __imp__RtlUnwind@16        1002a238     kernel32:KERNEL32.dll
 0002:0000023c       __imp__InterlockedFlushSList@4 1002a23c     kernel32:KERNEL32.dll
 0002:00000240       __imp__EncodePointer@4     1002a240     kernel32:KERNEL32.dll
 0002:00000244       __imp__TlsAlloc@0          1002a244     kernel32:KERNEL32.dll
 0002:00000248       __imp__TlsGetValue@4       1002a248     kernel32:KERNEL32.dll
 0002:0000024c       __imp__TlsSetValue@8       1002a24c     kernel32:KERNEL32.dll
 0002:00000250       __imp__TlsFree@4           1002a250     kernel32:KERNEL32.dll
 0002:00000254       __imp__LoadLibraryExW@12   1002a254     kernel32:KERNEL32.dll
 0002:00000258       __imp__ExitProcess@4       1002a258     kernel32:KERNEL32.dll
 0002:0000025c       __imp__GetModuleHandleExW@12 1002a25c     kernel32:KERNEL32.dll
 0002:00000260       __imp__GetModuleFileNameA@12 1002a260     kernel32:KERNEL32.dll
 0002:00000264       __imp__GetACP@0            1002a264     kernel32:KERNEL32.dll
 0002:00000268       __imp__GetFileType@4       1002a268     kernel32:KERNEL32.dll
 0002:0000026c       __imp__GetStringTypeW@16   1002a26c     kernel32:KERNEL32.dll
 0002:00000270       __imp__LCMapStringW@24     1002a270     kernel32:KERNEL32.dll
 0002:00000274       __imp__FindFirstFileExA@24 1002a274     kernel32:KERNEL32.dll
 0002:00000278       __imp__FindNextFileA@8     1002a278     kernel32:KERNEL32.dll
 0002:0000027c       __imp__IsValidCodePage@4   1002a27c     kernel32:KERNEL32.dll
 0002:00000280       __imp__GetOEMCP@0          1002a280     kernel32:KERNEL32.dll
 0002:00000284       __imp__GetCPInfo@8         1002a284     kernel32:KERNEL32.dll
 0002:00000288       __imp__GetCommandLineA@0   1002a288     kernel32:KERNEL32.dll
 0002:0000028c       __imp__GetCommandLineW@0   1002a28c     kernel32:KERNEL32.dll
 0002:00000290       __imp__GetProcessHeap@0    1002a290     kernel32:KERNEL32.dll
 0002:00000294       __imp__SetStdHandle@8      1002a294     kernel32:KERNEL32.dll
 0002:00000298       __imp__HeapSize@12         1002a298     kernel32:KERNEL32.dll
 0002:0000029c       __imp__GetConsoleCP@0      1002a29c     kernel32:KERNEL32.dll
 0002:000002a0       __imp__SetFilePointerEx@20 1002a2a0     kernel32:KERNEL32.dll
 0002:000002a4       __imp__DecodePointer@4     1002a2a4     kernel32:KERNEL32.dll
 0002:000002a8       __imp__WriteConsoleW@20    1002a2a8     kernel32:KERNEL32.dll
 0002:000002ac       \177KERNEL32_NULL_THUNK_DATA 1002a2ac     kernel32:KERNEL32.dll
 0002:000002b0       __imp__GetSystemMetrics@4  1002a2b0     user32:USER32.dll
 0002:000002b4       __imp__FindWindowW@8       1002a2b4     user32:USER32.dll
 0002:000002b8       __imp__SetWindowPos@28     1002a2b8     user32:USER32.dll
 0002:000002bc       __imp__EnableWindow@8      1002a2bc     user32:USER32.dll
 0002:000002c0       __imp__IsWindowEnabled@4   1002a2c0     user32:USER32.dll
 0002:000002c4       __imp__GetWindowRect@8     1002a2c4     user32:USER32.dll
 0002:000002c8       __imp__MonitorFromWindow@8 1002a2c8     user32:USER32.dll
 0002:000002cc       __imp__GetMonitorInfoW@8   1002a2cc     user32:USER32.dll
 0002:000002d0       __imp__SendMessageW@16     1002a2d0     user32:USER32.dll
 0002:000002d4       __imp__ShowWindow@8        1002a2d4     user32:USER32.dll
 0002:000002d8       __imp__ShowWindowAsync@8   1002a2d8     user32:USER32.dll
 0002:000002dc       __imp__IsRectEmpty@4       1002a2dc     user32:USER32.dll
 0002:000002e0       __imp__GetClassNameW@12    1002a2e0     user32:USER32.dll
 0002:000002e4       __imp__EnumDisplayMonitors@16 1002a2e4     user32:USER32.dll
 0002:000002e8       __imp__ActivateKeyboardLayout@8 1002a2e8     user32:USER32.dll
 0002:000002ec       __imp__LoadKeyboardLayoutW@8 1002a2ec     user32:USER32.dll
 0002:000002f0       __imp__FillRect@12         1002a2f0     user32:USER32.dll
 0002:000002f4       __imp__ReleaseDC@8         1002a2f4     user32:USER32.dll
 0002:000002f8       __imp__GetDC@4             1002a2f8     user32:USER32.dll
 0002:000002fc       __imp__GetWindowThreadProcessId@8 1002a2fc     user32:USER32.dll
 0002:00000300       __imp__IsWindowVisible@4   1002a300     user32:USER32.dll
 0002:00000304       __imp__PostMessageW@16     1002a304     user32:USER32.dll
 0002:00000308       __imp__RegisterWindowMessageW@4 1002a308     user32:USER32.dll
 0002:0000030c       __imp__wsprintfW           1002a30c     user32:USER32.dll
 0002:00000310       __imp__CharUpperBuffW@8    1002a310     user32:USER32.dll
 0002:00000314       __imp__GetParent@4         1002a314     user32:USER32.dll
 0002:00000318       __imp__GetWindowLongW@8    1002a318     user32:USER32.dll
 0002:0000031c       __imp__IsWindow@4          1002a31c     user32:USER32.dll
 0002:00000320       __imp__MessageBoxW@16      1002a320     user32:USER32.dll
 0002:00000324       \177USER32_NULL_THUNK_DATA 1002a324     user32:USER32.dll
 0002:00000328       __imp__VerQueryValueW@16   1002a328     version:VERSION.dll
 0002:0000032c       __imp__GetFileVersionInfoW@16 1002a32c     version:VERSION.dll
 0002:00000330       __imp__GetFileVersionInfoSizeW@8 1002a330     version:VERSION.dll
 0002:00000334       \177VERSION_NULL_THUNK_DATA 1002a334     version:VERSION.dll
 0002:00000338       ___guard_check_icall_fptr  1002a338     LIBCMT:guard_support.obj
 0002:0000033c       ___xc_a                    1002a33c     LIBCMT:initializers.obj
 0002:00000344       ___xc_z                    1002a344     LIBCMT:initializers.obj
 0002:00000348       ___xi_a                    1002a348     LIBCMT:initializers.obj
 0002:00000350       ___acrt_stdio_initializer  1002a350     libucrt:stdio_initializer.obj
 0002:00000354       ___acrt_multibyte_initializer 1002a354     libucrt:multibyte_initializer.obj
 0002:00000358       ___acrt_tran_sse2_initializer 1002a358     libucrt:sse2_initializer.obj
 0002:0000035c       ___xi_z                    1002a35c     LIBCMT:initializers.obj
 0002:00000360       ___xl_a                    1002a360     LIBCMT:tlssup.obj
 0002:00000364       ___xl_z                    1002a364     LIBCMT:tlssup.obj
 0002:00000368       ___xp_a                    1002a368     LIBCMT:initializers.obj
 0002:0000036c       ___acrt_locale_terminator  1002a36c     libucrt:locale_initializer.obj
 0002:00000370       ___dcrt_console_output_terminator 1002a370     libucrt:console_output_initializer.obj
 0002:00000374       ___acrt_stdio_terminator   1002a374     libucrt:stdio_initializer.obj
 0002:00000378       ___xp_z                    1002a378     LIBCMT:initializers.obj
 0002:0000037c       ___xt_a                    1002a37c     LIBCMT:initializers.obj
 0002:00000380       ___xt_z                    1002a380     LIBCMT:initializers.obj
 0002:00000390       ??_C@_1BK@FLBMCLFA@?$AAC?$AAo?$AAn?$AAE?$AAm?$AAu?$AAH?$AAk?$AA?4?$AAd?$AAl?$AAl@ 1002a390     ConEmuInjects.obj
 0002:000003b0       ??_C@_1IM@IDJBHJMA@?$AAC?$AAo?$AAn?$AAE?$AAm?$AAu?$AAH?$AAk?$AA?5?$AAw?$AAa?$AAs?$AA?5?$AAn?$AAo@ 1002a3b0     ConEmuInjects.obj
 0002:0000043c       ??_C@_1BM@LHLFCECN@?$AAC?$AAo?$AAn?$AAE?$AAm?$AAu?$AA?5?$AAp?$AAl?$AAu?$AAg?$AAi?$AAn@ 1002a43c     ConEmuInjects.obj
 0002:00000458       ??_C@_0BB@OPFPFOCM@SetHookCallbacks@ 1002a458     ConEmuInjects.obj
 0002:0000046c       ??_C@_0BH@HLKHEPME@SetLoadLibraryCallback@ 1002a46c     ConEmuInjects.obj
 0002:00000484       ??_C@_0P@JOHNNMGG@SetFarHookMode@ 1002a484     ConEmuInjects.obj
 0002:00000494       ??_C@_1CM@DEPCLAGE@?$AAC?$AAo?$AAn?$AAE?$AAm?$AAu?$AA?5?$AAp?$AAl?$AAu?$AAg?$AAi?$AAn?$AA?0?$AA?5@ 1002a494     ConEmuInjects.obj
 0002:000004c0       ??_C@_1CC@JNEFFKJH@?$AAS?$AAe?$AAt?$AAH?$AAo?$AAo?$AAk?$AAC?$AAa?$AAl?$AAl?$AAb?$AAa?$AAc?$AAk@ 1002a4c0     ConEmuInjects.obj
 0002:000004e4       ??_C@_1CO@HHOFMBDD@?$AAS?$AAe?$AAt?$AAL?$AAo?$AAa?$AAd?$AAL?$AAi?$AAb?$AAr?$AAa?$AAr?$AAy?$AAC@ 1002a4e4     ConEmuInjects.obj
 0002:00000514       ??_C@_1BO@OGOEDKED@?$AAS?$AAe?$AAt?$AAF?$AAa?$AAr?$AAH?$AAo?$AAo?$AAk?$AAM?$AAo?$AAd?$AAe@ 1002a514     ConEmuInjects.obj
 0002:00000538       ??_C@_1FG@GKBMDCCM@?$AAC?$AAo?$AAn?$AAE?$AAm?$AAu?$AAH?$AAk?$AA?5?$AAi?$AAs?$AA?5?$AAb?$AAr?$AAo@ 1002a538     ConEmuInjects.obj
 0002:00000590       ??_C@_1BK@MGMFAEKH@?$AAk?$AAe?$AAr?$AAn?$AAe?$AAl?$AA3?$AA2?$AA?4?$AAd?$AAl?$AAl@ 1002a590     ConEmuInjects.obj
 0002:000005ac       ??_C@_0M@LAGCIMKJ@FreeConsole@ 1002a5ac     ConEmuInjects.obj
 0002:000005b8       ??_C@_0N@MOGGHBHN@AllocConsole@ 1002a5b8     ConEmuInjects.obj
 0002:000005c8       ??_C@_0BC@BINPJBNK@PeekConsoleInputA@ 1002a5c8     ConEmuInjects.obj
 0002:000005dc       ??_C@_0BC@EEHCEAN@PeekConsoleInputW@ 1002a5dc     ConEmuInjects.obj
 0002:000005f0       ??_C@_0BC@JNLCHFED@ReadConsoleInputA@ 1002a5f0     ConEmuInjects.obj
 0002:00000604       ??_C@_0BC@IBCKMAJE@ReadConsoleInputW@ 1002a604     ConEmuInjects.obj
 0002:00000618       ??_C@_0BE@PKLMIEOM@WriteConsoleOutputA@ 1002a618     ConEmuInjects.obj
 0002:0000062c       ??_C@_0BE@OGCEDBDL@WriteConsoleOutputW@ 1002a62c     ConEmuInjects.obj
 0002:00000640       ??_C@_0BO@HCPBIAL@GetNumberOfConsoleInputEvents@ 1002a640     ConEmuInjects.obj
 0002:00000660       ??_C@_1BI@BNFKGMFK@?$AAs?$AAh?$AAe?$AAl?$AAl?$AA3?$AA2?$AA?4?$AAd?$AAl?$AAl@ 1002a660     ConEmuInjects.obj
 0002:00000678       ??_C@_0BA@LIPPODFA@ShellExecuteExW@ 1002a678     ConEmuInjects.obj
 0002:00000688       ??_C@_1CI@BCDIBFHK@?$AAE?$AAx?$AAt?$AAe?$AAn?$AAd?$AAe?$AAd?$AAC?$AAo?$AAn?$AAs?$AAo?$AAl?$AAe@ 1002a688     ConEmuInjects.obj
 0002:000006b0       ??_C@_0BE@MFLNGBIK@SetConsoleCallbacks@ 1002a6b0     ConEmuInjects.obj
 0002:000006c4       ??_C@_08BCACMCCB@ExitFARW@ 1002a6c4     ConEmuPlugin.obj
 0002:000006d0       ??_C@_0BE@PJBDJPG@ProcessEditorEventW@ 1002a6d0     ConEmuPlugin.obj
 0002:000006e4       ??_C@_0BE@OMPAFBFG@ProcessViewerEventW@ 1002a6e4     ConEmuPlugin.obj
 0002:000006f8       ??_C@_0BF@NLPJFAHE@ProcessSynchroEventW@ 1002a6f8     ConEmuPlugin.obj
 0002:00000710       ??_C@_1BA@JOPOJEME@?$AAE?$AAx?$AAi?$AAt?$AAF?$AAA?$AAR@ 1002a710     ConEmuPlugin.obj
 0002:00000720       ??_C@_1BO@LDDOEOAL@?$AAE?$AAx?$AAi?$AAt?$AAF?$AAA?$AAR?$AA?5?$AA?9?$AA?5?$AAd?$AAo?$AAn?$AAe@ 1002a720     ConEmuPlugin.obj
 0002:00000740       ??_C@_1BC@OCOOMPC@?$AAE?$AAx?$AAi?$AAt?$AAF?$AAA?$AAR?$AAW@ 1002a740     ConEmuPlugin.obj
 0002:00000754       ??_C@_1CA@IFHGCKFI@?$AAE?$AAx?$AAi?$AAt?$AAF?$AAA?$AAR?$AAW?$AA?5?$AA?9?$AA?5?$AAd?$AAo?$AAn?$AAe@ 1002a754     ConEmuPlugin.obj
 0002:00000774       ??_C@_1BE@GNKIHEAN@?$AAE?$AAx?$AAi?$AAt?$AAF?$AAA?$AAR?$AAW?$AA3@ 1002a774     ConEmuPlugin.obj
 0002:00000788       ??_C@_1CC@LCFMKIJA@?$AAE?$AAx?$AAi?$AAt?$AAF?$AAA?$AAR?$AAW?$AA3?$AA?5?$AA?9?$AA?5?$AAd?$AAo?$AAn@ 1002a788     ConEmuPlugin.obj
 0002:000007ac       ??_C@_11LOCGONAA@@         1002a7ac     ConEmuPlugin1900.obj
 0002:000007b4       ??_7CPluginW1900@@6B@      1002a7b4     ConEmuPlugin1900.obj
 0002:00000848       ??_C@_1O@PICBDAL@?$AAC?$AAo?$AAn?$AAE?$AAm?$AAu@ 1002a848     ConEmuPlugin1900.obj
 0002:00000858       ??_C@_1BK@BCDKFLCP@?$AAE?$AAx?$AAi?$AAt?$AAF?$AAA?$AAR?$AAW?$AA1?$AA9?$AA0?$AA0@ 1002a858     ConEmuPlugin1900.obj
 0002:00000874       ??_C@_1CI@OHGGDAJD@?$AAE?$AAx?$AAi?$AAt?$AAF?$AAA?$AAR?$AAW?$AA1?$AA9?$AA0?$AA0?$AA?5?$AA?9?$AA?5@ 1002a874     ConEmuPlugin1900.obj
 0002:0000089c       ??_C@_1M@OKCNCBMD@?$AA$?$AAT?$AAE?$AAX?$AAT@ 1002a89c     ConEmuPlugin1900.obj
 0002:000008a8       ??_C@_1O@BBPMHPCD@?$AAp?$AAr?$AAi?$AAn?$AAt?$AA?$CI@ 1002a8a8     ConEmuPlugin1900.obj
 0002:000008b8       ??_C@_19JPEEHMMI@?$AA?5?$AA?7?$AA?$AN?$AA?6@ 1002a8b8     ConEmuPlugin1900.obj
 0002:000008c4       ??_C@_1BC@OLJIBFPH@?$AA?0?$AA?5?$AAH?$AAi?$AAn?$AAt?$AA?3?$AA?5@ 1002a8c4     ConEmuPlugin1900.obj
 0002:000008d8       ??_C@_1BCK@MAAKAKN@?$AAE?$AAr?$AAr?$AAo?$AAr?$AA?5?$AAi?$AAn?$AA?5?$AAM?$AAa?$AAc?$AAr?$AAo?$AA?4@ 1002a8d8     ConEmuPlugin1900.obj
 0002:00000a08       ??_C@_1OK@GOJADEAC@?$AAE?$AAr?$AAr?$AAo?$AAr?$AA?5?$AAi?$AAn?$AA?5?$AAM?$AAa?$AAc?$AAr?$AAo?$AA?4@ 1002aa08     ConEmuPlugin1900.obj
 0002:00000af4       ??_C@_0BF@MFOIGNA@BackgroundMacroError@ 1002aaf4     ConEmuPlugin1900.obj
 0002:00000b0c       ??_C@_1BI@EKLHEFDO@?$AAS?$AAh?$AAo?$AAw?$AAM?$AAe?$AAn?$AAu?$AAB?$AAa?$AAr@ 1002ab0c     ConEmuPlugin1900.obj
 0002:00000b24       ??_C@_1O@PDEOIOBG@?$AAK?$AAe?$AAy?$AAB?$AAa?$AAr@ 1002ab24     ConEmuPlugin1900.obj
 0002:00000b34       ??_C@_1BK@MBFACEDG@?$AAC?$AAo?$AAl?$AAu?$AAm?$AAn?$AAT?$AAi?$AAt?$AAl?$AAe?$AAs@ 1002ab34     ConEmuPlugin1900.obj
 0002:00000b50       ??_C@_1BG@MHMKAABO@?$AAS?$AAt?$AAa?$AAt?$AAu?$AAs?$AAL?$AAi?$AAn?$AAe@ 1002ab50     ConEmuPlugin1900.obj
 0002:00000b68       ??_C@_1BC@IALIJCAM@?$AAS?$AAo?$AAr?$AAt?$AAM?$AAo?$AAd?$AAe@ 1002ab68     ConEmuPlugin1900.obj
 0002:00000b7c       ??_C@_1BK@BKCACCAI@?$AAW?$AAT?$AAY?$AAP?$AAE?$AA_?$AAP?$AAA?$AAN?$AAE?$AAL?$AAS@ 1002ab7c     ConEmuPlugin1900.obj
 0002:00000b98       ??_C@_1BK@LNCDOEEM@?$AAW?$AAT?$AAY?$AAP?$AAE?$AA_?$AAV?$AAI?$AAE?$AAW?$AAE?$AAR@ 1002ab98     ConEmuPlugin1900.obj
 0002:00000bb4       ??_C@_1BK@MHHDIBO@?$AAW?$AAT?$AAY?$AAP?$AAE?$AA_?$AAE?$AAD?$AAI?$AAT?$AAO?$AAR@ 1002abb4     ConEmuPlugin1900.obj
 0002:00000bd0       ??_C@_1BK@NEJJBFEB@?$AAW?$AAT?$AAY?$AAP?$AAE?$AA_?$AAD?$AAI?$AAA?$AAL?$AAO?$AAG@ 1002abd0     ConEmuPlugin1900.obj
 0002:00000bec       ??_C@_1BI@IHGDMIGH@?$AAW?$AAT?$AAY?$AAP?$AAE?$AA_?$AAV?$AAM?$AAE?$AAN?$AAU@ 1002abec     ConEmuPlugin1900.obj
 0002:00000c04       ??_C@_1BG@LKGDBHML@?$AAW?$AAT?$AAY?$AAP?$AAE?$AA_?$AAH?$AAE?$AAL?$AAP@ 1002ac04     ConEmuPlugin1900.obj
 0002:00000c1c       ??_C@_1BA@LEPJIIOK@?$AAU?$AAn?$AAk?$AAn?$AAo?$AAw?$AAn@ 1002ac1c     ConEmuPlugin1900.obj
 0002:00000c2c       ??_C@_1CE@PEOBLGJK@?$AAC?$AAo?$AAn?$AAE?$AAm?$AAu?$AAM?$AAa?$AAc?$AAr?$AAo?$AAR?$AAe?$AAs?$AAu@ 1002ac2c     ConEmuPlugin1900.obj
 0002:00000c50       ??_C@_1BO@HNJMHBAE@?$AAC?$AAo?$AAn?$AAE?$AAm?$AAu?$AAG?$AAu?$AAi?$AAM?$AAa?$AAc?$AAr?$AAo@ 1002ac50     ConEmuPlugin1900.obj
 0002:00000c70       __xmm@00000000000000020000000500000000 1002ac70     ConEmuPlugin1900.obj
 0002:00000c80       __xmm@00000000000000040000000500000000 1002ac80     ConEmuPlugin1900.obj
 0002:00000c90       __xmm@00000000000000070000000000000007 1002ac90     ConEmuPlugin1900.obj
 0002:00000ca0       __xmm@00000046000000030000000500000004 1002aca0     ConEmuPlugin1900.obj
 0002:00000cb0       __xmm@00000046000000050000000500000004 1002acb0     ConEmuPlugin1900.obj
 0002:00000cc0       __xmm@00000048000000010000000300000003 1002acc0     ConEmuPlugin1900.obj
 0002:00000cd4       ??_7exception@std@@6B@     1002acd4     ConEmuPlugin2800.obj
 0002:00000cdc       ??_C@_0BC@EOODALEL@Unknown?5exception@ 1002acdc     ConEmuPlugin2800.obj
 0002:00000cf4       ??_7bad_alloc@std@@6B@     1002acf4     ConEmuPlugin2800.obj
 0002:00000cfc       ??_C@_0P@GHFPNOJB@bad?5allocation@ 1002acfc     ConEmuPlugin2800.obj
 0002:00000d10       ??_7CPluginW2800@@6B@      1002ad10     ConEmuPlugin2800.obj
 0002:00000da4       ??_C@_1DO@JIOAOHCJ@?$AAC?$AAo?$AAn?$AAE?$AAm?$AAu?$AA?5?$AAs?$AAu?$AAp?$AAp?$AAo?$AAr?$AAt?$AA?5@ 1002ada4     ConEmuPlugin2800.obj
 0002:00000de4       ??_C@_1DE@DJEAMLPH@?$AAC?$AAo?$AAn?$AAE?$AAm?$AAu?$AA?4?$AAM?$AAa?$AAx?$AAi?$AAm?$AAu?$AAs?$AA5@ 1002ade4     ConEmuPlugin2800.obj
 0002:00000e18       ??_C@_17IOMHDNEC@?$AAf?$AAa?$AAr@ 1002ae18     ConEmuPlugin2800.obj
 0002:00000e20       ??_C@_1BK@DFKHOALC@?$AAE?$AAx?$AAi?$AAt?$AAF?$AAA?$AAR?$AAW?$AA2?$AA8?$AA0?$AA0@ 1002ae20     ConEmuPlugin2800.obj
 0002:00000e3c       ??_C@_1CI@KIFAPNHL@?$AAE?$AAx?$AAi?$AAt?$AAF?$AAA?$AAR?$AAW?$AA2?$AA8?$AA0?$AA0?$AA?5?$AA?9?$AA?5@ 1002ae3c     ConEmuPlugin2800.obj
 0002:00000e68       ??_C@_1BCK@KGGLGNDM@?$AAE?$AAr?$AAr?$AAo?$AAr?$AA?5?$AAi?$AAn?$AA?5?$AAM?$AAa?$AAc?$AAr?$AAo?$AA?4@ 1002ae68     ConEmuPlugin2800.obj
 0002:00000f98       ??_C@_1OK@MGLNOED@?$AAE?$AAr?$AAr?$AAo?$AAr?$AA?5?$AAi?$AAn?$AA?5?$AAM?$AAa?$AAc?$AAr?$AAo?$AA?4@ 1002af98     ConEmuPlugin2800.obj
 0002:00001084       ??_C@_0BD@OLBABOEK@vector?$DMT?$DO?5too?5long@ 1002b084     ConEmuPlugin2800.obj
 0002:0000109c       ??_7CPluginW995@@6B@       1002b09c     ConEmuPlugin995.obj
 0002:00001130       ??_C@_1BI@IBAPHBGL@?$AAE?$AAx?$AAi?$AAt?$AAF?$AAA?$AAR?$AAW?$AA9?$AA9?$AA5@ 1002b130     ConEmuPlugin995.obj
 0002:00001148       ??_C@_1CG@PKCNLDOL@?$AAE?$AAx?$AAi?$AAt?$AAF?$AAA?$AAR?$AAW?$AA9?$AA9?$AA5?$AA?5?$AA?9?$AA?5?$AAd@ 1002b148     ConEmuPlugin995.obj
 0002:00001170       __xmm@00000000000000000000000000000005 1002b170     ConEmuPlugin995.obj
 0002:00001180       __xmm@00000000000000000000000000000006 1002b180     ConEmuPlugin995.obj
 0002:00001190       __xmm@00000000000000020000000000000007 1002b190     ConEmuPlugin995.obj
 0002:000011a0       __xmm@00000033000000010000000300000003 1002b1a0     ConEmuPlugin995.obj
 0002:000011b0       ??_C@_00CNPNBAHC@@         1002b1b0     ConEmuPluginA.obj
 0002:000011b8       ??_7CPluginAnsi@@6B@       1002b1b8     ConEmuPluginA.obj
 0002:0000124c       ??_C@_1O@BKFLFFPA@?$AAP?$AAl?$AAu?$AAg?$AAi?$AAn@ 1002b24c     ConEmuPluginA.obj
 0002:0000125c       ??_C@_06HGFNEGAJ@ConEmu@   1002b25c     ConEmuPluginA.obj
 0002:00001264       ??_C@_0P@DFGMHJNG@ConEmuGuiMacro@ 1002b264     ConEmuPluginA.obj
 0002:00001278       ??_7CPluginBase@@6B@       1002b278     ConEmuPluginBase.obj
 0002:0000130c       ??_C@_13FPGAJAPJ@?$AA?2@   1002b30c     ConEmuPluginBase.obj
 0002:00001310       ??_C@_1FG@DPPGENBC@?$AAL?$AAo?$AAa?$AAd?$AAA?$AAp?$AAp?$AAV?$AAe?$AAr?$AAs?$AAi?$AAo?$AAn?$AA?4@ 1002b310     ConEmuPluginBase.obj
 0002:00001368       ??_C@_1FK@HILEEFML@?$AAL?$AAo?$AAa?$AAd?$AAA?$AAp?$AAp?$AAV?$AAe?$AAr?$AAs?$AAi?$AAo?$AAn?$AA?4@ 1002b368     ConEmuPluginBase.obj
 0002:000013c8       ??_C@_1GC@BINFLBDC@?$AAL?$AAo?$AAa?$AAd?$AAA?$AAp?$AAp?$AAV?$AAe?$AAr?$AAs?$AAi?$AAo?$AAn?$AA?5@ 1002b3c8     ConEmuPluginBase.obj
 0002:00001430       ??_C@_1GC@CPPHDKJK@?$AAL?$AAo?$AAa?$AAd?$AAA?$AAp?$AAp?$AAV?$AAe?$AAr?$AAs?$AAi?$AAo?$AAn?$AA?4@ 1002b430     ConEmuPluginBase.obj
 0002:00001498       ??_C@_1EG@IINOBDEG@?$AAI?$AAn?$AAv?$AAa?$AAl?$AAi?$AAd?$AA?5?$AAa?$AAs?$AAM?$AAo?$AAd?$AAu?$AAl@ 1002b498     ConEmuPluginBase.obj
 0002:000014e0       ??_C@_1CA@GGFPMHLH@?$AA?6?$AAE?$AAr?$AAr?$AAC?$AAo?$AAd?$AAe?$AA?$DN?$AA0?$AAx?$AA?$CF?$AA0?$AA8?$AAX@ 1002b4e0     ConEmuPluginBase.obj
 0002:00001500       ??_C@_1FG@LNADFPCE@?$AAL?$AAo?$AAa?$AAd?$AAF?$AAa?$AAr?$AAV?$AAe?$AAr?$AAs?$AAi?$AAo?$AAn?$AA?4@ 1002b500     ConEmuPluginBase.obj
 0002:00001558       ??_C@_0BP@OODKCJPP@Wow64DisableWow64FsRedirection@ 1002b558     ConEmuPluginBase.obj
 0002:00001578       ??_C@_0BO@KOCOEJCM@Wow64RevertWow64FsRedirection@ 1002b578     ConEmuPluginBase.obj
 0002:00001598       ??_C@_1BG@NBIHKCLP@?$AAC?$AAo?$AAn?$AAE?$AAm?$AAu?$AA?4?$AAd?$AAl?$AAl@ 1002b598     ConEmuPluginBase.obj
 0002:000015b0       ??_C@_1IA@EGLJCBKE@?$AAS?$AAy?$AAn?$AAc?$AAh?$AAo?$AA?5?$AAe?$AAv?$AAe?$AAn?$AAt?$AAs?$AA?5?$AAa@ 1002b5b0     ConEmuPluginBase.obj
 0002:00001630       ??_C@_1BO@ONHPLONP@?$AAC?$AAo?$AAn?$AAE?$AAm?$AAu?$AA?4?$AAx?$AA6?$AA4?$AA?4?$AAd?$AAl?$AAl@ 1002b630     ConEmuPluginBase.obj
 0002:00001650       ??_C@_13LBAGMAIH@?$AA?6@   1002b650     ConEmuPluginBase.obj
 0002:00001658       ??_C@_1PO@CKPDODMD@?$AAS?$AAe?$AAv?$AAe?$AAr?$AAa?$AAl?$AA?5?$AAi?$AAn?$AAs?$AAt?$AAa?$AAn?$AAc@ 1002b658     ConEmuPluginBase.obj
 0002:00001758       ??_C@_13IMODFHAA@?$AA?9@   1002b758     ConEmuPluginBase.obj
 0002:00001760       ??_C@_1FI@CBKBKFFI@?$AAC?$AAo?$AAn?$AAE?$AAm?$AAu?$AA?5?$AAp?$AAl?$AAu?$AAg?$AAi?$AAn?$AA?5?$AA?$CF@ 1002b760     ConEmuPluginBase.obj
 0002:000017b8       ??_C@_1BG@DILNIJHK@?$AA?$DM?$AAM?$AAs?$AAg?$AAI?$AAD?$AA?$DN?$AA?$CF?$AAi?$AA?$DO@ 1002b7b8     ConEmuPluginBase.obj
 0002:000017d0       ??_C@_1PO@DJAPICLP@?$AA$?$AAi?$AAf?$AA?5?$AA?$CI?$AA?$CB?$AAE?$AAd?$AAi?$AAt?$AAo?$AAr?$AA?5?$AA?$CG?$AA?$CG@ 1002b7d0     ConEmuPluginBase.obj
 0002:000018d0       ??_C@_1EK@LJEKIKEG@?$AA4?$AAb?$AA6?$AA7?$AA5?$AAd?$AA8?$AA0?$AA?9?$AA1?$AAd?$AA4?$AAa?$AA?9?$AA4@ 1002b8d0     ConEmuPluginBase.obj
 0002:00001920       ??_C@_1BBO@FBOKPEBF@?$AA$?$AAi?$AAf?$AA?5?$AA?$CI?$AAA?$AAP?$AAa?$AAn?$AAe?$AAl?$AA?4?$AAP?$AAl?$AAu@ 1002b920     ConEmuPluginBase.obj
 0002:00001a40       ??_C@_1LO@GJMEBJHL@?$AAP?$AAl?$AAu?$AAg?$AAi?$AAn?$AA?4?$AAC?$AAa?$AAl?$AAl?$AA?$CI?$AA?$CC?$AA?$CF?$AAs@ 1002ba40     ConEmuPluginBase.obj
 0002:00001b00       ??_C@_1BA@CMKDJLHG@?$AA?$HN?$AA?5?$AA?9?$AA?5?$AAF?$AAa?$AAr@ 1002bb00     ConEmuPluginBase.obj
 0002:00001b10       ??_C@_17MEJHPLBO@?$AAc?$AAm?$AAd@ 1002bb10     ConEmuPluginBase.obj
 0002:00001b18       ??_C@_1CK@KEKIDABI@?$AAC?$AAo?$AAn?$AAE?$AAm?$AAu?$AA?4?$AAC?$AAr?$AAe?$AAa?$AAt?$AAe?$AAP?$AAr@ 1002bb18     ConEmuPluginBase.obj
 0002:00001b44       ??_C@_1CM@MHCEHIEP@?$AAS?$AAt?$AAa?$AAr?$AAt?$AA?5?$AAc?$AAo?$AAn?$AAs?$AAo?$AAl?$AAe?$AA?5?$AAp@ 1002bb44     ConEmuPluginBase.obj
 0002:00001b70       ??_C@_17BJPFHBEJ@?$AAC?$AA?3?$AA?2@ 1002bb70     ConEmuPluginBase.obj
 0002:00001b78       ??_C@_1BK@NEALEMPH@?$AA?9?$AAn?$AAe?$AAw?$AA_?$AAc?$AAo?$AAn?$AAs?$AAo?$AAl?$AAe@ 1002bb78     ConEmuPluginBase.obj
 0002:00001b94       ??_C@_19KHBBCLDH@?$AAr?$AAu?$AAn?$AA?3@ 1002bb94     ConEmuPluginBase.obj
 0002:00001ba0       ??_C@_13DANNHAJN@?$AAV@    1002bba0     ConEmuPluginBase.obj
 0002:00001ba4       ??_C@_13IABLFADB@?$AAH@    1002bba4     ConEmuPluginBase.obj
 0002:00001ba8       ??_C@_17PBAHFJOA@?$AAY?$AAe?$AAs@ 1002bba8     ConEmuPluginBase.obj
 0002:00001bb0       ??_C@_15BICKNCBF@?$AAN?$AAo@ 1002bbb0     ConEmuPluginBase.obj
 0002:00001bb8       ??_C@_1BPK@LEDPNENO@?$AAC?$AAo?$AAn?$AAE?$AAm?$AAu?$AA?5?$AAC?$AAo?$AAn?$AAs?$AAo?$AAl?$AAe?$AA?5@ 1002bbb8     ConEmuPluginBase.obj
 0002:00001db4       ??_C@_1BM@MGPNCPCE@?$AAC?$AAo?$AAn?$AAE?$AAm?$AAu?$AAB?$AAa?$AAs?$AAe?$AAD?$AAi?$AAr@ 1002bdb4     ConEmuPluginBase.obj
 0002:00001dd0       ??_C@_1BK@PCAIPEAH@?$AA?2?$AAC?$AAo?$AAn?$AAE?$AAm?$AAu?$AAC?$AA?4?$AAe?$AAx?$AAe@ 1002bdd0     ConEmuPluginBase.obj
 0002:00001dec       ??_C@_1CI@DIEJPMOK@?$AA?2?$AAC?$AAo?$AAn?$AAE?$AAm?$AAu?$AA?2?$AAC?$AAo?$AAn?$AAE?$AAm?$AAu?$AAC@ 1002bdec     ConEmuPluginBase.obj
 0002:00001e18       ??_C@_1HE@BLMGMKID@?$AA?$CC?$AA?$CF?$AAs?$AA?$CC?$AA?5?$AA?1?$AAA?$AAT?$AAT?$AAA?$AAC?$AAH?$AA?5?$AA?1?$AAR@ 1002be18     ConEmuPluginBase.obj
 0002:00001e90       ??_C@_1EO@CCMHHKOG@?$AA?$CC?$AA?$CF?$AAs?$AA?$CC?$AA?5?$AA?1?$AAD?$AAE?$AAB?$AAU?$AAG?$AAP?$AAI?$AAD?$AA?$DN@ 1002be90     ConEmuPluginBase.obj
 0002:00001ee0       ??_C@_1BM@JNIGIIH@?$AA?2?$AAC?$AAo?$AAn?$AAE?$AAm?$AAu?$AAH?$AAk?$AA?4?$AAd?$AAl?$AAl@ 1002bee0     ConEmuPluginBase.obj
 0002:00001efc       ??_C@_1BI@OPBAAHCM@?$AAC?$AAo?$AAn?$AAE?$AAm?$AAu?$AAC?$AA?4?$AAe?$AAx?$AAe@ 1002befc     ConEmuPluginBase.obj
 0002:00001f14       ??_C@_1BE@FFPCKGKG@?$AA?1?$AAC?$AAO?$AAN?$AAF?$AAI?$AAR?$AAM?$AA?5@ 1002bf14     ConEmuPluginBase.obj
 0002:00001f28       ??_C@_1DA@LLHOBAFM@?$AA?$CC?$AA?5?$AA?1?$AAA?$AAT?$AAT?$AAA?$AAC?$AAH?$AA?5?$AA?1?$AAF?$AAA?$AAR?$AAP@ 1002bf28     ConEmuPluginBase.obj
 0002:00001f58       ??_C@_1BA@JLPJLFMH@?$AA?1?$AAG?$AAI?$AAD?$AA?$DN?$AA?$CF?$AAi@ 1002bf58     ConEmuPluginBase.obj
 0002:00001f68       ??_C@_1CI@EIEAGHGL@?$AAC?$AAo?$AAn?$AAE?$AAm?$AAu?$AAS?$AAr?$AAv?$AAS?$AAt?$AAa?$AAr?$AAt?$AAe@ 1002bf68     ConEmuPluginBase.obj
 0002:00001f90       ??_C@_0BD@DHBGKFD@RequestLocalServer@ 1002bf90     ConEmuPluginBase.obj
 0002:00001fa4       ??_C@_17LCEPOKH@?$AAC?$AAE?$AAM@ 1002bfa4     ConEmuPluginBase.obj
 0002:00001fac       ??_C@_19LKKOIHJI@?$AA?4?$AAt?$AAm?$AAp@ 1002bfac     ConEmuPluginBase.obj
 0002:00001fb8       ??_C@_1BFI@CAKBMDAF@?$AAW?$AAr?$AAo?$AAn?$AAg?$AA?5?$AAp?$AAl?$AAu?$AAg?$AAi?$AAn?$AA?5?$AAv?$AAe@ 1002bfb8     ConEmuPluginBase.obj
 0002:00002110       ??_C@_1BA@DAHNNHGF@?$AAF?$AAA?$AAR?$AAL?$AAA?$AAN?$AAG@ 1002c110     ConEmuPluginBase.obj
 0002:00002120       ??_C@_1EA@BFFHMENH@?$AAC?$AAo?$AAn?$AAE?$AAm?$AAu?$AAC?$AA?3?$AA?5?$AAC?$AAh?$AAe?$AAc?$AAk?$AAR@ 1002c120     ConEmuPluginBase.obj
 0002:00002160       ??_C@_19LELMJPKF@?$AAe?$AAd?$AAi?$AAt@ 1002c160     ConEmuPluginBase.obj
 0002:0000216c       ??_C@_19IGFHNPAK@?$AAv?$AAi?$AAe?$AAw@ 1002c16c     ConEmuPluginBase.obj
 0002:00002178       ??_C@_1CC@IHNECLD@?$AA?$HL?$AAT?$AAe?$AAm?$AAp?$AAo?$AAr?$AAa?$AAr?$AAy?$AA?5?$AAp?$AAa?$AAn?$AAe@ 1002c178     ConEmuPluginBase.obj
 0002:0000219c       ??_C@_1CO@ELKEEMPJ@?$AAC?$AAo?$AAn?$AAE?$AAm?$AAu?$AAF?$AAi?$AAl?$AAe?$AAM?$AAa?$AAp?$AAp?$AAi@ 1002c19c     ConEmuPluginBase.obj
 0002:000021cc       ??_C@_1BI@ENONIIIC@?$AAF?$AAa?$AAr?$AA?5?$AAM?$AAa?$AAn?$AAa?$AAg?$AAe?$AAr@ 1002c1cc     ConEmuPluginBase.obj
 0002:000021e4       ??_C@_19HBICLLML@?$AAF?$AAA?$AAR?$AA2@ 1002c1e4     ConEmuPluginBase.obj
 0002:000021f0       ??_C@_17NACPPFBM@?$AAF?$AAA?$AAR@ 1002c1f0     ConEmuPluginBase.obj
 0002:000021f8       ??_C@_1BA@NIFIBMHP@?$AAF?$AAA?$AAR?$AAU?$AAS?$AAE?$AAR@ 1002c1f8     ConEmuPluginBase.obj
 0002:00002208       ??_C@_1BA@FJJFMPFO@?$AA?2?$AAU?$AAs?$AAe?$AAr?$AAs?$AA?2@ 1002c208     ConEmuPluginBase.obj
 0002:00002218       ??_C@_1BE@FLHKCJKF@?$AAS?$AAo?$AAf?$AAt?$AAw?$AAa?$AAr?$AAe?$AA?2@ 1002c218     ConEmuPluginBase.obj
 0002:0000222c       ??_C@_1CG@HOMCPCN@?$AA?2?$AAP?$AAl?$AAu?$AAg?$AAi?$AAn?$AAs?$AA?2?$AAP?$AAa?$AAn?$AAe?$AAl?$AAT@ 1002c22c     ConEmuPluginBase.obj
 0002:00002254       ??_C@_1BK@NFAPLMGI@?$AAS?$AAe?$AAp?$AAa?$AAr?$AAa?$AAt?$AAe?$AAT?$AAa?$AAb?$AAs@ 1002c254     ConEmuPluginBase.obj
 0002:00002270       ??_C@_1BI@GILFJGEK@?$AAB?$AAu?$AAt?$AAt?$AAo?$AAn?$AAC?$AAo?$AAl?$AAo?$AAr@ 1002c270     ConEmuPluginBase.obj
 0002:00002288       ??_C@_1DE@DBNFJOHM@?$AAC?$AAo?$AAn?$AAs?$AAo?$AAl?$AAe?$AA2?$AA_?$AAc?$AAo?$AAn?$AAs?$AAo?$AAl@ 1002c288     ConEmuPluginBase.obj
 0002:000022bc       ??_C@_1CK@EANOIBDN@?$AAC?$AAo?$AAn?$AAE?$AAm?$AAu?$AAC?$AAt?$AAr?$AAl?$AAP?$AAr?$AAe?$AAs?$AAs@ 1002c2bc     ConEmuPluginBase.obj
 0002:000022e8       ??_C@_1CM@JBFABNEO@?$AAC?$AAo?$AAn?$AAE?$AAm?$AAu?$AAS?$AAh?$AAi?$AAf?$AAt?$AAP?$AAr?$AAe?$AAs@ 1002c2e8     ConEmuPluginBase.obj
 0002:00002314       ??_C@_1CE@DLFCKCF@?$AAC?$AAo?$AAn?$AAE?$AAm?$AAu?$AAT?$AAa?$AAb?$AAs?$AAC?$AAh?$AAa?$AAn?$AAg@ 1002c314     ConEmuPluginBase.obj
 0002:00002338       ??_C@_0BG@HFNJBNKJ@Plugin?3?3MonitorThread@ 1002c338     ConEmuPluginBase.obj
 0002:00002350       ??_C@_1BG@OILDLIOJ@?$AAu?$AAs?$AAe?$AAr?$AA3?$AA2?$AA?4?$AAd?$AAl?$AAl@ 1002c350     ConEmuPluginBase.obj
 0002:00002368       ??_C@_0BJ@GFJHAGKD@AllowSetForegroundWindow@ 1002c368     ConEmuPluginBase.obj
 0002:00002384       ??_C@_1BK@HOIBFEDE@?$AAC?$AAo?$AAn?$AAE?$AAm?$AAu?$AAC?$AAD?$AA?4?$AAd?$AAl?$AAl@ 1002c384     ConEmuPluginBase.obj
 0002:000023a0       ??_C@_1HO@CHHOFADM@?$AAC?$AAo?$AAn?$AAs?$AAo?$AAl?$AAe?$AA?5?$AAw?$AAa?$AAs?$AA?5?$AAa?$AAb?$AAn@ 1002c3a0     ConEmuPluginBase.obj
 0002:00002420       ??_C@_1NC@MNABBPPB@?$AA$?$AAi?$AAf?$AA?5?$AA?$CI?$AAS?$AAe?$AAa?$AAr?$AAc?$AAh?$AA?$CJ?$AA?5?$AAE?$AAs@ 1002c420     ConEmuPluginBase.obj
 0002:000024f8       ??_C@_1MK@EDFFIGHJ@?$AA$?$AAi?$AAf?$AA?5?$AA?$CI?$AAS?$AAe?$AAa?$AAr?$AAc?$AAh?$AA?$CJ?$AA?5?$AAE?$AAs@ 1002c4f8     ConEmuPluginBase.obj
 0002:000025c8       ??_C@_1BBA@LKLGFJB@?$AAi?$AAf?$AA?5?$AAA?$AAr?$AAe?$AAa?$AA?4?$AAS?$AAe?$AAa?$AAr?$AAc?$AAh?$AA?5@ 1002c5c8     ConEmuPluginBase.obj
 0002:000026d8       ??_C@_0P@LNKHCDND@OnConEmuLoaded@ 1002c6d8     ConEmuPluginBase.obj
 0002:000026e8       ??_C@_0BA@IDLLFCLM@SetStartupInfoW@ 1002c6e8     ConEmuPluginBase.obj
 0002:000026f8       ??_C@_0P@JNNILPEA@SetStartupInfo@ 1002c6f8     ConEmuPluginBase.obj
 0002:00002708       ??_C@_0EB@OIEOANBD@c?3?2users?2conemu?2src?2conemu?2src?2@ 1002c708     ConEmuPluginBase.obj
 0002:0000274c       ??_C@_1BC@GNOFNJJG@?$AAM?$AAs?$AAL?$AAC?$AAl?$AAi?$AAc?$AAk@ 1002c74c     ConEmuPluginBase.obj
 0002:00002760       ??_C@_1CC@DFJIOIPL@?$AAK?$AAe?$AAy?$AAs?$AA?$CI?$AA?8?$AAM?$AAs?$AAL?$AAC?$AAl?$AAi?$AAc?$AAk?$AA?8@ 1002c760     ConEmuPluginBase.obj
 0002:00002784       ??_C@_1CM@IICFOBPI@?$AA$?$AAi?$AAf?$AA?5?$AA?$CI?$AAS?$AAe?$AAa?$AAr?$AAc?$AAh?$AA?$CJ?$AA?5?$AAE?$AAs@ 1002c784     ConEmuPluginBase.obj
 0002:000027b0       ??_C@_1DO@LEFBPADB@?$AAi?$AAf?$AA?5?$AAA?$AAr?$AAe?$AAa?$AA?4?$AAS?$AAe?$AAa?$AAr?$AAc?$AAh?$AA?5@ 1002c7b0     ConEmuPluginBase.obj
 0002:000027f0       ??_C@_1CCO@OMFPMNEO@?$AA?$EA?$AAi?$AAf?$AA?5?$AAn?$AAo?$AAt?$AA?5?$AAC?$AAm?$AAd?$AAL?$AAi?$AAn?$AAe@ 1002c7f0     ConEmuPluginBase.obj
 0002:00002a20       ??_C@_1CAM@BBLMGMFK@?$AA?$EA?$AA$?$AAI?$AAf?$AA?5?$AA?$CI?$AA?$CB?$AAC?$AAm?$AAd?$AAL?$AAi?$AAn?$AAe?$AA?4@ 1002ca20     ConEmuPluginBase.obj
 0002:00002c2c       ??_C@_1CG@OILEFJJN@?$AAC?$AAo?$AAn?$AAE?$AAm?$AAu?$AAT?$AAh?$AA?3?$AA?3?$AAS?$AAe?$AAt?$AAt?$AAi@ 1002cc2c     ConEmuPluginBase.obj
 0002:00002c54       ??_C@_1CI@MBMLEGFG@?$AAC?$AAo?$AAn?$AAE?$AAm?$AAu?$AAF?$AAa?$AAr?$AAM?$AAa?$AAp?$AAp?$AAi?$AAn@ 1002cc54     ConEmuPluginBase.obj
 0002:00002c7c       ??_C@_1CO@INAJPHBH@?$AAC?$AAo?$AAn?$AAE?$AAm?$AAu?$AAF?$AAa?$AAr?$AAA?$AAl?$AAi?$AAv?$AAe?$AAE@ 1002cc7c     ConEmuPluginBase.obj
 0002:00002cac       ??_C@_1BE@GLIABAAK@?$AA?$EA?$AA?$FO?$AA$?$AAT?$AAE?$AAX?$AAT?$AA?5?$AA?$CC@ 1002ccac     ConEmuPluginBase.obj
 0002:00002cc0       ??_C@_1BE@CPLNCDLK@?$AA?$EA?$AA?$FO?$AAp?$AAr?$AAi?$AAn?$AAt?$AA?$CI?$AA?$CC@ 1002ccc0     ConEmuPluginBase.obj
 0002:00002cd4       ??_C@_13NEIAEHFG@?$AA?$CC@ 1002ccd4     ConEmuPluginBase.obj
 0002:00002cd8       ??_C@_15NJGDBKNF@?$AA?$CC?$AA?$CJ@ 1002ccd8     ConEmuPluginBase.obj
 0002:00002ce0       ??_C@_1GK@OGACKIKJ@?$AAI?$AAn?$AAt?$AAe?$AAr?$AAn?$AAa?$AAl?$AA?5?$AAe?$AAr?$AAr?$AAo?$AAr?$AA?4@ 1002cce0     ConEmuPluginBase.obj
 0002:00002d4c       ??_C@_1O@KBENBEFG@?$AAc?$AAr?$AAe?$AAa?$AAt?$AAe@ 1002cd4c     ConEmuPluginBase.obj
 0002:00002d5c       ??_C@_19BDAJEHDN@?$AAo?$AAp?$AAe?$AAn@ 1002cd5c     ConEmuPluginBase.obj
 0002:00002d68       ??_C@_1GM@LGOLGABE@?$AAC?$AAa?$AAn?$AA?8?$AAt?$AA?5?$AA?$CF?$AAs?$AA?5?$AAc?$AAo?$AAn?$AAs?$AAo?$AAl@ 1002cd68     ConEmuPluginBase.obj
 0002:00002dd4       ??_C@_1BE@HADLJAO@?$AAR?$AAe?$AAa?$AAd?$AAW?$AAr?$AAi?$AAt?$AAe@ 1002cdd4     ConEmuPluginBase.obj
 0002:00002de8       ??_C@_19EOHDNDII@?$AAR?$AAe?$AAa?$AAd@ 1002cde8     ConEmuPluginBase.obj
 0002:00002df8       ??_C@_1FO@BGAPBIGG@?$AAC?$AAa?$AAn?$AA?8?$AAt?$AA?5?$AAm?$AAa?$AAp?$AA?5?$AAc?$AAo?$AAn?$AAs?$AAo@ 1002cdf8     ConEmuPluginBase.obj
 0002:00002e58       ??_C@_1II@OIMPCJAG@?$AAC?$AAa?$AAn?$AA?8?$AAt?$AA?5?$AAm?$AAa?$AAp?$AA?5?$AAc?$AAo?$AAn?$AAs?$AAo@ 1002ce58     ConEmuPluginBase.obj
 0002:00002ee0       ??_C@_1JM@IDPBKCIF@?$AAC?$AAa?$AAn?$AA?8?$AAt?$AA?5?$AAm?$AAa?$AAp?$AA?5?$AAc?$AAo?$AAn?$AAs?$AAo@ 1002cee0     ConEmuPluginBase.obj
 0002:00002f7c       ??_C@_1DA@OEIAGFIH@?$AAC?$AAo?$AAn?$AAE?$AAm?$AAu?$AA?$AA?$AAF?$AAa?$AAr?$AA?5?$AAB?$AAa?$AAc?$AAk@ 1002cf7c     PluginBackground.obj
 0002:00002fac       ??_C@_1DA@BMIFHIMF@?$AAC?$AAo?$AAn?$AAE?$AAm?$AAu?$AAV?$AAi?$AAe?$AAw?$AAS?$AAe?$AAt?$AAM?$AAa@ 1002cfac     PluginBackground.obj
 0002:00002fe0       ??_C@_1GA@OEMDGAOF@?$AAI?$AAn?$AAt?$AAe?$AAr?$AAn?$AAa?$AAl?$AA?5?$AAe?$AAr?$AAr?$AAo?$AAr?$AA?4@ 1002cfe0     PluginBackground.obj
 0002:00003040       ??_C@_13JOFGPIOO@?$AA?4@   1002d040     PluginSrv.obj
 0002:00003044       ??_C@_1DC@PFNEMDKA@?$AA?2?$AA?2?$AA?$CF?$AAs?$AA?2?$AAp?$AAi?$AAp?$AAe?$AA?2?$AAC?$AAo?$AAn?$AAE?$AAm@ 1002d044     PluginSrv.obj
 0002:00003078       ??_C@_19HGGOABND@?$AA?$CF?$AA0?$AA8?$AAx@ 1002d078     PluginSrv.obj
 0002:00003088       ??_C@_1FM@LPOPCJG@?$AAS?$AAt?$AAa?$AAr?$AAt?$AAP?$AAi?$AAp?$AAe?$AAS?$AAe?$AAr?$AAv?$AAe?$AAr@ 1002d088     PluginSrv.obj
 0002:000030e4       ??_C@_0DD@BMJOAIEF@c?3?2users?2conemu?2src?2conemu?2src?2@ 1002d0e4     PluginSrv.obj
 0002:00003118       ??_C@_1GC@MCEAIMAO@?$AAS?$AAt?$AAa?$AAr?$AAt?$AAP?$AAi?$AAp?$AAe?$AAI?$AAn?$AAs?$AAt?$AAa?$AAn@ 1002d118     PluginSrv.obj
 0002:0000317c       ??_C@_0BB@MDGFLNIP@PipeServerThread@ 1002d17c     PluginSrv.obj
 0002:00003190       ??_C@_1GG@PAGGIEEF@?$AAS?$AAt?$AAa?$AAr?$AAt?$AAP?$AAi?$AAp?$AAe?$AAI?$AAn?$AAs?$AAt?$AAa?$AAn@ 1002d190     PluginSrv.obj
 0002:000031f8       ??_C@_1M@KGONCMNM@?$AA?$CF?$AAs?$AA?6?$AA?$CF?$AAs@ 1002d1f8     PluginSrv.obj
 0002:00003208       ??_C@_1EA@JFONKNJK@?$AAP?$AAi?$AAp?$AAe?$AAS?$AAe?$AAr?$AAv?$AAe?$AAr?$AAE?$AAr?$AAr?$AAo?$AAr@ 1002d208     PluginSrv.obj
 0002:00003248       ??_C@_1FG@DJFPBHJF@?$AAP?$AAi?$AAp?$AAe?$AAS?$AAe?$AAr?$AAv?$AAe?$AAr?$AAE?$AAr?$AAr?$AAo?$AAr@ 1002d248     PluginSrv.obj
 0002:000032a0       ??_C@_1GK@OLPCHMBE@?$AAP?$AAi?$AAp?$AAe?$AAS?$AAe?$AAr?$AAv?$AAe?$AAr?$AAT?$AAh?$AAr?$AAe?$AAa@ 1002d2a0     PluginSrv.obj
 0002:00003310       ??_C@_1HA@EGHGJDPG@?$AAP?$AAi?$AAp?$AAe?$AAS?$AAe?$AAr?$AAv?$AAe?$AAr?$AAT?$AAh?$AAr?$AAe?$AAa@ 1002d310     PluginSrv.obj
 0002:00003380       ??_C@_1HG@LHMKOAMG@?$AAP?$AAi?$AAp?$AAe?$AAS?$AAe?$AAr?$AAv?$AAe?$AAr?$AAT?$AAh?$AAr?$AAe?$AAa@ 1002d380     PluginSrv.obj
 0002:000033f8       ??_C@_1EM@INHGIPLC@?$AA?$CF?$AAs?$AA?4?$AA?$CF?$AAu?$AA?3?$AA?5?$AAC?$AAr?$AAe?$AAa?$AAt?$AAe?$AAF?$AAi@ 1002d3f8     common-kernel32:ConEmuCheck.obj
 0002:00003444       ??_C@_1DA@LCPELGGN@?$AAC?$AAo?$AAn?$AAE?$AAm?$AAu?$AAG?$AAu?$AAi?$AAI?$AAn?$AAf?$AAo?$AAM?$AAa@ 1002d444     common-kernel32:ConEmuCheck.obj
 0002:00003474       ??_C@_1DC@MJLCOFMA@?$AA?2?$AA?2?$AA?$CF?$AAs?$AA?2?$AAp?$AAi?$AAp?$AAe?$AA?2?$AAC?$AAo?$AAn?$AAE?$AAm@ 1002d474     common-kernel32:ConEmuCheck.obj
 0002:000034a8       ??_C@_1CM@OPJKOFLA@?$AA?2?$AA?2?$AA?$CF?$AAs?$AA?2?$AAp?$AAi?$AAp?$AAe?$AA?2?$AAC?$AAo?$AAn?$AAE?$AAm@ 1002d4a8     common-kernel32:ConEmuCheck.obj
 0002:000034d4       ??_C@_1CG@FFFCCLIF@?$AAC?$AAo?$AAn?$AAs?$AAo?$AAl?$AAe?$AAW?$AAi?$AAn?$AAd?$AAo?$AAw?$AAC?$AAl@ 1002d4d4     common-kernel32:ConEmuCheck.obj
 0002:000034fc       ??_C@_1CC@LMJBOHFL@?$AAW?$AAi?$AAn?$AAe?$AAC?$AAo?$AAn?$AAs?$AAo?$AAl?$AAe?$AAC?$AAl?$AAa?$AAs@ 1002d4fc     common-kernel32:ConEmuCheck.obj
 0002:00003520       ??_C@_1CI@LOFINFNK@?$AAP?$AAs?$AAe?$AAu?$AAd?$AAo?$AAC?$AAo?$AAn?$AAs?$AAo?$AAl?$AAe?$AAW?$AAi@ 1002d520     common-kernel32:ConEmuCheck.obj
 0002:00003548       ??_C@_1BE@GIIMEDBE@?$AAC?$AAo?$AAn?$AAE?$AAm?$AAu?$AAP?$AAI?$AAD@ 1002d548     common-kernel32:ConEmuCheck.obj
 0002:0000355c       ??_C@_1CA@COEOBCOP@?$AAC?$AAo?$AAn?$AAE?$AAm?$AAu?$AAS?$AAe?$AAr?$AAv?$AAe?$AAr?$AAP?$AAI?$AAD@ 1002d55c     common-kernel32:ConEmuCheck.obj
 0002:0000357c       ??_C@_1BC@LMIJMNIA@?$AA0?$AA0?$AA0?$AA0?$AA0?$AA0?$AA0?$AA0@ 1002d57c     common-kernel32:MStrSafe.obj
 0002:00003590       ??_C@_19FBKLJMA@?$AA0?$AA0?$AA0?$AA0@ 1002d590     common-kernel32:MStrSafe.obj
 0002:00003740       ??_C@_1BC@DDAIKLEO@?$AAA?$AAC?$AAT?$AAI?$AAV?$AAA?$AAT?$AAE@ 1002d740     common-kernel32:CmdLine.obj
 0002:00003754       ??_C@_1M@IAAEIFGC@?$AAA?$AAL?$AAI?$AAA?$AAS@ 1002d754     common-kernel32:CmdLine.obj
 0002:00003760       ??_C@_1M@NBMJEEAL@?$AAA?$AAS?$AAS?$AAO?$AAC@ 1002d760     common-kernel32:CmdLine.obj
 0002:0000376c       ??_C@_1O@HDDJOIFH@?$AAA?$AAT?$AAT?$AAR?$AAI?$AAB@ 1002d76c     common-kernel32:CmdLine.obj
 0002:0000377c       ??_C@_19HDNPBIOA@?$AAB?$AAE?$AAE?$AAP@ 1002d77c     common-kernel32:CmdLine.obj
 0002:00003788       ??_C@_1M@MPPIMPG@?$AAB?$AAR?$AAE?$AAA?$AAK@ 1002d788     common-kernel32:CmdLine.obj
 0002:00003794       ??_C@_19CFJHMEML@?$AAC?$AAA?$AAL?$AAL@ 1002d794     common-kernel32:CmdLine.obj
 0002:000037a0       ??_C@_17LNHAGCII@?$AAC?$AAD?$AAD@ 1002d7a0     common-kernel32:CmdLine.obj
 0002:000037a8       ??_C@_19NBEBIFBC@?$AAC?$AAH?$AAC?$AAP@ 1002d7a8     common-kernel32:CmdLine.obj
 0002:000037b4       ??_C@_1M@ENFOKIIP@?$AAC?$AAO?$AAL?$AAO?$AAR@ 1002d7b4     common-kernel32:CmdLine.obj
 0002:000037c0       ??_C@_19CDMOLDLE@?$AAC?$AAO?$AAP?$AAY@ 1002d7c0     common-kernel32:CmdLine.obj
 0002:000037cc       ??_C@_19FFMGBAMO@?$AAD?$AAA?$AAT?$AAE@ 1002d7cc     common-kernel32:CmdLine.obj
 0002:000037d8       ??_C@_1BA@KDAEEGIF@?$AAD?$AAE?$AAF?$AAA?$AAU?$AAL?$AAT@ 1002d7d8     common-kernel32:CmdLine.obj
 0002:000037e8       ??_C@_17LJFNJANL@?$AAD?$AAE?$AAL@ 1002d7e8     common-kernel32:CmdLine.obj
 0002:000037f0       ??_C@_1M@MDOPDHLI@?$AAD?$AAE?$AAL?$AAA?$AAY@ 1002d7f0     common-kernel32:CmdLine.obj
 0002:000037fc       ??_C@_1BC@EBILLKF@?$AAD?$AAE?$AAS?$AAC?$AAR?$AAI?$AAB?$AAE@ 1002d7fc     common-kernel32:CmdLine.obj
 0002:00003810       ??_C@_1O@FMDFNCGD@?$AAD?$AAE?$AAT?$AAA?$AAC?$AAH@ 1002d810     common-kernel32:CmdLine.obj
 0002:00003820       ??_C@_17HOFJHAAM@?$AAD?$AAI?$AAR@ 1002d820     common-kernel32:CmdLine.obj
 0002:00003828       ??_C@_1BG@NDOBACJO@?$AAD?$AAI?$AAR?$AAH?$AAI?$AAS?$AAT?$AAO?$AAR?$AAY@ 1002d828     common-kernel32:CmdLine.obj
 0002:00003840       ??_C@_19CFAIOACF@?$AAD?$AAI?$AAR?$AAS@ 1002d840     common-kernel32:CmdLine.obj
 0002:0000384c       ??_C@_1BA@EEGPDNCN@?$AAD?$AAR?$AAA?$AAW?$AAB?$AAO?$AAX@ 1002d84c     common-kernel32:CmdLine.obj
 0002:0000385c       ??_C@_1BE@MFLGFCAF@?$AAD?$AAR?$AAA?$AAW?$AAH?$AAL?$AAI?$AAN?$AAE@ 1002d85c     common-kernel32:CmdLine.obj
 0002:00003870       ??_C@_1BE@CAJPGMOH@?$AAD?$AAR?$AAA?$AAW?$AAV?$AAL?$AAI?$AAN?$AAE@ 1002d870     common-kernel32:CmdLine.obj
 0002:00003884       ??_C@_19ODIIFOAJ@?$AAE?$AAC?$AAH?$AAO@ 1002d884     common-kernel32:CmdLine.obj
 0002:00003890       ??_C@_1BA@GCFKHCBD@?$AAE?$AAC?$AAH?$AAO?$AAE?$AAR?$AAR@ 1002d890     common-kernel32:CmdLine.obj
 0002:000038a0       ??_C@_1M@IEKJIEHO@?$AAE?$AAC?$AAH?$AAO?$AAS@ 1002d8a0     common-kernel32:CmdLine.obj
 0002:000038ac       ??_C@_1BC@OCCODNGM@?$AAE?$AAC?$AAH?$AAO?$AAS?$AAE?$AAR?$AAR@ 1002d8ac     common-kernel32:CmdLine.obj
 0002:000038c0       ??_C@_1BC@HIHGAEJA@?$AAE?$AAN?$AAD?$AAL?$AAO?$AAC?$AAA?$AAL@ 1002d8c0     common-kernel32:CmdLine.obj
 0002:000038d4       ??_C@_1M@FCOMLPCA@?$AAE?$AAR?$AAA?$AAS?$AAE@ 1002d8d4     common-kernel32:CmdLine.obj
 0002:000038e0       ??_C@_1BG@GOAOIOCC@?$AAE?$AAR?$AAR?$AAO?$AAR?$AAL?$AAE?$AAV?$AAE?$AAL@ 1002d8e0     common-kernel32:CmdLine.obj
 0002:000038f8       ??_C@_19KELFKMGC@?$AAE?$AAS?$AAE?$AAT@ 1002d8f8     common-kernel32:CmdLine.obj
 0002:00003904       ??_C@_1O@INDINDHO@?$AAE?$AAX?$AAC?$AAE?$AAP?$AAT@ 1002d904     common-kernel32:CmdLine.obj
 0002:00003914       ??_C@_1M@HOIOAEKG@?$AAE?$AAX?$AAI?$AAS?$AAT@ 1002d914     common-kernel32:CmdLine.obj
 0002:00003920       ??_C@_19IOBNHAEP@?$AAE?$AAX?$AAI?$AAT@ 1002d920     common-kernel32:CmdLine.obj
 0002:0000392c       ??_C@_1M@NPCGCBNH@?$AAF?$AAF?$AAI?$AAN?$AAD@ 1002d92c     common-kernel32:CmdLine.obj
 0002:00003938       ??_C@_17OKCFJEGM@?$AAF?$AAO?$AAR@ 1002d938     common-kernel32:CmdLine.obj
 0002:00003940       ??_C@_19GLINCHAF@?$AAF?$AAR?$AAE?$AAE@ 1002d940     common-kernel32:CmdLine.obj
 0002:0000394c       ??_C@_1M@BKGEFKH@?$AAF?$AAT?$AAY?$AAP?$AAE@ 1002d94c     common-kernel32:CmdLine.obj
 0002:00003958       ??_C@_1O@COJGIGIJ@?$AAG?$AAL?$AAO?$AAB?$AAA?$AAL@ 1002d958     common-kernel32:CmdLine.obj
 0002:00003968       ??_C@_19MEMGFJJL@?$AAG?$AAO?$AAT?$AAO@ 1002d968     common-kernel32:CmdLine.obj
 0002:00003974       ??_C@_19EDPCNJOB@?$AAH?$AAE?$AAL?$AAP@ 1002d974     common-kernel32:CmdLine.obj
 0002:00003980       ??_C@_1BA@FNCCECPF@?$AAH?$AAI?$AAS?$AAT?$AAO?$AAR?$AAY@ 1002d980     common-kernel32:CmdLine.obj
 0002:00003990       ??_C@_15NIBFACBJ@?$AAI?$AAF@ 1002d990     common-kernel32:CmdLine.obj
 0002:00003998       ??_C@_17MLHBBHMA@?$AAI?$AAF?$AAF@ 1002d998     common-kernel32:CmdLine.obj
 0002:000039a0       ??_C@_1M@DEPEIGKO@?$AAI?$AAN?$AAK?$AAE?$AAY@ 1002d9a0     common-kernel32:CmdLine.obj
 0002:000039ac       ??_C@_1M@OEJJHBJF@?$AAI?$AAN?$AAP?$AAU?$AAT@ 1002d9ac     common-kernel32:CmdLine.obj
 0002:000039b8       ??_C@_1M@KBMHGKGK@?$AAK?$AAE?$AAY?$AAB?$AAD@ 1002d9b8     common-kernel32:CmdLine.obj
 0002:000039c4       ??_C@_19OJGLFOCE@?$AAK?$AAE?$AAY?$AAS@ 1002d9c4     common-kernel32:CmdLine.obj
 0002:000039d0       ??_C@_1M@CFNEBGLF@?$AAL?$AAA?$AAB?$AAE?$AAL@ 1002d9d0     common-kernel32:CmdLine.obj
 0002:000039dc       ??_C@_19GAFEELMN@?$AAL?$AAI?$AAS?$AAT@ 1002d9dc     common-kernel32:CmdLine.obj
 0002:000039e8       ??_C@_17BMCCCPAJ@?$AAL?$AAO?$AAG@ 1002d9e8     common-kernel32:CmdLine.obj
 0002:000039f0       ??_C@_15OJINIIIE@?$AAM?$AAD@ 1002d9f0     common-kernel32:CmdLine.obj
 0002:000039f8       ??_C@_1O@BMHNHEPH@?$AAM?$AAE?$AAM?$AAO?$AAR?$AAY@ 1002d9f8     common-kernel32:CmdLine.obj
 0002:00003a08       ??_C@_1M@KIDICDED@?$AAM?$AAK?$AAD?$AAI?$AAR@ 1002da08     common-kernel32:CmdLine.obj
 0002:00003a14       ??_C@_19PBJBIIDN@?$AAM?$AAO?$AAV?$AAE@ 1002da14     common-kernel32:CmdLine.obj
 0002:00003a20       ??_C@_1O@HEILMPND@?$AAM?$AAS?$AAG?$AAB?$AAO?$AAX@ 1002da20     common-kernel32:CmdLine.obj
 0002:00003a30       ??_C@_17BMKLNAAF@?$AAN?$AAO?$AAT@ 1002da30     common-kernel32:CmdLine.obj
 0002:00003a38       ??_C@_15MLPIMJOL@?$AAO?$AAN@ 1002da38     common-kernel32:CmdLine.obj
 0002:00003a40       ??_C@_1O@GPKPHHA@?$AAO?$AAP?$AAT?$AAI?$AAO?$AAN@ 1002da40     common-kernel32:CmdLine.obj
 0002:00003a50       ??_C@_19IJOJOJIB@?$AAP?$AAA?$AAT?$AAH@ 1002da50     common-kernel32:CmdLine.obj
 0002:00003a5c       ??_C@_1M@PCDPCAPG@?$AAP?$AAA?$AAU?$AAS?$AAE@ 1002da5c     common-kernel32:CmdLine.obj
 0002:00003a68       ??_C@_19ENCEAGBN@?$AAP?$AAO?$AAP?$AAD@ 1002da68     common-kernel32:CmdLine.obj
 0002:00003a74       ??_C@_1O@EMMHJCCF@?$AAP?$AAR?$AAO?$AAM?$AAP?$AAT@ 1002da74     common-kernel32:CmdLine.obj
 0002:00003a84       ??_C@_1M@MLLIJNNO@?$AAP?$AAU?$AAS?$AAH?$AAD@ 1002da84     common-kernel32:CmdLine.obj
 0002:00003a90       ??_C@_15BLANDIMK@?$AAR?$AAD@ 1002da90     common-kernel32:CmdLine.obj
 0002:00003a98       ??_C@_1O@JAHCGOHI@?$AAR?$AAE?$AAB?$AAO?$AAO?$AAT@ 1002da98     common-kernel32:CmdLine.obj
 0002:00003aa8       ??_C@_17KJIAGAPM@?$AAR?$AAE?$AAN@ 1002daa8     common-kernel32:CmdLine.obj
 0002:00003ab0       ??_C@_1O@DKKJANDF@?$AAR?$AAE?$AAN?$AAA?$AAM?$AAE@ 1002dab0     common-kernel32:CmdLine.obj
 0002:00003ac0       ??_C@_1M@NLKKCBIJ@?$AAR?$AAM?$AAD?$AAI?$AAR@ 1002dac0     common-kernel32:CmdLine.obj
 0002:00003acc       ??_C@_1O@MKBBCDFD@?$AAS?$AAC?$AAR?$AAE?$AAE?$AAN@ 1002dacc     common-kernel32:CmdLine.obj
 0002:00003adc       ??_C@_1O@MCDIKJHM@?$AAS?$AAC?$AAR?$AAP?$AAU?$AAT@ 1002dadc     common-kernel32:CmdLine.obj
 0002:00003aec       ??_C@_1O@PFLGGDAO@?$AAS?$AAE?$AAL?$AAE?$AAC?$AAT@ 1002daec     common-kernel32:CmdLine.obj
 0002:00003afc       ??_C@_17FKIONHJJ@?$AAS?$AAE?$AAT@ 1002dafc     common-kernel32:CmdLine.obj
 0002:00003b04       ??_C@_1O@OHHAFKEO@?$AAS?$AAE?$AAT?$AAD?$AAO?$AAS@ 1002db04     common-kernel32:CmdLine.obj
 0002:00003b14       ??_C@_1BC@GEMAPDNM@?$AAS?$AAE?$AAT?$AAL?$AAO?$AAC?$AAA?$AAL@ 1002db14     common-kernel32:CmdLine.obj
 0002:00003b28       ??_C@_1M@OJBOFOHK@?$AAS?$AAH?$AAI?$AAF?$AAT@ 1002db28     common-kernel32:CmdLine.obj
 0002:00003b34       ??_C@_1BC@HJGKBLNP@?$AAS?$AAH?$AAR?$AAA?$AAL?$AAI?$AAA?$AAS@ 1002db34     common-kernel32:CmdLine.obj
 0002:00003b48       ??_C@_1M@JPCOGECE@?$AAS?$AAT?$AAA?$AAR?$AAT@ 1002db48     common-kernel32:CmdLine.obj
 0002:00003b54       ??_C@_17LIOOOOHK@?$AAT?$AAE?$AAE@ 1002db54     common-kernel32:CmdLine.obj
 0002:00003b5c       ??_C@_19IFFENJMA@?$AAT?$AAI?$AAM?$AAE@ 1002db5c     common-kernel32:CmdLine.obj
 0002:00003b68       ??_C@_1M@FFPBPPED@?$AAT?$AAI?$AAM?$AAE?$AAR@ 1002db68     common-kernel32:CmdLine.obj
 0002:00003b74       ??_C@_1M@NMMEOLKN@?$AAT?$AAI?$AAT?$AAL?$AAE@ 1002db74     common-kernel32:CmdLine.obj
 0002:00003b80       ??_C@_1M@BOEMPBHM@?$AAT?$AAO?$AAU?$AAC?$AAH@ 1002db80     common-kernel32:CmdLine.obj
 0002:00003b8c       ??_C@_19EINGHGNA@?$AAT?$AAR?$AAE?$AAE@ 1002db8c     common-kernel32:CmdLine.obj
 0002:00003b98       ??_C@_1BC@DJLLAHAG@?$AAT?$AAR?$AAU?$AAE?$AAN?$AAA?$AAM?$AAE@ 1002db98     common-kernel32:CmdLine.obj
 0002:00003bac       ??_C@_19EGKHPJKO@?$AAT?$AAY?$AAP?$AAE@ 1002dbac     common-kernel32:CmdLine.obj
 0002:00003bb8       ??_C@_1BA@CPEILPFL@?$AAU?$AAN?$AAA?$AAL?$AAI?$AAA?$AAS@ 1002dbb8     common-kernel32:CmdLine.obj
 0002:00003bc8       ??_C@_1M@GANCNEJA@?$AAU?$AAN?$AAS?$AAE?$AAT@ 1002dbc8     common-kernel32:CmdLine.obj
 0002:00003bd4       ??_C@_17DHAFIGCB@?$AAV?$AAE?$AAR@ 1002dbd4     common-kernel32:CmdLine.obj
 0002:00003bdc       ??_C@_1O@LNHKOABJ@?$AAV?$AAE?$AAR?$AAI?$AAF?$AAY@ 1002dbdc     common-kernel32:CmdLine.obj
 0002:00003bec       ??_C@_17CGFIIFOL@?$AAV?$AAO?$AAL@ 1002dbec     common-kernel32:CmdLine.obj
 0002:00003bf4       ??_C@_1BA@GEPADKGO@?$AAV?$AAS?$AAC?$AAR?$AAP?$AAU?$AAT@ 1002dbf4     common-kernel32:CmdLine.obj
 0002:00003c04       ??_C@_1O@EEDIBOKC@?$AAW?$AAI?$AAN?$AAD?$AAO?$AAW@ 1002dc04     common-kernel32:CmdLine.obj
 0002:00003c14       ??_C@_13GILOGAML@?$AAY@    1002dc14     common-kernel32:CmdLine.obj
 0002:00003c18       ??_C@_1BM@DIGKKBBA@?$AAC?$AAo?$AAn?$AAE?$AAm?$AAu?$AAC?$AA6?$AA4?$AA?4?$AAe?$AAx?$AAe@ 1002dc18     common-kernel32:CmdLine.obj
 0002:00003c34       ??_C@_19DOGDICKI@?$AA?4?$AAe?$AAx?$AAe@ 1002dc34     common-kernel32:CmdLine.obj
 0002:00003c40       ??_C@_1BG@PIGCKNCG@?$AAC?$AAo?$AAn?$AAE?$AAm?$AAu?$AA?4?$AAe?$AAx?$AAe@ 1002dc40     common-kernel32:CmdLine.obj
 0002:00003c58       ??_C@_1BK@BNOCAHHB@?$AAC?$AAo?$AAn?$AAE?$AAm?$AAu?$AA6?$AA4?$AA?4?$AAe?$AAx?$AAe@ 1002dc58     common-kernel32:CmdLine.obj
 0002:00003c74       ??_C@_05LCABBMOG@?$CFs?3?$CFi@ 1002dc74     common-kernel32:WThreads.obj
 0002:00003c80       ??_7exception@stdext@@6B@  1002dc80     common-kernel32:CEStr.obj
 0002:00003c8c       ??_C@_0BC@BDKFLDHL@unknown?5exception@ 1002dc8c     common-kernel32:CEStr.obj
 0002:00003ca4       ??_7bad_alloc@stdext@@6B@  1002dca4     common-kernel32:CEStr.obj
 0002:00003cb0       ??_C@_1BO@HJHEFHMO@?$AAK?$AAe?$AAr?$AAn?$AAe?$AAl?$AAB?$AAa?$AAs?$AAe?$AA?4?$AAd?$AAl?$AAl@ 1002dcb0     common-kernel32:MSecurity.obj
 0002:00003cd0       ??_C@_1BK@BIGILECK@?$AAA?$AAd?$AAv?$AAa?$AAp?$AAi?$AA3?$AA2?$AA?4?$AAd?$AAl?$AAl@ 1002dcd0     common-kernel32:MSecurity.obj
 0002:00003cec       ??_C@_0BE@IPKPLIM@AddAccessAllowedAce@ 1002dcec     common-kernel32:MSecurity.obj
 0002:00003d00       ??_C@_0BD@EIGAJLOG@AddAccessDeniedAce@ 1002dd00     common-kernel32:MSecurity.obj
 0002:00003d14       ??_C@_0BJ@ECIKFEOL@AllocateAndInitializeSid@ 1002dd14     common-kernel32:MSecurity.obj
 0002:00003d30       ??_C@_0N@HBKDHKNL@GetLengthSid@ 1002dd30     common-kernel32:MSecurity.obj
 0002:00003d40       ??_C@_0O@GKCEJBAA@InitializeAcl@ 1002dd40     common-kernel32:MSecurity.obj
 0002:00003d50       ??_C@_0BN@FNLANPJJ@InitializeSecurityDescriptor@ 1002dd50     common-kernel32:MSecurity.obj
 0002:00003d70       ??_C@_0BK@DNNLOFO@SetSecurityDescriptorDacl@ 1002dd70     common-kernel32:MSecurity.obj
 0002:00003d8c       ??_C@_1BE@GJOFHIHD@?$AAn?$AAt?$AAd?$AAl?$AAl?$AA?4?$AAd?$AAl?$AAl@ 1002dd8c     common-kernel32:WObjects.obj
 0002:00003da0       ??_C@_0BF@LOGLPPDD@RtlVerifyVersionInfo@ 1002dda0     common-kernel32:WObjects.obj
 0002:00003db8       ??_C@_0P@LKABJJMO@IsWow64Process@ 1002ddb8     common-kernel32:WObjects.obj
 0002:00003dc8       ??_C@_1BA@PHJPMKEE@?$AAC?$AAo?$AAm?$AAS?$AAp?$AAe?$AAc@ 1002ddc8     common-kernel32:WObjects.obj
 0002:00003ddc       ??_7?$_Func_impl_no_alloc@P6GHPAX@ZXPAX@std@@6B@ 1002dddc     common-kernel32:WObjects.obj
 0002:00003df4       ??_C@_0BD@HGJIAJJM@RequestTrampolines@ 1002ddf4     common-kernel32:HkFunc.obj
 0002:00003e0c       ??_7?$MToolHelp@UtagPROCESSENTRY32W@@$1?Process32FirstW@@YGHPAXPAU1@@Z$1?Process32NextW@@YGH01@Z@@6B@ 1002de0c     common-kernel32:MProcess.obj
 0002:00003e18       ??_7MToolHelpProcess@@6B@  1002de18     common-kernel32:MProcess.obj
 0002:00003e20       ??_C@_1BK@HHKNEJDC@?$AAt?$AAl?$AAn?$AAt?$AAs?$AAe?$AAs?$AAs?$AA?4?$AAe?$AAx?$AAe@ 1002de20     common-kernel32:MProcess.obj
 0002:00003e3c       ??_C@_1BI@MPDCNJBA@?$AAt?$AAl?$AAn?$AAt?$AAs?$AAv?$AAr?$AA?4?$AAe?$AAx?$AAe@ 1002de3c     common-kernel32:MProcess.obj
 0002:00003e58       ??_7?$_Func_impl_no_alloc@V<lambda_9e7323793ed24b1a5fadb4d27ba29021>@@_NABUtagPROCESSENTRY32W@@@std@@6B@ 1002de58     common-kernel32:MProcess.obj
 0002:00003e70       ??_C@_1O@GNPNAMOC@?$AA0?$AAx?$AA?$CF?$AA0?$AA8?$AAX@ 1002de70     common-user32:SetEnvVar.obj
 0002:00003e80       ??_C@_1BG@CJNOKBPK@?$AAC?$AAo?$AAn?$AAE?$AAm?$AAu?$AAH?$AAW?$AAN?$AAD@ 1002de80     common-user32:SetEnvVar.obj
 0002:00003e98       ??_C@_15EFLNJKHH@?$AA?$CF?$AAu@ 1002de98     common-user32:SetEnvVar.obj
 0002:00003ea0       ??_C@_1BO@BBOAAODE@?$AAC?$AAo?$AAn?$AAE?$AAm?$AAu?$AAD?$AAr?$AAa?$AAw?$AAH?$AAW?$AAN?$AAD@ 1002dea0     common-user32:SetEnvVar.obj
 0002:00003ec0       ??_C@_1BO@DIAPFMAN@?$AAC?$AAo?$AAn?$AAE?$AAm?$AAu?$AAB?$AAa?$AAc?$AAk?$AAH?$AAW?$AAN?$AAD@ 1002dec0     common-user32:SetEnvVar.obj
 0002:00003ee0       ??_C@_1CI@PDOPFPLH@?$AAV?$AAi?$AAr?$AAt?$AAu?$AAa?$AAl?$AAC?$AAo?$AAn?$AAs?$AAo?$AAl?$AAe?$AAC@ 1002dee0     common-user32:ConEmuCheckEx.obj
 0002:00003f08       ??_C@_1CC@PDEDDOGK@?$AA?2?$AAP?$AAl?$AAu?$AAg?$AAi?$AAn?$AAs?$AA?2?$AAC?$AAo?$AAn?$AAE?$AAm?$AAu@ 1002df08     common-user32:ConEmuCheckEx.obj
 0002:00003f2c       ??_C@_1CA@CNCOCNJD@?$AAS?$AAo?$AAf?$AAt?$AAw?$AAa?$AAr?$AAe?$AA?2?$AAC?$AAo?$AAn?$AAE?$AAm?$AAu@ 1002df2c     common-user32:ConEmuCheckEx.obj
 0002:00003f4c       ??_C@_1CK@KBHIPEEC@?$AAC?$AAo?$AAn?$AAE?$AAm?$AAu?$AA?2?$AAC?$AAo?$AAn?$AAE?$AAm?$AAu?$AAC?$AA6@ 1002df4c     common-user32:ConEmuCheckEx.obj
 0002:00003f78       ??_C@_1CG@HCDHJIEM@?$AAC?$AAo?$AAn?$AAE?$AAm?$AAu?$AA?2?$AAC?$AAo?$AAn?$AAE?$AAm?$AAu?$AAC?$AA?4@ 1002df78     common-user32:ConEmuCheckEx.obj
 0002:00003fa0       __xmm@80000002800000028000000100000000 1002dfa0     common-user32:ConEmuCheckEx.obj
 0002:00003fb0       ??_C@_1BO@CJPKCNHF@?$AAL?$AAu?$AAc?$AAi?$AAd?$AAa?$AA?5?$AAC?$AAo?$AAn?$AAs?$AAo?$AAl?$AAe@ 1002dfb0     common-user32:EmergencyShow.obj
 0002:00003fd0       ??_C@_1BA@GIKDDGPH@?$AAC?$AAo?$AAn?$AAs?$AAo?$AAl?$AAe@ 1002dfd0     common-user32:EmergencyShow.obj
 0002:00003fe0       ??_C@_1BC@MAHCNJIF@?$AAF?$AAo?$AAn?$AAt?$AAS?$AAi?$AAz?$AAe@ 1002dfe0     common-user32:EmergencyShow.obj
 0002:00003ff8       ??_C@_1EM@OAOIIPGN@?$AAC?$AAo?$AAn?$AAs?$AAo?$AAl?$AAe?$AA?2?$AA?$CF?$AAS?$AAy?$AAs?$AAt?$AAe?$AAm@ 1002dff8     common-user32:EmergencyShow.obj
 0002:00004044       ??_C@_1DC@GKBPJPHN@?$AAC?$AAo?$AAn?$AAE?$AAm?$AAu?$AAE?$AAm?$AAe?$AAr?$AAg?$AAe?$AAn?$AAc?$AAy@ 1002e044     common-user32:EmergencyShow.obj
 0002:00004078       ??_C@_1GK@PPEHOOAL@?$AAS?$AAO?$AAF?$AAT?$AAW?$AAA?$AAR?$AAE?$AA?2?$AAM?$AAi?$AAc?$AAr?$AAo?$AAs@ 1002e078     common-user32:WFiles.obj
 0002:000040e4       ??_C@_13PJJBFPED@?$AA?$DL@ 1002e0e4     common-user32:WFiles.obj
 0002:000040e8       ??_C@_1FM@HGFGNGE@?$AAC?$AAa?$AAn?$AA?8?$AAt?$AA?5?$AAC?$AAr?$AAe?$AAa?$AAt?$AAe?$AAF?$AAi?$AAl@ 1002e0e8     common-user32:WConsoleEx.obj
 0002:00004148       ??_C@_1EA@DNEBDKPD@?$AAC?$AAa?$AAn?$AA?8?$AAt?$AA?5?$AAM?$AAa?$AAp?$AAV?$AAi?$AAe?$AAw?$AAO?$AAf@ 1002e148     common-user32:WConsoleEx.obj
 0002:00004188       ??_C@_1BO@IPFLJP@?$AAC?$AAo?$AAn?$AAs?$AAo?$AAl?$AAe?$AA?2?$AAC?$AAo?$AAn?$AAE?$AAm?$AAu@ 1002e188     common-user32:WConsoleEx.obj
 0002:000041a8       ??_C@_1CE@BJHMHGLF@?$AAH?$AAi?$AAs?$AAt?$AAo?$AAr?$AAy?$AAB?$AAu?$AAf?$AAf?$AAe?$AAr?$AAS?$AAi@ 1002e1a8     common-user32:WConsoleEx.obj
 0002:000041cc       ??_C@_1CO@DAOCNAIJ@?$AAN?$AAu?$AAm?$AAb?$AAe?$AAr?$AAO?$AAf?$AAH?$AAi?$AAs?$AAt?$AAo?$AAr?$AAy@ 1002e1cc     common-user32:WConsoleEx.obj
 0002:00004200       ??_7logic_error@std@@6B@   1002e200     libcpmt:xthrow.obj
 0002:0000420c       ??_7length_error@std@@6B@  1002e20c     libcpmt:xthrow.obj
 0002:00004218       ??_7bad_function_call@std@@6B@ 1002e218     libcpmt:xthrow.obj
 0002:00004220       ??_C@_0BC@DPJNKNAF@bad?5function?5call@ 1002e220     libcpmt:xthrow.obj
 0002:00004238       ??_7type_info@@6B@         1002e238     LIBCMT:std_type_info_static.obj
 0002:00004240       ??_C@_1EC@JIJBPKFM@?$AAa?$AAp?$AAi?$AA?9?$AAm?$AAs?$AA?9?$AAw?$AAi?$AAn?$AA?9?$AAc?$AAo?$AAr?$AAe@ 1002e240     LIBCMT:thread_safe_statics.obj
 0002:00004284       ??_C@_0BM@HLJJNPAH@InitializeConditionVariable@ 1002e284     LIBCMT:thread_safe_statics.obj
 0002:000042a0       ??_C@_0BJ@JEBJOJFJ@SleepConditionVariableCS@ 1002e2a0     LIBCMT:thread_safe_statics.obj
 0002:000042bc       ??_C@_0BJ@PGPPEPCC@WakeAllConditionVariable@ 1002e2bc     LIBCMT:thread_safe_statics.obj
 0002:000042d8       __pDefaultRawDllMain       1002e2d8     LIBCMT:dll_dllmain.obj
 0002:000042d8       __pRawDllMain              1002e2d8     LIBCMT:dll_dllmain.obj
 0002:000042e4       __pDestructExceptionObject 1002e2e4     libvcruntime:ehhelpers.obj
 0002:0000430c       ??_7bad_exception@std@@6B@ 1002e30c     libvcruntime:frame.obj
 0002:00004314       ??_C@_0O@DPKOEFFH@bad?5exception@ 1002e314     libvcruntime:frame.obj
 0002:00004330       ??_C@_1DM@KHCHBNEB@?$AAa?$AAp?$AAi?$AA?9?$AAm?$AAs?$AA?9?$AAw?$AAi?$AAn?$AA?9?$AAc?$AAo?$AAr?$AAe@ 1002e330     libvcruntime:winapi_downlevel.obj
 0002:0000436c       ??_C@_1DK@LPPGFMPP@?$AAa?$AAp?$AAi?$AA?9?$AAm?$AAs?$AA?9?$AAw?$AAi?$AAn?$AA?9?$AAc?$AAo?$AAr?$AAe@ 1002e36c     libvcruntime:winapi_downlevel.obj
 0002:000043a8       ??_C@_1BC@GDMECMAK@?$AAk?$AAe?$AAr?$AAn?$AAe?$AAl?$AA3?$AA2@ 1002e3a8     libvcruntime:winapi_downlevel.obj
 0002:000043bc       ??_C@_1BA@PFFKHIOG@?$AAa?$AAp?$AAi?$AA?9?$AAm?$AAs?$AA?9@ 1002e3bc     libvcruntime:winapi_downlevel.obj
 0002:000043cc       ??_C@_1BA@IAIFMGEF@?$AAe?$AAx?$AAt?$AA?9?$AAm?$AAs?$AA?9@ 1002e3cc     libvcruntime:winapi_downlevel.obj
 0002:000043e4       ??_C@_08KNHFBNJ@FlsAlloc@  1002e3e4     libvcruntime:winapi_downlevel.obj
 0002:000043f8       ??_C@_07PEJMOBNF@FlsFree@  1002e3f8     libvcruntime:winapi_downlevel.obj
 0002:00004408       ??_C@_0M@GDNOONDI@FlsGetValue@ 1002e408     libvcruntime:winapi_downlevel.obj
 0002:0000441c       ??_C@_0M@JCPCPOEF@FlsSetValue@ 1002e41c     libvcruntime:winapi_downlevel.obj
 0002:00004430       ??_C@_0BM@HCFOFFN@InitializeCriticalSectionEx@ 1002e430     libvcruntime:winapi_downlevel.obj
 0002:000045ec       ??_C@_08EHJDFFNH@__based?$CI@ 1002e5ec     libvcruntime:undname.obj
 0002:000045f8       ??_C@_07KOLFKCDI@__cdecl@  1002e5f8     libvcruntime:undname.obj
 0002:00004600       ??_C@_08GHMPAG@__pascal@   1002e600     libvcruntime:undname.obj
 0002:0000460c       ??_C@_09IFJBGAPI@__stdcall@ 1002e60c     libvcruntime:undname.obj
 0002:00004618       ??_C@_0L@NPHFGOKO@__thiscall@ 1002e618     libvcruntime:undname.obj
 0002:00004624       ??_C@_0L@JMKHOMEK@__fastcall@ 1002e624     libvcruntime:undname.obj
 0002:00004630       ??_C@_0N@BCKKPABJ@__vectorcall@ 1002e630     libvcruntime:undname.obj
 0002:00004640       ??_C@_09HIJEGCPM@__clrcall@ 1002e640     libvcruntime:undname.obj
 0002:0000464c       ??_C@_06GHPCKEAG@__eabi@   1002e64c     libvcruntime:undname.obj
 0002:00004654       ??_C@_09IOPIDJLG@__swift_1@ 1002e654     libvcruntime:undname.obj
 0002:00004660       ??_C@_09KFNFGKHF@__swift_2@ 1002e660     libvcruntime:undname.obj
 0002:0000466c       ??_C@_07JOMMBBKO@__ptr64@  1002e66c     libvcruntime:undname.obj
 0002:00004674       ??_C@_0L@PILCLIHE@__restrict@ 1002e674     libvcruntime:undname.obj
 0002:00004680       ??_C@_0M@GFIIJFMG@__unaligned@ 1002e680     libvcruntime:undname.obj
 0002:0000468c       ??_C@_09DHDLOLLB@restrict?$CI@ 1002e68c     libvcruntime:undname.obj
 0002:00004698       ??_C@_04NIHEBCM@?5new@     1002e698     libvcruntime:undname.obj
 0002:000046a0       ??_C@_07FPCDHGMM@?5delete@ 1002e6a0     libvcruntime:undname.obj
 0002:000046a8       ??_C@_01NEMOKFLO@?$DN@     1002e6a8     libvcruntime:undname.obj
 0002:000046ac       ??_C@_02GPIOPFAK@?$DO?$DO@ 1002e6ac     libvcruntime:undname.obj
 0002:000046b0       ??_C@_02FODMEDOG@?$DM?$DM@ 1002e6b0     libvcruntime:undname.obj
 0002:000046b4       ??_C@_01DCLJPIOD@?$CB@     1002e6b4     libvcruntime:undname.obj
 0002:000046b8       ??_C@_02EGOFBIJA@?$DN?$DN@ 1002e6b8     libvcruntime:undname.obj
 0002:000046bc       ??_C@_02FDNJECIE@?$CB?$DN@ 1002e6bc     libvcruntime:undname.obj
 0002:000046c0       ??_C@_02GPECMEKF@?$FL?$FN@ 1002e6c0     libvcruntime:undname.obj
 0002:000046c4       ??_C@_08LHJFAFGD@operator@ 1002e6c4     libvcruntime:undname.obj
 0002:000046d0       ??_C@_02HBOOOICD@?9?$DO@   1002e6d0     libvcruntime:undname.obj
 0002:000046d4       ??_C@_01NBENCBCI@?$CK@     1002e6d4     libvcruntime:undname.obj
 0002:000046d8       ??_C@_02ECNGHCIF@?$CL?$CL@ 1002e6d8     libvcruntime:undname.obj
 0002:000046dc       ??_C@_02BAABKJLB@?9?9@     1002e6dc     libvcruntime:undname.obj
 0002:000046e0       ??_C@_01JOAMLHOP@?9@       1002e6e0     libvcruntime:undname.obj
 0002:000046e4       ??_C@_01MIFGBAGJ@?$CL@     1002e6e4     libvcruntime:undname.obj
 0002:000046e8       ??_C@_01HNPIGOCE@?$CG@     1002e6e8     libvcruntime:undname.obj
 0002:000046ec       ??_C@_03MNHNFDLC@?9?$DO?$CK@ 1002e6ec     libvcruntime:undname.obj
 0002:000046f0       ??_C@_01KMDKNFGN@?1@       1002e6f0     libvcruntime:undname.obj
 0002:000046f4       ??_C@_01FGNFDNOH@?$CF@     1002e6f4     libvcruntime:undname.obj
 0002:000046f8       ??_C@_01MNNFJEPP@?$DM@     1002e6f8     libvcruntime:undname.obj
 0002:000046fc       ??_C@_02EHCHHCKH@?$DM?$DN@ 1002e6fc     libvcruntime:undname.obj
 0002:00004700       ??_C@_01PPODPGHN@?$DO@     1002e700     libvcruntime:undname.obj
 0002:00004704       ??_C@_02EEKDKGMJ@?$DO?$DN@ 1002e704     libvcruntime:undname.obj
 0002:00004708       ??_C@_01IHBHIGKO@?0@       1002e708     libvcruntime:undname.obj
 0002:0000470c       ??_C@_02HCKGKOFO@?$CI?$CJ@ 1002e70c     libvcruntime:undname.obj
 0002:00004710       ??_C@_01PJKLJHI@?$HO@      1002e710     libvcruntime:undname.obj
 0002:00004714       ??_C@_01JKBOJNNK@?$FO@     1002e714     libvcruntime:undname.obj
 0002:00004718       ??_C@_01DNKMNLPK@?$HM@     1002e718     libvcruntime:undname.obj
 0002:0000471c       ??_C@_02PPKAJPJL@?$CG?$CG@ 1002e71c     libvcruntime:undname.obj
 0002:00004720       ??_C@_02NONPIBCD@?$HM?$HM@ 1002e720     libvcruntime:undname.obj
 0002:00004724       ??_C@_02FPIMKNGF@?$CK?$DN@ 1002e724     libvcruntime:undname.obj
 0002:00004728       ??_C@_02FOEOMHFC@?$CL?$DN@ 1002e728     libvcruntime:undname.obj
 0002:0000472c       ??_C@_02FKMDLLOA@?9?$DN@   1002e72c     libvcruntime:undname.obj
 0002:00004730       ??_C@_02FJEHGPIO@?1?$DN@   1002e730     libvcruntime:undname.obj
 0002:00004734       ??_C@_02FENAOKFI@?$CF?$DN@ 1002e734     libvcruntime:undname.obj
 0002:00004738       ??_C@_03IKFCCPFF@?$DO?$DO?$DN@ 1002e738     libvcruntime:undname.obj
 0002:0000473c       ??_C@_03CDNPDDLA@?$DM?$DM?$DN@ 1002e73c     libvcruntime:undname.obj
 0002:00004740       ??_C@_02FGJGFEAB@?$CG?$DN@ 1002e740     libvcruntime:undname.obj
 0002:00004744       ??_C@_02DHLNPPGH@?$HM?$DN@ 1002e744     libvcruntime:undname.obj
 0002:00004748       ??_C@_02MHEGNOJ@?$FO?$DN@  1002e748     libvcruntime:undname.obj
 0002:0000474c       ??_C@_09IFPLHPGF@?$GAvftable?8@ 1002e74c     libvcruntime:undname.obj
 0002:00004758       ??_C@_09BLBHBJP@?$GAvbtable?8@ 1002e758     libvcruntime:undname.obj
 0002:00004764       ??_C@_07FEEIOKP@?$GAvcall?8@ 1002e764     libvcruntime:undname.obj
 0002:0000476c       ??_C@_08LLFFHHDJ@?$GAtypeof?8@ 1002e76c     libvcruntime:undname.obj
 0002:00004778       ??_C@_0BF@KDPPACIK@?$GAlocal?5static?5guard?8@ 1002e778     libvcruntime:undname.obj
 0002:00004790       ??_C@_08OBABFOLI@?$GAstring?8@ 1002e790     libvcruntime:undname.obj
 0002:0000479c       ??_C@_0BD@JDLKDPAB@?$GAvbase?5destructor?8@ 1002e79c     libvcruntime:undname.obj
 0002:000047b0       ??_C@_0BN@DEGPLNFK@?$GAvector?5deleting?5destructor?8@ 1002e7b0     libvcruntime:undname.obj
 0002:000047d0       ??_C@_0BO@OBMKPJIG@?$GAdefault?5constructor?5closure?8@ 1002e7d0     libvcruntime:undname.obj
 0002:000047f0       ??_C@_0BN@IMDCHIKM@?$GAscalar?5deleting?5destructor?8@ 1002e7f0     libvcruntime:undname.obj
 0002:00004810       ??_C@_0BO@PFGOCPJJ@?$GAvector?5constructor?5iterator?8@ 1002e810     libvcruntime:undname.obj
 0002:00004830       ??_C@_0BN@LFPFMEDL@?$GAvector?5destructor?5iterator?8@ 1002e830     libvcruntime:undname.obj
 0002:00004850       ??_C@_0CE@IKBNEHA@?$GAvector?5vbase?5constructor?5itera@ 1002e850     libvcruntime:undname.obj
 0002:00004874       ??_C@_0BL@NILFHHPC@?$GAvirtual?5displacement?5map?8@ 1002e874     libvcruntime:undname.obj
 0002:00004890       ??_C@_0CB@JONCMFFK@?$GAeh?5vector?5constructor?5iterator@ 1002e890     libvcruntime:undname.obj
 0002:000048b4       ??_C@_0CA@GCEOPDGL@?$GAeh?5vector?5destructor?5iterator?8@ 1002e8b4     libvcruntime:undname.obj
 0002:000048d4       ??_C@_0CH@OOJPLCPH@?$GAeh?5vector?5vbase?5constructor?5it@ 1002e8d4     libvcruntime:undname.obj
 0002:000048fc       ??_C@_0BL@LLKPOHJI@?$GAcopy?5constructor?5closure?8@ 1002e8fc     libvcruntime:undname.obj
 0002:00004918       ??_C@_0BA@KBCDOMBN@?$GAudt?5returning?8@ 1002e918     libvcruntime:undname.obj
 0002:00004928       ??_C@_03KLGMFNMG@?$GAEH@   1002e928     libvcruntime:undname.obj
 0002:0000492c       ??_C@_05KHLCHHI@?$GARTTI@  1002e92c     libvcruntime:undname.obj
 0002:00004934       ??_C@_0BA@KKLDJDLB@?$GAlocal?5vftable?8@ 1002e934     libvcruntime:undname.obj
 0002:00004944       ??_C@_0CE@IIHCMGGL@?$GAlocal?5vftable?5constructor?5clos@ 1002e944     libvcruntime:undname.obj
 0002:00004968       ??_C@_06FHBGPFGH@?5new?$FL?$FN@ 1002e968     libvcruntime:undname.obj
 0002:00004970       ??_C@_09LBNFPBCA@?5delete?$FL?$FN@ 1002e970     libvcruntime:undname.obj
 0002:0000497c       ??_C@_0P@HJKNJFNN@?$GAomni?5callsig?8@ 1002e97c     libvcruntime:undname.obj
 0002:0000498c       ??_C@_0BL@CNOONJFP@?$GAplacement?5delete?5closure?8@ 1002e98c     libvcruntime:undname.obj
 0002:000049a8       ??_C@_0BN@CKNJLHMB@?$GAplacement?5delete?$FL?$FN?5closure?8@ 1002e9a8     libvcruntime:undname.obj
 0002:000049c8       ??_C@_0CG@CFDHKGGD@?$GAmanaged?5vector?5constructor?5ite@ 1002e9c8     libvcruntime:undname.obj
 0002:000049f0       ??_C@_0CF@IMGKMJNO@?$GAmanaged?5vector?5destructor?5iter@ 1002e9f0     libvcruntime:undname.obj
 0002:00004a18       ??_C@_0CG@HLDDJMAG@?$GAeh?5vector?5copy?5constructor?5ite@ 1002ea18     libvcruntime:undname.obj
 0002:00004a40       ??_C@_0CM@FCBBDIGB@?$GAeh?5vector?5vbase?5copy?5construct@ 1002ea40     libvcruntime:undname.obj
 0002:00004a6c       ??_C@_0BL@CLIPGLGB@?$GAdynamic?5initializer?5for?5?8@ 1002ea6c     libvcruntime:undname.obj
 0002:00004a88       ??_C@_0CB@PDBIFEP@?$GAdynamic?5atexit?5destructor?5for?5@ 1002ea88     libvcruntime:undname.obj
 0002:00004aac       ??_C@_0CD@CGAJBKEJ@?$GAvector?5copy?5constructor?5iterat@ 1002eaac     libvcruntime:undname.obj
 0002:00004ad0       ??_C@_0CJ@GJELGAMM@?$GAvector?5vbase?5copy?5constructor?5@ 1002ead0     libvcruntime:undname.obj
 0002:00004afc       ??_C@_0CL@FGIJHLCE@?$GAmanaged?5vector?5copy?5constructo@ 1002eafc     libvcruntime:undname.obj
 0002:00004b28       ??_C@_0BM@PMGGMLDN@?$GAlocal?5static?5thread?5guard?8@ 1002eb28     libvcruntime:undname.obj
 0002:00004b44       ??_C@_0N@BDNMDMOL@operator?5?$CC?$CC?5@ 1002eb44     libvcruntime:undname.obj
 0002:00004b54       ??_C@_0BC@GGEBGALA@operator?5co_await@ 1002eb54     libvcruntime:undname.obj
 0002:00004b68       ??_C@_0BC@DAFEJGAK@?5Type?5Descriptor?8@ 1002eb68     libvcruntime:undname.obj
 0002:00004b7c       ??_C@_0BM@LDKODKLH@?5Base?5Class?5Descriptor?5at?5?$CI@ 1002eb7c     libvcruntime:undname.obj
 0002:00004b98       ??_C@_0BD@LGICGFMM@?5Base?5Class?5Array?8@ 1002eb98     libvcruntime:undname.obj
 0002:00004bac       ??_C@_0BN@MECKDCOJ@?5Class?5Hierarchy?5Descriptor?8@ 1002ebac     libvcruntime:undname.obj
 0002:00004bcc       ??_C@_0BK@CFCOFLF@?5Complete?5Object?5Locator?8@ 1002ebcc     libvcruntime:undname.obj
 0002:00004be8       _standard_lookup_table     1002ebe8     libucrt:output.obj
 0002:00004c44       ??_C@_06OJHGLDPL@?$CInull?$CJ?$AA@ 1002ec44     libucrt:output.obj
 0002:00004c4c       ??_C@_1O@CEDCILHN@?$AA?$CI?$AAn?$AAu?$AAl?$AAl?$AA?$CJ?$AA?$AA@ 1002ec4c     libucrt:output.obj
 0002:00004dc8       ___acrt_exception_action_table 1002edc8     libucrt:exception_filter.obj
 0002:00004e58       ___acrt_signal_action_table_count 1002ee58     libucrt:exception_filter.obj
 0002:00004e5c       ___acrt_signal_action_first_fpe_index 1002ee5c     libucrt:exception_filter.obj
 0002:00004e60       ___acrt_signal_action_fpe_count 1002ee60     libucrt:exception_filter.obj
 0002:00004e64       ??_C@_1BI@BGOHAHKC@?$AAm?$AAs?$AAc?$AAo?$AAr?$AAe?$AAe?$AA?4?$AAd?$AAl?$AAl?$AA?$AA@ 1002ee64     libucrt:exit.obj
 0002:00004e7c       ??_C@_0P@MIGLKIOC@CorExitProcess?$AA@ 1002ee7c     libucrt:exit.obj
 0002:00004f08       ??_C@_03OEIAHPBN@INF?$AA@  1002ef08     libucrt:cvt.obj
 0002:00004f0c       ??_C@_03OJHLLCGB@inf?$AA@  1002ef0c     libucrt:cvt.obj
 0002:00004f10       ??_C@_03LKNCIKJB@NAN?$AA@  1002ef10     libucrt:cvt.obj
 0002:00004f14       ??_C@_03LHCJEHON@nan?$AA@  1002ef14     libucrt:cvt.obj
 0002:00004f18       ??_C@_09OFJJIMPC@NAN?$CISNAN?$CJ?$AA@ 1002ef18     libucrt:cvt.obj
 0002:00004f24       ??_C@_09IPFBKMDL@nan?$CIsnan?$CJ?$AA@ 1002ef24     libucrt:cvt.obj
 0002:00004f30       ??_C@_08IKHNHAJ@NAN?$CIIND?$CJ?$AA@ 1002ef30     libucrt:cvt.obj
 0002:00004f3c       ??_C@_08OFCDMILK@nan?$CIind?$CJ?$AA@ 1002ef3c     libucrt:cvt.obj
 0002:00004f48       ??_C@_05KLBDPFGC@e?$CL000?$AA@ 1002ef48     libucrt:cvt.obj
 0002:00004f50       ??_C@_03KOEHGMDN@Sun?$AA@  1002ef50     libucrt:nlsdata.obj
 0002:00004f54       ??_C@_03PDAGKDH@Mon?$AA@   1002ef54     libucrt:nlsdata.obj
 0002:00004f58       ??_C@_03NAGEINEP@Tue?$AA@  1002ef58     libucrt:nlsdata.obj
 0002:00004f5c       ??_C@_03MHOMLAJA@Wed?$AA@  1002ef5c     libucrt:nlsdata.obj
 0002:00004f60       ??_C@_03IOFIKPDN@Thu?$AA@  1002ef60     libucrt:nlsdata.obj
 0002:00004f64       ??_C@_03IDIOELNC@Fri?$AA@  1002ef64     libucrt:nlsdata.obj
 0002:00004f68       ??_C@_03FEFJNEK@Sat?$AA@   1002ef68     libucrt:nlsdata.obj
 0002:00004f6c       ??_C@_06OOPIFAJ@Sunday?$AA@ 1002ef6c     libucrt:nlsdata.obj
 0002:00004f74       ??_C@_06JLEDEDGH@Monday?$AA@ 1002ef74     libucrt:nlsdata.obj
 0002:00004f7c       ??_C@_07BAAGCFCM@Tuesday?$AA@ 1002ef7c     libucrt:nlsdata.obj
 0002:00004f84       ??_C@_09DLIGFAKA@Wednesday?$AA@ 1002ef84     libucrt:nlsdata.obj
 0002:00004f90       ??_C@_08HACCIKIA@Thursday?$AA@ 1002ef90     libucrt:nlsdata.obj
 0002:00004f9c       ??_C@_06JECMNKMI@Friday?$AA@ 1002ef9c     libucrt:nlsdata.obj
 0002:00004fa4       ??_C@_08INBOOONO@Saturday?$AA@ 1002efa4     libucrt:nlsdata.obj
 0002:00004fb0       ??_C@_03JIHJHPIE@Jan?$AA@  1002efb0     libucrt:nlsdata.obj
 0002:00004fb4       ??_C@_03HJBDCHOM@Feb?$AA@  1002efb4     libucrt:nlsdata.obj
 0002:00004fb8       ??_C@_03ODNJBKGA@Mar?$AA@  1002efb8     libucrt:nlsdata.obj
 0002:00004fbc       ??_C@_03LEOLGMJP@Apr?$AA@  1002efbc     libucrt:nlsdata.obj
 0002:00004fc0       ??_C@_03CNMDKL@May?$AA@    1002efc0     libucrt:nlsdata.obj
 0002:00004fc4       ??_C@_03IDFGHECI@Jun?$AA@  1002efc4     libucrt:nlsdata.obj
 0002:00004fc8       ??_C@_03LBGABGKK@Jul?$AA@  1002efc8     libucrt:nlsdata.obj
 0002:00004fcc       ??_C@_03IFJFEIGA@Aug?$AA@  1002efcc     libucrt:nlsdata.obj
 0002:00004fd0       ??_C@_03GGCAPAJC@Sep?$AA@  1002efd0     libucrt:nlsdata.obj
 0002:00004fd4       ??_C@_03BMAOKBAD@Oct?$AA@  1002efd4     libucrt:nlsdata.obj
 0002:00004fd8       ??_C@_03JPJOFNIA@Nov?$AA@  1002efd8     libucrt:nlsdata.obj
 0002:00004fdc       ??_C@_03MKABNOCG@Dec?$AA@  1002efdc     libucrt:nlsdata.obj
 0002:00004fe0       ??_C@_07CGJPFGJA@January?$AA@ 1002efe0     libucrt:nlsdata.obj
 0002:00004fe8       ??_C@_08GNJGEPFN@February?$AA@ 1002efe8     libucrt:nlsdata.obj
 0002:00004ff4       ??_C@_05HPCKOFNC@March?$AA@ 1002eff4     libucrt:nlsdata.obj
 0002:00004ffc       ??_C@_05DMJDNLEJ@April?$AA@ 1002effc     libucrt:nlsdata.obj
 0002:00005004       ??_C@_04CNLMGBGM@June?$AA@ 1002f004     libucrt:nlsdata.obj
 0002:0000500c       ??_C@_04MIEPOIFP@July?$AA@ 1002f00c     libucrt:nlsdata.obj
 0002:00005014       ??_C@_06LBBHFDDG@August?$AA@ 1002f014     libucrt:nlsdata.obj
 0002:0000501c       ??_C@_09BHHEALKD@September?$AA@ 1002f01c     libucrt:nlsdata.obj
 0002:00005028       ??_C@_07JJNFCEND@October?$AA@ 1002f028     libucrt:nlsdata.obj
 0002:00005030       ??_C@_08HCHEGEOA@November?$AA@ 1002f030     libucrt:nlsdata.obj
 0002:0000503c       ??_C@_08EDHMEBNP@December?$AA@ 1002f03c     libucrt:nlsdata.obj
 0002:00005048       ??_C@_02DEDBPAFC@AM?$AA@   1002f048     libucrt:nlsdata.obj
 0002:0000504c       ??_C@_02CJNFDJBF@PM?$AA@   1002f04c     libucrt:nlsdata.obj
 0002:00005050       ??_C@_08BPBNCDIB@MM?1dd?1yy?$AA@ 1002f050     libucrt:nlsdata.obj
 0002:0000505c       ??_C@_0BE@CKGJFCPC@dddd?0?5MMMM?5dd?0?5yyyy?$AA@ 1002f05c     libucrt:nlsdata.obj
 0002:00005070       ??_C@_08JCCMCCIL@HH?3mm?3ss?$AA@ 1002f070     libucrt:nlsdata.obj
 0002:0000507c       ??_C@_17MBGCMIPB@?$AAS?$AAu?$AAn?$AA?$AA@ 1002f07c     libucrt:nlsdata.obj
 0002:00005084       ??_C@_17KBOMKBF@?$AAM?$AAo?$AAn?$AA?$AA@ 1002f084     libucrt:nlsdata.obj
 0002:0000508c       ??_C@_17BMKGEGOJ@?$AAT?$AAu?$AAe?$AA?$AA@ 1002f08c     libucrt:nlsdata.obj
 0002:00005094       ??_C@_17CJEDCEPE@?$AAW?$AAe?$AAd?$AA?$AA@ 1002f094     libucrt:nlsdata.obj
 0002:0000509c       ??_C@_17PDPHAADD@?$AAT?$AAh?$AAu?$AA?$AA@ 1002f09c     libucrt:nlsdata.obj
 0002:000050a4       ??_C@_17HFOLPPLP@?$AAF?$AAr?$AAi?$AA?$AA@ 1002f0a4     libucrt:nlsdata.obj
 0002:000050ac       ??_C@_17GGIBDPIH@?$AAS?$AAa?$AAt?$AA?$AA@ 1002f0ac     libucrt:nlsdata.obj
 0002:000050b4       ??_C@_1O@IHNHDHPB@?$AAS?$AAu?$AAn?$AAd?$AAa?$AAy?$AA?$AA@ 1002f0b4     libucrt:nlsdata.obj
 0002:000050c4       ??_C@_1O@MMNBFLIA@?$AAM?$AAo?$AAn?$AAd?$AAa?$AAy?$AA?$AA@ 1002f0c4     libucrt:nlsdata.obj
 0002:000050d4       ??_C@_1BA@ENFBFFEK@?$AAT?$AAu?$AAe?$AAs?$AAd?$AAa?$AAy?$AA?$AA@ 1002f0d4     libucrt:nlsdata.obj
 0002:000050e4       ??_C@_1BE@EBOGMDOH@?$AAW?$AAe?$AAd?$AAn?$AAe?$AAs?$AAd?$AAa?$AAy?$AA?$AA@ 1002f0e4     libucrt:nlsdata.obj
 0002:000050f8       ??_C@_1BC@HHMNLIHE@?$AAT?$AAh?$AAu?$AAr?$AAs?$AAd?$AAa?$AAy?$AA?$AA@ 1002f0f8     libucrt:nlsdata.obj
 0002:0000510c       ??_C@_1O@PDICJHAG@?$AAF?$AAr?$AAi?$AAd?$AAa?$AAy?$AA?$AA@ 1002f10c     libucrt:nlsdata.obj
 0002:0000511c       ??_C@_1BC@ENMNNPAJ@?$AAS?$AAa?$AAt?$AAu?$AAr?$AAd?$AAa?$AAy?$AA?$AA@ 1002f11c     libucrt:nlsdata.obj
 0002:00005130       ??_C@_17DKNBKCHM@?$AAJ?$AAa?$AAn?$AA?$AA@ 1002f130     libucrt:nlsdata.obj
 0002:00005138       ??_C@_17LMDJEKJN@?$AAF?$AAe?$AAb?$AA?$AA@ 1002f138     libucrt:nlsdata.obj
 0002:00005140       ??_C@_17CKNLEDEC@?$AAM?$AAa?$AAr?$AA?$AA@ 1002f140     libucrt:nlsdata.obj
 0002:00005148       ??_C@_17LFPOIHDD@?$AAA?$AAp?$AAr?$AA?$AA@ 1002f148     libucrt:nlsdata.obj
 0002:00005150       ??_C@_17PNNKMEED@?$AAM?$AAa?$AAy?$AA?$AA@ 1002f150     libucrt:nlsdata.obj
 0002:00005158       ??_C@_17KCJGOCPB@?$AAJ?$AAu?$AAn?$AA?$AA@ 1002f158     libucrt:nlsdata.obj
 0002:00005160       ??_C@_17IJPCKHK@?$AAJ?$AAu?$AAl?$AA?$AA@ 1002f160     libucrt:nlsdata.obj
 0002:00005168       ??_C@_17ICPELBCN@?$AAA?$AAu?$AAg?$AA?$AA@ 1002f168     libucrt:nlsdata.obj
 0002:00005170       ??_C@_17HCHCOKMG@?$AAS?$AAe?$AAp?$AA?$AA@ 1002f170     libucrt:nlsdata.obj
 0002:00005178       ??_C@_17FNLKOI@?$AAO?$AAc?$AAt?$AA?$AA@ 1002f178     libucrt:nlsdata.obj
 0002:00005180       ??_C@_17BBDMLCIG@?$AAN?$AAo?$AAv?$AA?$AA@ 1002f180     libucrt:nlsdata.obj
 0002:00005188       ??_C@_17EGKACKIF@?$AAD?$AAe?$AAc?$AA?$AA@ 1002f188     libucrt:nlsdata.obj
 0002:00005190       ??_C@_1BA@EFMEIEBA@?$AAJ?$AAa?$AAn?$AAu?$AAa?$AAr?$AAy?$AA?$AA@ 1002f190     libucrt:nlsdata.obj
 0002:000051a0       ??_C@_1BC@JGDDFFAM@?$AAF?$AAe?$AAb?$AAr?$AAu?$AAa?$AAr?$AAy?$AA?$AA@ 1002f1a0     libucrt:nlsdata.obj
 0002:000051b4       ??_C@_1M@IKEENEDF@?$AAM?$AAa?$AAr?$AAc?$AAh?$AA?$AA@ 1002f1b4     libucrt:nlsdata.obj
 0002:000051c0       ??_C@_1M@GJNLMHFD@?$AAA?$AAp?$AAr?$AAi?$AAl?$AA?$AA@ 1002f1c0     libucrt:nlsdata.obj
 0002:000051cc       ??_C@_19EPFLPGAP@?$AAJ?$AAu?$AAn?$AAe?$AA?$AA@ 1002f1cc     libucrt:nlsdata.obj
 0002:000051d8       ??_C@_19BIFMLPCD@?$AAJ?$AAu?$AAl?$AAy?$AA?$AA@ 1002f1d8     libucrt:nlsdata.obj
 0002:000051e4       ??_C@_1O@PAHLKOAC@?$AAA?$AAu?$AAg?$AAu?$AAs?$AAt?$AA?$AA@ 1002f1e4     libucrt:nlsdata.obj
 0002:000051f4       ??_C@_1BE@DKAAMBJL@?$AAS?$AAe?$AAp?$AAt?$AAe?$AAm?$AAb?$AAe?$AAr?$AA?$AA@ 1002f1f4     libucrt:nlsdata.obj
 0002:00005208       ??_C@_1BA@EPANDLNG@?$AAO?$AAc?$AAt?$AAo?$AAb?$AAe?$AAr?$AA?$AA@ 1002f208     libucrt:nlsdata.obj
 0002:00005218       ??_C@_1BC@BGLIFPF@?$AAN?$AAo?$AAv?$AAe?$AAm?$AAb?$AAe?$AAr?$AA?$AA@ 1002f218     libucrt:nlsdata.obj
 0002:0000522c       ??_C@_1BC@FEMKIFH@?$AAD?$AAe?$AAc?$AAe?$AAm?$AAb?$AAe?$AAr?$AA?$AA@ 1002f22c     libucrt:nlsdata.obj
 0002:00005240       ??_C@_15ODEHAHHF@?$AAA?$AAM?$AA?$AA@ 1002f240     libucrt:nlsdata.obj
 0002:00005248       ??_C@_15CLMNNGEL@?$AAP?$AAM?$AA?$AA@ 1002f248     libucrt:nlsdata.obj
 0002:00005250       ??_C@_1BC@IEBCMHCM@?$AAM?$AAM?$AA?1?$AAd?$AAd?$AA?1?$AAy?$AAy?$AA?$AA@ 1002f250     libucrt:nlsdata.obj
 0002:00005264       ??_C@_1CI@KNAKOEBC@?$AAd?$AAd?$AAd?$AAd?$AA?0?$AA?5?$AAM?$AAM?$AAM?$AAM?$AA?5?$AAd?$AAd?$AA?0?$AA?5?$AAy?$AAy?$AAy?$AAy?$AA?$AA@ 1002f264     libucrt:nlsdata.obj
 0002:0000528c       ??_C@_1BC@GDGBMEMK@?$AAH?$AAH?$AA?3?$AAm?$AAm?$AA?3?$AAs?$AAs?$AA?$AA@ 1002f28c     libucrt:nlsdata.obj
 0002:000052a0       ??_C@_1M@BMHNFIME@?$AAe?$AAn?$AA?9?$AAU?$AAS?$AA?$AA@ 1002f2a0     libucrt:nlsdata.obj
 0002:000052b0       ___lc_time_c               1002f2b0     libucrt:nlsdata.obj
 0002:00005418       __wctype                   1002f418     libucrt:ctype.obj
 0002:00005620       ___newctype                1002f620     libucrt:ctype.obj
 0002:00005920       ___newclmap                1002f920     libucrt:ctype.obj
 0002:00005aa0       ___newcumap                1002faa0     libucrt:ctype.obj
 0002:00005c70       ??_C@_1EG@CNNIPFIM@?$AAa?$AAp?$AAi?$AA?9?$AAm?$AAs?$AA?9?$AAw?$AAi?$AAn?$AA?9?$AAa?$AAp?$AAp?$AAm?$AAo?$AAd?$AAe?$AAl?$AA?9?$AAr?$AAu?$AAn?$AAt?$AAi?$AAm?$AAe?$AA?9?$AAl?$AA1?$AA?9?$AA1@ 1002fc70     libucrt:winapi_thunks.obj
 0002:00005cb8       ??_C@_1EA@JGEFHKEI@?$AAa?$AAp?$AAi?$AA?9?$AAm?$AAs?$AA?9?$AAw?$AAi?$AAn?$AA?9?$AAc?$AAo?$AAr?$AAe?$AA?9?$AAd?$AAa?$AAt?$AAe?$AAt?$AAi?$AAm?$AAe?$AA?9?$AAl?$AA1?$AA?9?$AA1?$AA?9?$AA1?$AA?$AA@ 1002fcb8     libucrt:winapi_thunks.obj
 0002:00005cf8       ??_C@_1DM@KHCHBNEB@?$AAa?$AAp?$AAi?$AA?9?$AAm?$AAs?$AA?9?$AAw?$AAi?$AAn?$AA?9?$AAc?$AAo?$AAr?$AAe?$AA?9?$AAf?$AAi?$AAb?$AAe?$AAr?$AAs?$AA?9?$AAl?$AA1?$AA?9?$AA1?$AA?9?$AA1?$AA?$AA@ 1002fcf8     libucrt:winapi_thunks.obj
 0002:00005d34       ??_C@_1DI@GCIAAENM@?$AAa?$AAp?$AAi?$AA?9?$AAm?$AAs?$AA?9?$AAw?$AAi?$AAn?$AA?9?$AAc?$AAo?$AAr?$AAe?$AA?9?$AAf?$AAi?$AAl?$AAe?$AA?9?$AAl?$AA2?$AA?9?$AA1?$AA?9?$AA1?$AA?$AA@ 1002fd34     libucrt:winapi_thunks.obj
 0002:00005d70       ??_C@_1EI@MPIAOHOC@?$AAa?$AAp?$AAi?$AA?9?$AAm?$AAs?$AA?9?$AAw?$AAi?$AAn?$AA?9?$AAc?$AAo?$AAr?$AAe?$AA?9?$AAl?$AAo?$AAc?$AAa?$AAl?$AAi?$AAz?$AAa?$AAt?$AAi?$AAo?$AAn?$AA?9?$AAl?$AA1?$AA?9@ 1002fd70     libucrt:winapi_thunks.obj
 0002:00005db8       ??_C@_1FK@FPHCKFIE@?$AAa?$AAp?$AAi?$AA?9?$AAm?$AAs?$AA?9?$AAw?$AAi?$AAn?$AA?9?$AAc?$AAo?$AAr?$AAe?$AA?9?$AAl?$AAo?$AAc?$AAa?$AAl?$AAi?$AAz?$AAa?$AAt?$AAi?$AAo?$AAn?$AA?9?$AAo?$AAb?$AAs@ 1002fdb8     libucrt:winapi_thunks.obj
 0002:00005e18       ??_C@_1EM@DILCGIIO@?$AAa?$AAp?$AAi?$AA?9?$AAm?$AAs?$AA?9?$AAw?$AAi?$AAn?$AA?9?$AAc?$AAo?$AAr?$AAe?$AA?9?$AAp?$AAr?$AAo?$AAc?$AAe?$AAs?$AAs?$AAt?$AAh?$AAr?$AAe?$AAa?$AAd?$AAs?$AA?9?$AAl@ 1002fe18     libucrt:winapi_thunks.obj
 0002:00005e64       ??_C@_1DM@LNCGDDPN@?$AAa?$AAp?$AAi?$AA?9?$AAm?$AAs?$AA?9?$AAw?$AAi?$AAn?$AA?9?$AAc?$AAo?$AAr?$AAe?$AA?9?$AAs?$AAt?$AAr?$AAi?$AAn?$AAg?$AA?9?$AAl?$AA1?$AA?9?$AA1?$AA?9?$AA0?$AA?$AA@ 1002fe64     libucrt:winapi_thunks.obj
 0002:00005ea0       ??_C@_1DK@LPPGFMPP@?$AAa?$AAp?$AAi?$AA?9?$AAm?$AAs?$AA?9?$AAw?$AAi?$AAn?$AA?9?$AAc?$AAo?$AAr?$AAe?$AA?9?$AAs?$AAy?$AAn?$AAc?$AAh?$AA?9?$AAl?$AA1?$AA?9?$AA2?$AA?9?$AA0?$AA?$AA@ 1002fea0     libucrt:winapi_thunks.obj
 0002:00005edc       ??_C@_1DO@FPAPJEMD@?$AAa?$AAp?$AAi?$AA?9?$AAm?$AAs?$AA?9?$AAw?$AAi?$AAn?$AA?9?$AAc?$AAo?$AAr?$AAe?$AA?9?$AAs?$AAy?$AAs?$AAi?$AAn?$AAf?$AAo?$AA?9?$AAl?$AA1?$AA?9?$AA2?$AA?9?$AA1?$AA?$AA@ 1002fedc     libucrt:winapi_thunks.obj
 0002:00005f1c       ??_C@_1DK@NDHNAHIO@?$AAa?$AAp?$AAi?$AA?9?$AAm?$AAs?$AA?9?$AAw?$AAi?$AAn?$AA?9?$AAc?$AAo?$AAr?$AAe?$AA?9?$AAw?$AAi?$AAn?$AAr?$AAt?$AA?9?$AAl?$AA1?$AA?9?$AA1?$AA?9?$AA0?$AA?$AA@ 1002ff1c     libucrt:winapi_thunks.obj
 0002:00005f58       ??_C@_1DM@KGHDGBCM@?$AAa?$AAp?$AAi?$AA?9?$AAm?$AAs?$AA?9?$AAw?$AAi?$AAn?$AA?9?$AAc?$AAo?$AAr?$AAe?$AA?9?$AAx?$AAs?$AAt?$AAa?$AAt?$AAe?$AA?9?$AAl?$AA2?$AA?9?$AA1?$AA?9?$AA0?$AA?$AA@ 1002ff58     libucrt:winapi_thunks.obj
 0002:00005f98       ??_C@_1EO@IJIOEFOH@?$AAa?$AAp?$AAi?$AA?9?$AAm?$AAs?$AA?9?$AAw?$AAi?$AAn?$AA?9?$AAr?$AAt?$AAc?$AAo?$AAr?$AAe?$AA?9?$AAn?$AAt?$AAu?$AAs?$AAe?$AAr?$AA?9?$AAw?$AAi?$AAn?$AAd?$AAo?$AAw?$AA?9@ 1002ff98     libucrt:winapi_thunks.obj
 0002:00005fe8       ??_C@_1FG@HHGEKANL@?$AAa?$AAp?$AAi?$AA?9?$AAm?$AAs?$AA?9?$AAw?$AAi?$AAn?$AA?9?$AAs?$AAe?$AAc?$AAu?$AAr?$AAi?$AAt?$AAy?$AA?9?$AAs?$AAy?$AAs?$AAt?$AAe?$AAm?$AAf?$AAu?$AAn?$AAc?$AAt?$AAi@ 1002ffe8     libucrt:winapi_thunks.obj
 0002:00006040       ??_C@_1FG@NCKKOLKO@?$AAe?$AAx?$AAt?$AA?9?$AAm?$AAs?$AA?9?$AAw?$AAi?$AAn?$AA?9?$AAk?$AAe?$AAr?$AAn?$AAe?$AAl?$AA3?$AA2?$AA?9?$AAp?$AAa?$AAc?$AAk?$AAa?$AAg?$AAe?$AA?9?$AAc?$AAu?$AAr?$AAr@ 10030040     libucrt:winapi_thunks.obj
 0002:00006098       ??_C@_1EG@DBIOJECG@?$AAe?$AAx?$AAt?$AA?9?$AAm?$AAs?$AA?9?$AAw?$AAi?$AAn?$AA?9?$AAn?$AAt?$AAu?$AAs?$AAe?$AAr?$AA?9?$AAd?$AAi?$AAa?$AAl?$AAo?$AAg?$AAb?$AAo?$AAx?$AA?9?$AAl?$AA1?$AA?9?$AA1@ 10030098     libucrt:winapi_thunks.obj
 0002:000060e0       ??_C@_1EO@FIHMJCLF@?$AAe?$AAx?$AAt?$AA?9?$AAm?$AAs?$AA?9?$AAw?$AAi?$AAn?$AA?9?$AAn?$AAt?$AAu?$AAs?$AAe?$AAr?$AA?9?$AAw?$AAi?$AAn?$AAd?$AAo?$AAw?$AAs?$AAt?$AAa?$AAt?$AAi?$AAo?$AAn?$AA?9@ 100300e0     libucrt:winapi_thunks.obj
 0002:00006130       ??_C@_1BC@DNHGCMLG@?$AAa?$AAd?$AAv?$AAa?$AAp?$AAi?$AA3?$AA2?$AA?$AA@ 10030130     libucrt:winapi_thunks.obj
 0002:00006144       ??_C@_1BC@GDMECMAK@?$AAk?$AAe?$AAr?$AAn?$AAe?$AAl?$AA3?$AA2?$AA?$AA@ 10030144     libucrt:winapi_thunks.obj
 0002:00006158       ??_C@_1O@BCCLBEOE@?$AAu?$AAs?$AAe?$AAr?$AA3?$AA2?$AA?$AA@ 10030158     libucrt:winapi_thunks.obj
 0002:00006170       ??_C@_08KNHFBNJ@FlsAlloc?$AA@ 10030170     libucrt:winapi_thunks.obj
 0002:00006184       ??_C@_07PEJMOBNF@FlsFree?$AA@ 10030184     libucrt:winapi_thunks.obj
 0002:00006194       ??_C@_0M@GDNOONDI@FlsGetValue?$AA@ 10030194     libucrt:winapi_thunks.obj
 0002:000061a8       ??_C@_0M@JCPCPOEF@FlsSetValue?$AA@ 100301a8     libucrt:winapi_thunks.obj
 0002:000061bc       ??_C@_0BE@JOGNEJCI@GetCurrentPackageId?$AA@ 100301bc     libucrt:winapi_thunks.obj
 0002:000061d8       ??_C@_0BM@HCFOFFN@InitializeCriticalSectionEx?$AA@ 100301d8     libucrt:winapi_thunks.obj
 0002:000061fc       ??_C@_0O@KKBNKAPF@LCMapStringEx?$AA@ 100301fc     libucrt:winapi_thunks.obj
 0002:00006214       ??_C@_0BB@HBDEELFH@LocaleNameToLCID?$AA@ 10030214     libucrt:winapi_thunks.obj
 0002:00006238       ??_C@_1M@HPNHIDJI@?$AAj?$AAa?$AA?9?$AAJ?$AAP?$AA?$AA@ 10030238     libucrt:mbctype.obj
 0002:00006244       ??_C@_1M@BIBDDEMK@?$AAz?$AAh?$AA?9?$AAC?$AAN?$AA?$AA@ 10030244     libucrt:mbctype.obj
 0002:00006250       ??_C@_1M@JLOOOEGK@?$AAk?$AAo?$AA?9?$AAK?$AAR?$AA?$AA@ 10030250     libucrt:mbctype.obj
 0002:0000625c       ??_C@_1M@CLNBBOPM@?$AAz?$AAh?$AA?9?$AAT?$AAW?$AA?$AA@ 1003025c     libucrt:mbctype.obj
 0002:00006268       ?large_power_data@?1??multiply_by_power_of_ten@__crt_strtox@@YA_NAAUbig_integer@2@I@Z@4QBIB 10030268     libucrt:cfout.obj
 0002:00006b70       ?large_power_indices@?1??multiply_by_power_of_ten@__crt_strtox@@YA_NAAUbig_integer@2@I@Z@4QBUunpack_index@?1??12@YA_N0I@Z@B 10030b70     libucrt:cfout.obj
 0002:00006c08       ?small_powers_of_ten@?6??multiply_by_power_of_ten@__crt_strtox@@YA_NAAUbig_integer@2@I@Z@4QBIB 10030c08     libucrt:cfout.obj
 0002:00006c2c       ??_C@_01GBGANLPD@0?$AA@    10030c2c     libucrt:cfout.obj
 0002:00006c30       ??_C@_05DNEBIAHO@1?$CDINF?$AA@ 10030c30     libucrt:cfout.obj
 0002:00006c38       ??_C@_06IMKFLFPG@1?$CDQNAN?$AA@ 10030c38     libucrt:cfout.obj
 0002:00006c40       ??_C@_06PGGFOGJG@1?$CDSNAN?$AA@ 10030c40     libucrt:cfout.obj
 0002:00006c48       ??_C@_05PHHOCPM@1?$CDIND?$AA@ 10030c48     libucrt:cfout.obj
 0002:00006c50       ??_C@_15PJPFLCCM@?$AAu?$AAk?$AA?$AA@ 10030c50     libucrt:get_qualified_locale.obj
 0002:00007378       ??_C@_15EMKDOKLE@?$AAa?$AAr?$AA?$AA@ 10031378     libucrt:lcidtoname_downlevel.obj
 0002:00007380       ??_C@_15KNPADPLH@?$AAb?$AAg?$AA?$AA@ 10031380     libucrt:lcidtoname_downlevel.obj
 0002:00007388       ??_C@_15EDMHLDMO@?$AAc?$AAa?$AA?$AA@ 10031388     libucrt:lcidtoname_downlevel.obj
 0002:00007390       ??_C@_1O@BPEAJADD@?$AAz?$AAh?$AA?9?$AAC?$AAH?$AAS?$AA?$AA@ 10031390     libucrt:lcidtoname_downlevel.obj
 0002:000073a0       ??_C@_15LJNHCMNK@?$AAc?$AAs?$AA?$AA@ 100313a0     libucrt:lcidtoname_downlevel.obj
 0002:000073a8       ??_C@_15FOMCIDHG@?$AAd?$AAa?$AA?$AA@ 100313a8     libucrt:lcidtoname_downlevel.obj
 0002:000073b0       ??_C@_15NBKABECB@?$AAd?$AAe?$AA?$AA@ 100313b0     libucrt:lcidtoname_downlevel.obj
 0002:000073b8       ??_C@_15GHPEIIAO@?$AAe?$AAl?$AA?$AA@ 100313b8     libucrt:lcidtoname_downlevel.obj
 0002:000073c0       ??_C@_15MNPNEAIF@?$AAe?$AAn?$AA?$AA@ 100313c0     libucrt:lcidtoname_downlevel.obj
 0002:000073c8       ??_C@_15GPIOMPMH@?$AAe?$AAs?$AA?$AA@ 100313c8     libucrt:lcidtoname_downlevel.obj
 0002:000073d0       ??_C@_15NGLOAKJC@?$AAf?$AAi?$AA?$AA@ 100313d0     libucrt:lcidtoname_downlevel.obj
 0002:000073d8       ??_C@_15FBKGNKAM@?$AAf?$AAr?$AA?$AA@ 100313d8     libucrt:lcidtoname_downlevel.obj
 0002:000073e0       ??_C@_15KGGCNEFK@?$AAh?$AAe?$AA?$AA@ 100313e0     libucrt:lcidtoname_downlevel.obj
 0002:000073e8       ??_C@_15PGHLIDMF@?$AAh?$AAu?$AA?$AA@ 100313e8     libucrt:lcidtoname_downlevel.obj
 0002:000073f0       ??_C@_15BIEMAPLM@?$AAi?$AAs?$AA?$AA@ 100313f0     libucrt:lcidtoname_downlevel.obj
 0002:000073f8       ??_C@_15IFJLDHAF@?$AAi?$AAt?$AA?$AA@ 100313f8     libucrt:lcidtoname_downlevel.obj
 0002:00007400       ??_C@_15GEMIOCAG@?$AAj?$AAa?$AA?$AA@ 10031400     libucrt:lcidtoname_downlevel.obj
 0002:00007408       ??_C@_15EPELEGJA@?$AAk?$AAo?$AA?$AA@ 10031408     libucrt:lcidtoname_downlevel.obj
 0002:00007410       ??_C@_15NDDHIMN@?$AAn?$AAl?$AA?$AA@ 10031410     libucrt:lcidtoname_downlevel.obj
 0002:00007418       ??_C@_15BPIGNHCD@?$AAn?$AAo?$AA?$AA@ 10031418     libucrt:lcidtoname_downlevel.obj
 0002:00007420       ??_C@_15DEOPBLCG@?$AAp?$AAl?$AA?$AA@ 10031420     libucrt:lcidtoname_downlevel.obj
 0002:00007428       ??_C@_15KBECGEFG@?$AAp?$AAt?$AA?$AA@ 10031428     libucrt:lcidtoname_downlevel.obj
 0002:00007430       ??_C@_15GLJCBFMD@?$AAr?$AAo?$AA?$AA@ 10031430     libucrt:lcidtoname_downlevel.obj
 0002:00007438       ??_C@_15FEDGKCDI@?$AAr?$AAu?$AA?$AA@ 10031438     libucrt:lcidtoname_downlevel.obj
 0002:00007440       ??_C@_15GLKMLLHM@?$AAh?$AAr?$AA?$AA@ 10031440     libucrt:lcidtoname_downlevel.obj
 0002:00007448       ??_C@_15CPKMFBDB@?$AAs?$AAk?$AA?$AA@ 10031448     libucrt:lcidtoname_downlevel.obj
 0002:00007450       ??_C@_15BAAIOGMK@?$AAs?$AAq?$AA?$AA@ 10031450     libucrt:lcidtoname_downlevel.obj
 0002:00007458       ??_C@_15INNPNOHD@?$AAs?$AAv?$AA?$AA@ 10031458     libucrt:lcidtoname_downlevel.obj
 0002:00007460       ??_C@_15CABMMOGH@?$AAt?$AAh?$AA?$AA@ 10031460     libucrt:lcidtoname_downlevel.obj
 0002:00007468       ??_C@_15BPLIHJJM@?$AAt?$AAr?$AA?$AA@ 10031468     libucrt:lcidtoname_downlevel.obj
 0002:00007470       ??_C@_15NEOEKKDJ@?$AAu?$AAr?$AA?$AA@ 10031470     libucrt:lcidtoname_downlevel.obj
 0002:00007478       ??_C@_15NFICGAJK@?$AAi?$AAd?$AA?$AA@ 10031478     libucrt:lcidtoname_downlevel.obj
 0002:00007480       ??_C@_15HPJPHDM@?$AAb?$AAe?$AA?$AA@ 10031480     libucrt:lcidtoname_downlevel.obj
 0002:00007488       ??_C@_15LCHLGJII@?$AAs?$AAl?$AA?$AA@ 10031488     libucrt:lcidtoname_downlevel.obj
 0002:00007490       ??_C@_15PCFJPHHO@?$AAe?$AAt?$AA?$AA@ 10031490     libucrt:lcidtoname_downlevel.obj
 0002:00007498       ??_C@_15HPFPGODN@?$AAl?$AAv?$AA?$AA@ 10031498     libucrt:lcidtoname_downlevel.obj
 0002:000074a0       ??_C@_15NFFGKGLG@?$AAl?$AAt?$AA?$AA@ 100314a0     libucrt:lcidtoname_downlevel.obj
 0002:000074a8       ??_C@_15BDAKCCHN@?$AAf?$AAa?$AA?$AA@ 100314a8     libucrt:lcidtoname_downlevel.obj
 0002:000074b0       ??_C@_15NFGIAIAJ@?$AAv?$AAi?$AA?$AA@ 100314b0     libucrt:lcidtoname_downlevel.obj
 0002:000074b8       ??_C@_15LMKNDMHN@?$AAh?$AAy?$AA?$AA@ 100314b8     libucrt:lcidtoname_downlevel.obj
 0002:000074c0       ??_C@_15IJBHMCFL@?$AAa?$AAz?$AA?$AA@ 100314c0     libucrt:lcidtoname_downlevel.obj
 0002:000074c8       ??_C@_15EKOFJABL@?$AAe?$AAu?$AA?$AA@ 100314c8     libucrt:lcidtoname_downlevel.obj
 0002:000074d0       ??_C@_15BGHADCNK@?$AAm?$AAk?$AA?$AA@ 100314d0     libucrt:lcidtoname_downlevel.obj
 0002:000074d8       ??_C@_15JDNICKHM@?$AAa?$AAf?$AA?$AA@ 100314d8     libucrt:lcidtoname_downlevel.obj
 0002:000074e0       ??_C@_15KPJEDBKD@?$AAk?$AAa?$AA?$AA@ 100314e0     libucrt:lcidtoname_downlevel.obj
 0002:000074e8       ??_C@_15PDNFFFEO@?$AAf?$AAo?$AA?$AA@ 100314e8     libucrt:lcidtoname_downlevel.obj
 0002:000074f0       ??_C@_15OMLEGLOC@?$AAh?$AAi?$AA?$AA@ 100314f0     libucrt:lcidtoname_downlevel.obj
 0002:000074f8       ??_C@_15IDNNENKK@?$AAm?$AAs?$AA?$AA@ 100314f8     libucrt:lcidtoname_downlevel.obj
 0002:00007500       ??_C@_15MACJNBMH@?$AAk?$AAk?$AA?$AA@ 10031500     libucrt:lcidtoname_downlevel.obj
 0002:00007508       ??_C@_15DKDJEOND@?$AAk?$AAy?$AA?$AA@ 10031508     libucrt:lcidtoname_downlevel.obj
 0002:00007510       ??_C@_15DFGDLJBG@?$AAs?$AAw?$AA?$AA@ 10031510     libucrt:lcidtoname_downlevel.obj
 0002:00007518       ??_C@_15BBFAICNG@?$AAu?$AAz?$AA?$AA@ 10031518     libucrt:lcidtoname_downlevel.obj
 0002:00007520       ??_C@_15DKNDCGEA@?$AAt?$AAt?$AA?$AA@ 10031520     libucrt:lcidtoname_downlevel.obj
 0002:00007528       ??_C@_15MGIFMDPL@?$AAp?$AAa?$AA?$AA@ 10031528     libucrt:lcidtoname_downlevel.obj
 0002:00007530       ??_C@_15HCNDBBA@?$AAg?$AAu?$AA?$AA@ 10031530     libucrt:lcidtoname_downlevel.obj
 0002:00007538       ??_C@_15FNBEIBON@?$AAt?$AAa?$AA?$AA@ 10031538     libucrt:lcidtoname_downlevel.obj
 0002:00007540       ??_C@_15NCHGBGLK@?$AAt?$AAe?$AA?$AA@ 10031540     libucrt:lcidtoname_downlevel.obj
 0002:00007548       ??_C@_15PHPHCBPF@?$AAk?$AAn?$AA?$AA@ 10031548     libucrt:lcidtoname_downlevel.obj
 0002:00007550       ??_C@_15DLGBCKMP@?$AAm?$AAr?$AA?$AA@ 10031550     libucrt:lcidtoname_downlevel.obj
 0002:00007558       ??_C@_15EABBLBFF@?$AAs?$AAa?$AA?$AA@ 10031558     libucrt:lcidtoname_downlevel.obj
 0002:00007560       ??_C@_15CBKOMCOI@?$AAm?$AAn?$AA?$AA@ 10031560     libucrt:lcidtoname_downlevel.obj
 0002:00007568       ??_C@_15CKDMCJAF@?$AAg?$AAl?$AA?$AA@ 10031568     libucrt:lcidtoname_downlevel.obj
 0002:00007570       ??_C@_17CNJFBPG@?$AAk?$AAo?$AAk?$AA?$AA@ 10031570     libucrt:lcidtoname_downlevel.obj
 0002:00007578       ??_C@_17FFBJICPL@?$AAs?$AAy?$AAr?$AA?$AA@ 10031578     libucrt:lcidtoname_downlevel.obj
 0002:00007580       ??_C@_17KPNDCPAF@?$AAd?$AAi?$AAv?$AA?$AA@ 10031580     libucrt:lcidtoname_downlevel.obj
 0002:00007588       ??_C@_11LOCGONAA@?$AA?$AA@ 10031588     libucrt:lcidtoname_downlevel.obj
 0002:0000758c       ??_C@_1M@OKAHONE@?$AAa?$AAr?$AA?9?$AAS?$AAA?$AA?$AA@ 1003158c     libucrt:lcidtoname_downlevel.obj
 0002:00007598       ??_C@_1M@FFFIGIGK@?$AAb?$AAg?$AA?9?$AAB?$AAG?$AA?$AA@ 10031598     libucrt:lcidtoname_downlevel.obj
 0002:000075a4       ??_C@_1M@BJNKEDC@?$AAc?$AAa?$AA?9?$AAE?$AAS?$AA?$AA@ 100315a4     libucrt:lcidtoname_downlevel.obj
 0002:000075b0       ??_C@_1M@IJJHFJHA@?$AAc?$AAs?$AA?9?$AAC?$AAZ?$AA?$AA@ 100315b0     libucrt:lcidtoname_downlevel.obj
 0002:000075bc       ??_C@_1M@CLPEOBGI@?$AAd?$AAa?$AA?9?$AAD?$AAK?$AA?$AA@ 100315bc     libucrt:lcidtoname_downlevel.obj
 0002:000075c8       ??_C@_1M@MCMADGCB@?$AAd?$AAe?$AA?9?$AAD?$AAE?$AA?$AA@ 100315c8     libucrt:lcidtoname_downlevel.obj
 0002:000075d4       ??_C@_1M@OOCKEMAM@?$AAe?$AAl?$AA?9?$AAG?$AAR?$AA?$AA@ 100315d4     libucrt:lcidtoname_downlevel.obj
 0002:000075e0       ??_C@_1M@DDNJFGID@?$AAf?$AAi?$AA?9?$AAF?$AAI?$AA?$AA@ 100315e0     libucrt:lcidtoname_downlevel.obj
 0002:000075ec       ??_C@_1M@GLIPPMAC@?$AAf?$AAr?$AA?9?$AAF?$AAR?$AA?$AA@ 100315ec     libucrt:lcidtoname_downlevel.obj
 0002:000075f8       ??_C@_1M@GFMCHPE@?$AAh?$AAe?$AA?9?$AAI?$AAL?$AA?$AA@ 100315f8     libucrt:lcidtoname_downlevel.obj
 0002:00007604       ??_C@_1M@MHLPGNKM@?$AAh?$AAu?$AA?9?$AAH?$AAU?$AA?$AA@ 10031604     libucrt:lcidtoname_downlevel.obj
 0002:00007610       ??_C@_1M@LPDDNNPN@?$AAi?$AAs?$AA?9?$AAI?$AAS?$AA?$AA@ 10031610     libucrt:lcidtoname_downlevel.obj
 0002:0000761c       ??_C@_1M@MADIPODN@?$AAi?$AAt?$AA?9?$AAI?$AAT?$AA?$AA@ 1003161c     libucrt:lcidtoname_downlevel.obj
 0002:00007628       ??_C@_1M@IHBJJGG@?$AAn?$AAl?$AA?9?$AAN?$AAL?$AA?$AA@ 10031628     libucrt:lcidtoname_downlevel.obj
 0002:00007634       ??_C@_1M@EANAGDL@?$AAn?$AAb?$AA?9?$AAN?$AAO?$AA?$AA@ 10031634     libucrt:lcidtoname_downlevel.obj
 0002:00007640       ??_C@_1M@NEIEMEGP@?$AAp?$AAl?$AA?9?$AAP?$AAL?$AA?$AA@ 10031640     libucrt:lcidtoname_downlevel.obj
 0002:0000764c       ??_C@_1M@BOCFIGEP@?$AAp?$AAt?$AA?9?$AAB?$AAR?$AA?$AA@ 1003164c     libucrt:lcidtoname_downlevel.obj
 0002:00007658       ??_C@_1M@IMPFOPBG@?$AAr?$AAo?$AA?9?$AAR?$AAO?$AA?$AA@ 10031658     libucrt:lcidtoname_downlevel.obj
 0002:00007664       ??_C@_1M@IDNNEJMM@?$AAr?$AAu?$AA?9?$AAR?$AAU?$AA?$AA@ 10031664     libucrt:lcidtoname_downlevel.obj
 0002:00007670       ??_C@_1M@LILEEOGM@?$AAh?$AAr?$AA?9?$AAH?$AAR?$AA?$AA@ 10031670     libucrt:lcidtoname_downlevel.obj
 0002:0000767c       ??_C@_1M@FKIFEHPB@?$AAs?$AAk?$AA?9?$AAS?$AAK?$AA?$AA@ 1003167c     libucrt:lcidtoname_downlevel.obj
 0002:00007688       ??_C@_1M@LJMAMNPJ@?$AAs?$AAq?$AA?9?$AAA?$AAL?$AA?$AA@ 10031688     libucrt:lcidtoname_downlevel.obj
 0002:00007694       ??_C@_1M@GIAKDKJK@?$AAs?$AAv?$AA?9?$AAS?$AAE?$AA?$AA@ 10031694     libucrt:lcidtoname_downlevel.obj
 0002:000076a0       ??_C@_1M@MKJKIKCL@?$AAt?$AAh?$AA?9?$AAT?$AAH?$AA?$AA@ 100316a0     libucrt:lcidtoname_downlevel.obj
 0002:000076ac       ??_C@_1M@MFLCCMPB@?$AAt?$AAr?$AA?9?$AAT?$AAR?$AA?$AA@ 100316ac     libucrt:lcidtoname_downlevel.obj
 0002:000076b8       ??_C@_1M@OIJHDKJN@?$AAu?$AAr?$AA?9?$AAP?$AAK?$AA?$AA@ 100316b8     libucrt:lcidtoname_downlevel.obj
 0002:000076c4       ??_C@_1M@LHIPCIEK@?$AAi?$AAd?$AA?9?$AAI?$AAD?$AA?$AA@ 100316c4     libucrt:lcidtoname_downlevel.obj
 0002:000076d0       ??_C@_1M@MFMOBGI@?$AAu?$AAk?$AA?9?$AAU?$AAA?$AA?$AA@ 100316d0     libucrt:lcidtoname_downlevel.obj
 0002:000076dc       ??_C@_1M@OBGLJIPL@?$AAb?$AAe?$AA?9?$AAB?$AAY?$AA?$AA@ 100316dc     libucrt:lcidtoname_downlevel.obj
 0002:000076e8       ??_C@_1M@BCFAJEAD@?$AAs?$AAl?$AA?9?$AAS?$AAI?$AA?$AA@ 100316e8     libucrt:lcidtoname_downlevel.obj
 0002:000076f4       ??_C@_1M@FKFFEDDN@?$AAe?$AAt?$AA?9?$AAE?$AAE?$AA?$AA@ 100316f4     libucrt:lcidtoname_downlevel.obj
 0002:00007700       ??_C@_1M@KGKKAACI@?$AAl?$AAv?$AA?9?$AAL?$AAV?$AA?$AA@ 10031700     libucrt:lcidtoname_downlevel.obj
 0002:0000770c       ??_C@_1M@IFGBIJO@?$AAl?$AAt?$AA?9?$AAL?$AAT?$AA?$AA@ 1003170c     libucrt:lcidtoname_downlevel.obj
 0002:00007718       ??_C@_1M@FGEAHEDM@?$AAf?$AAa?$AA?9?$AAI?$AAR?$AA?$AA@ 10031718     libucrt:lcidtoname_downlevel.obj
 0002:00007724       ??_C@_1M@KBMAIBFN@?$AAv?$AAi?$AA?9?$AAV?$AAN?$AA?$AA@ 10031724     libucrt:lcidtoname_downlevel.obj
 0002:00007730       ??_C@_1M@GPCBKDJK@?$AAh?$AAy?$AA?9?$AAA?$AAM?$AA?$AA@ 10031730     libucrt:lcidtoname_downlevel.obj
 0002:0000773c       ??_C@_1BG@BECMDDJB@?$AAa?$AAz?$AA?9?$AAA?$AAZ?$AA?9?$AAL?$AAa?$AAt?$AAn?$AA?$AA@ 1003173c     libucrt:lcidtoname_downlevel.obj
 0002:00007754       ??_C@_1M@MAOFCAEA@?$AAe?$AAu?$AA?9?$AAE?$AAS?$AA?$AA@ 10031754     libucrt:lcidtoname_downlevel.obj
 0002:00007760       ??_C@_1M@IGHABKPI@?$AAm?$AAk?$AA?9?$AAM?$AAK?$AA?$AA@ 10031760     libucrt:lcidtoname_downlevel.obj
 0002:0000776c       ??_C@_1M@IAIGNEJG@?$AAt?$AAn?$AA?9?$AAZ?$AAA?$AA?$AA@ 1003176c     libucrt:lcidtoname_downlevel.obj
 0002:00007778       ??_C@_1M@IIJCOJFA@?$AAx?$AAh?$AA?9?$AAZ?$AAA?$AA?$AA@ 10031778     libucrt:lcidtoname_downlevel.obj
 0002:00007784       ??_C@_1M@LGPJHNJH@?$AAz?$AAu?$AA?9?$AAZ?$AAA?$AA?$AA@ 10031784     libucrt:lcidtoname_downlevel.obj
 0002:00007790       ??_C@_1M@HOKAOIO@?$AAa?$AAf?$AA?9?$AAZ?$AAA?$AA?$AA@ 10031790     libucrt:lcidtoname_downlevel.obj
 0002:0000779c       ??_C@_1M@DPCLHLIE@?$AAk?$AAa?$AA?9?$AAG?$AAE?$AA?$AA@ 1003179c     libucrt:lcidtoname_downlevel.obj
 0002:000077a8       ??_C@_1M@BLKMHJBI@?$AAf?$AAo?$AA?9?$AAF?$AAO?$AA?$AA@ 100317a8     libucrt:lcidtoname_downlevel.obj
 0002:000077b4       ??_C@_1M@LGGJAPPB@?$AAh?$AAi?$AA?9?$AAI?$AAN?$AA?$AA@ 100317b4     libucrt:lcidtoname_downlevel.obj
 0002:000077c0       ??_C@_1M@FIKPIHFE@?$AAm?$AAt?$AA?9?$AAM?$AAT?$AA?$AA@ 100317c0     libucrt:lcidtoname_downlevel.obj
 0002:000077cc       ??_C@_1M@HEGGPBFA@?$AAs?$AAe?$AA?9?$AAN?$AAO?$AA?$AA@ 100317cc     libucrt:lcidtoname_downlevel.obj
 0002:000077d8       ??_C@_1M@EIBJEEPA@?$AAm?$AAs?$AA?9?$AAM?$AAY?$AA?$AA@ 100317d8     libucrt:lcidtoname_downlevel.obj
 0002:000077e4       ??_C@_1M@FHLBGMPP@?$AAk?$AAk?$AA?9?$AAK?$AAZ?$AA?$AA@ 100317e4     libucrt:lcidtoname_downlevel.obj
 0002:000077f0       ??_C@_1M@NGJJLCGI@?$AAk?$AAy?$AA?9?$AAK?$AAG?$AA?$AA@ 100317f0     libucrt:lcidtoname_downlevel.obj
 0002:000077fc       ??_C@_1M@GIENNBFC@?$AAs?$AAw?$AA?9?$AAK?$AAE?$AA?$AA@ 100317fc     libucrt:lcidtoname_downlevel.obj
 0002:00007808       ??_C@_1BG@NDGMJIMJ@?$AAu?$AAz?$AA?9?$AAU?$AAZ?$AA?9?$AAL?$AAa?$AAt?$AAn?$AA?$AA@ 10031808     libucrt:lcidtoname_downlevel.obj
 0002:00007820       ??_C@_1M@IDCCIHBC@?$AAt?$AAt?$AA?9?$AAR?$AAU?$AA?$AA@ 10031820     libucrt:lcidtoname_downlevel.obj
 0002:0000782c       ??_C@_1M@LOICPMOJ@?$AAb?$AAn?$AA?9?$AAI?$AAN?$AA?$AA@ 1003182c     libucrt:lcidtoname_downlevel.obj
 0002:00007838       ??_C@_1M@KPKKNEAH@?$AAp?$AAa?$AA?9?$AAI?$AAN?$AA?$AA@ 10031838     libucrt:lcidtoname_downlevel.obj
 0002:00007844       ??_C@_1M@PJGPPBOG@?$AAg?$AAu?$AA?9?$AAI?$AAN?$AA?$AA@ 10031844     libucrt:lcidtoname_downlevel.obj
 0002:00007850       ??_C@_1M@KMKMOPHI@?$AAt?$AAa?$AA?9?$AAI?$AAN?$AA?$AA@ 10031850     libucrt:lcidtoname_downlevel.obj
 0002:0000785c       ??_C@_1M@KFEHEPAC@?$AAt?$AAe?$AA?9?$AAI?$AAN?$AA?$AA@ 1003185c     libucrt:lcidtoname_downlevel.obj
 0002:00007868       ??_C@_1M@CDCLMGHI@?$AAk?$AAn?$AA?9?$AAI?$AAN?$AA?$AA@ 10031868     libucrt:lcidtoname_downlevel.obj
 0002:00007874       ??_C@_1M@MIODLDKF@?$AAm?$AAl?$AA?9?$AAI?$AAN?$AA?$AA@ 10031874     libucrt:lcidtoname_downlevel.obj
 0002:00007880       ??_C@_1M@PBIEACPO@?$AAm?$AAr?$AA?9?$AAI?$AAN?$AA?$AA@ 10031880     libucrt:lcidtoname_downlevel.obj
 0002:0000788c       ??_C@_1M@NIDEAGPH@?$AAs?$AAa?$AA?9?$AAI?$AAN?$AA?$AA@ 1003188c     libucrt:lcidtoname_downlevel.obj
 0002:00007898       ??_C@_1M@FHIHCBIO@?$AAm?$AAn?$AA?9?$AAM?$AAN?$AA?$AA@ 10031898     libucrt:lcidtoname_downlevel.obj
 0002:000078a4       ??_C@_1M@JAIJPENP@?$AAc?$AAy?$AA?9?$AAG?$AAB?$AA?$AA@ 100318a4     libucrt:lcidtoname_downlevel.obj
 0002:000078b0       ??_C@_1M@PHGFBEPN@?$AAg?$AAl?$AA?9?$AAE?$AAS?$AA?$AA@ 100318b0     libucrt:lcidtoname_downlevel.obj
 0002:000078bc       ??_C@_1O@KPIPDNCP@?$AAk?$AAo?$AAk?$AA?9?$AAI?$AAN?$AA?$AA@ 100318bc     libucrt:lcidtoname_downlevel.obj
 0002:000078cc       ??_C@_1O@KNHJLDJA@?$AAs?$AAy?$AAr?$AA?9?$AAS?$AAY?$AA?$AA@ 100318cc     libucrt:lcidtoname_downlevel.obj
 0002:000078dc       ??_C@_1O@MKEKBLAH@?$AAd?$AAi?$AAv?$AA?9?$AAM?$AAV?$AA?$AA@ 100318dc     libucrt:lcidtoname_downlevel.obj
 0002:000078ec       ??_C@_1O@OHDCKDDF@?$AAq?$AAu?$AAz?$AA?9?$AAB?$AAO?$AA?$AA@ 100318ec     libucrt:lcidtoname_downlevel.obj
 0002:000078fc       ??_C@_1M@LEPJNLFD@?$AAn?$AAs?$AA?9?$AAZ?$AAA?$AA?$AA@ 100318fc     libucrt:lcidtoname_downlevel.obj
 0002:00007908       ??_C@_1M@OMLEIIJB@?$AAm?$AAi?$AA?9?$AAN?$AAZ?$AA?$AA@ 10031908     libucrt:lcidtoname_downlevel.obj
 0002:00007914       ??_C@_1M@PMPEAILG@?$AAa?$AAr?$AA?9?$AAI?$AAQ?$AA?$AA@ 10031914     libucrt:lcidtoname_downlevel.obj
 0002:00007920       ??_C@_1M@CNKPNOEE@?$AAd?$AAe?$AA?9?$AAC?$AAH?$AA?$AA@ 10031920     libucrt:lcidtoname_downlevel.obj
 0002:0000792c       ??_C@_1M@LKMGMLKO@?$AAe?$AAn?$AA?9?$AAG?$AAB?$AA?$AA@ 1003192c     libucrt:lcidtoname_downlevel.obj
 0002:00007938       ??_C@_1M@PGKJFFGL@?$AAe?$AAs?$AA?9?$AAM?$AAX?$AA?$AA@ 10031938     libucrt:lcidtoname_downlevel.obj
 0002:00007944       ??_C@_1M@DNNANBDC@?$AAf?$AAr?$AA?9?$AAB?$AAE?$AA?$AA@ 10031944     libucrt:lcidtoname_downlevel.obj
 0002:00007950       ??_C@_1M@HLGMDFHM@?$AAi?$AAt?$AA?9?$AAC?$AAH?$AA?$AA@ 10031950     libucrt:lcidtoname_downlevel.obj
 0002:0000795c       ??_C@_1M@CLLBGJH@?$AAn?$AAl?$AA?9?$AAB?$AAE?$AA?$AA@ 1003195c     libucrt:lcidtoname_downlevel.obj
 0002:00007968       ??_C@_1M@BODBOGLF@?$AAn?$AAn?$AA?9?$AAN?$AAO?$AA?$AA@ 10031968     libucrt:lcidtoname_downlevel.obj
 0002:00007974       ??_C@_1M@HFFAHKAD@?$AAp?$AAt?$AA?9?$AAP?$AAT?$AA?$AA@ 10031974     libucrt:lcidtoname_downlevel.obj
 0002:00007980       ??_C@_1BG@LNOAKHIE@?$AAs?$AAr?$AA?9?$AAS?$AAP?$AA?9?$AAL?$AAa?$AAt?$AAn?$AA?$AA@ 10031980     libucrt:lcidtoname_downlevel.obj
 0002:00007998       ??_C@_1M@HBMHBGAK@?$AAs?$AAv?$AA?9?$AAF?$AAI?$AA?$AA@ 10031998     libucrt:lcidtoname_downlevel.obj
 0002:000079a4       ??_C@_1BG@DGCJGJBE@?$AAa?$AAz?$AA?9?$AAA?$AAZ?$AA?9?$AAC?$AAy?$AAr?$AAl?$AA?$AA@ 100319a4     libucrt:lcidtoname_downlevel.obj
 0002:000079bc       ??_C@_1M@KEJDAAHB@?$AAs?$AAe?$AA?9?$AAS?$AAE?$AA?$AA@ 100319bc     libucrt:lcidtoname_downlevel.obj
 0002:000079c8       ??_C@_1M@HEIBJJAD@?$AAm?$AAs?$AA?9?$AAB?$AAN?$AA?$AA@ 100319c8     libucrt:lcidtoname_downlevel.obj
 0002:000079d4       ??_C@_1BG@PBGJMCEM@?$AAu?$AAz?$AA?9?$AAU?$AAZ?$AA?9?$AAC?$AAy?$AAr?$AAl?$AA?$AA@ 100319d4     libucrt:lcidtoname_downlevel.obj
 0002:000079ec       ??_C@_1O@LAOBCMDF@?$AAq?$AAu?$AAz?$AA?9?$AAE?$AAC?$AA?$AA@ 100319ec     libucrt:lcidtoname_downlevel.obj
 0002:000079fc       ??_C@_1M@POEEMAIO@?$AAa?$AAr?$AA?9?$AAE?$AAG?$AA?$AA@ 100319fc     libucrt:lcidtoname_downlevel.obj
 0002:00007a08       ??_C@_1M@EFAKDEDL@?$AAz?$AAh?$AA?9?$AAH?$AAK?$AA?$AA@ 10031a08     libucrt:lcidtoname_downlevel.obj
 0002:00007a14       ??_C@_1M@HKKIJHGI@?$AAd?$AAe?$AA?9?$AAA?$AAT?$AA?$AA@ 10031a14     libucrt:lcidtoname_downlevel.obj
 0002:00007a20       ??_C@_1M@KBFBEHJF@?$AAe?$AAn?$AA?9?$AAA?$AAU?$AA?$AA@ 10031a20     libucrt:lcidtoname_downlevel.obj
 0002:00007a2c       ??_C@_1M@MNPLFAAH@?$AAe?$AAs?$AA?9?$AAE?$AAS?$AA?$AA@ 10031a2c     libucrt:lcidtoname_downlevel.obj
 0002:00007a38       ??_C@_1M@HJOOJFMA@?$AAf?$AAr?$AA?9?$AAC?$AAA?$AA?$AA@ 10031a38     libucrt:lcidtoname_downlevel.obj
 0002:00007a44       ??_C@_1BG@JPOFPNAB@?$AAs?$AAr?$AA?9?$AAS?$AAP?$AA?9?$AAC?$AAy?$AAr?$AAl?$AA?$AA@ 10031a44     libucrt:lcidtoname_downlevel.obj
 0002:00007a5c       ??_C@_1M@LNFOCMOB@?$AAs?$AAe?$AA?9?$AAF?$AAI?$AA?$AA@ 10031a5c     libucrt:lcidtoname_downlevel.obj
 0002:00007a68       ??_C@_1O@MGJBOAMB@?$AAq?$AAu?$AAz?$AA?9?$AAP?$AAE?$AA?$AA@ 10031a68     libucrt:lcidtoname_downlevel.obj
 0002:00007a78       ??_C@_1M@GJINLBOK@?$AAa?$AAr?$AA?9?$AAL?$AAY?$AA?$AA@ 10031a78     libucrt:lcidtoname_downlevel.obj
 0002:00007a84       ??_C@_1M@GGMNHJNL@?$AAz?$AAh?$AA?9?$AAS?$AAG?$AA?$AA@ 10031a84     libucrt:lcidtoname_downlevel.obj
 0002:00007a90       ??_C@_1M@HOIKODND@?$AAd?$AAe?$AA?9?$AAL?$AAU?$AA?$AA@ 10031a90     libucrt:lcidtoname_downlevel.obj
 0002:00007a9c       ??_C@_1M@DDOCCGFG@?$AAe?$AAn?$AA?9?$AAC?$AAA?$AA?$AA@ 10031a9c     libucrt:lcidtoname_downlevel.obj
 0002:00007aa8       ??_C@_1M@BNOEMJLF@?$AAe?$AAs?$AA?9?$AAG?$AAT?$AA?$AA@ 10031aa8     libucrt:lcidtoname_downlevel.obj
 0002:00007ab4       ??_C@_1M@EOGNKEK@?$AAf?$AAr?$AA?9?$AAC?$AAH?$AA?$AA@ 10031ab4     libucrt:lcidtoname_downlevel.obj
 0002:00007ac0       ??_C@_1M@FLIDJFHL@?$AAh?$AAr?$AA?9?$AAB?$AAA?$AA?$AA@ 10031ac0     libucrt:lcidtoname_downlevel.obj
 0002:00007acc       ??_C@_1O@FMCELNAJ@?$AAs?$AAm?$AAj?$AA?9?$AAN?$AAO?$AA?$AA@ 10031acc     libucrt:lcidtoname_downlevel.obj
 0002:00007adc       ??_C@_1M@JHGLJMGJ@?$AAa?$AAr?$AA?9?$AAD?$AAZ?$AA?$AA@ 10031adc     libucrt:lcidtoname_downlevel.obj
 0002:00007ae8       ??_C@_1M@JKKFDCNP@?$AAz?$AAh?$AA?9?$AAM?$AAO?$AA?$AA@ 10031ae8     libucrt:lcidtoname_downlevel.obj
 0002:00007af4       ??_C@_1M@GEEFALPE@?$AAd?$AAe?$AA?9?$AAL?$AAI?$AA?$AA@ 10031af4     libucrt:lcidtoname_downlevel.obj
 0002:00007b00       ??_C@_1M@IGEOFBG@?$AAe?$AAn?$AA?9?$AAN?$AAZ?$AA?$AA@ 10031b00     libucrt:lcidtoname_downlevel.obj
 0002:00007b0c       ??_C@_1M@KDBONEHP@?$AAe?$AAs?$AA?9?$AAC?$AAR?$AA?$AA@ 10031b0c     libucrt:lcidtoname_downlevel.obj
 0002:00007b18       ??_C@_1M@FHMDOHNN@?$AAf?$AAr?$AA?9?$AAL?$AAU?$AA?$AA@ 10031b18     libucrt:lcidtoname_downlevel.obj
 0002:00007b24       ??_C@_1BG@NFKKMAFG@?$AAb?$AAs?$AA?9?$AAB?$AAA?$AA?9?$AAL?$AAa?$AAt?$AAn?$AA?$AA@ 10031b24     libucrt:lcidtoname_downlevel.obj
 0002:00007b3c       ??_C@_1O@IMNBEMCI@?$AAs?$AAm?$AAj?$AA?9?$AAS?$AAE?$AA?$AA@ 10031b3c     libucrt:lcidtoname_downlevel.obj
 0002:00007b4c       ??_C@_1M@DHHMBNDP@?$AAa?$AAr?$AA?9?$AAM?$AAA?$AA?$AA@ 10031b4c     libucrt:lcidtoname_downlevel.obj
 0002:00007b58       ??_C@_1M@BNBLJCGH@?$AAe?$AAn?$AA?9?$AAI?$AAE?$AA?$AA@ 10031b58     libucrt:lcidtoname_downlevel.obj
 0002:00007b64       ??_C@_1M@GEPAFMDL@?$AAe?$AAs?$AA?9?$AAP?$AAA?$AA?$AA@ 10031b64     libucrt:lcidtoname_downlevel.obj
 0002:00007b70       ??_C@_1M@OJONDMDL@?$AAf?$AAr?$AA?9?$AAM?$AAC?$AA?$AA@ 10031b70     libucrt:lcidtoname_downlevel.obj
 0002:00007b7c       ??_C@_1BG@OBCNFJB@?$AAs?$AAr?$AA?9?$AAB?$AAA?$AA?9?$AAL?$AAa?$AAt?$AAn?$AA?$AA@ 10031b7c     libucrt:lcidtoname_downlevel.obj
 0002:00007b94       ??_C@_1O@KEMEEGPO@?$AAs?$AAm?$AAa?$AA?9?$AAN?$AAO?$AA?$AA@ 10031b94     libucrt:lcidtoname_downlevel.obj
 0002:00007ba4       ??_C@_1M@ELMGFODK@?$AAa?$AAr?$AA?9?$AAT?$AAN?$AA?$AA@ 10031ba4     libucrt:lcidtoname_downlevel.obj
 0002:00007bb0       ??_C@_1M@BHDLHFAF@?$AAe?$AAn?$AA?9?$AAZ?$AAA?$AA?$AA@ 10031bb0     libucrt:lcidtoname_downlevel.obj
 0002:00007bbc       ??_C@_1M@BMGIGLIF@?$AAe?$AAs?$AA?9?$AAD?$AAO?$AA?$AA@ 10031bbc     libucrt:lcidtoname_downlevel.obj
 0002:00007bc8       ??_C@_1BG@CMBHIPBE@?$AAs?$AAr?$AA?9?$AAB?$AAA?$AA?9?$AAC?$AAy?$AAr?$AAl?$AA?$AA@ 10031bc8     libucrt:lcidtoname_downlevel.obj
 0002:00007be0       ??_C@_1O@HEDBLHNP@?$AAs?$AAm?$AAa?$AA?9?$AAS?$AAE?$AA?$AA@ 10031be0     libucrt:lcidtoname_downlevel.obj
 0002:00007bf0       ??_C@_1M@DAGCADIM@?$AAa?$AAr?$AA?9?$AAO?$AAM?$AA?$AA@ 10031bf0     libucrt:lcidtoname_downlevel.obj
 0002:00007bfc       ??_C@_1M@FODLMICG@?$AAe?$AAn?$AA?9?$AAJ?$AAM?$AA?$AA@ 10031bfc     libucrt:lcidtoname_downlevel.obj
 0002:00007c08       ??_C@_1M@DNMLCIHB@?$AAe?$AAs?$AA?9?$AAV?$AAE?$AA?$AA@ 10031c08     libucrt:lcidtoname_downlevel.obj
 0002:00007c14       ??_C@_1O@EOKHMKJK@?$AAs?$AAm?$AAs?$AA?9?$AAF?$AAI?$AA?$AA@ 10031c14     libucrt:lcidtoname_downlevel.obj
 0002:00007c24       ??_C@_1M@CAFJMKOF@?$AAa?$AAr?$AA?9?$AAY?$AAE?$AA?$AA@ 10031c24     libucrt:lcidtoname_downlevel.obj
 0002:00007c30       ??_C@_1M@CBFHIJLI@?$AAe?$AAn?$AA?9?$AAC?$AAB?$AA?$AA@ 10031c30     libucrt:lcidtoname_downlevel.obj
 0002:00007c3c       ??_C@_1M@BGNFLDN@?$AAe?$AAs?$AA?9?$AAC?$AAO?$AA?$AA@ 10031c3c     libucrt:lcidtoname_downlevel.obj
 0002:00007c48       ??_C@_1O@JMPHMAMC@?$AAs?$AAm?$AAn?$AA?9?$AAF?$AAI?$AA?$AA@ 10031c48     libucrt:lcidtoname_downlevel.obj
 0002:00007c58       ??_C@_1M@JLANABKE@?$AAa?$AAr?$AA?9?$AAS?$AAY?$AA?$AA@ 10031c58     libucrt:lcidtoname_downlevel.obj
 0002:00007c64       ??_C@_1M@HPKGCFGN@?$AAe?$AAn?$AA?9?$AAB?$AAZ?$AA?$AA@ 10031c64     libucrt:lcidtoname_downlevel.obj
 0002:00007c70       ??_C@_1M@OLJCMLGM@?$AAe?$AAs?$AA?9?$AAP?$AAE?$AA?$AA@ 10031c70     libucrt:lcidtoname_downlevel.obj
 0002:00007c7c       ??_C@_1M@MKKGFKLE@?$AAa?$AAr?$AA?9?$AAJ?$AAO?$AA?$AA@ 10031c7c     libucrt:lcidtoname_downlevel.obj
 0002:00007c88       ??_C@_1M@EKPGLDNI@?$AAe?$AAn?$AA?9?$AAT?$AAT?$AA?$AA@ 10031c88     libucrt:lcidtoname_downlevel.obj
 0002:00007c94       ??_C@_1M@OONGHFHE@?$AAe?$AAs?$AA?9?$AAA?$AAR?$AA?$AA@ 10031c94     libucrt:lcidtoname_downlevel.obj
 0002:00007ca0       ??_C@_1M@OOJFGBHE@?$AAa?$AAr?$AA?9?$AAL?$AAB?$AA?$AA@ 10031ca0     libucrt:lcidtoname_downlevel.obj
 0002:00007cac       ??_C@_1M@GCEJHNEG@?$AAe?$AAn?$AA?9?$AAZ?$AAW?$AA?$AA@ 10031cac     libucrt:lcidtoname_downlevel.obj
 0002:00007cb8       ??_C@_1M@JNOCAHJI@?$AAe?$AAs?$AA?9?$AAE?$AAC?$AA?$AA@ 10031cb8     libucrt:lcidtoname_downlevel.obj
 0002:00007cc4       ??_C@_1M@JEFHPGGB@?$AAa?$AAr?$AA?9?$AAK?$AAW?$AA?$AA@ 10031cc4     libucrt:lcidtoname_downlevel.obj
 0002:00007cd0       ??_C@_1M@MLKIBJOJ@?$AAe?$AAn?$AA?9?$AAP?$AAH?$AA?$AA@ 10031cd0     libucrt:lcidtoname_downlevel.obj
 0002:00007cdc       ??_C@_1M@BDNIPEND@?$AAe?$AAs?$AA?9?$AAC?$AAL?$AA?$AA@ 10031cdc     libucrt:lcidtoname_downlevel.obj
 0002:00007ce8       ??_C@_1M@MPNMEKBD@?$AAa?$AAr?$AA?9?$AAA?$AAE?$AA?$AA@ 10031ce8     libucrt:lcidtoname_downlevel.obj
 0002:00007cf4       ??_C@_1M@KBJALCPI@?$AAe?$AAs?$AA?9?$AAU?$AAY?$AA?$AA@ 10031cf4     libucrt:lcidtoname_downlevel.obj
 0002:00007d00       ??_C@_1M@LLCCOAGA@?$AAa?$AAr?$AA?9?$AAB?$AAH?$AA?$AA@ 10031d00     libucrt:lcidtoname_downlevel.obj
 0002:00007d0c       ??_C@_1M@PBFNCDEL@?$AAe?$AAs?$AA?9?$AAP?$AAY?$AA?$AA@ 10031d0c     libucrt:lcidtoname_downlevel.obj
 0002:00007d18       ??_C@_1M@EDGINPNP@?$AAa?$AAr?$AA?9?$AAQ?$AAA?$AA?$AA@ 10031d18     libucrt:lcidtoname_downlevel.obj
 0002:00007d24       ??_C@_1M@MKDBIIJI@?$AAe?$AAs?$AA?9?$AAB?$AAO?$AA?$AA@ 10031d24     libucrt:lcidtoname_downlevel.obj
 0002:00007d30       ??_C@_1M@CPKKEBLD@?$AAe?$AAs?$AA?9?$AAS?$AAV?$AA?$AA@ 10031d30     libucrt:lcidtoname_downlevel.obj
 0002:00007d3c       ??_C@_1M@NDBGMMJL@?$AAe?$AAs?$AA?9?$AAH?$AAN?$AA?$AA@ 10031d3c     libucrt:lcidtoname_downlevel.obj
 0002:00007d48       ??_C@_1M@JIJIBHDP@?$AAe?$AAs?$AA?9?$AAN?$AAI?$AA?$AA@ 10031d48     libucrt:lcidtoname_downlevel.obj
 0002:00007d54       ??_C@_1M@CGFMKEEK@?$AAe?$AAs?$AA?9?$AAP?$AAR?$AA?$AA@ 10031d54     libucrt:lcidtoname_downlevel.obj
 0002:00007d60       ??_C@_1O@ICJHKIIK@?$AAz?$AAh?$AA?9?$AAC?$AAH?$AAT?$AA?$AA@ 10031d60     libucrt:lcidtoname_downlevel.obj
 0002:00007d70       ??_C@_15CLNEJCE@?$AAs?$AAr?$AA?$AA@ 10031d70     libucrt:lcidtoname_downlevel.obj
 0002:00008498       ??_C@_1M@KAHEKEIG@?$AAa?$AAf?$AA?9?$AAz?$AAa?$AA?$AA@ 10032498     libucrt:lcidtoname_downlevel.obj
 0002:000084a4       ??_C@_1M@GIECOABL@?$AAa?$AAr?$AA?9?$AAa?$AAe?$AA?$AA@ 100324a4     libucrt:lcidtoname_downlevel.obj
 0002:000084b0       ??_C@_1M@BMLMEKGI@?$AAa?$AAr?$AA?9?$AAb?$AAh?$AA?$AA@ 100324b0     libucrt:lcidtoname_downlevel.obj
 0002:000084bc       ??_C@_1M@DAPFDGGB@?$AAa?$AAr?$AA?9?$AAd?$AAz?$AA?$AA@ 100324bc     libucrt:lcidtoname_downlevel.obj
 0002:000084c8       ??_C@_1M@FJNKGKIG@?$AAa?$AAr?$AA?9?$AAe?$AAg?$AA?$AA@ 100324c8     libucrt:lcidtoname_downlevel.obj
 0002:000084d4       ??_C@_1M@FLGKKCLO@?$AAa?$AAr?$AA?9?$AAi?$AAq?$AA?$AA@ 100324d4     libucrt:lcidtoname_downlevel.obj
 0002:000084e0       ??_C@_1M@GNDIPALM@?$AAa?$AAr?$AA?9?$AAj?$AAo?$AA?$AA@ 100324e0     libucrt:lcidtoname_downlevel.obj
 0002:000084ec       ??_C@_1M@DDMJFMGJ@?$AAa?$AAr?$AA?9?$AAk?$AAw?$AA?$AA@ 100324ec     libucrt:lcidtoname_downlevel.obj
 0002:000084f8       ??_C@_1M@EJALMLHM@?$AAa?$AAr?$AA?9?$AAl?$AAb?$AA?$AA@ 100324f8     libucrt:lcidtoname_downlevel.obj
 0002:00008504       ??_C@_1M@MOBDBLOC@?$AAa?$AAr?$AA?9?$AAl?$AAy?$AA?$AA@ 10032504     libucrt:lcidtoname_downlevel.obj
 0002:00008510       ??_C@_1M@JAOCLHDH@?$AAa?$AAr?$AA?9?$AAm?$AAa?$AA?$AA@ 10032510     libucrt:lcidtoname_downlevel.obj
 0002:0000851c       ??_C@_1M@JHPMKJIE@?$AAa?$AAr?$AA?9?$AAo?$AAm?$AA?$AA@ 1003251c     libucrt:lcidtoname_downlevel.obj
 0002:00008528       ??_C@_1M@OEPGHFNH@?$AAa?$AAr?$AA?9?$AAq?$AAa?$AA?$AA@ 10032528     libucrt:lcidtoname_downlevel.obj
 0002:00008534       ??_C@_1M@KJDONENM@?$AAa?$AAr?$AA?9?$AAs?$AAa?$AA?$AA@ 10032534     libucrt:lcidtoname_downlevel.obj
 0002:00008540       ??_C@_1M@DMJDKLKM@?$AAa?$AAr?$AA?9?$AAs?$AAy?$AA?$AA@ 10032540     libucrt:lcidtoname_downlevel.obj
 0002:0000854c       ??_C@_1M@OMFIPEDC@?$AAa?$AAr?$AA?9?$AAt?$AAn?$AA?$AA@ 1003254c     libucrt:lcidtoname_downlevel.obj
 0002:00008558       ??_C@_1M@IHMHGAON@?$AAa?$AAr?$AA?9?$AAy?$AAe?$AA?$AA@ 10032558     libucrt:lcidtoname_downlevel.obj
 0002:00008564       ??_C@_1BG@KDCPGJGB@?$AAa?$AAz?$AA?9?$AAa?$AAz?$AA?9?$AAc?$AAy?$AAr?$AAl?$AA?$AA@ 10032564     libucrt:lcidtoname_downlevel.obj
 0002:0000857c       ??_C@_1BG@IBCKDDOE@?$AAa?$AAz?$AA?9?$AAa?$AAz?$AA?9?$AAl?$AAa?$AAt?$AAn?$AA?$AA@ 1003257c     libucrt:lcidtoname_downlevel.obj
 0002:00008594       ??_C@_1M@EGPFDCPD@?$AAb?$AAe?$AA?9?$AAb?$AAy?$AA?$AA@ 10032594     libucrt:lcidtoname_downlevel.obj
 0002:000085a0       ??_C@_1M@PCMGMCGC@?$AAb?$AAg?$AA?9?$AAb?$AAg?$AA?$AA@ 100325a0     libucrt:lcidtoname_downlevel.obj
 0002:000085ac       ??_C@_1M@BJBMFGOB@?$AAb?$AAn?$AA?9?$AAi?$AAn?$AA?$AA@ 100325ac     libucrt:lcidtoname_downlevel.obj
 0002:000085b8       ??_C@_1BG@EAKMMACD@?$AAb?$AAs?$AA?9?$AAb?$AAa?$AA?9?$AAl?$AAa?$AAt?$AAn?$AA?$AA@ 100325b8     libucrt:lcidtoname_downlevel.obj
 0002:000085d0       ??_C@_1M@KGADAODK@?$AAc?$AAa?$AA?9?$AAe?$AAs?$AA?$AA@ 100325d0     libucrt:lcidtoname_downlevel.obj
 0002:000085dc       ??_C@_1M@COAJPDHI@?$AAc?$AAs?$AA?9?$AAc?$AAz?$AA?$AA@ 100325dc     libucrt:lcidtoname_downlevel.obj
 0002:000085e8       ??_C@_1M@DHBHFONH@?$AAc?$AAy?$AA?9?$AAg?$AAb?$AA?$AA@ 100325e8     libucrt:lcidtoname_downlevel.obj
 0002:000085f4       ??_C@_1M@IMGKELGA@?$AAd?$AAa?$AA?9?$AAd?$AAk?$AA?$AA@ 100325f4     libucrt:lcidtoname_downlevel.obj
 0002:00008600       ??_C@_1M@NNDGDNGA@?$AAd?$AAe?$AA?9?$AAa?$AAt?$AA?$AA@ 10032600     libucrt:lcidtoname_downlevel.obj
 0002:0000860c       ??_C@_1M@IKDBHEEM@?$AAd?$AAe?$AA?9?$AAc?$AAh?$AA?$AA@ 1003260c     libucrt:lcidtoname_downlevel.obj
 0002:00008618       ??_C@_1M@GFFOJMCJ@?$AAd?$AAe?$AA?9?$AAd?$AAe?$AA?$AA@ 10032618     libucrt:lcidtoname_downlevel.obj
 0002:00008624       ??_C@_1M@MDNLKBPM@?$AAd?$AAe?$AA?9?$AAl?$AAi?$AA?$AA@ 10032624     libucrt:lcidtoname_downlevel.obj
 0002:00008630       ??_C@_1M@NJBEEJNL@?$AAd?$AAe?$AA?9?$AAl?$AAu?$AA?$AA@ 10032630     libucrt:lcidtoname_downlevel.obj
 0002:0000863c       ??_C@_1O@GNNELBAP@?$AAd?$AAi?$AAv?$AA?9?$AAm?$AAv?$AA?$AA@ 1003263c     libucrt:lcidtoname_downlevel.obj
 0002:0000864c       ??_C@_1M@EJLEOGAE@?$AAe?$AAl?$AA?9?$AAg?$AAr?$AA?$AA@ 1003264c     libucrt:lcidtoname_downlevel.obj
 0002:00008658       ??_C@_1M@GMPONJN@?$AAe?$AAn?$AA?9?$AAa?$AAu?$AA?$AA@ 10032658     libucrt:lcidtoname_downlevel.obj
 0002:00008664       ??_C@_1M@NIDIIPGF@?$AAe?$AAn?$AA?9?$AAb?$AAz?$AA?$AA@ 10032664     libucrt:lcidtoname_downlevel.obj
 0002:00008670       ??_C@_1M@JEHMIMFO@?$AAe?$AAn?$AA?9?$AAc?$AAa?$AA?$AA@ 10032670     libucrt:lcidtoname_downlevel.obj
 0002:0000867c       ??_C@_1M@IGMJCDLA@?$AAe?$AAn?$AA?9?$AAc?$AAb?$AA?$AA@ 1003267c     libucrt:lcidtoname_downlevel.obj
 0002:00008688       ??_C@_1M@BNFIGBKG@?$AAe?$AAn?$AA?9?$AAg?$AAb?$AA?$AA@ 10032688     libucrt:lcidtoname_downlevel.obj
 0002:00008694       ??_C@_1M@LKIFDIGP@?$AAe?$AAn?$AA?9?$AAi?$AAe?$AA?$AA@ 10032694     libucrt:lcidtoname_downlevel.obj
 0002:000086a0       ??_C@_1M@PJKFGCCO@?$AAe?$AAn?$AA?9?$AAj?$AAm?$AA?$AA@ 100326a0     libucrt:lcidtoname_downlevel.obj
 0002:000086ac       ??_C@_1M@KPPKEPBO@?$AAe?$AAn?$AA?9?$AAn?$AAz?$AA?$AA@ 100326ac     libucrt:lcidtoname_downlevel.obj
 0002:000086b8       ??_C@_1M@GMDGLDOB@?$AAe?$AAn?$AA?9?$AAp?$AAh?$AA?$AA@ 100326b8     libucrt:lcidtoname_downlevel.obj
 0002:000086c4       ??_C@_1M@ONGIBJNA@?$AAe?$AAn?$AA?9?$AAt?$AAt?$AA?$AA@ 100326c4     libucrt:lcidtoname_downlevel.obj
 0002:000086d0       ??_C@_1M@LLODPCMM@?$AAe?$AAn?$AA?9?$AAu?$AAs?$AA?$AA@ 100326d0     libucrt:lcidtoname_downlevel.obj
 0002:000086dc       ??_C@_1M@LAKFNPAN@?$AAe?$AAn?$AA?9?$AAz?$AAa?$AA?$AA@ 100326dc     libucrt:lcidtoname_downlevel.obj
 0002:000086e8       ??_C@_1M@MFNHNHEO@?$AAe?$AAn?$AA?9?$AAz?$AAw?$AA?$AA@ 100326e8     libucrt:lcidtoname_downlevel.obj
 0002:000086f4       ??_C@_1M@EJEINPHM@?$AAe?$AAs?$AA?9?$AAa?$AAr?$AA?$AA@ 100326f4     libucrt:lcidtoname_downlevel.obj
 0002:00008700       ??_C@_1M@GNKPCCJA@?$AAe?$AAs?$AA?9?$AAb?$AAo?$AA?$AA@ 10032700     libucrt:lcidtoname_downlevel.obj
 0002:0000870c       ??_C@_1M@LEEGFONL@?$AAe?$AAs?$AA?9?$AAc?$AAl?$AA?$AA@ 1003270c     libucrt:lcidtoname_downlevel.obj
 0002:00008718       ??_C@_1M@KGPDPBDF@?$AAe?$AAs?$AA?9?$AAc?$AAo?$AA?$AA@ 10032718     libucrt:lcidtoname_downlevel.obj
 0002:00008724       ??_C@_1M@EIAHOHH@?$AAe?$AAs?$AA?9?$AAc?$AAr?$AA?$AA@ 10032724     libucrt:lcidtoname_downlevel.obj
 0002:00008730       ??_C@_1M@LLPGMBIN@?$AAe?$AAs?$AA?9?$AAd?$AAo?$AA?$AA@ 10032730     libucrt:lcidtoname_downlevel.obj
 0002:0000873c       ??_C@_1M@DKHMKNJA@?$AAe?$AAs?$AA?9?$AAe?$AAc?$AA?$AA@ 1003273c     libucrt:lcidtoname_downlevel.obj
 0002:00008748       ??_C@_1M@GKGFPKAP@?$AAe?$AAs?$AA?9?$AAe?$AAs?$AA?$AA@ 10032748     libucrt:lcidtoname_downlevel.obj
 0002:00008754       ??_C@_1M@LKHKGDLN@?$AAe?$AAs?$AA?9?$AAg?$AAt?$AA?$AA@ 10032754     libucrt:lcidtoname_downlevel.obj
 0002:00008760       ??_C@_1M@HEIIGGJD@?$AAe?$AAs?$AA?9?$AAh?$AAn?$AA?$AA@ 10032760     libucrt:lcidtoname_downlevel.obj
 0002:0000876c       ??_C@_1M@FBDHPPGD@?$AAe?$AAs?$AA?9?$AAm?$AAx?$AA?$AA@ 1003276c     libucrt:lcidtoname_downlevel.obj
 0002:00008778       ??_C@_1M@DPAGLNDH@?$AAe?$AAs?$AA?9?$AAn?$AAi?$AA?$AA@ 10032778     libucrt:lcidtoname_downlevel.obj
 0002:00008784       ??_C@_1M@MDGOPGDD@?$AAe?$AAs?$AA?9?$AAp?$AAa?$AA?$AA@ 10032784     libucrt:lcidtoname_downlevel.obj
 0002:00008790       ??_C@_1M@EMAMGBGE@?$AAe?$AAs?$AA?9?$AAp?$AAe?$AA?$AA@ 10032790     libucrt:lcidtoname_downlevel.obj
 0002:0000879c       ??_C@_1M@IBMCAOEC@?$AAe?$AAs?$AA?9?$AAp?$AAr?$AA?$AA@ 1003279c     libucrt:lcidtoname_downlevel.obj
 0002:000087a8       ??_C@_1M@FGMDIJED@?$AAe?$AAs?$AA?9?$AAp?$AAy?$AA?$AA@ 100327a8     libucrt:lcidtoname_downlevel.obj
 0002:000087b4       ??_C@_1M@IIDEOLLL@?$AAe?$AAs?$AA?9?$AAs?$AAv?$AA?$AA@ 100327b4     libucrt:lcidtoname_downlevel.obj
 0002:000087c0       ??_C@_1M@GAOBIPA@?$AAe?$AAs?$AA?9?$AAu?$AAy?$AA?$AA@ 100327c0     libucrt:lcidtoname_downlevel.obj
 0002:000087cc       ??_C@_1M@JKFFICHJ@?$AAe?$AAs?$AA?9?$AAv?$AAe?$AA?$AA@ 100327cc     libucrt:lcidtoname_downlevel.obj
 0002:000087d8       ??_C@_1M@PNMLOJDF@?$AAe?$AAt?$AA?9?$AAe?$AAe?$AA?$AA@ 100327d8     libucrt:lcidtoname_downlevel.obj
 0002:000087e4       ??_C@_1M@GHHLIKEI@?$AAe?$AAu?$AA?9?$AAe?$AAs?$AA?$AA@ 100327e4     libucrt:lcidtoname_downlevel.obj
 0002:000087f0       ??_C@_1M@PBNONODE@?$AAf?$AAa?$AA?9?$AAi?$AAr?$AA?$AA@ 100327f0     libucrt:lcidtoname_downlevel.obj
 0002:000087fc       ??_C@_1M@JEEHPMIL@?$AAf?$AAi?$AA?9?$AAf?$AAi?$AA?$AA@ 100327fc     libucrt:lcidtoname_downlevel.obj
 0002:00008808       ??_C@_1M@LMDCNDBA@?$AAf?$AAo?$AA?9?$AAf?$AAo?$AA?$AA@ 10032808     libucrt:lcidtoname_downlevel.obj
 0002:00008814       ??_C@_1M@JKEOHLDK@?$AAf?$AAr?$AA?9?$AAb?$AAe?$AA?$AA@ 10032814     libucrt:lcidtoname_downlevel.obj
 0002:00008820       ??_C@_1M@NOHADPMI@?$AAf?$AAr?$AA?9?$AAc?$AAa?$AA?$AA@ 10032820     libucrt:lcidtoname_downlevel.obj
 0002:0000882c       ??_C@_1M@KDHIHAEC@?$AAf?$AAr?$AA?9?$AAc?$AAh?$AA?$AA@ 1003282c     libucrt:lcidtoname_downlevel.obj
 0002:00008838       ??_C@_1M@MMBBFGAK@?$AAf?$AAr?$AA?9?$AAf?$AAr?$AA?$AA@ 10032838     libucrt:lcidtoname_downlevel.obj
 0002:00008844       ??_C@_1M@PAFNENNF@?$AAf?$AAr?$AA?9?$AAl?$AAu?$AA?$AA@ 10032844     libucrt:lcidtoname_downlevel.obj
 0002:00008850       ??_C@_1M@EOHDJGDD@?$AAf?$AAr?$AA?9?$AAm?$AAc?$AA?$AA@ 10032850     libucrt:lcidtoname_downlevel.obj
 0002:0000885c       ??_C@_1M@FAPLLOPF@?$AAg?$AAl?$AA?9?$AAe?$AAs?$AA?$AA@ 1003285c     libucrt:lcidtoname_downlevel.obj
 0002:00008868       ??_C@_1M@FOPBFLOO@?$AAg?$AAu?$AA?9?$AAi?$AAn?$AA?$AA@ 10032868     libucrt:lcidtoname_downlevel.obj
 0002:00008874       ??_C@_1M@KBMCINPM@?$AAh?$AAe?$AA?9?$AAi?$AAl?$AA?$AA@ 10032874     libucrt:lcidtoname_downlevel.obj
 0002:00008880       ??_C@_1M@BBPHKFPJ@?$AAh?$AAi?$AA?9?$AAi?$AAn?$AA?$AA@ 10032880     libucrt:lcidtoname_downlevel.obj
 0002:0000888c       ??_C@_1M@PMBNDPHD@?$AAh?$AAr?$AA?9?$AAb?$AAa?$AA?$AA@ 1003288c     libucrt:lcidtoname_downlevel.obj
 0002:00008898       ??_C@_1M@BPCKOEGE@?$AAh?$AAr?$AA?9?$AAh?$AAr?$AA?$AA@ 10032898     libucrt:lcidtoname_downlevel.obj
 0002:000088a4       ??_C@_1M@GACBMHKE@?$AAh?$AAu?$AA?9?$AAh?$AAu?$AA?$AA@ 100328a4     libucrt:lcidtoname_downlevel.obj
 0002:000088b0       ??_C@_1M@MILPAJJC@?$AAh?$AAy?$AA?9?$AAa?$AAm?$AA?$AA@ 100328b0     libucrt:lcidtoname_downlevel.obj
 0002:000088bc       ??_C@_1M@BABBICEC@?$AAi?$AAd?$AA?9?$AAi?$AAd?$AA?$AA@ 100328bc     libucrt:lcidtoname_downlevel.obj
 0002:000088c8       ??_C@_1M@BIKNHHPF@?$AAi?$AAs?$AA?9?$AAi?$AAs?$AA?$AA@ 100328c8     libucrt:lcidtoname_downlevel.obj
 0002:000088d4       ??_C@_1M@NMPCJPHE@?$AAi?$AAt?$AA?9?$AAc?$AAh?$AA?$AA@ 100328d4     libucrt:lcidtoname_downlevel.obj
 0002:000088e0       ??_C@_1M@GHKGFEDF@?$AAi?$AAt?$AA?9?$AAi?$AAt?$AA?$AA@ 100328e0     libucrt:lcidtoname_downlevel.obj
 0002:000088ec       ??_C@_1M@NIEJCJJA@?$AAj?$AAa?$AA?9?$AAj?$AAp?$AA?$AA@ 100328ec     libucrt:lcidtoname_downlevel.obj
 0002:000088f8       ??_C@_1M@JILFNBIM@?$AAk?$AAa?$AA?9?$AAg?$AAe?$AA?$AA@ 100328f8     libucrt:lcidtoname_downlevel.obj
 0002:00008904       ??_C@_1M@PACPMGPH@?$AAk?$AAk?$AA?9?$AAk?$AAz?$AA?$AA@ 10032904     libucrt:lcidtoname_downlevel.obj
 0002:00008910       ??_C@_1M@IELFGMHA@?$AAk?$AAn?$AA?9?$AAi?$AAn?$AA?$AA@ 10032910     libucrt:lcidtoname_downlevel.obj
 0002:0000891c       ??_C@_1O@IBBJHCH@?$AAk?$AAo?$AAk?$AA?9?$AAi?$AAn?$AA?$AA@ 1003291c     libucrt:lcidtoname_downlevel.obj
 0002:0000892c       ??_C@_1M@DMHAEOGC@?$AAk?$AAo?$AA?9?$AAk?$AAr?$AA?$AA@ 1003292c     libucrt:lcidtoname_downlevel.obj
 0002:00008938       ??_C@_1M@HBAHBIGA@?$AAk?$AAy?$AA?9?$AAk?$AAg?$AA?$AA@ 10032938     libucrt:lcidtoname_downlevel.obj
 0002:00008944       ??_C@_1M@KPMILCJG@?$AAl?$AAt?$AA?9?$AAl?$AAt?$AA?$AA@ 10032944     libucrt:lcidtoname_downlevel.obj
 0002:00008950       ??_C@_1M@BDEKKCA@?$AAl?$AAv?$AA?9?$AAl?$AAv?$AA?$AA@ 10032950     libucrt:lcidtoname_downlevel.obj
 0002:0000895c       ??_C@_1M@ELCKCCJJ@?$AAm?$AAi?$AA?9?$AAn?$AAz?$AA?$AA@ 1003295c     libucrt:lcidtoname_downlevel.obj
 0002:00008968       ??_C@_1M@CBOOLAPA@?$AAm?$AAk?$AA?9?$AAm?$AAk?$AA?$AA@ 10032968     libucrt:lcidtoname_downlevel.obj
 0002:00008974       ??_C@_1M@GPHNBJKN@?$AAm?$AAl?$AA?9?$AAi?$AAn?$AA?$AA@ 10032974     libucrt:lcidtoname_downlevel.obj
 0002:00008980       ??_C@_1M@PABJILIG@?$AAm?$AAn?$AA?9?$AAm?$AAn?$AA?$AA@ 10032980     libucrt:lcidtoname_downlevel.obj
 0002:0000898c       ??_C@_1M@FGBKKIPG@?$AAm?$AAr?$AA?9?$AAi?$AAn?$AA?$AA@ 1003298c     libucrt:lcidtoname_downlevel.obj
 0002:00008998       ??_C@_1M@NDBPDDAL@?$AAm?$AAs?$AA?9?$AAb?$AAn?$AA?$AA@ 10032998     libucrt:lcidtoname_downlevel.obj
 0002:000089a4       ??_C@_1M@OPIHOOPI@?$AAm?$AAs?$AA?9?$AAm?$AAy?$AA?$AA@ 100329a4     libucrt:lcidtoname_downlevel.obj
 0002:000089b0       ??_C@_1M@PPDBCNFM@?$AAm?$AAt?$AA?9?$AAm?$AAt?$AA?$AA@ 100329b0     libucrt:lcidtoname_downlevel.obj
 0002:000089bc       ??_C@_1M@KDJDKMDD@?$AAn?$AAb?$AA?9?$AAn?$AAo?$AA?$AA@ 100329bc     libucrt:lcidtoname_downlevel.obj
 0002:000089c8       ??_C@_1M@KFCFLMJP@?$AAn?$AAl?$AA?9?$AAb?$AAe?$AA?$AA@ 100329c8     libucrt:lcidtoname_downlevel.obj
 0002:000089d4       ??_C@_1M@KPOPDDGO@?$AAn?$AAl?$AA?9?$AAn?$AAl?$AA?$AA@ 100329d4     libucrt:lcidtoname_downlevel.obj
 0002:000089e0       ??_C@_1M@LJKPEMLN@?$AAn?$AAn?$AA?9?$AAn?$AAo?$AA?$AA@ 100329e0     libucrt:lcidtoname_downlevel.obj
 0002:000089ec       ??_C@_1M@BDGHHBFL@?$AAn?$AAs?$AA?9?$AAz?$AAa?$AA?$AA@ 100329ec     libucrt:lcidtoname_downlevel.obj
 0002:000089f8       ??_C@_1M@IDEHOAP@?$AAp?$AAa?$AA?9?$AAi?$AAn?$AA?$AA@ 100329f8     libucrt:lcidtoname_downlevel.obj
 0002:00008a04       ??_C@_1M@HDBKGOGH@?$AAp?$AAl?$AA?9?$AAp?$AAl?$AA?$AA@ 10032a04     libucrt:lcidtoname_downlevel.obj
 0002:00008a10       ??_C@_1M@LJLLCMEH@?$AAp?$AAt?$AA?9?$AAb?$AAr?$AA?$AA@ 10032a10     libucrt:lcidtoname_downlevel.obj
 0002:00008a1c       ??_C@_1M@NCMONAAL@?$AAp?$AAt?$AA?9?$AAp?$AAt?$AA?$AA@ 10032a1c     libucrt:lcidtoname_downlevel.obj
 0002:00008a28       ??_C@_1O@EAKMAJDN@?$AAq?$AAu?$AAz?$AA?9?$AAb?$AAo?$AA?$AA@ 10032a28     libucrt:lcidtoname_downlevel.obj
 0002:00008a38       ??_C@_1O@BHHPIGDN@?$AAq?$AAu?$AAz?$AA?9?$AAe?$AAc?$AA?$AA@ 10032a38     libucrt:lcidtoname_downlevel.obj
 0002:00008a48       ??_C@_1O@GBAPEKMJ@?$AAq?$AAu?$AAz?$AA?9?$AAp?$AAe?$AA?$AA@ 10032a48     libucrt:lcidtoname_downlevel.obj
 0002:00008a58       ??_C@_1M@CLGLEFBO@?$AAr?$AAo?$AA?9?$AAr?$AAo?$AA?$AA@ 10032a58     libucrt:lcidtoname_downlevel.obj
 0002:00008a64       ??_C@_1M@CEEDODME@?$AAr?$AAu?$AA?9?$AAr?$AAu?$AA?$AA@ 10032a64     libucrt:lcidtoname_downlevel.obj
 0002:00008a70       ??_C@_1M@HPKKKMPP@?$AAs?$AAa?$AA?9?$AAi?$AAn?$AA?$AA@ 10032a70     libucrt:lcidtoname_downlevel.obj
 0002:00008a7c       ??_C@_1M@BKMAIGOJ@?$AAs?$AAe?$AA?9?$AAf?$AAi?$AA?$AA@ 10032a7c     libucrt:lcidtoname_downlevel.obj
 0002:00008a88       ??_C@_1M@NDPIFLFI@?$AAs?$AAe?$AA?9?$AAn?$AAo?$AA?$AA@ 10032a88     libucrt:lcidtoname_downlevel.obj
 0002:00008a94       ??_C@_1M@DANKKHJ@?$AAs?$AAe?$AA?9?$AAs?$AAe?$AA?$AA@ 10032a94     libucrt:lcidtoname_downlevel.obj
 0002:00008aa0       ??_C@_1M@PNBLONPJ@?$AAs?$AAk?$AA?9?$AAs?$AAk?$AA?$AA@ 10032aa0     libucrt:lcidtoname_downlevel.obj
 0002:00008aac       ??_C@_1M@LFMODOAL@?$AAs?$AAl?$AA?9?$AAs?$AAi?$AA?$AA@ 10032aac     libucrt:lcidtoname_downlevel.obj
 0002:00008ab8       ??_C@_1O@DFKOMPG@?$AAs?$AAm?$AAa?$AA?9?$AAn?$AAo?$AA?$AA@ 10032ab8     libucrt:lcidtoname_downlevel.obj
 0002:00008ac8       ??_C@_1O@NDKPBNNH@?$AAs?$AAm?$AAa?$AA?9?$AAs?$AAe?$AA?$AA@ 10032ac8     libucrt:lcidtoname_downlevel.obj
 0002:00008ad8       ??_C@_1O@PLLKBHAB@?$AAs?$AAm?$AAj?$AA?9?$AAn?$AAo?$AA?$AA@ 10032ad8     libucrt:lcidtoname_downlevel.obj
 0002:00008ae8       ??_C@_1O@CLEPOGCA@?$AAs?$AAm?$AAj?$AA?9?$AAs?$AAe?$AA?$AA@ 10032ae8     libucrt:lcidtoname_downlevel.obj
 0002:00008af8       ??_C@_1O@DLGJGKMK@?$AAs?$AAm?$AAn?$AA?9?$AAf?$AAi?$AA?$AA@ 10032af8     libucrt:lcidtoname_downlevel.obj
 0002:00008b08       ??_C@_1O@OJDJGAJC@?$AAs?$AAm?$AAs?$AA?9?$AAf?$AAi?$AA?$AA@ 10032b08     libucrt:lcidtoname_downlevel.obj
 0002:00008b18       ??_C@_1M@BOFOGHPB@?$AAs?$AAq?$AA?9?$AAa?$AAl?$AA?$AA@ 10032b18     libucrt:lcidtoname_downlevel.obj
 0002:00008b24       ??_C@_1BG@LJBBIPGB@?$AAs?$AAr?$AA?9?$AAb?$AAa?$AA?9?$AAc?$AAy?$AAr?$AAl?$AA?$AA@ 10032b24     libucrt:lcidtoname_downlevel.obj
 0002:00008b3c       ??_C@_1BG@JLBENFOE@?$AAs?$AAr?$AA?9?$AAb?$AAa?$AA?9?$AAl?$AAa?$AAt?$AAn?$AA?$AA@ 10032b3c     libucrt:lcidtoname_downlevel.obj
 0002:00008b54       ??_C@_1BG@KODPNHE@?$AAs?$AAr?$AA?9?$AAs?$AAp?$AA?9?$AAc?$AAy?$AAr?$AAl?$AA?$AA@ 10032b54     libucrt:lcidtoname_downlevel.obj
 0002:00008b6c       ??_C@_1BG@CIOGKHPB@?$AAs?$AAr?$AA?9?$AAs?$AAp?$AA?9?$AAl?$AAa?$AAt?$AAn?$AA?$AA@ 10032b6c     libucrt:lcidtoname_downlevel.obj
 0002:00008b84       ??_C@_1M@NGFJLMAC@?$AAs?$AAv?$AA?9?$AAf?$AAi?$AA?$AA@ 10032b84     libucrt:lcidtoname_downlevel.obj
 0002:00008b90       ??_C@_1M@MPJEJAJC@?$AAs?$AAv?$AA?9?$AAs?$AAe?$AA?$AA@ 10032b90     libucrt:lcidtoname_downlevel.obj
 0002:00008b9c       ??_C@_1M@MPNDHLFK@?$AAs?$AAw?$AA?9?$AAk?$AAe?$AA?$AA@ 10032b9c     libucrt:lcidtoname_downlevel.obj
 0002:00008ba8       ??_C@_1O@KOHBJJI@?$AAs?$AAy?$AAr?$AA?9?$AAs?$AAy?$AA?$AA@ 10032ba8     libucrt:lcidtoname_downlevel.obj
 0002:00008bb8       ??_C@_1M@LDCEFHA@?$AAt?$AAa?$AA?9?$AAi?$AAn?$AA?$AA@ 10032bb8     libucrt:lcidtoname_downlevel.obj
 0002:00008bc4       ??_C@_1M@CNJOFAK@?$AAt?$AAe?$AA?9?$AAi?$AAn?$AA?$AA@ 10032bc4     libucrt:lcidtoname_downlevel.obj
 0002:00008bd0       ??_C@_1M@GNAECACD@?$AAt?$AAh?$AA?9?$AAt?$AAh?$AA?$AA@ 10032bd0     libucrt:lcidtoname_downlevel.obj
 0002:00008bdc       ??_C@_1M@CHBIHOJO@?$AAt?$AAn?$AA?9?$AAz?$AAa?$AA?$AA@ 10032bdc     libucrt:lcidtoname_downlevel.obj
 0002:00008be8       ??_C@_1M@GCCMIGPJ@?$AAt?$AAr?$AA?9?$AAt?$AAr?$AA?$AA@ 10032be8     libucrt:lcidtoname_downlevel.obj
 0002:00008bf4       ??_C@_1M@CELMCNBK@?$AAt?$AAt?$AA?9?$AAr?$AAu?$AA?$AA@ 10032bf4     libucrt:lcidtoname_downlevel.obj
 0002:00008c00       ??_C@_1M@KLMCELGA@?$AAu?$AAk?$AA?9?$AAu?$AAa?$AA?$AA@ 10032c00     libucrt:lcidtoname_downlevel.obj
 0002:00008c0c       ??_C@_1M@EPAJJAJF@?$AAu?$AAr?$AA?9?$AAp?$AAk?$AA?$AA@ 10032c0c     libucrt:lcidtoname_downlevel.obj
 0002:00008c18       ??_C@_1BG@GEGPMCDJ@?$AAu?$AAz?$AA?9?$AAu?$AAz?$AA?9?$AAc?$AAy?$AAr?$AAl?$AA?$AA@ 10032c18     libucrt:lcidtoname_downlevel.obj
 0002:00008c30       ??_C@_1BG@EGGKJILM@?$AAu?$AAz?$AA?9?$AAu?$AAz?$AA?9?$AAl?$AAa?$AAt?$AAn?$AA?$AA@ 10032c30     libucrt:lcidtoname_downlevel.obj
 0002:00008c48       ??_C@_1M@GFOCLFF@?$AAv?$AAi?$AA?9?$AAv?$AAn?$AA?$AA@ 10032c48     libucrt:lcidtoname_downlevel.obj
 0002:00008c54       ??_C@_1M@CPAMEDFI@?$AAx?$AAh?$AA?9?$AAz?$AAa?$AA?$AA@ 10032c54     libucrt:lcidtoname_downlevel.obj
 0002:00008c60       ??_C@_1O@EBKIFIGN@?$AAz?$AAh?$AA?9?$AAc?$AAh?$AAs?$AA?$AA@ 10032c60     libucrt:lcidtoname_downlevel.obj
 0002:00008c70       ??_C@_1O@NMHPGANE@?$AAz?$AAh?$AA?9?$AAc?$AAh?$AAt?$AA?$AA@ 10032c70     libucrt:lcidtoname_downlevel.obj
 0002:00008c80       ??_C@_1M@LPINJOMC@?$AAz?$AAh?$AA?9?$AAc?$AAn?$AA?$AA@ 10032c80     libucrt:lcidtoname_downlevel.obj
 0002:00008c8c       ??_C@_1M@OCJEJODD@?$AAz?$AAh?$AA?9?$AAh?$AAk?$AA?$AA@ 10032c8c     libucrt:lcidtoname_downlevel.obj
 0002:00008c98       ??_C@_1M@DNDLJINH@?$AAz?$AAh?$AA?9?$AAm?$AAo?$AA?$AA@ 10032c98     libucrt:lcidtoname_downlevel.obj
 0002:00008ca4       ??_C@_1M@MBFDNDND@?$AAz?$AAh?$AA?9?$AAs?$AAg?$AA?$AA@ 10032ca4     libucrt:lcidtoname_downlevel.obj
 0002:00008cb0       ??_C@_1M@IMEPLEPE@?$AAz?$AAh?$AA?9?$AAt?$AAw?$AA?$AA@ 10032cb0     libucrt:lcidtoname_downlevel.obj
 0002:00008cbc       ??_C@_1M@BBGHNHJP@?$AAz?$AAu?$AA?9?$AAz?$AAa?$AA?$AA@ 10032cbc     libucrt:lcidtoname_downlevel.obj
 0002:00008e30       __infinity                 10032e30     libucrt:87tran.obj
 0002:00008e3a       __minfinity                10032e3a     libucrt:87tran.obj
 0002:00008e44       __logemax                  10032e44     libucrt:87tran.obj
 0002:00008e6a       __OP_EXPjmptab             10032e6a     libucrt:87tran.obj
 0002:00008e90       __indefinite               10032e90     libucrt:87disp.obj
 0002:00008e9a       __piby2                    10032e9a     libucrt:87disp.obj
 0002:00008ea4       __piby4                    10032ea4     libucrt:87disp.obj
 0002:00008ed8       __DEFAULT_CW_in_mem        10032ed8     libucrt:common.obj
 0002:00008eda       __pi_by_2_to_61            10032eda     libucrt:common.obj
 0002:00008f14       ??_C@_03MGHMBJCF@log?$AA@  10032f14     libucrt:libm_error.obj
 0002:00008f18       ??_C@_05HGHHAHAP@log10?$AA@ 10032f18     libucrt:libm_error.obj
 0002:00008f20       ??_C@_03KHJOGHMM@exp?$AA@  10032f20     libucrt:libm_error.obj
 0002:00008f24       ??_C@_03JGHBODFD@pow?$AA@  10032f24     libucrt:libm_error.obj
 0002:00008f28       ??_C@_04FIHNOPOL@asin?$AA@ 10032f28     libucrt:libm_error.obj
 0002:00008f30       ??_C@_04PDIFKINK@acos?$AA@ 10032f30     libucrt:libm_error.obj
 0002:00008f38       ??_C@_04EIAKFFMI@sqrt?$AA@ 10032f38     libucrt:libm_error.obj
 0002:00008f40       __real@3ff0000000000000    10032f40     libucrt:libm_error.obj
 0002:00008f60       ___acrt_log10_table_t      10032f60     libucrt:log10_tables.obj
 0002:00009370       ___acrt_log10_table_cb     10033370     libucrt:log10_tables.obj
 0002:00009780       __real@3fe0000000000000    10033780     libucrt:powhlp.obj
 0002:00009788       ??_C@_04FJHINJAO@tanh?$AA@ 10033788     libucrt:fpexcept.obj
 0002:00009790       ??_C@_04MLLJIGOK@atan?$AA@ 10033790     libucrt:fpexcept.obj
 0002:00009798       ??_C@_05KNGEOGJB@atan2?$AA@ 10033798     libucrt:fpexcept.obj
 0002:000097a0       ??_C@_03BLEJJJBH@sin?$AA@  100337a0     libucrt:fpexcept.obj
 0002:000097a4       ??_C@_03LALBNOCG@cos?$AA@  100337a4     libucrt:fpexcept.obj
 0002:000097a8       ??_C@_03IIINPABG@tan?$AA@  100337a8     libucrt:fpexcept.obj
 0002:000097ac       ??_C@_04GFPJNGEK@ceil?$AA@ 100337ac     libucrt:fpexcept.obj
 0002:000097b4       ??_C@_05PBJFFIGL@floor?$AA@ 100337b4     libucrt:fpexcept.obj
 0002:000097bc       ??_C@_04ODHECPBC@fabs?$AA@ 100337bc     libucrt:fpexcept.obj
 0002:000097c4       ??_C@_04EHEDPDJG@modf?$AA@ 100337c4     libucrt:fpexcept.obj
 0002:000097cc       ??_C@_05CEJMAHNP@ldexp?$AA@ 100337cc     libucrt:fpexcept.obj
 0002:000097d4       ??_C@_05KBKMEMPO@_cabs?$AA@ 100337d4     libucrt:fpexcept.obj
 0002:000097dc       ??_C@_06MEIMCGCF@_hypot?$AA@ 100337dc     libucrt:fpexcept.obj
 0002:000097e4       ??_C@_04KEPJIHGP@fmod?$AA@ 100337e4     libucrt:fpexcept.obj
 0002:000097ec       ??_C@_05GKKHEGJL@frexp?$AA@ 100337ec     libucrt:fpexcept.obj
 0002:000097f4       ??_C@_03MJLDFKDL@_y0?$AA@  100337f4     libucrt:fpexcept.obj
 0002:000097f8       ??_C@_03NAKIGLHK@_y1?$AA@  100337f8     libucrt:fpexcept.obj
 0002:000097fc       ??_C@_03ONILCKOB@_yn?$AA@  100337fc     libucrt:fpexcept.obj
 0002:00009800       ??_C@_05JGDBENOH@_logb?$AA@ 10033800     libucrt:fpexcept.obj
 0002:00009808       ??_C@_0L@KDOEJCKC@_nextafter?$AA@ 10033808     libucrt:fpexcept.obj
 0002:00009900       ??_C@_04COOMCNPB@sinh?$AA@ 10033900     libucrt:fpexcept.obj
 0002:00009908       ??_C@_04HPJJNFIM@cosh?$AA@ 10033908     libucrt:fpexcept.obj
 0002:00009910       __d_inf                    10033910     libucrt:util.obj
 0002:00009918       __d_max                    10033918     libucrt:util.obj
 0002:00009920       __d_mzero                  10033920     libucrt:util.obj
 0002:00009928       ??_C@_1BA@BALFACEM@?$AAC?$AAO?$AAN?$AAO?$AAU?$AAT?$AA$?$AA?$AA@ 10033928     libucrt:initcon.obj
 0002:00009938       ??_C@_0BI@OEHNMHCG@GetCurrentConsoleFontEx@ 10033938     common-kernel32:WConsole.obj
 0002:00009950       ??_C@_0BI@PCBACGEE@SetCurrentConsoleFontEx@ 10033950     common-kernel32:WConsole.obj
 0002:000099c8       __load_config_used         100339c8     LIBCMT:loadcfg.obj
 0002:00009a68       __tls_used                 10033a68     LIBCMT:tlssup.obj
 0002:00009a80       ??_R4CPluginW1900@@6B@     10033a80     ConEmuPlugin1900.obj
 0002:00009a94       ??_R3CPluginW1900@@8       10033a94     ConEmuPlugin1900.obj
 0002:00009aa4       ??_R2CPluginW1900@@8       10033aa4     ConEmuPlugin1900.obj
 0002:00009ab0       ??_R1A@?0A@EA@CPluginW1900@@8 10033ab0     ConEmuPlugin1900.obj
 0002:00009acc       ??_R1A@?0A@EA@CPluginBase@@8 10033acc     ConEmuPlugin1900.obj
 0002:00009ae8       ??_R3CPluginBase@@8        10033ae8     ConEmuPlugin1900.obj
 0002:00009af8       ??_R2CPluginBase@@8        10033af8     ConEmuPlugin1900.obj
 0002:00009b00       ??_R4exception@std@@6B@    10033b00     ConEmuPlugin2800.obj
 0002:00009b14       ??_R3exception@std@@8      10033b14     ConEmuPlugin2800.obj
 0002:00009b24       ??_R2exception@std@@8      10033b24     ConEmuPlugin2800.obj
 0002:00009b2c       ??_R1A@?0A@EA@exception@std@@8 10033b2c     ConEmuPlugin2800.obj
 0002:00009b48       ??_R4bad_alloc@std@@6B@    10033b48     ConEmuPlugin2800.obj
 0002:00009b5c       ??_R3bad_alloc@std@@8      10033b5c     ConEmuPlugin2800.obj
 0002:00009b6c       ??_R2bad_alloc@std@@8      10033b6c     ConEmuPlugin2800.obj
 0002:00009b78       ??_R1A@?0A@EA@bad_alloc@std@@8 10033b78     ConEmuPlugin2800.obj
 0002:00009b94       ??_R4CPluginW2800@@6B@     10033b94     ConEmuPlugin2800.obj
 0002:00009ba8       ??_R3CPluginW2800@@8       10033ba8     ConEmuPlugin2800.obj
 0002:00009bb8       ??_R2CPluginW2800@@8       10033bb8     ConEmuPlugin2800.obj
 0002:00009bc4       ??_R1A@?0A@EA@CPluginW2800@@8 10033bc4     ConEmuPlugin2800.obj
 0002:00009be0       ??_R4CPluginW995@@6B@      10033be0     ConEmuPlugin995.obj
 0002:00009bf4       ??_R3CPluginW995@@8        10033bf4     ConEmuPlugin995.obj
 0002:00009c04       ??_R2CPluginW995@@8        10033c04     ConEmuPlugin995.obj
 0002:00009c10       ??_R1A@?0A@EA@CPluginW995@@8 10033c10     ConEmuPlugin995.obj
 0002:00009c2c       ??_R4CPluginAnsi@@6B@      10033c2c     ConEmuPluginA.obj
 0002:00009c40       ??_R3CPluginAnsi@@8        10033c40     ConEmuPluginA.obj
 0002:00009c50       ??_R2CPluginAnsi@@8        10033c50     ConEmuPluginA.obj
 0002:00009c5c       ??_R1A@?0A@EA@CPluginAnsi@@8 10033c5c     ConEmuPluginA.obj
 0002:00009c78       ??_R4CPluginBase@@6B@      10033c78     ConEmuPluginBase.obj
 0002:00009c8c       ??_R4exception@stdext@@6B@ 10033c8c     common-kernel32:CEStr.obj
 0002:00009ca0       ??_R3exception@stdext@@8   10033ca0     common-kernel32:CEStr.obj
 0002:00009cb0       ??_R2exception@stdext@@8   10033cb0     common-kernel32:CEStr.obj
 0002:00009cb8       ??_R1A@?0A@EA@exception@stdext@@8 10033cb8     common-kernel32:CEStr.obj
 0002:00009cd4       ??_R4bad_alloc@stdext@@6B@ 10033cd4     common-kernel32:CEStr.obj
 0002:00009ce8       ??_R3bad_alloc@stdext@@8   10033ce8     common-kernel32:CEStr.obj
 0002:00009cf8       ??_R2bad_alloc@stdext@@8   10033cf8     common-kernel32:CEStr.obj
 0002:00009d04       ??_R1A@?0A@EA@bad_alloc@stdext@@8 10033d04     common-kernel32:CEStr.obj
 0002:00009d20       ??_R3?$_Func_base@XPAX@std@@8 10033d20     common-kernel32:WObjects.obj
 0002:00009d30       ??_R2?$_Func_base@XPAX@std@@8 10033d30     common-kernel32:WObjects.obj
 0002:00009d38       ??_R1A@?0A@EA@?$_Func_base@XPAX@std@@8 10033d38     common-kernel32:WObjects.obj
 0002:00009d54       ??_R4?$_Func_impl_no_alloc@P6GHPAX@ZXPAX@std@@6B@ 10033d54     common-kernel32:WObjects.obj
 0002:00009d68       ??_R3?$_Func_impl_no_alloc@P6GHPAX@ZXPAX@std@@8 10033d68     common-kernel32:WObjects.obj
 0002:00009d78       ??_R2?$_Func_impl_no_alloc@P6GHPAX@ZXPAX@std@@8 10033d78     common-kernel32:WObjects.obj
 0002:00009d84       ??_R1A@?0A@EA@?$_Func_impl_no_alloc@P6GHPAX@ZXPAX@std@@8 10033d84     common-kernel32:WObjects.obj
 0002:00009da0       ??_R4MToolHelpProcess@@6B@ 10033da0     common-kernel32:MProcess.obj
 0002:00009db4       ??_R3MToolHelpProcess@@8   10033db4     common-kernel32:MProcess.obj
 0002:00009dc4       ??_R2MToolHelpProcess@@8   10033dc4     common-kernel32:MProcess.obj
 0002:00009dd0       ??_R1A@?0A@EA@MToolHelpProcess@@8 10033dd0     common-kernel32:MProcess.obj
 0002:00009dec       ??_R1A@?0A@EA@?$MToolHelp@UtagPROCESSENTRY32W@@$1?Process32FirstW@@YGHPAXPAU1@@Z$1?Process32NextW@@YGH01@Z@@8 10033dec     common-kernel32:MProcess.obj
 0002:00009e08       ??_R3?$MToolHelp@UtagPROCESSENTRY32W@@$1?Process32FirstW@@YGHPAXPAU1@@Z$1?Process32NextW@@YGH01@Z@@8 10033e08     common-kernel32:MProcess.obj
 0002:00009e18       ??_R2?$MToolHelp@UtagPROCESSENTRY32W@@$1?Process32FirstW@@YGHPAXPAU1@@Z$1?Process32NextW@@YGH01@Z@@8 10033e18     common-kernel32:MProcess.obj
 0002:00009e20       ??_R4?$MToolHelp@UtagPROCESSENTRY32W@@$1?Process32FirstW@@YGHPAXPAU1@@Z$1?Process32NextW@@YGH01@Z@@6B@ 10033e20     common-kernel32:MProcess.obj
 0002:00009e34       ??_R3?$_Func_base@_NABUtagPROCESSENTRY32W@@@std@@8 10033e34     common-kernel32:MProcess.obj
 0002:00009e44       ??_R2?$_Func_base@_NABUtagPROCESSENTRY32W@@@std@@8 10033e44     common-kernel32:MProcess.obj
 0002:00009e4c       ??_R1A@?0A@EA@?$_Func_base@_NABUtagPROCESSENTRY32W@@@std@@8 10033e4c     common-kernel32:MProcess.obj
 0002:00009e68       ??_R4?$_Func_impl_no_alloc@V<lambda_9e7323793ed24b1a5fadb4d27ba29021>@@_NABUtagPROCESSENTRY32W@@@std@@6B@ 10033e68     common-kernel32:MProcess.obj
 0002:00009e7c       ??_R3?$_Func_impl_no_alloc@V<lambda_9e7323793ed24b1a5fadb4d27ba29021>@@_NABUtagPROCESSENTRY32W@@@std@@8 10033e7c     common-kernel32:MProcess.obj
 0002:00009e8c       ??_R2?$_Func_impl_no_alloc@V<lambda_9e7323793ed24b1a5fadb4d27ba29021>@@_NABUtagPROCESSENTRY32W@@@std@@8 10033e8c     common-kernel32:MProcess.obj
 0002:00009e98       ??_R1A@?0A@EA@?$_Func_impl_no_alloc@V<lambda_9e7323793ed24b1a5fadb4d27ba29021>@@_NABUtagPROCESSENTRY32W@@@std@@8 10033e98     common-kernel32:MProcess.obj
 0002:00009eb4       ??_R4logic_error@std@@6B@  10033eb4     libcpmt:xthrow.obj
 0002:00009ec8       ??_R3logic_error@std@@8    10033ec8     libcpmt:xthrow.obj
 0002:00009ed8       ??_R2logic_error@std@@8    10033ed8     libcpmt:xthrow.obj
 0002:00009ee4       ??_R1A@?0A@EA@logic_error@std@@8 10033ee4     libcpmt:xthrow.obj
 0002:00009f00       ??_R4length_error@std@@6B@ 10033f00     libcpmt:xthrow.obj
 0002:00009f14       ??_R3length_error@std@@8   10033f14     libcpmt:xthrow.obj
 0002:00009f24       ??_R2length_error@std@@8   10033f24     libcpmt:xthrow.obj
 0002:00009f34       ??_R1A@?0A@EA@length_error@std@@8 10033f34     libcpmt:xthrow.obj
 0002:00009f50       ??_R4bad_function_call@std@@6B@ 10033f50     libcpmt:xthrow.obj
 0002:00009f64       ??_R3bad_function_call@std@@8 10033f64     libcpmt:xthrow.obj
 0002:00009f74       ??_R2bad_function_call@std@@8 10033f74     libcpmt:xthrow.obj
 0002:00009f80       ??_R1A@?0A@EA@bad_function_call@std@@8 10033f80     libcpmt:xthrow.obj
 0002:00009f9c       ??_R4type_info@@6B@        10033f9c     LIBCMT:std_type_info_static.obj
 0002:00009fb0       ??_R3type_info@@8          10033fb0     LIBCMT:std_type_info_static.obj
 0002:00009fc0       ??_R2type_info@@8          10033fc0     LIBCMT:std_type_info_static.obj
 0002:00009fc8       ??_R1A@?0A@EA@type_info@@8 10033fc8     LIBCMT:std_type_info_static.obj
 0002:00009fe4       ??_R4bad_exception@std@@6B@ 10033fe4     libvcruntime:frame.obj
 0002:00009ff8       ??_R3bad_exception@std@@8  10033ff8     libvcruntime:frame.obj
 0002:0000a008       ??_R2bad_exception@std@@8  10034008     libvcruntime:frame.obj
 0002:0000a014       ??_R1A@?0A@EA@bad_exception@std@@8 10034014     libvcruntime:frame.obj
 0002:0000a030       ___safe_se_handler_table   10034030     <linker-defined>
 0002:0000a468       ___rtc_iaa                 10034468     LIBCMT:initsect.obj
 0002:0000a46c       ___rtc_izz                 1003446c     LIBCMT:initsect.obj
 0002:0000a470       ___rtc_taa                 10034470     LIBCMT:initsect.obj
 0002:0000a474       ___rtc_tzz                 10034474     LIBCMT:initsect.obj
 0002:0000a478       __tls_start                10034478     LIBCMT:tlssup.obj
 0002:0000a47c       __Init_thread_epoch        1003447c     LIBCMT:thread_safe_statics.obj
 0002:0000a480       __tls_end                  10034480     LIBCMT:tlssup.obj
 0002:0000a57c       __TI2?AVbad_alloc@std@@    1003457c     ConEmuPlugin2800.obj
 0002:0000a58c       __CTA2?AVbad_alloc@std@@   1003458c     ConEmuPlugin2800.obj
 0002:0000a598       __CT??_R0?AVbad_alloc@std@@@8??0bad_alloc@std@@QAE@ABV01@@Z12 10034598     ConEmuPlugin2800.obj
 0002:0000a5b4       __CT??_R0?AVexception@std@@@8??0exception@std@@QAE@ABV01@@Z12 100345b4     ConEmuPlugin2800.obj
 0002:0000a994       __TI2?AVbad_alloc@stdext@@ 10034994     common-kernel32:CEStr.obj
 0002:0000a9a4       __CTA2?AVbad_alloc@stdext@@ 100349a4     common-kernel32:CEStr.obj
 0002:0000a9b0       __CT??_R0?AVbad_alloc@stdext@@@8??0bad_alloc@stdext@@QAE@ABV01@@Z8 100349b0     common-kernel32:CEStr.obj
 0002:0000a9cc       __CT??_R0?AVexception@stdext@@@8??0exception@stdext@@QAE@ABV01@@Z8 100349cc     common-kernel32:CEStr.obj
 0002:0000aaac       __CT??_R0?AVlogic_error@std@@@8??0logic_error@std@@QAE@ABV01@@Z12 10034aac     libcpmt:xthrow.obj
 0002:0000aac8       __TI3?AVlength_error@std@@ 10034ac8     libcpmt:xthrow.obj
 0002:0000aad8       __CTA3?AVlength_error@std@@ 10034ad8     libcpmt:xthrow.obj
 0002:0000aae8       __CT??_R0?AVlength_error@std@@@8??0length_error@std@@QAE@ABV01@@Z12 10034ae8     libcpmt:xthrow.obj
 0002:0000ab04       __TI2?AVbad_function_call@std@@ 10034b04     libcpmt:xthrow.obj
 0002:0000ab14       __CTA2?AVbad_function_call@std@@ 10034b14     libcpmt:xthrow.obj
 0002:0000ab20       __CT??_R0?AVbad_function_call@std@@@8??0bad_function_call@std@@QAE@ABV01@@Z12 10034b20     libcpmt:xthrow.obj
 0002:0000acc4       __TI2?AVbad_exception@std@@ 10034cc4     libvcruntime:frame.obj
 0002:0000acd4       __CTA2?AVbad_exception@std@@ 10034cd4     libvcruntime:frame.obj
 0002:0000ace0       __CT??_R0?AVbad_exception@std@@@8??0bad_exception@std@@QAE@ABV01@@Z12 10034ce0     libvcruntime:frame.obj
 0002:0000b2f0       __IMPORT_DESCRIPTOR_VERSION 100352f0     version:VERSION.dll
 0002:0000b304       __IMPORT_DESCRIPTOR_KERNEL32 10035304     kernel32:KERNEL32.dll
 0002:0000b318       __IMPORT_DESCRIPTOR_USER32 10035318     user32:USER32.dll
 0002:0000b32c       __IMPORT_DESCRIPTOR_GDI32  1003532c     gdi32:GDI32.dll
 0002:0000b340       __IMPORT_DESCRIPTOR_ADVAPI32 10035340     advapi32:ADVAPI32.dll
 0002:0000b354       __NULL_IMPORT_DESCRIPTOR   10035354     version:VERSION.dll
 0003:00000000       ?Far3Func@@3PAUExportFunc@@A 10037000     ConEmuPlugin.obj
 0003:00000040       ?StdPalette@?1??GetStdPalette@Far3Color@@SAPBKXZ@4PAKA 10037040     ConEmuPlugin1900.obj
 0003:00000080       ?guid_ConEmu@@3U_GUID@@A   10037080     ConEmuPlugin2800.obj
 0003:00000090       ?guid_ConEmuPluginItems@@3U_GUID@@A 10037090     ConEmuPlugin2800.obj
 0003:000000a0       ?guid_ConEmuPluginMenu@@3U_GUID@@A 100370a0     ConEmuPlugin2800.obj
 0003:000000b0       ?guid_ConEmuGuiMacroDlg@@3U_GUID@@A 100370b0     ConEmuPlugin2800.obj
 0003:000000c0       ?guid_ConEmuWaitEndSynchro@@3U_GUID@@A 100370c0     ConEmuPlugin2800.obj
 0003:000000d0       ?guid_ConEmuMsg@@3U_GUID@@A 100370d0     ConEmuPlugin2800.obj
 0003:000000e0       ?guid_ConEmuInput@@3U_GUID@@A 100370e0     ConEmuPlugin2800.obj
 0003:000000f0       ?guid_ConEmuMenu@@3U_GUID@@A 100370f0     ConEmuPlugin2800.obj
 0003:00000110       ?gFarMode@@3UHookModeFar@@A 10037110     ConEmuPluginBase.obj
 0003:0000013c       ?gnPluginOpenFrom@@3HA     1003713c     ConEmuPluginBase.obj
 0003:00000140       ?gnReqCommand@@3KA         10037140     ConEmuPluginBase.obj
 0003:00000144       ?lastModifiedStateW@@3HA   10037144     ConEmuPluginBase.obj
 0003:00000148       ?gpPluginMenu@@3PAUPluginAndMenuCommands@@A 10037148     ConEmuPluginBase.obj
 0003:00000208       ?g_TerminatedThreadIdx@@3JA 10037208     common-kernel32:WThreads.obj
 0003:0000020c       ___security_cookie_complement 1003720c     LIBCMT:gs_cookie.obj
 0003:00000210       ___security_cookie         10037210     LIBCMT:gs_cookie.obj
 0003:00000220       __Init_global_epoch        10037220     LIBCMT:thread_safe_statics.obj
 0003:00000230       ___scrt_native_dllmain_reason 10037230     LIBCMT:utility.obj
 0003:00000234       ___isa_enabled             10037234     LIBCMT:cpu_disp.obj
 0003:00000250       __NLG_Destination          10037250     libvcruntime:exsup.obj
 0003:00000268       ___abort_behavior          10037268     libucrt:abort.obj
 0003:00000278       __iob                      10037278     libucrt:_file.obj
 0003:00000320       ___acrt_initial_locale_data 10037320     libucrt:nlsdata.obj
 0003:000003d8       ___acrt_initial_locale_pointers 100373d8     libucrt:nlsdata.obj
 0003:000003e0       ___acrt_wide_c_locale_string 100373e0     libucrt:nlsdata.obj
 0003:000003e4       __pwctype                  100373e4     libucrt:ctype.obj
 0003:000004e0       __mbctype                  100374e0     libucrt:mbctype.obj
 0003:000005e8       __mbcasemap                100375e8     libucrt:mbctype.obj
 0003:000006e8       ___acrt_initial_multibyte_data 100376e8     libucrt:mbctype.obj
 0003:00000908       ___acrt_current_multibyte_data 10037908     libucrt:mbctype.obj
 0003:0000090c       ___globallocalestatus      1003790c     libucrt:glstatus.obj
 0003:00000910       ___acrt_lconv_static_decimal 10037910     libucrt:localeconv.obj
 0003:00000914       ___acrt_lconv_static_W_decimal 10037914     libucrt:localeconv.obj
 0003:00000918       ___acrt_lconv_c            10037918     libucrt:localeconv.obj
 0003:00000970       ___dcrt_lowio_console_output_handle 10037970     libucrt:initcon.obj
 0003:00000980       __fltused                  10037980     LIBCMT:fltused.obj
 0003:00000988       ??_R0?AVCPluginW1900@@@8   10037988     ConEmuPlugin1900.obj
 0003:000009a4       ??_R0?AVCPluginBase@@@8    100379a4     ConEmuPlugin1900.obj
 0003:000009c0       ??_R0?AVbad_alloc@std@@@8  100379c0     ConEmuPlugin2800.obj
 0003:000009dc       ??_R0?AVexception@std@@@8  100379dc     ConEmuPlugin2800.obj
 0003:000009f8       ??_R0?AVCPluginW2800@@@8   100379f8     ConEmuPlugin2800.obj
 0003:00000a14       ??_R0?AVCPluginW995@@@8    10037a14     ConEmuPlugin995.obj
 0003:00000a30       ??_R0?AVCPluginAnsi@@@8    10037a30     ConEmuPluginA.obj
 0003:00000a4c       ??_R0?AVbad_alloc@stdext@@@8 10037a4c     common-kernel32:CEStr.obj
 0003:00000a6c       ??_R0?AVexception@stdext@@@8 10037a6c     common-kernel32:CEStr.obj
 0003:00000a8c       ??_R0P6GHPAX@Z@8           10037a8c     common-kernel32:WObjects.obj
 0003:00000aa0       ??_R0?AV?$_Func_base@XPAX@std@@@8 10037aa0     common-kernel32:WObjects.obj
 0003:00000ac4       ??_R0?AV?$_Func_impl_no_alloc@P6GHPAX@ZXPAX@std@@@8 10037ac4     common-kernel32:WObjects.obj
 0003:00000afc       ??_R0?AV<lambda_9e7323793ed24b1a5fadb4d27ba29021>@@@8 10037afc     common-kernel32:MProcess.obj
 0003:00000b34       ??_R0?AVMToolHelpProcess@@@8 10037b34     common-kernel32:MProcess.obj
 0003:00000b58       ??_R0?AV?$MToolHelp@UtagPROCESSENTRY32W@@$1?Process32FirstW@@YGHPAXPAU1@@Z$1?Process32NextW@@YGH01@Z@@@8 10037b58     common-kernel32:MProcess.obj
 0003:00000bc4       ??_R0?AV?$_Func_base@_NABUtagPROCESSENTRY32W@@@std@@@8 10037bc4     common-kernel32:MProcess.obj
 0003:00000c00       ??_R0?AV?$_Func_impl_no_alloc@V<lambda_9e7323793ed24b1a5fadb4d27ba29021>@@_NABUtagPROCESSENTRY32W@@@std@@@8 10037c00     common-kernel32:MProcess.obj
 0003:00000c70       ??_R0?AVlogic_error@std@@@8 10037c70     libcpmt:xthrow.obj
 0003:00000c90       ??_R0?AVlength_error@std@@@8 10037c90     libcpmt:xthrow.obj
 0003:00000cb0       ??_R0?AVbad_function_call@std@@@8 10037cb0     libcpmt:xthrow.obj
 0003:00000cd4       ??_R0?AVtype_info@@@8      10037cd4     LIBCMT:std_type_info_static.obj
 0003:00000cec       ??_R0?AVbad_exception@std@@@8 10037cec     libvcruntime:frame.obj
 0003:00000d10       ?ghExtConModule@@3PAUHINSTANCE__@@A 10037d10     ConEmuInjects.obj
 0003:00000d14       ?ghHooksModule@@3PAUHINSTANCE__@@A 10037d14     ConEmuInjects.obj
 0003:00000d18       ?gbHooksModuleLoaded@@3HA  10037d18     ConEmuInjects.obj
 0003:00000d1c       ?SetHookCallbacks@@3P6G_NPBDPB_WPAUHINSTANCE__@@P6GHPAUHookCallbackArg@@@Z44@ZA 10037d1c     ConEmuInjects.obj
 0003:00000d20       ?SetLoadLibraryCallback@@3P6GXPAUHINSTANCE__@@P6GX0@Z1@ZA 10037d20     ConEmuInjects.obj
 0003:00000d24       ?SetFarHookMode@@3P6GXPAUHookModeFar@@@ZA 10037d24     ConEmuInjects.obj
 0003:00000d28       ?SetConsoleCallbacks@@3P6G_NPAUHINSTANCE__@@KPAP6GHPAUHookCallbackArg@@@Z@ZA 10037d28     ConEmuInjects.obj
 0003:00000d30       ?_OptionsStorage@?1??__local_stdio_printf_options@@9@4_KA 10037d30     ConEmuInjects.obj
 0003:00000d38       ?InfoW1900@@3PAUPluginStartupInfo@@A 10037d38     ConEmuPlugin1900.obj
 0003:00000d3c       ?FSFW1900@@3PAUFarStandardFunctions@@A 10037d3c     ConEmuPlugin1900.obj
 0003:00000d40       ?LastColor@?1??Color2FgIndex@Far3Color@@SAXKAAGPBK@Z@4KA 10037d40     ConEmuPlugin1900.obj
 0003:00000d44       ?LastIndex@?1??Color2FgIndex@Far3Color@@SAXKAAGPBK@Z@4HA 10037d44     ConEmuPlugin1900.obj
 0003:00000d48       ?LastColor@?1??Color2BgIndex@Far3Color@@SAXKHAAGPBK@Z@4KA 10037d48     ConEmuPlugin1900.obj
 0003:00000d4c       ?LastIndex@?1??Color2BgIndex@Far3Color@@SAXKHAAGPBK@Z@4HA 10037d4c     ConEmuPlugin1900.obj
 0003:00000fd0       ?InfoW2800@@3PAUPluginStartupInfo@@A 10037fd0     ConEmuPlugin2800.obj
 0003:00000fd4       ?FSFW2800@@3PAUFarStandardFunctions@@A 10037fd4     ConEmuPlugin2800.obj
 0003:00001274       ?InfoW995@@3PAUPluginStartupInfo@@A 10038274     ConEmuPlugin995.obj
 0003:00001278       ?FSFW995@@3PAUFarStandardFunctions@@A 10038278     ConEmuPlugin995.obj
 0003:000014c8       ?InfoA@@3PAUPluginStartupInfo@@A 100384c8     ConEmuPluginA.obj
 0003:000014cc       ?FSFA@@3PAUFarStandardFunctions@@A 100384cc     ConEmuPluginA.obj
 0003:000017c8       ?ghPluginModule@@3PAUHINSTANCE__@@A 100387c8     ConEmuPluginBase.obj
 0003:000017cc       ?gnMainThreadId@@3KA       100387cc     ConEmuPluginBase.obj
 0003:000017d0       ?gszDir1@@3PA_WA           100387d0     ConEmuPluginBase.obj
 0003:00001fd0       ?gszDir2@@3PA_WA           10038fd0     ConEmuPluginBase.obj
 0003:000027d0       ?maxTabCount@@3HA          100397d0     ConEmuPluginBase.obj
 0003:000027d4       ?lastWindowCount@@3HA      100397d4     ConEmuPluginBase.obj
 0003:000027d8       ?gnCurTabCount@@3HA        100397d8     ConEmuPluginBase.obj
 0003:000027dc       ?gpCmdRet@@3PAUCESERVER_REQ@@A 100397dc     ConEmuPluginBase.obj
 0003:000027e0       ?ghConEmuWndDC@@3PAUHWND__@@A 100397e0     ConEmuPluginBase.obj
 0003:000027e4       ?FarHwnd@@3PAUHWND__@@A    100397e4     ConEmuPluginBase.obj
 0003:000027e8       ?gFarVersion@@3UFarVersion@@A 100397e8     ConEmuPluginBase.obj
 0003:000027f4       ?gpConMapInfo@@3PBUCESERVER_CONSOLE_MAPPING_HDR@@B 100397f4     ConEmuPluginBase.obj
 0003:000027f8       ?gbIgnoreUpdateTabs@@3HA   100397f8     ConEmuPluginBase.obj
 0003:000027fc       ?gpTabs@@3PAUCESERVER_REQ@@A 100397fc     ConEmuPluginBase.obj
 0003:00002800       ?gbForceSendTabs@@3HA      10039800     ConEmuPluginBase.obj
 0003:00002804       ?gnCurrentWindowType@@3HA  10039804     ConEmuPluginBase.obj
 0003:00002808       ?gPanelRegLeft@@3UPanelViewRegInfo@@A 10039808     ConEmuPluginBase.obj
 0003:00002820       ?gPanelRegRight@@3UPanelViewRegInfo@@A 10039820     ConEmuPluginBase.obj
 0003:00002838       ?gnSynchroCount@@3HA       10039838     ConEmuPluginBase.obj
 0003:0000283c       ?TerminalMode@@3HA         1003983c     ConEmuPluginBase.obj
 0003:00002840       ?gb_DllUniqueWarned@CPluginBase@@1_NA 10039840     ConEmuPluginBase.obj
 0003:00002841       ?gb_DllUniqueChecked@CPluginBase@@1_NA 10039841     ConEmuPluginBase.obj
 0003:00002842       ?gb_ProtocolWarned@CPluginBase@@1_NA 10039842     ConEmuPluginBase.obj
 0003:00002843       ?gbExitFarCalled@@3_NA     10039843     ConEmuPluginBase.obj
 0003:00002844       ?gLastMouseReadEvent@@3U_MOUSE_EVENT_RECORD@@A 10039844     ConEmuPluginBase.obj
 0003:00002854       ?gnDummyMouseEventFromMacro@@3JA 10039854     ConEmuPluginBase.obj
 0003:00002858       ?gbUngetDummyMouseEvent@@3HA 10039858     ConEmuPluginBase.obj
 0003:0000285c       ?gpPlugin@@3PAVCPluginBase@@A 1003985c     ConEmuPluginBase.obj
 0003:00002860       ?gbWasDetached@@3HA        10039860     ConEmuPluginBase.obj
 0003:00002864       ?gbFarWndVisible@@3HA      10039864     ConEmuPluginBase.obj
 0003:00002868       ?gsbiDetached@@3U_CONSOLE_SCREEN_BUFFER_INFO@@A 10039868     ConEmuPluginBase.obj
 0003:0000287e       ?gbSynchroProhibited@@3_NA 1003987e     ConEmuPluginBase.obj
 0003:0000287f       ?gbInputSynchroPending@@3_NA 1003987f     ConEmuPluginBase.obj
 0003:00002880       ?gnPeekReadCount@@3KA      10039880     ConEmuPluginBase.obj
 0003:00002884       ?gnInLongOperation@@3JA    10039884     ConEmuPluginBase.obj
 0003:00002888       ?gdwPreDetachGuiPID@@3KA   10039888     ConEmuPluginBase.obj
 0003:0000288c       ?gdwServerPID@@3KA         1003988c     ConEmuPluginBase.obj
 0003:00002890       ?gnMainThreadIdInitial@@3KA 10039890     ConEmuPluginBase.obj
 0003:00002894       ?ghMonitorThread@@3PAXA    10039894     ConEmuPluginBase.obj
 0003:00002898       ?gnMonitorThreadId@@3KA    10039898     ConEmuPluginBase.obj
 0003:0000289c       ?ghSetWndSendTabsEvent@@3PAXA 1003989c     ConEmuPluginBase.obj
 0003:000028a0       ?gbRequestUpdateTabs@@3HA  100398a0     ConEmuPluginBase.obj
 0003:000028a4       ?gbClosingModalViewerEditor@@3HA 100398a4     ConEmuPluginBase.obj
 0003:000028a8       ?gnAllowDummyMouseEvent@@3JA 100398a8     ConEmuPluginBase.obj
 0003:000028ac       ?csData@@3PAVMSection@@A   100398ac     ConEmuPluginBase.obj
 0003:000028b0       ?gpData@@3PAEA             100398b0     ConEmuPluginBase.obj
 0003:000028b4       ?gpCursor@@3PAEA           100398b4     ConEmuPluginBase.obj
 0003:000028b8       ?gnDataSize@@3KA           100398b8     ConEmuPluginBase.obj
 0003:000028bc       ?gpReqCommandData@@3PAXA   100398bc     ConEmuPluginBase.obj
 0003:000028c0       ?ghReqCommandEvent@@3PAXA  100398c0     ConEmuPluginBase.obj
 0003:000028c4       ?gbReqCommandWaiting@@3HA  100398c4     ConEmuPluginBase.obj
 0003:000028c8       ?gnMsgTabChanged@@3IA      100398c8     ConEmuPluginBase.obj
 0003:000028cc       ?csTabs@@3PAVMSection@@A   100398cc     ConEmuPluginBase.obj
 0003:000028d0       ?gbPlugKeyChanged@@3HA     100398d0     ConEmuPluginBase.obj
 0003:000028d4       ?ghRegMonitorKey@@3PAUHKEY__@@A 100398d4     ConEmuPluginBase.obj
 0003:000028d8       ?ghRegMonitorEvt@@3PAXA    100398d8     ConEmuPluginBase.obj
 0003:000028dc       ?ghPluginSemaphore@@3PAXA  100398dc     ConEmuPluginBase.obj
 0003:000028e0       ?gsFarLang@@3PA_WA         100398e0     ConEmuPluginBase.obj
 0003:00002960       ?gbNeedPostTabSend@@3HA    10039960     ConEmuPluginBase.obj
 0003:00002964       ?gbNeedPostEditCheck@@3HA  10039964     ConEmuPluginBase.obj
 0003:00002968       ?gbNeedPostReloadFarInfo@@3HA 10039968     ConEmuPluginBase.obj
 0003:0000296c       ?gbNeedReloadFarDir@@3HA   1003996c     ConEmuPluginBase.obj
 0003:00002970       ?gnNeedPostTabSendTick@@3KA 10039970     ConEmuPluginBase.obj
 0003:00002974       ?gpConMap@@3PAV?$MFileMapping@UCESERVER_CONSOLE_MAPPING_HDR@@@@A 10039974     ConEmuPluginBase.obj
 0003:00002978       ?gbStartedUnderConsole2@@3HA 10039978     ConEmuPluginBase.obj
 0003:0000297c       ?gnSelfPID@@3KA            1003997c     ConEmuPluginBase.obj
 0003:00002980       ?ghFarInfoMapping@@3PAXA   10039980     ConEmuPluginBase.obj
 0003:00002984       ?gpFarInfo@@3PAUCEFAR_INFO_MAPPING@@A 10039984     ConEmuPluginBase.obj
 0003:00002988       ?gpFarInfoMapping@@3PAUCEFAR_INFO_MAPPING@@A 10039988     ConEmuPluginBase.obj
 0003:0000298c       ?ghFarAliveEvent@@3PAXA    1003998c     ConEmuPluginBase.obj
 0003:00002990       ?ghConEmuCtrlPressed@@3PAXA 10039990     ConEmuPluginBase.obj
 0003:00002994       ?ghConEmuShiftPressed@@3PAXA 10039994     ConEmuPluginBase.obj
 0003:00002998       ?gbWaitConsoleInputEmpty@@3HA 10039998     ConEmuPluginBase.obj
 0003:0000299c       ?gbWaitConsoleWrite@@3HA   1003999c     ConEmuPluginBase.obj
 0003:000029a0       ?ghConsoleInputEmpty@@3PAXA 100399a0     ConEmuPluginBase.obj
 0003:000029a4       ?ghConsoleWrite@@3PAXA     100399a4     ConEmuPluginBase.obj
 0003:000029c0       ?csbi@@3U_CONSOLE_SCREEN_BUFFER_INFO@@A 100399c0     LogBrowser.obj
 0003:000029d6       ?gbShowAttrsOnly@@3_NA     100399d6     LogBrowser.obj
 0003:000029d8       ?gnPage@@3HA               100399d8     LogBrowser.obj
 0003:000029dc       ?gbBgPluginsAllowed@@3HA   100399dc     PluginBackground.obj
 0003:000029e0       ?gbNeedBgActivate@@3HA     100399e0     PluginBackground.obj
 0003:000029e4       ?gpBgPlugin@@3PAVCPluginBackground@@A 100399e4     PluginBackground.obj
 0003:000029e8       ?ghServerTerminateEvent@@3PAXA 100399e8     PluginSrv.obj
 0003:000029ec       ?gpPlugServer@@3PAU?$PipeServer@UCESERVER_REQ@@@@A 100399ec     PluginSrv.obj
 0003:000029f0       ?gszPluginServerPipe@@3PA_WA 100399f0     PluginSrv.obj
 0003:00002bf8       ?gbForcedServerTermination@@3_NA 10039bf8     PluginSrv.obj
 0003:00002bfc       ?g_LastDeletePtr@@3PAXA    10039bfc     common-kernel32:Memory.obj
 0003:00002c00       ?ghHeap@?A0x8f3601b8@@3PAXA 10039c00     common-kernel32:Memory.obj
 0003:00002c0c       ?gpLocalSecurity@@3PAU_SECURITY_ATTRIBUTES@@A 10039c0c     common-kernel32:ConEmuCheck.obj
 0003:00002c10       ?ghWorkingModule@@3UHANDLE2@@A 10039c10     common-kernel32:ConEmuCheck.obj
 0003:00002c18       ?gfGetRealConsoleWindow@@3P6GPAUHWND__@@XZA 10039c18     common-kernel32:ConEmuCheck.obj
 0003:00002c60       ?g_ThreadsIdx@@3JA         10039c60     common-kernel32:WThreads.obj
 0003:0000a468       ?gbInCommonShutdown@@3HA   10041468     common-kernel32:Common.obj
 0003:0000a470       ?gNullDesc@@3PAVMNullDesc@@A 10041470     common-kernel32:MSecurity.obj
 0003:0000a474       ?gfnSearchAppPaths@@3P6A_NPB_WAAUCEStr@@_NPAVCEnvRestorer@@@ZA 10041474     common-kernel32:WObjects.obj
 0003:0000a48c       ?hkFunc@@3UHkFunc@@A       1004148c     common-kernel32:HkFunc.obj
 0003:0000a4b8       ?gsMapHelper@@3UConsoleSectionHelper@@A 100414b8     common-user32:WConsoleEx.obj
 0003:0000a4c0       __tls_index                100414c0     LIBCMT:tlssup.obj
 0003:0000a4f0       ___scrt_current_native_startup_state 100414f0     LIBCMT:utility.obj
 0003:0000a4f4       ___scrt_native_startup_lock 100414f4     LIBCMT:utility.obj
 0003:0000a834       ___scrt_debugger_hook_flag 10041834     LIBCMT:utility_desktop.obj
 0003:0000a838       ?__type_info_root_node@@3U__type_info_node@@A 10041838     LIBCMT:tncleanup.obj
 0003:0000a840       ?_OptionsStorage@?1??__local_stdio_scanf_options@@9@4_KA 10041840     LIBCMT:default_local_stdio_options.obj
 0003:0000a848       ___isa_available           10041848     LIBCMT:cpu_disp.obj
 0003:0000a84c       ___favor                   1004184c     LIBCMT:cpu_disp.obj
 0003:0000a850       ?__WinRTOutOfMemoryExceptionCallback@@3P6GPAXXZA 10041850     libvcruntime:ehhelpers.obj
 0003:0000a87c       ___pPurecall               1004187c     libvcruntime:purevirt_data.obj
 0003:0000a8bc       ?pArgList@UnDecorator@@0PAVReplicator@@A 100418bc     libvcruntime:undname.obj
 0003:0000a8c0       ?pZNameList@UnDecorator@@0PAVReplicator@@A 100418c0     libvcruntime:undname.obj
 0003:0000a8c4       ?pTemplateArgList@UnDecorator@@0PAVReplicator@@A 100418c4     libvcruntime:undname.obj
 0003:0000a8c8       ?gName@UnDecorator@@0PBDB  100418c8     libvcruntime:undname.obj
 0003:0000a8cc       ?name@UnDecorator@@0PBDB   100418cc     libvcruntime:undname.obj
 0003:0000a8d0       ?disableFlags@UnDecorator@@0KA 100418d0     libvcruntime:undname.obj
 0003:0000a8d4       ?fExplicitTemplateParams@UnDecorator@@0_NA 100418d4     libvcruntime:undname.obj
 0003:0000a8d5       ?fGetTemplateArgumentList@UnDecorator@@0_NA 100418d5     libvcruntime:undname.obj
 0003:0000a8d8       ?m_pGetParameter@UnDecorator@@0P6APADJ@ZA 100418d8     libvcruntime:undname.obj
 0003:0000a8dc       ?m_CHPENameOffset@UnDecorator@@0KA 100418dc     libvcruntime:undname.obj
 0003:0000a8e0       ?m_recursionLevel@UnDecorator@@0KA 100418e0     libvcruntime:undname.obj
 0003:0000aa10       __environ_table            10041a10     libucrt:environment_initialization.obj
 0003:0000aa14       __wenviron_table           10041a14     libucrt:environment_initialization.obj
 0003:0000aa18       ___dcrt_initial_wide_environment 10041a18     libucrt:environment_initialization.obj
 0003:0000aa1c       ___dcrt_initial_narrow_environment 10041a1c     libucrt:environment_initialization.obj
 0003:0000aa20       ___acrt_atexit_table       10041a20     libucrt:onexit.obj
 0003:0000aa2c       ___acrt_at_quick_exit_table 10041a2c     libucrt:onexit.obj
 0003:0000aa38       __nstream                  10041a38     libucrt:_file.obj
 0003:0000aa3c       ___piob                    10041a3c     libucrt:_file.obj
 0003:0000aa44       ___acrt_stdout_buffer      10041a44     libucrt:_sftbuf.obj
 0003:0000aa48       ___acrt_stderr_buffer      10041a48     libucrt:_sftbuf.obj
 0003:0000aa4c       ___acrt_locale_changed_data 10041a4c     libucrt:wsetlocale.obj
 0003:0000aa50       ___acrt_current_locale_data 10041a50     libucrt:nlsdata.obj
 0003:0000aa58       ___pioinfo                 10041a58     libucrt:ioinit.obj
 0003:0000ac58       __nhandle                  10041c58     libucrt:ioinit.obj
 0003:0000ae74       ___mblocalename            10041e74     libucrt:mbctype.obj
 0003:0000ae78       ___mbcodepage              10041e78     libucrt:mbctype.obj
 0003:0000ae7c       ___ismbcodepage            10041e7c     libucrt:mbctype.obj
 0003:0000ae80       ___mbulinfo                10041e80     libucrt:mbctype.obj
 0003:0000ae94       ___argc                    10041e94     libucrt:argv_data.obj
 0003:0000ae98       ___argv                    10041e98     libucrt:argv_data.obj
 0003:0000ae9c       ___wargv                   10041e9c     libucrt:argv_data.obj
 0003:0000aea0       __acmdln                   10041ea0     libucrt:argv_data.obj
 0003:0000aea4       __wcmdln                   10041ea4     libucrt:argv_data.obj
 0003:0000aea8       __pgmptr                   10041ea8     libucrt:argv_data.obj
 0003:0000aeac       ___acrt_heap               10041eac     libucrt:heap_handle.obj
 0003:0000aecc       ___acrt_lconv_static_null  10041ecc     libucrt:localeconv.obj
 0003:0000aed0       ___acrt_lconv_static_W_null 10041ed0     libucrt:localeconv.obj
 0003:0000aed8       ___fastflag                10041ed8     libucrt:fp_flags.obj
 0003:0000aee0       ?g_LastSetConsoleFont@@3UMY_CONSOLE_FONT_INFOEX@@A 10041ee0     common-kernel32:WConsole.obj
 0003:0000af48       ___scrt_ucrt_dll_is_in_use 10041f48     <common>
 0003:0000af4c       ___dyn_tls_init_callback   10041f4c     <common>
 0003:0000af50       __pmatherr                 10041f50     <common>
 0003:0000af54       ___use_sse2_mathfcns       10041f54     <common>

 entry point at        0001:000176cb

 Static symbols

 0000:fffba000       .debug$S                   10000000     kernel32:KERNEL32.dll
 0000:fffba000       .debug$S                   10000000     kernel32:KERNEL32.dll
 0000:fffba000       .debug$S                   10000000     advapi32:ADVAPI32.dll
 0000:fffba000       .debug$S                   10000000     advapi32:ADVAPI32.dll
 0000:fffba000       .debug$S                   10000000     advapi32:ADVAPI32.dll
 0000:fffba000       .debug$S                   10000000     gdi32:GDI32.dll
 0000:fffba000       .debug$S                   10000000     gdi32:GDI32.dll
 0000:fffba000       .debug$S                   10000000     gdi32:GDI32.dll
 0000:fffba000       .debug$S                   10000000     gdi32:GDI32.dll
 0000:fffba000       .debug$S                   10000000     gdi32:GDI32.dll
 0000:fffba000       .debug$S                   10000000     gdi32:GDI32.dll
 0000:fffba000       .debug$S                   10000000     gdi32:GDI32.dll
 0000:fffba000       .debug$S                   10000000     gdi32:GDI32.dll
 0000:fffba000       .debug$S                   10000000     user32:USER32.dll
 0000:fffba000       .debug$S                   10000000     user32:USER32.dll
 0000:fffba000       .debug$S                   10000000     user32:USER32.dll
 0000:fffba000       .debug$S                   10000000     user32:USER32.dll
 0000:fffba000       .debug$S                   10000000     user32:USER32.dll
 0000:fffba000       .debug$S                   10000000     user32:USER32.dll
 0000:fffba000       .debug$S                   10000000     user32:USER32.dll
 0000:fffba000       .debug$S                   10000000     user32:USER32.dll
 0000:fffba000       .debug$S                   10000000     user32:USER32.dll
 0000:fffba000       .debug$S                   10000000     user32:USER32.dll
 0000:fffba000       .debug$S                   10000000     user32:USER32.dll
 0000:fffba000       .debug$S                   10000000     user32:USER32.dll
 0000:fffba000       .debug$S                   10000000     user32:USER32.dll
 0000:fffba000       .debug$S                   10000000     user32:USER32.dll
 0000:fffba000       .debug$S                   10000000     user32:USER32.dll
 0000:fffba000       .debug$S                   10000000     version:VERSION.dll
 0000:fffba000       .debug$S                   10000000     version:VERSION.dll
 0000:fffba000       .debug$S                   10000000     version:VERSION.dll
 0000:fffba000       .debug$S                   10000000     kernel32:KERNEL32.dll
 0000:fffba000       .debug$S                   10000000     kernel32:KERNEL32.dll
 0000:fffba000       .debug$S                   10000000     ConEmu.exp
 0000:fffba000       .debug$S                   10000000     kernel32:KERNEL32.dll
 0000:fffba000       .debug$S                   10000000     user32:USER32.dll
 0000:fffba000       .debug$S                   10000000     kernel32:KERNEL32.dll
 0000:fffba000       .debug$S                   10000000     kernel32:KERNEL32.dll
 0000:fffba000       .debug$S                   10000000     kernel32:KERNEL32.dll
 0000:fffba000       .debug$S                   10000000     kernel32:KERNEL32.dll
 0000:fffba000       .debug$S                   10000000     kernel32:KERNEL32.dll
 0000:fffba000       .debug$S                   10000000     kernel32:KERNEL32.dll
 0000:fffba000       .debug$S                   10000000     kernel32:KERNEL32.dll
 0000:fffba000       .debug$S                   10000000     kernel32:KERNEL32.dll
 0000:fffba000       .debug$S                   10000000     kernel32:KERNEL32.dll
 0000:fffba000       .debug$S                   10000000     kernel32:KERNEL32.dll
 0000:fffba000       .debug$S                   10000000     kernel32:KERNEL32.dll
 0000:fffba000       .debug$S                   10000000     kernel32:KERNEL32.dll
 0000:fffba000       .debug$S                   10000000     kernel32:KERNEL32.dll
 0000:fffba000       .debug$S                   10000000     kernel32:KERNEL32.dll
 0000:fffba000       .debug$S                   10000000     kernel32:KERNEL32.dll
 0000:fffba000       .debug$S                   10000000     kernel32:KERNEL32.dll
 0002:fffd6000       .idata$6                   10000000     shell32:SHELL32.dll
 0000:fffba000       .debug$S                   10000000     shell32:SHELL32.dll
 0000:fffba000       .debug$S                   10000000     advapi32:ADVAPI32.dll
 0000:fffba000       .debug$S                   10000000     advapi32:ADVAPI32.dll
 0000:fffba000       .debug$S                   10000000     advapi32:ADVAPI32.dll
 0000:fffba000       .debug$S                   10000000     advapi32:ADVAPI32.dll
 0000:fffba000       .debug$S                   10000000     advapi32:ADVAPI32.dll
 0000:fffba000       .debug$S                   10000000     advapi32:ADVAPI32.dll
 0000:fffba000       .debug$S                   10000000     advapi32:ADVAPI32.dll
 0000:fffba000       .debug$S                   10000000     advapi32:ADVAPI32.dll
 0000:fffba000       .debug$S                   10000000     advapi32:ADVAPI32.dll
 0000:fffba000       .debug$S                   10000000     advapi32:ADVAPI32.dll
 0000:fffba000       .debug$S                   10000000     advapi32:ADVAPI32.dll
 0000:fffba000       .debug$S                   10000000     advapi32:ADVAPI32.dll
 0000:fffba000       .debug$S                   10000000     gdi32:GDI32.dll
 0000:fffba000       .debug$S                   10000000     gdi32:GDI32.dll
 0000:fffba000       .debug$S                   10000000     gdi32:GDI32.dll
 0000:fffba000       .debug$S                   10000000     gdi32:GDI32.dll
 0000:fffba000       .debug$S                   10000000     gdi32:GDI32.dll
 0000:fffba000       .debug$S                   10000000     user32:USER32.dll
 0000:fffba000       .debug$S                   10000000     user32:USER32.dll
 0000:fffba000       .debug$S                   10000000     user32:USER32.dll
 0000:fffba000       .debug$S                   10000000     user32:USER32.dll
 0000:fffba000       .debug$S                   10000000     user32:USER32.dll
 0000:fffba000       .debug$S                   10000000     user32:USER32.dll
 0000:fffba000       .debug$S                   10000000     user32:USER32.dll
 0000:fffba000       .debug$S                   10000000     user32:USER32.dll
 0000:fffba000       .debug$S                   10000000     user32:USER32.dll
 0000:fffba000       .debug$S                   10000000     user32:USER32.dll
 0000:fffba000       .debug$S                   10000000     user32:USER32.dll
 0000:fffba000       .debug$S                   10000000     user32:USER32.dll
 0000:fffba000       .debug$S                   10000000     user32:USER32.dll
 0000:fffba000       .debug$S                   10000000     user32:USER32.dll
 0000:fffba000       .debug$S                   10000000     user32:USER32.dll
 0000:fffba000       .debug$S                   10000000     user32:USER32.dll
 0000:fffba000       .debug$S                   10000000     user32:USER32.dll
 0000:fffba000       .debug$S                   10000000     user32:USER32.dll
 0000:fffba000       .debug$S                   10000000     user32:USER32.dll
 0000:fffba000       .debug$S                   10000000     user32:USER32.dll
 0000:fffba000       .debug$S                   10000000     user32:USER32.dll
 0000:fffba000       .debug$S                   10000000     user32:USER32.dll
 0000:fffba000       .debug$S                   10000000     user32:USER32.dll
 0000:fffba000       .debug$S                   10000000     user32:USER32.dll
 0000:fffba000       .debug$S                   10000000     user32:USER32.dll
 0000:fffba000       .debug$S                   10000000     kernel32:KERNEL32.dll
 0000:fffba000       .debug$S                   10000000     kernel32:KERNEL32.dll
 0000:fffba000       .debug$S                   10000000     kernel32:KERNEL32.dll
 0000:fffba000       .debug$S                   10000000     kernel32:KERNEL32.dll
 0000:fffba000       .debug$S                   10000000     kernel32:KERNEL32.dll
 0000:fffba000       .debug$S                   10000000     kernel32:KERNEL32.dll
 0000:fffba000       .debug$S                   10000000     kernel32:KERNEL32.dll
 0000:fffba000       .debug$S                   10000000     kernel32:KERNEL32.dll
 0000:fffba000       .debug$S                   10000000     kernel32:KERNEL32.dll
 0000:fffba000       .debug$S                   10000000     kernel32:KERNEL32.dll
 0000:fffba000       .debug$S                   10000000     kernel32:KERNEL32.dll
 0000:fffba000       .debug$S                   10000000     kernel32:KERNEL32.dll
 0000:fffba000       .debug$S                   10000000     kernel32:KERNEL32.dll
 0000:fffba000       .debug$S                   10000000     kernel32:KERNEL32.dll
 0000:fffba000       .debug$S                   10000000     kernel32:KERNEL32.dll
 0000:fffba000       .debug$S                   10000000     kernel32:KERNEL32.dll
 0000:fffba000       .debug$S                   10000000     kernel32:KERNEL32.dll
 0000:fffba000       .debug$S                   10000000     kernel32:KERNEL32.dll
 0000:fffba000       .debug$S                   10000000     kernel32:KERNEL32.dll
 0000:fffba000       .debug$S                   10000000     kernel32:KERNEL32.dll
 0000:fffba000       .debug$S                   10000000     kernel32:KERNEL32.dll
 0000:fffba000       .debug$S                   10000000     kernel32:KERNEL32.dll
 0000:fffba000       .debug$S                   10000000     kernel32:KERNEL32.dll
 0000:fffba000       .debug$S                   10000000     kernel32:KERNEL32.dll
 0000:fffba000       .debug$S                   10000000     kernel32:KERNEL32.dll
 0000:fffba000       .debug$S                   10000000     kernel32:KERNEL32.dll
 0000:fffba000       .debug$S                   10000000     kernel32:KERNEL32.dll
 0000:fffba000       .debug$S                   10000000     kernel32:KERNEL32.dll
 0000:fffba000       .debug$S                   10000000     kernel32:KERNEL32.dll
 0000:fffba000       .debug$S                   10000000     kernel32:KERNEL32.dll
 0000:fffba000       .debug$S                   10000000     kernel32:KERNEL32.dll
 0000:fffba000       .debug$S                   10000000     kernel32:KERNEL32.dll
 0000:fffba000       .debug$S                   10000000     kernel32:KERNEL32.dll
 0000:fffba000       .debug$S                   10000000     kernel32:KERNEL32.dll
 0000:fffba000       .debug$S                   10000000     kernel32:KERNEL32.dll
 0000:fffba000       .debug$S                   10000000     kernel32:KERNEL32.dll
 0000:fffba000       .debug$S                   10000000     kernel32:KERNEL32.dll
 0000:fffba000       .debug$S                   10000000     kernel32:KERNEL32.dll
 0000:fffba000       .debug$S                   10000000     kernel32:KERNEL32.dll
 0000:fffba000       .debug$S                   10000000     kernel32:KERNEL32.dll
 0000:fffba000       .debug$S                   10000000     kernel32:KERNEL32.dll
 0000:fffba000       .debug$S                   10000000     kernel32:KERNEL32.dll
 0000:fffba000       .debug$S                   10000000     kernel32:KERNEL32.dll
 0000:fffba000       .debug$S                   10000000     kernel32:KERNEL32.dll
 0000:fffba000       .debug$S                   10000000     kernel32:KERNEL32.dll
 0000:fffba000       .debug$S                   10000000     kernel32:KERNEL32.dll
 0000:fffba000       .debug$S                   10000000     kernel32:KERNEL32.dll
 0000:fffba000       .debug$S                   10000000     kernel32:KERNEL32.dll
 0000:fffba000       .debug$S                   10000000     kernel32:KERNEL32.dll
 0000:fffba000       .debug$S                   10000000     kernel32:KERNEL32.dll
 0000:fffba000       .debug$S                   10000000     kernel32:KERNEL32.dll
 0000:fffba000       .debug$S                   10000000     kernel32:KERNEL32.dll
 0000:fffba000       .debug$S                   10000000     kernel32:KERNEL32.dll
 0000:fffba000       .debug$S                   10000000     kernel32:KERNEL32.dll
 0000:fffba000       .debug$S                   10000000     kernel32:KERNEL32.dll
 0000:fffba000       .debug$S                   10000000     kernel32:KERNEL32.dll
 0000:fffba000       .debug$S                   10000000     kernel32:KERNEL32.dll
 0000:fffba000       .debug$S                   10000000     kernel32:KERNEL32.dll
 0000:fffba000       .debug$S                   10000000     kernel32:KERNEL32.dll
 0000:fffba000       .debug$S                   10000000     kernel32:KERNEL32.dll
 0000:fffba000       .debug$S                   10000000     kernel32:KERNEL32.dll
 0000:fffba000       .debug$S                   10000000     kernel32:KERNEL32.dll
 0000:fffba000       .debug$S                   10000000     kernel32:KERNEL32.dll
 0000:fffba000       .debug$S                   10000000     kernel32:KERNEL32.dll
 0000:fffba000       .debug$S                   10000000     kernel32:KERNEL32.dll
 0000:fffba000       .debug$S                   10000000     kernel32:KERNEL32.dll
 0000:fffba000       .debug$S                   10000000     kernel32:KERNEL32.dll
 0000:fffba000       .debug$S                   10000000     kernel32:KERNEL32.dll
 0000:fffba000       .debug$S                   10000000     kernel32:KERNEL32.dll
 0000:fffba000       .debug$S                   10000000     kernel32:KERNEL32.dll
 0000:fffba000       .debug$S                   10000000     kernel32:KERNEL32.dll
 0000:fffba000       .debug$S                   10000000     kernel32:KERNEL32.dll
 0000:fffba000       .debug$S                   10000000     kernel32:KERNEL32.dll
 0000:fffba000       .debug$S                   10000000     kernel32:KERNEL32.dll
 0000:fffba000       .debug$S                   10000000     kernel32:KERNEL32.dll
 0000:fffba000       .debug$S                   10000000     kernel32:KERNEL32.dll
 0000:fffba000       .debug$S                   10000000     kernel32:KERNEL32.dll
 0000:fffba000       .debug$S                   10000000     kernel32:KERNEL32.dll
 0000:fffba000       .debug$S                   10000000     kernel32:KERNEL32.dll
 0000:fffba000       .debug$S                   10000000     kernel32:KERNEL32.dll
 0000:fffba000       .debug$S                   10000000     kernel32:KERNEL32.dll
 0000:fffba000       .debug$S                   10000000     kernel32:KERNEL32.dll
 0000:fffba000       .debug$S                   10000000     kernel32:KERNEL32.dll
 0000:fffba000       .debug$S                   10000000     kernel32:KERNEL32.dll
 0000:fffba000       .debug$S                   10000000     kernel32:KERNEL32.dll
 0000:fffba000       .debug$S                   10000000     kernel32:KERNEL32.dll
 0000:fffba000       .debug$S                   10000000     kernel32:KERNEL32.dll
 0000:fffba000       .debug$S                   10000000     kernel32:KERNEL32.dll
 0000:fffba000       .debug$S                   10000000     kernel32:KERNEL32.dll
 0000:fffba000       .debug$S                   10000000     kernel32:KERNEL32.dll
 0000:fffba000       .debug$S                   10000000     kernel32:KERNEL32.dll
 0000:fffba000       .debug$S                   10000000     kernel32:KERNEL32.dll
 0000:fffba000       .debug$S                   10000000     kernel32:KERNEL32.dll
 0000:fffba000       .debug$S                   10000000     kernel32:KERNEL32.dll
 0000:fffba000       .debug$S                   10000000     kernel32:KERNEL32.dll
 0000:fffba000       .debug$S                   10000000     kernel32:KERNEL32.dll
 0000:fffba000       .debug$S                   10000000     kernel32:KERNEL32.dll
 0000:fffba000       .debug$S                   10000000     kernel32:KERNEL32.dll
 0000:fffba000       .debug$S                   10000000     kernel32:KERNEL32.dll
 0000:fffba000       .debug$S                   10000000     kernel32:KERNEL32.dll
 0000:fffba000       .debug$S                   10000000     kernel32:KERNEL32.dll
 0000:fffba000       .debug$S                   10000000     kernel32:KERNEL32.dll
 0000:fffba000       .debug$S                   10000000     kernel32:KERNEL32.dll
 0000:fffba000       .debug$S                   10000000     kernel32:KERNEL32.dll
 0000:fffba000       .debug$S                   10000000     kernel32:KERNEL32.dll
 0000:fffba000       .debug$S                   10000000     kernel32:KERNEL32.dll
 0000:fffba000       .debug$S                   10000000     kernel32:KERNEL32.dll
 0000:fffba000       .debug$S                   10000000     kernel32:KERNEL32.dll
 0000:fffba000       .debug$S                   10000000     kernel32:KERNEL32.dll
 0000:fffba000       .debug$S                   10000000     kernel32:KERNEL32.dll
 0000:fffba000       .debug$S                   10000000     kernel32:KERNEL32.dll
 0000:fffba000       .debug$S                   10000000     kernel32:KERNEL32.dll
 0000:fffba000       .debug$S                   10000000     kernel32:KERNEL32.dll
 0000:fffba000       .debug$S                   10000000     kernel32:KERNEL32.dll
 0000:fffba000       .debug$S                   10000000     kernel32:KERNEL32.dll
 0000:fffba000       .debug$S                   10000000     kernel32:KERNEL32.dll
 0000:fffba000       .debug$S                   10000000     kernel32:KERNEL32.dll
 0000:fffba000       .debug$S                   10000000     kernel32:KERNEL32.dll
 0000:fffba000       .debug$S                   10000000     kernel32:KERNEL32.dll
 0000:fffba000       .debug$S                   10000000     kernel32:KERNEL32.dll
 0000:fffba000       .debug$S                   10000000     kernel32:KERNEL32.dll
 0000:fffba000       .debug$S                   10000000     kernel32:KERNEL32.dll
 0000:fffba000       .debug$S                   10000000     kernel32:KERNEL32.dll
 0000:fffba000       .debug$S                   10000000     kernel32:KERNEL32.dll
 0000:fffba000       .debug$S                   10000000     kernel32:KERNEL32.dll
 0000:fffba000       .debug$S                   10000000     kernel32:KERNEL32.dll
 0000:fffba000       .debug$S                   10000000     kernel32:KERNEL32.dll
 0000:fffba000       .debug$S                   10000000     kernel32:KERNEL32.dll
 0000:fffba000       .debug$S                   10000000     kernel32:KERNEL32.dll
 0000:fffba000       .debug$S                   10000000     kernel32:KERNEL32.dll
 0000:fffba000       .debug$S                   10000000     kernel32:KERNEL32.dll
 0000:fffba000       .debug$S                   10000000     kernel32:KERNEL32.dll
 0000:fffba000       .debug$S                   10000000     kernel32:KERNEL32.dll
 0000:fffba000       .debug$S                   10000000     kernel32:KERNEL32.dll
 0000:fffba000       .debug$S                   10000000     kernel32:KERNEL32.dll
 0000:fffba000       .debug$S                   10000000     kernel32:KERNEL32.dll
 0000:fffba000       .debug$S                   10000000     kernel32:KERNEL32.dll
 0000:fffba000       .debug$S                   10000000     kernel32:KERNEL32.dll
 0000:fffba000       .debug$S                   10000000     kernel32:KERNEL32.dll
 0000:fffba000       .debug$S                   10000000     kernel32:KERNEL32.dll
 0000:fffba000       .debug$S                   10000000     kernel32:KERNEL32.dll
 0000:fffba000       .debug$S                   10000000     kernel32:KERNEL32.dll
 0000:fffba000       .debug$S                   10000000     kernel32:KERNEL32.dll
 0000:fffba000       .debug$S                   10000000     kernel32:KERNEL32.dll
 0000:fffba000       .debug$S                   10000000     kernel32:KERNEL32.dll
 0000:fffba000       .debug$S                   10000000     kernel32:KERNEL32.dll
 0000:fffba000       .debug$S                   10000000     kernel32:KERNEL32.dll
 0000:fffba000       .debug$S                   10000000     kernel32:KERNEL32.dll
 0000:fffba000       .debug$S                   10000000     kernel32:KERNEL32.dll
 0000:fffba000       .debug$S                   10000000     kernel32:KERNEL32.dll
 0000:fffba000       .debug$S                   10000000     kernel32:KERNEL32.dll
 0000:fffba000       .debug$S                   10000000     kernel32:KERNEL32.dll
 0000:fffba000       .debug$S                   10000000     kernel32:KERNEL32.dll
 0000:fffba000       .debug$S                   10000000     kernel32:KERNEL32.dll
 0000:fffba000       .debug$S                   10000000     kernel32:KERNEL32.dll
 0000:fffba000       .debug$S                   10000000     kernel32:KERNEL32.dll
 0000:fffba000       .debug$S                   10000000     kernel32:KERNEL32.dll
 0000:fffba000       .debug$S                   10000000     kernel32:KERNEL32.dll
 0000:fffba000       .debug$S                   10000000     kernel32:KERNEL32.dll
 0000:fffba000       .debug$S                   10000000     kernel32:KERNEL32.dll
 0000:fffba000       .debug$S                   10000000     kernel32:KERNEL32.dll
 0000:fffba000       .debug$S                   10000000     kernel32:KERNEL32.dll
 0000:fffba000       .debug$S                   10000000     kernel32:KERNEL32.dll
 0000:fffba000       .debug$S                   10000000     kernel32:KERNEL32.dll
 0000:fffba000       .debug$S                   10000000     kernel32:KERNEL32.dll
 0000:fffba000       .debug$S                   10000000     kernel32:KERNEL32.dll
 0000:fffba000       .debug$S                   10000000     kernel32:KERNEL32.dll
 0000:fffba000       .debug$S                   10000000     kernel32:KERNEL32.dll
 0000:fffba000       .debug$S                   10000000     kernel32:KERNEL32.dll
 0000:fffba000       .debug$S                   10000000     user32:USER32.dll
 0001:00000000       ??__EgsMapHelper@@YAXXZ    10001000 f   common-user32:WConsoleEx.obj
 0001:000006c7       ?ChangeExports@@YA_NPBUExportFunc@@PAUHINSTANCE__@@@Z 100016c7 f   ConEmuPlugin.obj
 0001:00000e1c       ?CallGuiMacroDlg@@YGHPAXHH0@Z 10001e1c f   ConEmuPlugin1900.obj
 0001:00000f9d       ?CallGuiMacroProc@@YAXXZ   10001f9d f   ConEmuPlugin1900.obj
 0001:0000149c       $LN17                      1000249c     ConEmuPlugin1900.obj
 0001:000014b8       $LN14                      100024b8     ConEmuPlugin1900.obj
 0001:0000154b       ?GetFarSetting@@YAHPAXIPB_W@Z 1000254b f   ConEmuPlugin1900.obj
 0001:000030e7       ?CallGuiMacroDlg@@YGHPAXHH0@Z 100040e7 f   ConEmuPlugin2800.obj
 0001:00003268       ?CallGuiMacroProc@@YAXXZ   10004268 f   ConEmuPlugin2800.obj
 0001:000034fd       ?FreeMacroResult@@YGXPAXPAUFarMacroValue@@I@Z 100044fd f   ConEmuPlugin2800.obj
 0001:0000355c       $LN18                      1000455c     ConEmuPlugin2800.obj
 0001:0000357c       $LN15                      1000457c     ConEmuPlugin2800.obj
 0001:00003611       ?GetFarSetting@@YAHPAXIPB_W@Z 10004611 f   ConEmuPlugin2800.obj
 0001:00004cce       ?WExists@@YAHABUWindowInfo@@ABV?$MArray@UWindowInfo@@@@@Z 10005cce f   ConEmuPlugin2800.obj
 0001:00004d1e       ?WLoadWindows@@YAHAAV?$MArray@UWindowInfo@@@@H@Z 10005d1e f   ConEmuPlugin2800.obj
 0001:00005381       ?CallGuiMacroDlg@@YGJPAXHHJ@Z 10006381 f   ConEmuPlugin995.obj
 0001:000054ef       ?CallGuiMacroProc@@YAXXZ   100064ef f   ConEmuPlugin995.obj
 0001:000057c8       $LN17                      100067c8     ConEmuPlugin995.obj
 0001:000057e4       $LN14                      100067e4     ConEmuPlugin995.obj
 0001:00006826       ?CallGuiMacroDlg@@YGJPAXHHJ@Z 10007826 f   ConEmuPluginA.obj
 0001:00006a1d       ?CallGuiMacroProc@@YAXXZ   10007a1d f   ConEmuPluginA.obj
 0001:00009cec       ?LoadFarVersion@@YA_NAAUFarVersion@@AAY0CAA@_W@Z 1000acec f   ConEmuPluginBase.obj
 0001:00009d7c       ?LoadFarVersion@@YA_NPB_WAAUFarVersion@@AAY0CAA@_W@Z 1000ad7c f   ConEmuPluginBase.obj
 0001:00009e7f       ?LoadModuleVersion@@YA_NPB_WAAUtagVS_FIXEDFILEINFO@@PA_WI@Z 1000ae7f f   ConEmuPluginBase.obj
 0001:0000b9fe       $LN73                      1000c9fe     ConEmuPluginBase.obj
 0001:0000dc76       ?StringCopyWorkerW@@YGJPA_WIPAIPB_WI@Z 1000ec76 f   ConEmuPluginBase.obj
 0001:0000dc76       ?StringCopyWorkerW@@YGJPA_WIPAIPB_WI@Z 1000ec76 f   common-kernel32:ConEmuCheck.obj
 0001:0000dcdb       ?StringLengthWorkerW@@YGJPB_WIPAI@Z 1000ecdb f   ConEmuPluginBase.obj
 0001:0000dd22       ?StringValidateDestAndLengthW@@YGJPB_WIPAII@Z 1000ed22 f   ConEmuPluginBase.obj
 0001:0000fe5f       _memmove_s                 10010e5f f   PluginBackground.obj
 0001:00011620       ?HeapDeinitializeImpl@@YAXXZ 10012620 f   common-kernel32:Memory.obj
 0001:00012518       ?CompareStringPointers@@YAHPBX0@Z 10013518 f   common-kernel32:MStrSafe.obj
 0001:00013723       ??$ExpandEnvStr@UCEStr@@_W@?A0xbc859b36@@YA?AUCEStr@@PB_W_WP6GK0PA_WK@Z@Z 10014723 f   common-kernel32:EnvVar.obj
 0001:00013869       ??$GetEnvVar@UCEStr@@_W@?A0xbc859b36@@YA?AUCEStr@@PB_WP6GK0PA_WK@Z@Z 10014869 f   common-kernel32:EnvVar.obj
 0001:00017050       $$000000                   10018050     LIBCMT:chkstk.obj
 0001:00017080       $$000000                   10018080     LIBCMT:ullshr.obj
 0001:000170c2       ?__scrt_initialize_thread_safe_statics@@YAHXZ 100180c2 f   LIBCMT:thread_safe_statics.obj
 0001:00017106       ?__scrt_initialize_thread_safe_statics_platform_specific@@YAXXZ 10018106 f   LIBCMT:thread_safe_statics.obj
 0001:000171f5       ?__scrt_uninitialize_thread_safe_statics@@YAXXZ 100181f5 f   LIBCMT:thread_safe_statics.obj
 0001:00017350       $$000000                   10018350     LIBCMT:sehprolg4.obj
 0001:000173ab       ?dllmain_crt_dispatch@@YGHQAUHINSTANCE__@@KQAX@Z 100183ab f   LIBCMT:dll_dllmain.obj
 0001:000173fe       ?dllmain_crt_process_attach@@YAHQAUHINSTANCE__@@QAX@Z 100183fe f   LIBCMT:dll_dllmain.obj
 0001:00017508       ?dllmain_crt_process_detach@@YAH_N@Z 10018508 f   LIBCMT:dll_dllmain.obj
 0001:0001759a       ?dllmain_dispatch@@YAHQAUHINSTANCE__@@KQAX@Z 1001859a f   LIBCMT:dll_dllmain.obj
 0001:000176a0       ?dllmain_raw@@YGHQAUHINSTANCE__@@KQAX@Z 100186a0 f   LIBCMT:dll_dllmain.obj
 0001:000176ee       ?find_pe_section@@YAPAU_IMAGE_SECTION_HEADER@@QAEI@Z 100186ee f   LIBCMT:utility.obj
 0001:00017c77       ___get_entropy             10018c77 f   LIBCMT:gs_support.obj
 0001:00018640       $$000000                   10019640     libvcruntime:memmove.obj
 0001:000188a4       TrailingUpVec              100198a4     libvcruntime:memmove.obj
 0001:00018950       TrailingDownVec            10019950     libvcruntime:memmove.obj
 0001:00018bc0       $$000000                   10019bc0     libvcruntime:memset.obj
 0001:00019020       $$000000                   1001a020     libvcruntime:memcpy.obj
 0001:00019284       TrailingUpVec              1001a284     libvcruntime:memcpy.obj
 0001:00019330       TrailingDownVec            1001a330     libvcruntime:memcpy.obj
 0001:000195a0       _ValidateLocalCookies      1001a5a0 f   libvcruntime:chandler4.obj
 0001:00019740       $$000000                   1001a740     libvcruntime:strrchr.obj
 0001:00019880       $$000000                   1001a880     libvcruntime:strchr.obj
 0001:00019bb0       ??$BuildCatchObjectHelperInternal@$$CBU_s_HandlerType@@@@YAHPAUEHExceptionRecord@@PAXPBU_s_HandlerType@@PBU_s_CatchableType@@@Z 1001abb0 f   libvcruntime:frame.obj
 0001:00019cef       ??$BuildCatchObjectInternal@$$CBU_s_HandlerType@@@@YAXPAUEHExceptionRecord@@PAXPBU_s_HandlerType@@PBU_s_CatchableType@@@Z 1001acef f   libvcruntime:frame.obj
 0001:00019d88       ??$CatchIt@V__FrameHandler3@@@@YAXPAUEHExceptionRecord@@PAUEHRegistrationNode@@PAU_CONTEXT@@PAXPBU_s_FuncInfo@@PBU_s_HandlerType@@PBU_s_CatchableType@@PBU_s_TryBlockMapEntry@@H1E@Z 1001ad88 f   libvcruntime:frame.obj
 0001:00019e08       ??$FindHandler@V__FrameHandler3@@@@YAXPAUEHExceptionRecord@@PAUEHRegistrationNode@@PAU_CONTEXT@@PAXPBU_s_FuncInfo@@EH1@Z 1001ae08 f   libvcruntime:frame.obj
 0001:0001a196       ??$FindHandlerForForeignException@V__FrameHandler3@@@@YAXPAUEHExceptionRecord@@PAUEHRegistrationNode@@PAU_CONTEXT@@PAXPBU_s_FuncInfo@@HH1@Z 1001b196 f   libvcruntime:frame.obj
 0001:0001a489       ?CallCatchBlock@@YAPAXPAUEHExceptionRecord@@PAUEHRegistrationNode@@PAU_CONTEXT@@PBU_s_FuncInfo@@PAXHK@Z 1001b489 f   libvcruntime:frame.obj
 0001:0001a64d       ?CallUnexpected@@YAXPBU_s_ESTypeList@@@Z 1001b64d f   libvcruntime:frame.obj
 0001:0001a66d       __catch$?CallUnexpected@@YAXPBU_s_ESTypeList@@@Z$0 1001b66d f   libvcruntime:frame.obj
 0001:0001a687       ?ExFilterRethrow@@YAHPAU_EXCEPTION_POINTERS@@@Z 1001b687 f   libvcruntime:frame.obj
 0001:0001a7d1       ?IsInExceptionSpec@@YAEPAUEHExceptionRecord@@PBU_s_ESTypeList@@@Z 1001b7d1 f   libvcruntime:frame.obj
 0001:0001a8a0       $$000000                   1001b8a0     libvcruntime:lowhelpr.obj
 0001:0001a960       $$000000                   1001b960     libvcruntime:exsup4.obj
 0001:0001a9f0       __unwind_handler4          1001b9f0 f   libvcruntime:exsup4.obj
 0001:0001ab32       ?try_get_first_available_module@@YAPAUHINSTANCE__@@QBW4module_id@?A0xbf9eb92d@@0@Z 1001bb32 f   libvcruntime:winapi_downlevel.obj
 0001:0001abf6       ?try_get_function@@YAPAXW4function_id@?A0xbf9eb92d@@QBDQBW4module_id@2@2@Z 1001bbf6 f   libvcruntime:winapi_downlevel.obj
 0001:0001ae40       $$000000                   1001be40     libvcruntime:exsup.obj
 0001:0001ae61       __unwind_handler           1001be61 f   libvcruntime:exsup.obj
 0001:0001af7e       ??$common_vsprintf@Vstandard_base@__crt_stdio_output@@D@@YAH_KQADIQBDQAU__crt_locale_pointers@@1@Z 1001bf7e f   libucrt:output.obj
 0001:0001b0fa       ??$common_vsprintf@Vstandard_base@__crt_stdio_output@@_W@@YAH_KQA_WIQB_WQAU__crt_locale_pointers@@QAD@Z 1001c0fa f   libucrt:output.obj
 0001:0001ba29       $LN54                      1001ca29     libucrt:output.obj
 0001:0001bb49       $LN54                      1001cb49     libucrt:output.obj
 0001:0001c50c       $LN19                      1001d50c     libucrt:output.obj
 0001:0001e023       ?atexit_exception_filter@@YAHK@Z 1001f023 f   libucrt:exit.obj
 0001:0001e036       ?common_exit@@YAXHW4_crt_exit_cleanup_mode@@W4_crt_exit_return_mode@@@Z 1001f036 f   libucrt:exit.obj
 0001:0001e14f       ?exit_or_terminate_process@@YAXI@Z 1001f14f f   libucrt:exit.obj
 0001:0001e190       ?is_managed_app@@YA_NXZ    1001f190 f   libucrt:exit.obj
 0001:0001e1d4       ?try_cor_exit_process@@YAXI@Z 1001f1d4 f   libucrt:exit.obj
 0001:0001e278       ??$common_configure_argv@D@@YAHW4_crt_argv_mode@@@Z 1001f278 f   libucrt:argv_parsing.obj
 0001:0001e39c       ??$parse_command_line@D@@YAXPADPAPAD0PAI2@Z 1001f39c f   libucrt:argv_parsing.obj
 0001:0001e571       ??$common_initialize_environment_nolock@D@@YAHXZ 1001f571 f   libucrt:environment_initialization.obj
 0001:0001e5ca       ??$create_environment@D@@YAQAPADQAD@Z 1001f5ca f   libucrt:environment_initialization.obj
 0001:0001e69b       ??$free_environment@_W@@YAXQAPA_W@Z 1001f69b f   libucrt:environment_initialization.obj
 0001:0001e69b       ??$free_environment@D@@YAXQAPAD@Z 1001f69b f   libucrt:environment_initialization.obj
 0001:0001e70a       ??$uninitialize_environment_internal@D@@YAXAAPAPAD@Z 1001f70a f   libucrt:environment_initialization.obj
 0001:0001e725       ??$uninitialize_environment_internal@_W@@YAXAAPAPA_W@Z 1001f725 f   libucrt:environment_initialization.obj
 0001:0001e88d       ??R<lambda_275893d493268fdec8709772e3fcec0e>@@QBEHXZ 1001f88d f   libucrt:onexit.obj
 0001:0001e9ad       ??R<lambda_4e60a939b0d047cfe11ddc22648dfba9>@@QBEHXZ 1001f9ad f   libucrt:onexit.obj
 0001:0001eb82       _initialize_global_variables 1001fb82 f   libucrt:initialization.obj
 0001:0001eb94       _initialize_c              1001fb94 f   libucrt:initialization.obj
 0001:0001ebae       _uninitialize_c            1001fbae f   libucrt:initialization.obj
 0001:0001ebae       _initialize_environment    1001fbae f   libucrt:initialization.obj
 0001:0001ebae       _report_memory_leaks       1001fbae f   libucrt:initialization.obj
 0001:0001ebae       _initialize_global_state_isolation 1001fbae f   libucrt:initialization.obj
 0001:0001ebae       _uninitialize_global_state_isolation 1001fbae f   libucrt:initialization.obj
 0001:0001ebb1       _uninitialize_environment  1001fbb1 f   libucrt:initialization.obj
 0001:0001ebb9       _initialize_pointers       1001fbb9 f   libucrt:initialization.obj
 0001:0001ebf6       _uninitialize_vcruntime    1001fbf6 f   libucrt:initialization.obj
 0001:0001ebff       _uninitialize_allocated_memory 1001fbff f   libucrt:initialization.obj
 0001:0001edc0       $$000000                   1001fdc0     libucrt:strncmp.obj
 0001:0001ee9d       ??$common_tox_l@$1?internal_isupper_l@@YA_NHQAU__crt_locale_pointers@@@Z$1?internal_map_lower@@YAHH0@Z@@YAHHKQAU__crt_locale_pointers@@@Z 1001fe9d f   libucrt:tolower_toupper.obj
 0001:0001efe7       ?internal_isupper_l@@YA_NHQAU__crt_locale_pointers@@@Z 1001ffe7 f   libucrt:tolower_toupper.obj
 0001:0001f7ea       ?construct_ptd@@YAXQAU__acrt_ptd@@QAPAU__crt_locale_data@@@Z 100207ea f   libucrt:per_thread_data.obj
 0001:0001f863       ?destroy_fls@@YGXPAX@Z     10020863 f   libucrt:per_thread_data.obj
 0001:0001f884       ?destroy_ptd@@YAXQAU__acrt_ptd@@@Z 10020884 f   libucrt:per_thread_data.obj
 0001:0001f92d       ?replace_current_thread_locale_nolock@@YAXQAU__acrt_ptd@@QAU__crt_locale_data@@@Z 1002092d f   libucrt:per_thread_data.obj
 0001:0001fbd7       ?fp_format_a@@YAHQBNPADIQADIH_NIQAU__crt_locale_pointers@@@Z 10020bd7 f   libucrt:cvt.obj
 0001:0001feda       ?fp_format_e@@YAHQBNQADI1IH_NIQAU__crt_locale_pointers@@@Z 10020eda f   libucrt:cvt.obj
 0001:0001ff75       ?fp_format_e_internal@@YAHQADIH_NIQAU_strflt@@1QAU__crt_locale_pointers@@@Z 10020f75 f   libucrt:cvt.obj
 0001:000200c0       ?fp_format_f@@YAHQBNQADI1IHQAU__crt_locale_pointers@@@Z 100210c0 f   libucrt:cvt.obj
 0001:0002014d       ?fp_format_f_internal@@YAHQADIHQAU_strflt@@_NQAU__crt_locale_pointers@@@Z 1002114d f   libucrt:cvt.obj
 0001:00020224       ?fp_format_g@@YAHQBNQADI1IH_NIQAU__crt_locale_pointers@@@Z 10021224 f   libucrt:cvt.obj
 0001:000202ec       ?fp_format_nan_or_infinity@@YAHW4__acrt_fp_class@@_NPADI1@Z 100212ec f   libucrt:cvt.obj
 0001:000203e4       ?shift_bytes@@YAXQADI0H@Z  100213e4 f   libucrt:cvt.obj
 0001:00020736       ?initialize_inherited_file_handles_nolock@@YAXXZ 10021736 f   libucrt:ioinit.obj
 0001:000207ec       ?initialize_stdio_handles_nolock@@YAXXZ 100217ec f   libucrt:ioinit.obj
 0001:00020b1b       ?try_get_function@@YAPAXW4function_id@?A0x352e5c4b@@QBDQBW4module_id@2@2@Z 10021b1b f   libucrt:winapi_thunks.obj
 0001:00020bb7       ?try_get_module@@YAPAUHINSTANCE__@@W4module_id@?A0x352e5c4b@@@Z 10021bb7 f   libucrt:winapi_thunks.obj
 0001:00021013       ?<helper_func_cdecl>@<lambda_62bb7ecb46d0a77b591a051c43eb5ad1>@@CAHPBX0@Z 10022013 f   libucrt:argv_wildcards.obj
 0001:0002102b       ??$common_expand_argv_wildcards@D@@YAHQAPADQAPAPAD@Z 1002202b f   libucrt:argv_wildcards.obj
 0001:000211bb       ??$copy_and_add_argument_to_buffer@D@@YAHQBD0IAAV?$argument_list@D@?A0xb0e4b824@@@Z 100221bb f   libucrt:argv_wildcards.obj
 0001:00021251       ??$expand_argument_wildcards@D@@YAHQAD0AAV?$argument_list@D@?A0xb0e4b824@@@Z 10022251 f   libucrt:argv_wildcards.obj
 0001:0002152c       ??R<lambda_ad1ced32f4ac17aa236e5ef05d6b3b7c>@@QBEXXZ 1002252c f   libucrt:mbctype.obj
 0001:000215f0       ?CPtoLocaleName@@YAPB_WH@Z 100225f0 f   libucrt:mbctype.obj
 0001:0002162e       ?getSystemCP@@YAHH@Z       1002262e f   libucrt:mbctype.obj
 0001:000216a1       ?setSBCS@@YAXPAU__crt_multibyte_data@@@Z 100226a1 f   libucrt:mbctype.obj
 0001:00021706       ?setSBUpLow@@YAXPAU__crt_multibyte_data@@@Z 10022706 f   libucrt:mbctype.obj
 0001:0002189a       ?setmbcp_internal@@YAHH_N@Z 1002289a f   libucrt:mbctype.obj
 0001:00021c4c       _memcpy_s                  10022c4c f   libucrt:mbctype.obj
 0001:00021c4c       _memcpy_s                  10022c4c f   libucrt:cfout.obj
 0001:00021ccd       ?x_ismbbtype_l@@YAHPAU__crt_locale_pointers@@IHH@Z 10022ccd f   libucrt:ismbbyte.obj
 0001:00021d57       ?find_end_of_double_null_terminated_sequence@@YAPB_WQB_W@Z 10022d57 f   libucrt:get_environment_from_os.obj
 0001:000220a0       ?get_global_action_nolock@@YAPAP6AXH@ZH@Z 100230a0 f   libucrt:signal.obj
 0001:000220e2       ?siglookup@@YAPAU__crt_signal_action_t@@HQAU1@@Z 100230e2 f   libucrt:signal.obj
 0001:0002241c       ?__acrt_LCMapStringA_stat@@YAHPAU__crt_locale_pointers@@PB_WKPBDHPADHHH@Z 1002341c f   libucrt:lcmapstringa.obj
 0001:000244d0       _common_flush_all          100254d0 f   libucrt:fflush.obj
 0001:000247a3       ?free_crt_array_internal@@YAXQAPBXI@Z 100257a3 f   libucrt:inittime.obj
 0001:00024c68       ?GetTableIndexFromLocaleName@@YAHPB_W@Z 10025c68 f   libucrt:lcidtoname_downlevel.obj
 0001:00024d50       ?shortsort@@YAXPAD0IP6AHPBX1@Z@Z 10025d50 f   libucrt:qsort.obj
 0001:00024df0       ?swap@@YAXPAD0I@Z          10025df0 f   libucrt:qsort.obj
 0001:000251ca       ??$common_tcsncpy_s@D@@YAHQADIQBDI@Z 100261ca f   libucrt:strncpy_s.obj
 0001:00025290       $$000000                   10026290     libucrt:strpbrk.obj
 0001:00025374       ?initialize_multibyte@@YAHXZ 10026374 f   libucrt:multibyte_initializer.obj
 0001:000254f0       $$000000                   100264f0     libucrt:log10.obj
 0001:00025640       $$000000                   10026640     libucrt:ceil_pentium4.obj
 0001:0002575d       ?write_double_translated_ansi_nolock@@YA?AUwrite_result@?A0x47fa6670@@HQBDI@Z 1002675d f   libucrt:write.obj
 0001:00025910       ?write_double_translated_unicode_nolock@@YA?AUwrite_result@?A0x47fa6670@@QBDI@Z 10026910 f   libucrt:write.obj
 0001:0002597d       ?write_requires_double_translation_nolock@@YA_NH@Z 1002697d f   libucrt:write.obj
 0001:000259f3       ?write_text_ansi_nolock@@YA?AUwrite_result@?A0x47fa6670@@HQBDI@Z 100269f3 f   libucrt:write.obj
 0001:00025ad2       ?write_text_utf16le_nolock@@YA?AUwrite_result@?A0x47fa6670@@HQBDI@Z 10026ad2 f   libucrt:write.obj
 0001:00025bc0       ?write_text_utf8_nolock@@YA?AUwrite_result@?A0x47fa6670@@HQBDI@Z 10026bc0 f   libucrt:write.obj
 0001:00025fe4       ??$common_lseek_nolock@_J@@YA_JH_JH@Z 10026fe4 f   libucrt:lseek.obj
 0001:000262a8       ___get_abstract_control_sse2 100272a8 f   libucrt:_fenvutils.obj
 0001:00026325       ___get_abstract_control_x87 10027325 f   libucrt:_fenvutils.obj
 0001:00026398       ___get_machine_control     10027398 f   libucrt:_fenvutils.obj
 0001:00026409       ___get_machine_control_sse2 10027409 f   libucrt:_fenvutils.obj
 0001:00026489       ___get_machine_status_sse2 10027489 f   libucrt:_fenvutils.obj
 0001:000264ea       ___get_machine_status_x87  100274ea f   libucrt:_fenvutils.obj
 0001:00026830       $$000000                   10027830     libucrt:log10_pentium4.obj
 0001:00026ac0       $$000000                   10027ac0     libucrt:87tran.obj
 0001:00026cc0       $$000000                   10027cc0     libucrt:87disp.obj
 0001:00026ec0       $$000000                   10027ec0     libucrt:common.obj
 0001:00027050       $$000000                   10028050     libucrt:genexcep.obj
 0001:000275c0       $$000000                   100285c0     libucrt:_strnicm.obj
 0001:00028610       $$000000                   10029610     LIBCMT:ulldvrm.obj
 0001:000286b0       $$000000                   100296b0     LIBCMT:llmul.obj
 0001:000286f0       $$000000                   100296f0     LIBCMT:sehprolg4gs.obj
 0001:00028750       $$000000                   10029750     LIBCMT:lldvrm.obj
 0001:00028830       $$000000                   10029830     LIBCMT:alloca16.obj
 0001:00028860       $$000000                   10029860     LIBCMT:llshl.obj
 0001:00028880       $$000000                   10029880     LIBCMT:ftol2.obj
 0001:00028935       __unwindfunclet$?RegisterBackground@@YGHPAURegisterBackgroundArg@@@Z$0 10029935 f   ConEmuPlugin.obj
 0001:00028945       __ehhandler$?RegisterBackground@@YGHPAURegisterBackgroundArg@@@Z 10029945 f   ConEmuPlugin.obj
 0001:00028960       __ehhandler$??1?$MArray@UWindowInfo@@@@QAE@XZ 10029960 f   ConEmuPlugin2800.obj
 0001:0002897b       __unwindfunclet$?Open@CPluginW2800@@UAEPAXPBX@Z$1 1002997b f   ConEmuPlugin2800.obj
 0001:00028983       __ehhandler$?Open@CPluginW2800@@UAEPAXPBX@Z 10029983 f   ConEmuPlugin2800.obj
 0001:0002899e       __unwindfunclet$?SetWindow@CPluginW2800@@UAEXH@Z$0 1002999e f   ConEmuPlugin2800.obj
 0001:000289a6       __ehhandler$?SetWindow@CPluginW2800@@UAEXH@Z 100299a6 f   ConEmuPlugin2800.obj
 0001:000289c1       __unwindfunclet$?UpdateConEmuTabsApi@CPluginW2800@@UAE_NH@Z$0 100299c1 f   ConEmuPlugin2800.obj
 0001:000289d1       __unwindfunclet$?UpdateConEmuTabsApi@CPluginW2800@@UAE_NH@Z$1 100299d1 f   ConEmuPlugin2800.obj
 0001:000289dc       __ehhandler$?UpdateConEmuTabsApi@CPluginW2800@@UAE_NH@Z 100299dc f   ConEmuPlugin2800.obj
 0001:00028a04       __unwindfunclet$??0CPluginAnsi@@QAE@XZ$0 10029a04 f   ConEmuPluginA.obj
 0001:00028a04       __unwindfunclet$??0CPluginW995@@QAE@XZ$0 10029a04 f   ConEmuPlugin995.obj
 0001:00028a0c       __ehhandler$??0CPluginW995@@QAE@XZ 10029a0c f   ConEmuPlugin995.obj
 0001:00028a0c       __ehhandler$??0CPluginAnsi@@QAE@XZ 10029a0c f   ConEmuPluginA.obj
 0001:00028a27       __ehhandler$??1MWow64Disable@@QAE@XZ 10029a27 f   ConEmuPluginBase.obj
 0001:00028a42       __unwindfunclet$?CheckConEmuDetached@CPluginBase@@SAXXZ$0 10029a42 f   ConEmuPluginBase.obj
 0001:00028a4d       __ehhandler$?CheckConEmuDetached@CPluginBase@@SAXXZ 10029a4d f   ConEmuPluginBase.obj
 0001:00028a75       __unwindfunclet$?CreateTabs@CPluginBase@@SA_NH@Z$0 10029a75 f   ConEmuPluginBase.obj
 0001:00028a75       __unwindfunclet$?IsCurrentTabModal@CPluginBase@@QAE_NXZ$0 10029a75 f   ConEmuPluginBase.obj
 0001:00028a7d       __ehhandler$?CreateTabs@CPluginBase@@SA_NH@Z 10029a7d f   ConEmuPluginBase.obj
 0001:00028a7d       __ehhandler$?IsCurrentTabModal@CPluginBase@@QAE_NXZ 10029a7d f   ConEmuPluginBase.obj
 0001:00028a98       __unwindfunclet$?DllCheckUnique@CPluginBase@@KA_N_N@Z$0 10029a98 f   ConEmuPluginBase.obj
 0001:00028aa3       __unwindfunclet$?DllCheckUnique@CPluginBase@@KA_N_N@Z$1 10029aa3 f   ConEmuPluginBase.obj
 0001:00028aae       __ehhandler$?DllCheckUnique@CPluginBase@@KA_N_N@Z 10029aae f   ConEmuPluginBase.obj
 0001:00028ad6       __unwindfunclet$?DllMain_ProcessAttach@CPluginBase@@KAXPAUHINSTANCE__@@@Z$0 10029ad6 f   ConEmuPluginBase.obj
 0001:00028ae6       __unwindfunclet$?DllMain_ProcessAttach@CPluginBase@@KAXPAUHINSTANCE__@@@Z$1 10029ae6 f   ConEmuPluginBase.obj
 0001:00028af6       __ehhandler$?DllMain_ProcessAttach@CPluginBase@@KAXPAUHINSTANCE__@@@Z 10029af6 f   ConEmuPluginBase.obj
 0001:00028b11       __unwindfunclet$?MonitorThreadProcW@CPluginBase@@SGKPAX@Z$0 10029b11 f   ConEmuPluginBase.obj
 0001:00028b1c       __ehhandler$?MonitorThreadProcW@CPluginBase@@SGKPAX@Z 10029b1c f   ConEmuPluginBase.obj
 0001:00028b44       __unwindfunclet$?Plugin@@YAPAVCPluginBase@@XZ$0 10029b44 f   ConEmuPluginBase.obj
 0001:00028b54       __unwindfunclet$?Plugin@@YAPAVCPluginBase@@XZ$1 10029b54 f   ConEmuPluginBase.obj
 0001:00028b64       __unwindfunclet$?Plugin@@YAPAVCPluginBase@@XZ$2 10029b64 f   ConEmuPluginBase.obj
 0001:00028b74       __unwindfunclet$?Plugin@@YAPAVCPluginBase@@XZ$3 10029b74 f   ConEmuPluginBase.obj
 0001:00028b84       __ehhandler$?Plugin@@YAPAVCPluginBase@@XZ 10029b84 f   ConEmuPluginBase.obj
 0001:00028b9f       __unwindfunclet$?ProcessCommand@CPluginBase@@QAE_NKHPAXPAPAUCESERVER_REQ@@_N@Z$0 10029b9f f   ConEmuPluginBase.obj
 0001:00028ba7       __ehhandler$?ProcessCommand@CPluginBase@@QAE_NKHPAXPAPAUCESERVER_REQ@@_N@Z 10029ba7 f   ConEmuPluginBase.obj
 0001:00028bc2       __unwindfunclet$?RunExternalProgram@CPluginBase@@QAE_NPA_W@Z$0 10029bc2 f   ConEmuPluginBase.obj
 0001:00028bca       __unwindfunclet$?RunExternalProgram@CPluginBase@@QAE_NPA_W@Z$1 10029bca f   ConEmuPluginBase.obj
 0001:00028bd2       __unwindfunclet$?RunExternalProgram@CPluginBase@@QAE_NPA_W@Z$2 10029bd2 f   ConEmuPluginBase.obj
 0001:00028bda       __ehhandler$?RunExternalProgram@CPluginBase@@QAE_NPA_W@Z 10029bda f   ConEmuPluginBase.obj
 0001:00028bf5       __unwindfunclet$?RunExternalProgramW@CPluginBase@@SA_NPA_W0_N@Z$0 10029bf5 f   ConEmuPluginBase.obj
 0001:00028bfd       __unwindfunclet$?RunExternalProgramW@CPluginBase@@SA_NPA_W0_N@Z$1 10029bfd f   ConEmuPluginBase.obj
 0001:00028c05       __ehhandler$?RunExternalProgramW@CPluginBase@@SA_NPA_W0_N@Z 10029c05 f   ConEmuPluginBase.obj
 0001:00028c23       __unwindfunclet$?SendTabs@CPluginBase@@SAXH_N@Z$0 10029c23 f   ConEmuPluginBase.obj
 0001:00028c23       __unwindfunclet$?RegisterSubplugin@CPluginBackground@@QAEHPAURegisterBackgroundArg@@@Z$0 10029c23 f   PluginBackground.obj
 0001:00028c2b       __ehhandler$?RegisterSubplugin@CPluginBackground@@QAEHPAURegisterBackgroundArg@@@Z 10029c2b f   PluginBackground.obj
 0001:00028c2b       __ehhandler$?SendTabs@CPluginBase@@SAXH_N@Z 10029c2b f   ConEmuPluginBase.obj
 0001:00028c46       __unwindfunclet$?ShowProtocolWarning@CPluginBase@@KAXXZ$0 10029c46 f   ConEmuPluginBase.obj
 0001:00028c51       __ehhandler$?ShowProtocolWarning@CPluginBase@@KAXXZ 10029c51 f   ConEmuPluginBase.obj
 0001:00028c79       __unwindfunclet$?UpdateConEmuTabs@CPluginBase@@QAE_N_N@Z$0 10029c79 f   ConEmuPluginBase.obj
 0001:00028c81       __ehhandler$?UpdateConEmuTabs@CPluginBase@@QAE_N_N@Z 10029c81 f   ConEmuPluginBase.obj
 0001:00028c9c       __unwindfunclet$?cmd_OpenEditorLine@CPluginBase@@QAE_NPAUCESERVER_REQ_FAREDITOR@@@Z$0 10029c9c f   ConEmuPluginBase.obj
 0001:00028ca4       __ehhandler$?cmd_OpenEditorLine@CPluginBase@@QAE_NPAUCESERVER_REQ_FAREDITOR@@@Z 10029ca4 f   ConEmuPluginBase.obj
 0001:00028cbf       __unwindfunclet$??0CPluginBackground@@QAE@XZ$0 10029cbf f   PluginBackground.obj
 0001:00028ccf       __ehhandler$??0CPluginBackground@@QAE@XZ 10029ccf f   PluginBackground.obj
 0001:00028cea       __ehhandler$?__scrt_initialize_thread_safe_statics_platform_specific@@YAXXZ 10029cea f   LIBCMT:thread_safe_statics.obj
 0001:00028cea       __ehhandler$??1CPluginBackground@@QAE@XZ 10029cea f   PluginBackground.obj
 0001:00028d05       __unwindfunclet$?LoadThSet@CPluginBackground@@IAEHH@Z$0 10029d05 f   PluginBackground.obj
 0001:00028d10       __ehhandler$?LoadThSet@CPluginBackground@@IAEHH@Z 10029d10 f   PluginBackground.obj
 0001:00028d38       __unwindfunclet$?UpdateBackground@CPluginBackground@@IAEXXZ$0 10029d38 f   PluginBackground.obj
 0001:00028d43       __ehhandler$?UpdateBackground@CPluginBackground@@IAEXXZ 10029d43 f   PluginBackground.obj
 0001:00028d6b       __unwindfunclet$?PlugServerCommand@@YGHPAXPAUCESERVER_REQ@@AAPAU1@AAK3J@Z$0 10029d6b f   PluginSrv.obj
 0001:00028d73       __unwindfunclet$?PlugServerCommand@@YGHPAXPAUCESERVER_REQ@@AAPAU1@AAK3J@Z$1 10029d73 f   PluginSrv.obj
 0001:00028d7b       __ehhandler$?PlugServerCommand@@YGHPAXPAUCESERVER_REQ@@AAPAU1@AAK3J@Z 10029d7b f   PluginSrv.obj
 0001:00028da0       __unwindfunclet$?FindConEmuBaseDir@@YAHAAY0BAF@_W0PAUHINSTANCE__@@@Z$0 10029da0 f   common-user32:ConEmuCheckEx.obj
 0001:00028dab       __unwindfunclet$?FindConEmuBaseDir@@YAHAAY0BAF@_W0PAUHINSTANCE__@@@Z$1 10029dab f   common-user32:ConEmuCheckEx.obj
 0001:00028db6       __ehhandler$?FindConEmuBaseDir@@YAHAAY0BAF@_W0PAUHINSTANCE__@@@Z 10029db6 f   common-user32:ConEmuCheckEx.obj
 0001:00028dde       __unwindfunclet$?SearchAppPaths@@YA_NPB_WAAUCEStr@@_NPAVCEnvRestorer@@@Z$0 10029dde f   common-user32:WFiles.obj
 0001:00028de9       __unwindfunclet$?SearchAppPaths@@YA_NPB_WAAUCEStr@@_NPAVCEnvRestorer@@@Z$1 10029de9 f   common-user32:WFiles.obj
 0001:00028df4       __unwindfunclet$?SearchAppPaths@@YA_NPB_WAAUCEStr@@_NPAVCEnvRestorer@@@Z$3 10029df4 f   common-user32:WFiles.obj
 0001:00028dff       __unwindfunclet$?SearchAppPaths@@YA_NPB_WAAUCEStr@@_NPAVCEnvRestorer@@@Z$4 10029dff f   common-user32:WFiles.obj
 0001:00028e0a       __unwindfunclet$?SearchAppPaths@@YA_NPB_WAAUCEStr@@_NPAVCEnvRestorer@@@Z$5 10029e0a f   common-user32:WFiles.obj
 0001:00028e15       __ehhandler$?SearchAppPaths@@YA_NPB_WAAUCEStr@@_NPAVCEnvRestorer@@@Z 10029e15 f   common-user32:WFiles.obj
 0001:00028e3d       __unwindfunclet$?UpdateComspec@@YAXPAUConEmuComspec@@_N@Z$0 10029e3d f   common-user32:WUser.obj
 0001:00028e45       __unwindfunclet$?UpdateComspec@@YAXPAUConEmuComspec@@_N@Z$1 10029e45 f   common-user32:WUser.obj
 0001:00028e4d       __unwindfunclet$?UpdateComspec@@YAXPAUConEmuComspec@@_N@Z$2 10029e4d f   common-user32:WUser.obj
 0001:00028e55       __unwindfunclet$?UpdateComspec@@YAXPAUConEmuComspec@@_N@Z$3 10029e55 f   common-user32:WUser.obj
 0001:00028e5d       __ehhandler$?UpdateComspec@@YAXPAUConEmuComspec@@_N@Z 10029e5d f   common-user32:WUser.obj
 0001:00028e78       __ehhandler$?CallUnexpected@@YAXPBU_s_ESTypeList@@@Z 10029e78 f   libvcruntime:frame.obj
 0001:00028e93       ??__FgsMapHelper@@YAXXZ    10029e93 f   common-user32:WConsoleEx.obj
 0002:00000340       ?gsMapHelper$initializer$@@3P6AXXZA 1002a340     common-user32:WConsoleEx.obj
 0002:0000034c       ?__scrt_initialize_tss_var@@3P6AHXZA 1002a34c     LIBCMT:thread_safe_statics.obj
 0002:000035a0       ?ILLEGAL_CHARACTERS@?A0x78984006@@3QB_WB 1002d5a0     common-kernel32:CmdLine.obj
 0002:000035ac       ?SPECIAL_CMD_CHARACTERS@?A0x78984006@@3QB_WB 1002d5ac     common-kernel32:CmdLine.obj
 0002:000035b8       ?REDIRECTION_CMD_CHARACTERS@?A0x78984006@@3QB_WB 1002d5b8     common-kernel32:CmdLine.obj
 0002:000035c8       ?CMD_INTERNAL_COMMANDS@?A0x78984006@@3QBQB_WB 1002d5c8     common-kernel32:CmdLine.obj
 0002:00003d8a       ?ignore@std@@3U_Ignore@1@B 1002dd8a     common-kernel32:WObjects.obj
 0002:000041fa       ?ignore@std@@3U_Ignore@1@B 1002e1fa     common-user32:WRegistry.obj
 0002:000042dc       _GS_ExceptionPointers      1002e2dc     LIBCMT:gs_report.obj
 0002:000042e8       ?ExceptionTemplate@?1??_CxxThrowException@@9@8@4UEHExceptionRecord@@B 1002e2e8     libvcruntime:throw.obj
 0002:00004324       ?module_names@?A0xbf9eb92d@@3QBQB_WB 1002e324     libvcruntime:winapi_downlevel.obj
 0002:000043dc       ?candidate_modules@?1??try_get_FlsAlloc@@YAP6GKP6GXPAX@Z@ZXZ@4QBW4module_id@?A0xbf9eb92d@@B 1002e3dc     libvcruntime:winapi_downlevel.obj
 0002:000043f0       ?candidate_modules@?1??try_get_FlsFree@@YAP6GHK@ZXZ@4QBW4module_id@?A0xbf9eb92d@@B 1002e3f0     libvcruntime:winapi_downlevel.obj
 0002:00004400       ?candidate_modules@?1??try_get_FlsGetValue@@YAP6GPAXK@ZXZ@4QBW4module_id@?A0xbf9eb92d@@B 1002e400     libvcruntime:winapi_downlevel.obj
 0002:00004414       ?candidate_modules@?1??try_get_FlsSetValue@@YAP6GHKPAX@ZXZ@4QBW4module_id@?A0xbf9eb92d@@B 1002e414     libvcruntime:winapi_downlevel.obj
 0002:00004428       ?candidate_modules@?1??try_get_InitializeCriticalSectionEx@@YAP6GHPAU_RTL_CRITICAL_SECTION@@KK@ZXZ@4QBW4module_id@?A0xbf9eb92d@@B 1002e428     libvcruntime:winapi_downlevel.obj
 0002:00004450       ?tokenTable@@3QBQBDB       1002e450     libvcruntime:undname.obj
 0002:00004490       ?nameTable@@3QBQBDB        1002e490     libvcruntime:undname.obj
 0002:000045d8       ?rttiTable@@3QBQBDB        1002e5d8     libvcruntime:undname.obj
 0002:00004c60       _errtable                  1002ec60     libucrt:errno.obj
 0002:00004e90       ___acrt_initializers       1002ee90     libucrt:initialization.obj
 0002:00005c20       _module_names              1002fc20     libucrt:winapi_thunks.obj
 0002:00006168       ?candidate_modules@?1??try_get_FlsAlloc@@YAP6GKP6GXPAX@Z@ZXZ@4QBW4module_id@?A0x352e5c4b@@B 10030168     libucrt:winapi_thunks.obj
 0002:0000617c       ?candidate_modules@?1??try_get_FlsFree@@YAP6GHK@ZXZ@4QBW4module_id@?A0x352e5c4b@@B 1003017c     libucrt:winapi_thunks.obj
 0002:0000618c       ?candidate_modules@?1??try_get_FlsGetValue@@YAP6GPAXK@ZXZ@4QBW4module_id@?A0x352e5c4b@@B 1003018c     libucrt:winapi_thunks.obj
 0002:000061a0       ?candidate_modules@?1??try_get_FlsSetValue@@YAP6GHKPAX@ZXZ@4QBW4module_id@?A0x352e5c4b@@B 100301a0     libucrt:winapi_thunks.obj
 0002:000061b4       ?candidate_modules@?1??try_get_GetCurrentPackageId@@YAP6GJPAIPAE@ZXZ@4QBW4module_id@?A0x352e5c4b@@B 100301b4     libucrt:winapi_thunks.obj
 0002:000061d0       ?candidate_modules@?1??try_get_InitializeCriticalSectionEx@@YAP6GHPAU_RTL_CRITICAL_SECTION@@KK@ZXZ@4QBW4module_id@?A0x352e5c4b@@B 100301d0     libucrt:winapi_thunks.obj
 0002:000061f4       ?candidate_modules@?1??try_get_LCMapStringEx@@YAP6GHPB_WK0HPA_WHPAU_nlsversioninfo@@PAXJ@ZXZ@4QBW4module_id@?A0x352e5c4b@@B 100301f4     libucrt:winapi_thunks.obj
 0002:0000620c       ?candidate_modules@?1??try_get_LocaleNameToLCID@@YAP6GKPB_WK@ZXZ@4QBW4module_id@?A0x352e5c4b@@B 1003020c     libucrt:winapi_thunks.obj
 0002:00006228       __mb_locale_names          10030228     libucrt:mbctype.obj
 0002:00006c58       _LcidToLocaleNameTable     10030c58     libucrt:lcidtoname_downlevel.obj
 0002:00007d78       _LocaleNameToIndexTable    10031d78     libucrt:lcidtoname_downlevel.obj
 0002:00008cd0       LOG_name                   10032cd0     libucrt:log10.obj
 0002:00008ce0       _One                       10032ce0     libucrt:ceil_pentium4.obj
 0002:00008cf0       _Bns                       10032cf0     libucrt:ceil_pentium4.obj
 0002:00008d00       _Zero                      10032d00     libucrt:ceil_pentium4.obj
 0002:00008d10       _S                         10032d10     libucrt:ceil_pentium4.obj
 0002:00008d20       _NegZero                   10032d20     libucrt:ceil_pentium4.obj
 0002:00008d30       emask                      10032d30     libucrt:log10_pentium4.obj
 0002:00008d40       CC                         10032d40     libucrt:log10_pentium4.obj
 0002:00008d50       Magic                      10032d50     libucrt:log10_pentium4.obj
 0002:00008d60       hi_mask                    10032d60     libucrt:log10_pentium4.obj
 0002:00008d70       LOG10_2                    10032d70     libucrt:log10_pentium4.obj
 0002:00008d80       place_L                    10032d80     libucrt:log10_pentium4.obj
 0002:00008da0       One                        10032da0     libucrt:log10_pentium4.obj
 0002:00008db0       Zero                       10032db0     libucrt:log10_pentium4.obj
 0002:00008dc0       Two52                      10032dc0     libucrt:log10_pentium4.obj
 0002:00008dd0       Infs                       10032dd0     libucrt:log10_pentium4.obj
 0002:00008de0       NaN                        10032de0     libucrt:log10_pentium4.obj
 0002:00008df0       coeff                      10032df0     libucrt:log10_pentium4.obj
 0002:00008e4e       _log2max                   10032e4e     libucrt:87tran.obj
 0002:00008e58       _smallarg                  10032e58     libucrt:87tran.obj
 0002:00008e62       _half                      10032e62     libucrt:87tran.obj
 0002:00008eae       One                        10032eae     libucrt:87disp.obj
 0002:00008eb6       Three                      10032eb6     libucrt:87disp.obj
 0002:00008ebe       XAMtoTagTab                10032ebe     libucrt:87disp.obj
 0002:00008ed0       One                        10032ed0     libucrt:common.obj
 0002:00008ee4       DblMax                     10032ee4     libucrt:common.obj
 0002:00008eec       DblMin                     10032eec     libucrt:common.obj
 0002:00008ef4       IeeeAdjO                   10032ef4     libucrt:common.obj
 0002:00008efc       IeeeAdjU                   10032efc     libucrt:common.obj
 0002:00008f04       _infinity                  10032f04     libucrt:common.obj
 0002:00008f0c       _zero                      10032f0c     libucrt:common.obj
 0002:00008f48       _over                      10032f48     libucrt:fpctrl.obj
 0002:00008f54       _under                     10032f54     libucrt:fpctrl.obj
 0002:00009818       ?_names@?1??_get_fname@@9@9 10033818     libucrt:fpexcept.obj
 0002:0000a488       __unwindtable$?RegisterBackground@@YGHPAURegisterBackgroundArg@@@Z 10034488     ConEmuPlugin.obj
 0002:0000a490       __ehfuncinfo$?RegisterBackground@@YGHPAURegisterBackgroundArg@@@Z 10034490     ConEmuPlugin.obj
 0002:0000a4b4       __unwindtable$?Open@CPluginW2800@@UAEPAXPBX@Z 100344b4     ConEmuPlugin2800.obj
 0002:0000a4bc       __ehfuncinfo$?Open@CPluginW2800@@UAEPAXPBX@Z 100344bc     ConEmuPlugin2800.obj
 0002:0000a4e0       __unwindtable$?SetWindow@CPluginW2800@@UAEXH@Z 100344e0     ConEmuPlugin2800.obj
 0002:0000a4f0       __ehfuncinfo$?SetWindow@CPluginW2800@@UAEXH@Z 100344f0     ConEmuPlugin2800.obj
 0002:0000a514       __unwindtable$?UpdateConEmuTabsApi@CPluginW2800@@UAE_NH@Z 10034514     ConEmuPlugin2800.obj
 0002:0000a52c       __ehfuncinfo$?UpdateConEmuTabsApi@CPluginW2800@@UAE_NH@Z 1003452c     ConEmuPlugin2800.obj
 0002:0000a550       __unwindtable$??1?$MArray@UWindowInfo@@@@QAE@XZ 10034550     ConEmuPlugin2800.obj
 0002:0000a558       __ehfuncinfo$??1?$MArray@UWindowInfo@@@@QAE@XZ 10034558     ConEmuPlugin2800.obj
 0002:0000a5d0       __unwindtable$??0CPluginW995@@QAE@XZ 100345d0     ConEmuPlugin995.obj
 0002:0000a5d0       __unwindtable$??0CPluginAnsi@@QAE@XZ 100345d0     ConEmuPluginA.obj
 0002:0000a5d8       __ehfuncinfo$??0CPluginAnsi@@QAE@XZ 100345d8     ConEmuPluginA.obj
 0002:0000a5d8       __ehfuncinfo$??0CPluginW995@@QAE@XZ 100345d8     ConEmuPlugin995.obj
 0002:0000a5fc       __unwindtable$?DllMain_ProcessAttach@CPluginBase@@KAXPAUHINSTANCE__@@@Z 100345fc     ConEmuPluginBase.obj
 0002:0000a60c       __ehfuncinfo$?DllMain_ProcessAttach@CPluginBase@@KAXPAUHINSTANCE__@@@Z 1003460c     ConEmuPluginBase.obj
 0002:0000a630       __unwindtable$?DllCheckUnique@CPluginBase@@KA_N_N@Z 10034630     ConEmuPluginBase.obj
 0002:0000a640       __ehfuncinfo$?DllCheckUnique@CPluginBase@@KA_N_N@Z 10034640     ConEmuPluginBase.obj
 0002:0000a664       __unwindtable$?ShowProtocolWarning@CPluginBase@@KAXXZ 10034664     ConEmuPluginBase.obj
 0002:0000a66c       __ehfuncinfo$?ShowProtocolWarning@CPluginBase@@KAXXZ 1003466c     ConEmuPluginBase.obj
 0002:0000a690       __unwindtable$?RunExternalProgram@CPluginBase@@QAE_NPA_W@Z 10034690     ConEmuPluginBase.obj
 0002:0000a6a8       __ehfuncinfo$?RunExternalProgram@CPluginBase@@QAE_NPA_W@Z 100346a8     ConEmuPluginBase.obj
 0002:0000a6cc       __unwindtable$?UpdateConEmuTabs@CPluginBase@@QAE_N_N@Z 100346cc     ConEmuPluginBase.obj
 0002:0000a6d4       __ehfuncinfo$?UpdateConEmuTabs@CPluginBase@@QAE_N_N@Z 100346d4     ConEmuPluginBase.obj
 0002:0000a6f8       __unwindtable$?ProcessCommand@CPluginBase@@QAE_NKHPAXPAPAUCESERVER_REQ@@_N@Z 100346f8     ConEmuPluginBase.obj
 0002:0000a700       __ehfuncinfo$?ProcessCommand@CPluginBase@@QAE_NKHPAXPAPAUCESERVER_REQ@@_N@Z 10034700     ConEmuPluginBase.obj
 0002:0000a724       __unwindtable$?CreateTabs@CPluginBase@@SA_NH@Z 10034724     ConEmuPluginBase.obj
 0002:0000a724       __unwindtable$?IsCurrentTabModal@CPluginBase@@QAE_NXZ 10034724     ConEmuPluginBase.obj
 0002:0000a72c       __ehfuncinfo$?CreateTabs@CPluginBase@@SA_NH@Z 1003472c     ConEmuPluginBase.obj
 0002:0000a72c       __ehfuncinfo$?IsCurrentTabModal@CPluginBase@@QAE_NXZ 1003472c     ConEmuPluginBase.obj
 0002:0000a750       __unwindtable$?cmd_OpenEditorLine@CPluginBase@@QAE_NPAUCESERVER_REQ_FAREDITOR@@@Z 10034750     ConEmuPluginBase.obj
 0002:0000a758       __ehfuncinfo$?cmd_OpenEditorLine@CPluginBase@@QAE_NPAUCESERVER_REQ_FAREDITOR@@@Z 10034758     ConEmuPluginBase.obj
 0002:0000a77c       __unwindtable$?MonitorThreadProcW@CPluginBase@@SGKPAX@Z 1003477c     ConEmuPluginBase.obj
 0002:0000a784       __ehfuncinfo$?MonitorThreadProcW@CPluginBase@@SGKPAX@Z 10034784     ConEmuPluginBase.obj
 0002:0000a7a8       __unwindtable$?CheckConEmuDetached@CPluginBase@@SAXXZ 100347a8     ConEmuPluginBase.obj
 0002:0000a7b0       __ehfuncinfo$?CheckConEmuDetached@CPluginBase@@SAXXZ 100347b0     ConEmuPluginBase.obj
 0002:0000a7d4       __unwindtable$?RunExternalProgramW@CPluginBase@@SA_NPA_W0_N@Z 100347d4     ConEmuPluginBase.obj
 0002:0000a7ec       __ehfuncinfo$?RunExternalProgramW@CPluginBase@@SA_NPA_W0_N@Z 100347ec     ConEmuPluginBase.obj
 0002:0000a810       __unwindtable$?SendTabs@CPluginBase@@SAXH_N@Z 10034810     ConEmuPluginBase.obj
 0002:0000a810       __unwindtable$?RegisterSubplugin@CPluginBackground@@QAEHPAURegisterBackgroundArg@@@Z 10034810     PluginBackground.obj
 0002:0000a818       __ehfuncinfo$?SendTabs@CPluginBase@@SAXH_N@Z 10034818     ConEmuPluginBase.obj
 0002:0000a818       __ehfuncinfo$?RegisterSubplugin@CPluginBackground@@QAEHPAURegisterBackgroundArg@@@Z 10034818     PluginBackground.obj
 0002:0000a83c       __unwindtable$?Plugin@@YAPAVCPluginBase@@XZ 1003483c     ConEmuPluginBase.obj
 0002:0000a85c       __ehfuncinfo$?Plugin@@YAPAVCPluginBase@@XZ 1003485c     ConEmuPluginBase.obj
 0002:0000a880       __ehfuncinfo$?__scrt_initialize_thread_safe_statics_platform_specific@@YAXXZ 10034880     LIBCMT:thread_safe_statics.obj
 0002:0000a880       __ehfuncinfo$??1MWow64Disable@@QAE@XZ 10034880     ConEmuPluginBase.obj
 0002:0000a880       __ehfuncinfo$??1CPluginBackground@@QAE@XZ 10034880     PluginBackground.obj
 0002:0000a8a4       __unwindtable$?LoadThSet@CPluginBackground@@IAEHH@Z 100348a4     PluginBackground.obj
 0002:0000a8ac       __ehfuncinfo$?LoadThSet@CPluginBackground@@IAEHH@Z 100348ac     PluginBackground.obj
 0002:0000a8d0       __unwindtable$?UpdateBackground@CPluginBackground@@IAEXXZ 100348d0     PluginBackground.obj
 0002:0000a8d8       __ehfuncinfo$?UpdateBackground@CPluginBackground@@IAEXXZ 100348d8     PluginBackground.obj
 0002:0000a8fc       __unwindtable$??0CPluginBackground@@QAE@XZ 100348fc     PluginBackground.obj
 0002:0000a904       __ehfuncinfo$??0CPluginBackground@@QAE@XZ 10034904     PluginBackground.obj
 0002:0000a928       __sehtable$?GetTo@?$MFileMapping@UPanelViewSetMapping@@@@QAE_NPAUPanelViewSetMapping@@H@Z 10034928     PluginBackground.obj
 0002:0000a944       __unwindtable$?PlugServerCommand@@YGHPAXPAUCESERVER_REQ@@AAPAU1@AAK3J@Z 10034944     PluginSrv.obj
 0002:0000a954       __ehfuncinfo$?PlugServerCommand@@YGHPAXPAUCESERVER_REQ@@AAPAU1@AAK3J@Z 10034954     PluginSrv.obj
 0002:0000a978       __sehtable$?SetThreadName@@YAXKPAD@Z 10034978     common-kernel32:WThreads.obj
 0002:0000a9e8       __unwindtable$?FindConEmuBaseDir@@YAHAAY0BAF@_W0PAUHINSTANCE__@@@Z 100349e8     common-user32:ConEmuCheckEx.obj
 0002:0000a9f8       __ehfuncinfo$?FindConEmuBaseDir@@YAHAAY0BAF@_W0PAUHINSTANCE__@@@Z 100349f8     common-user32:ConEmuCheckEx.obj
 0002:0000aa1c       __ehfuncinfo$?SearchAppPaths@@YA_NPB_WAAUCEStr@@_NPAVCEnvRestorer@@@Z 10034a1c     common-user32:WFiles.obj
 0002:0000aa40       __unwindtable$?SearchAppPaths@@YA_NPB_WAAUCEStr@@_NPAVCEnvRestorer@@@Z 10034a40     common-user32:WFiles.obj
 0002:0000aa68       __unwindtable$?UpdateComspec@@YAXPAUConEmuComspec@@_N@Z 10034a68     common-user32:WUser.obj
 0002:0000aa88       __ehfuncinfo$?UpdateComspec@@YAXPAUConEmuComspec@@_N@Z 10034a88     common-user32:WUser.obj
 0002:0000ab40       __sehtable$?dllmain_crt_process_attach@@YAHQAUHINSTANCE__@@QAX@Z 10034b40     LIBCMT:dll_dllmain.obj
 0002:0000ab60       __sehtable$?dllmain_crt_process_detach@@YAH_N@Z 10034b60     LIBCMT:dll_dllmain.obj
 0002:0000ab80       __sehtable$?dllmain_dispatch@@YAHQAUHINSTANCE__@@KQAX@Z 10034b80     LIBCMT:dll_dllmain.obj
 0002:0000aba0       __sehtable$___scrt_is_nonwritable_in_current_image 10034ba0     LIBCMT:utility.obj
 0002:0000abc0       __sehtable$___DestructExceptionObject 10034bc0     libvcruntime:ehhelpers.obj
 0002:0000abe0       __sehtable$?FrameUnwindToState@__FrameHandler3@@SAXPAUEHRegistrationNode@@PAXPBU_s_FuncInfo@@H@Z 10034be0     libvcruntime:frame.obj
 0002:0000ac08       __sehtable$?CallCatchBlock@@YAPAXPAUEHExceptionRecord@@PAUEHRegistrationNode@@PAU_CONTEXT@@PBU_s_FuncInfo@@PAXHK@Z 10034c08     libvcruntime:frame.obj
 0002:0000ac30       __catchsym$?CallUnexpected@@YAXPBU_s_ESTypeList@@@Z$2 10034c30     libvcruntime:frame.obj
 0002:0000ac40       __unwindtable$?CallUnexpected@@YAXPBU_s_ESTypeList@@@Z 10034c40     libvcruntime:frame.obj
 0002:0000ac50       __tryblocktable$?CallUnexpected@@YAXPBU_s_ESTypeList@@@Z 10034c50     libvcruntime:frame.obj
 0002:0000ac64       __ehfuncinfo$?CallUnexpected@@YAXPBU_s_ESTypeList@@@Z 10034c64     libvcruntime:frame.obj
 0002:0000ac88       __sehtable$??$BuildCatchObjectHelperInternal@$$CBU_s_HandlerType@@@@YAHPAUEHExceptionRecord@@PAXPBU_s_HandlerType@@PBU_s_CatchableType@@@Z 10034c88     libvcruntime:frame.obj
 0002:0000aca8       __sehtable$??$BuildCatchObjectInternal@$$CBU_s_HandlerType@@@@YAXPAUEHExceptionRecord@@PAXPBU_s_HandlerType@@PBU_s_CatchableType@@@Z 10034ca8     libvcruntime:frame.obj
 0002:0000ad00       __sehtable$?common_exit@@YAXHW4_crt_exit_cleanup_mode@@W4_crt_exit_return_mode@@@Z 10034d00     libucrt:exit.obj
 0002:0000ad28       __sehtable$??$?RV<lambda_800076c951b434888f4765a74a194fcc>@@AAV<lambda_4e60a939b0d047cfe11ddc22648dfba9>@@V<lambda_6dbb1268764f43b569ce7b67e331d33a>@@@?$__crt_seh_guarded_call@H@@QAEH$$QAV<lambda_800076c951b434888f4765a74a194fcc>@@AAV<lambda_4e60a939b0d047cfe11ddc22648dfba9>@@$$QAV<lambda_6dbb1268764f43b569ce7b67e331d33a>@@@Z 10034d28     libucrt:onexit.obj
 0002:0000ad48       __sehtable$??$?RV<lambda_995298e7d72eb4c2aab26c0585b3abe5>@@AAV<lambda_275893d493268fdec8709772e3fcec0e>@@V<lambda_293819299cbf9a7022e18b56a874bb5c>@@@?$__crt_seh_guarded_call@H@@QAEH$$QAV<lambda_995298e7d72eb4c2aab26c0585b3abe5>@@AAV<lambda_275893d493268fdec8709772e3fcec0e>@@$$QAV<lambda_293819299cbf9a7022e18b56a874bb5c>@@@Z 10034d48     libucrt:onexit.obj
 0002:0000ad68       __sehtable$_terminate      10034d68     libucrt:terminate.obj
 0002:0000ad88       __sehtable$??$?RV<lambda_9df27f884b057bc3edfc946cb5b7cf47>@@AAV<lambda_e69574bed617af4e071282c136b37893>@@V<lambda_cc0d902bcbbeb830f749456577db4721>@@@?$__crt_seh_guarded_call@X@@QAEX$$QAV<lambda_9df27f884b057bc3edfc946cb5b7cf47>@@AAV<lambda_e69574bed617af4e071282c136b37893>@@$$QAV<lambda_cc0d902bcbbeb830f749456577db4721>@@@Z 10034d88     libucrt:per_thread_data.obj
 0002:0000ada8       __sehtable$??$?RV<lambda_3518db117f0e7cdb002338c5d3c47b6c>@@AAV<lambda_b2ea41f6bbb362cd97d94c6828d90b61>@@V<lambda_abdedf541bb04549bc734292b4a045d4>@@@?$__crt_seh_guarded_call@X@@QAEX$$QAV<lambda_3518db117f0e7cdb002338c5d3c47b6c>@@AAV<lambda_b2ea41f6bbb362cd97d94c6828d90b61>@@$$QAV<lambda_abdedf541bb04549bc734292b4a045d4>@@@Z 10034da8     libucrt:per_thread_data.obj
 0002:0000adc8       __sehtable$??$?RV<lambda_51b6e8b1eb166f2a3faf91f424b38130>@@AAV<lambda_6250bd4b2a391816dd638c3bf72b0bcb>@@V<lambda_0b5a4a3e68152e1d9b943535f5f47bed>@@@?$__crt_seh_guarded_call@X@@QAEX$$QAV<lambda_51b6e8b1eb166f2a3faf91f424b38130>@@AAV<lambda_6250bd4b2a391816dd638c3bf72b0bcb>@@$$QAV<lambda_0b5a4a3e68152e1d9b943535f5f47bed>@@@Z 10034dc8     libucrt:per_thread_data.obj
 0002:0000ade8       __sehtable$??$?RV<lambda_5b71d36f03204c0beab531769a5b5694>@@AAV<lambda_be2b3da3f62db62e9dad5dc70221a656>@@V<lambda_8f9ce462984622f9bf76b59e2aaaf805>@@@?$__crt_seh_guarded_call@X@@QAEX$$QAV<lambda_5b71d36f03204c0beab531769a5b5694>@@AAV<lambda_be2b3da3f62db62e9dad5dc70221a656>@@$$QAV<lambda_8f9ce462984622f9bf76b59e2aaaf805>@@@Z 10034de8     libucrt:per_thread_data.obj
 0002:0000ae08       __sehtable$___acrt_uninitialize_locale 10034e08     libucrt:wsetlocale.obj
 0002:0000ae28       __sehtable$___acrt_initialize_lowio 10034e28     libucrt:ioinit.obj
 0002:0000ae48       __sehtable$___acrt_update_thread_multibyte_data 10034e48     libucrt:mbctype.obj
 0002:0000ae68       __sehtable$??$?RV<lambda_978dc153c237d78434369da87b74ff60>@@AAV<lambda_ad1ced32f4ac17aa236e5ef05d6b3b7c>@@V<lambda_4a8533e2866a575feecb8298ce776b0d>@@@?$__crt_seh_guarded_call@X@@QAEX$$QAV<lambda_978dc153c237d78434369da87b74ff60>@@AAV<lambda_ad1ced32f4ac17aa236e5ef05d6b3b7c>@@$$QAV<lambda_4a8533e2866a575feecb8298ce776b0d>@@@Z 10034e68     libucrt:mbctype.obj
 0002:0000ae88       __sehtable$__query_new_handler 10034e88     libucrt:new_handler.obj
 0002:0000aea8       __sehtable$_raise          10034ea8     libucrt:signal.obj
 0002:0000aec8       __sehtable$??$?RV<lambda_a048d3beccc847880fc8490e18b82769>@@AAV<lambda_ec61778202f4f5fc7e7711acc23c3bca>@@V<lambda_f7496a158712204296dd6628a163878e>@@@?$__crt_seh_guarded_call@P6AXH@Z@@QAEP6AXH@Z$$QAV<lambda_a048d3beccc847880fc8490e18b82769>@@AAV<lambda_ec61778202f4f5fc7e7711acc23c3bca>@@$$QAV<lambda_f7496a158712204296dd6628a163878e>@@@Z 10034ec8     libucrt:signal.obj
 0002:0000aee8       __sehtable$___acrt_update_thread_locale_data 10034ee8     libucrt:locale_refcounting.obj
 0002:0000af08       __sehtable$__fcloseall     10034f08     libucrt:closeall.obj
 0002:0000af28       __sehtable$_common_flush_all 10034f28     libucrt:fflush.obj
 0002:0000af50       __sehtable$___acrt_lowio_ensure_fh_exists 10034f50     libucrt:osfinfo.obj
 0002:0000af70       __sehtable$__write         10034f70     libucrt:write.obj
 0002:0000af90       __sehtable$_fclose         10034f90     libucrt:fclose.obj
 0002:0000afb0       __sehtable$??$?RV<lambda_61cee617f5178ae960314fd4d05640a0>@@AAV<lambda_6978c1fb23f02e42e1d9e99668cc68aa>@@V<lambda_9cd88cf8ad10232537feb2133f08c833>@@@?$__crt_seh_guarded_call@H@@QAEH$$QAV<lambda_61cee617f5178ae960314fd4d05640a0>@@AAV<lambda_6978c1fb23f02e42e1d9e99668cc68aa>@@$$QAV<lambda_9cd88cf8ad10232537feb2133f08c833>@@@Z 10034fb0     libucrt:commit.obj
 0002:0000afd0       __sehtable$??$?RV<lambda_123407a5e2ac06da108355a851863b7a>@@AAV<lambda_2fe9b910cf3cbf4a0ab98a02ba45b3ec>@@V<lambda_ae55bdf541ad94d75914d381c370e64d>@@@?$__crt_seh_guarded_call@H@@QAEH$$QAV<lambda_123407a5e2ac06da108355a851863b7a>@@AAV<lambda_2fe9b910cf3cbf4a0ab98a02ba45b3ec>@@$$QAV<lambda_ae55bdf541ad94d75914d381c370e64d>@@@Z 10034fd0     libucrt:close.obj
 0002:0000aff0       __sehtable$__IsNonwritableInCurrentImage 10034ff0     LIBCMT:pesect.obj
 0002:0000b010       .edata                     10035010     ConEmu.exp
 0002:0000b038       rgpv                       10035038     ConEmu.exp
 0002:0000b0a4       rgszName                   100350a4     ConEmu.exp
 0002:0000b110       rgwOrd                     10035110     ConEmu.exp
 0002:0000b146       szName                     10035146     ConEmu.exp
 0002:0000b151       $N00001                    10035151     ConEmu.exp
 0002:0000b161       $N00002                    10035161     ConEmu.exp
 0002:0000b169       $N00003                    10035169     ConEmu.exp
 0002:0000b175       $N00004                    10035175     ConEmu.exp
 0002:0000b180       $N00005                    10035180     ConEmu.exp
 0002:0000b18e       $N00006                    1003518e     ConEmu.exp
 0002:0000b19f       $N00007                    1003519f     ConEmu.exp
 0002:0000b1ad       $N00008                    100351ad     ConEmu.exp
 0002:0000b1bc       $N00009                    100351bc     ConEmu.exp
 0002:0000b1cc       $N00010                    100351cc     ConEmu.exp
 0002:0000b1d7       $N00011                    100351d7     ConEmu.exp
 0002:0000b1dd       $N00012                    100351dd     ConEmu.exp
 0002:0000b1f0       $N00013                    100351f0     ConEmu.exp
 0002:0000b203       $N00014                    10035203     ConEmu.exp
 0002:0000b216       $N00015                    10035216     ConEmu.exp
 0002:0000b229       $N00016                    10035229     ConEmu.exp
 0002:0000b23b       $N00017                    1003523b     ConEmu.exp
 0002:0000b24a       $N00018                    1003524a     ConEmu.exp
 0002:0000b256       $N00019                    10035256     ConEmu.exp
 0002:0000b25f       $N00020                    1003525f     ConEmu.exp
 0002:0000b26e       $N00021                    1003526e     ConEmu.exp
 0002:0000b280       $N00022                    10035280     ConEmu.exp
 0002:0000b28c       $N00023                    1003528c     ConEmu.exp
 0002:0000b2a0       $N00024                    100352a0     ConEmu.exp
 0002:0000b2b4       $N00025                    100352b4     ConEmu.exp
 0002:0000b2c9       $N00026                    100352c9     ConEmu.exp
 0002:0000b2dd       $N00027                    100352dd     ConEmu.exp
 0002:0000b6e2       .idata$6                   100356e2     version:VERSION.dll
 0002:0000bc4c       .idata$6                   10035c4c     kernel32:KERNEL32.dll
 0002:0000bd58       .idata$6                   10035d58     user32:USER32.dll
 0002:0000bdf8       .idata$6                   10035df8     gdi32:GDI32.dll
 0002:0000be34       .idata$6                   10035e34     advapi32:ADVAPI32.dll
 0003:00000100       ?val@?CE@??Open@CPluginW2800@@UAEPAXPBX@Z@4UFarMacroValue@@A 10037100     ConEmuPlugin2800.obj
 0003:00000240       ?__vcrt_flsindex@@3KA      10037240     libvcruntime:per_thread_data.obj
 0003:00000260       _errno_no_memory           10037260     libucrt:errno.obj
 0003:00000264       _doserrno_no_memory        10037264     libucrt:errno.obj
 0003:00000270       ___acrt_flsindex           10037270     libucrt:per_thread_data.obj
 0003:000003e8       ___rgctypeflag             100373e8     libucrt:mbctype.obj
 0003:000003f0       ___rgcode_page_info        100373f0     libucrt:mbctype.obj
 0003:00000d50       ?store@?M@??GetPanelInfo@CPluginW1900@@UAE_NKPAUCEPanelInfo@@@Z@4UPanelInfo@@A 10037d50     ConEmuPlugin1900.obj
 0003:00000da0       ?szMenu@?1??GetPluginInfoPtr@CPluginW1900@@UAEXPAX@Z@4PAPA_WA 10037da0     ConEmuPlugin1900.obj
 0003:00000da8       ?szMenu1@?1??GetPluginInfoPtr@CPluginW1900@@UAEXPAX@Z@4PA_WA 10037da8     ConEmuPlugin1900.obj
 0003:00000fa8       ?WLastActive@?1??UpdateConEmuTabsApi@CPluginW1900@@UAE_NH@Z@4UWindowInfo@@A 10037fa8     ConEmuPlugin1900.obj
 0003:00000fd8       ?pwList@@3PAV?$MArray@UWindowInfo@@@@A 10037fd8     ConEmuPlugin2800.obj
 0003:00000fe0       ?store@?M@??GetPanelInfo@CPluginW2800@@UAE_NKPAUCEPanelInfo@@@Z@4UPanelInfo@@A 10037fe0     ConEmuPlugin2800.obj
 0003:00001030       ?szMenu@?1??GetPluginInfoPtr@CPluginW2800@@UAEXPAX@Z@4PAPA_WA 10038030     ConEmuPlugin2800.obj
 0003:00001038       ?szMenu1@?1??GetPluginInfoPtr@CPluginW2800@@UAEXPAX@Z@4PA_WA 10038038     ConEmuPlugin2800.obj
 0003:00001238       ?WLastActive@?1??UpdateConEmuTabsApi@CPluginW2800@@UAE_NH@Z@4UWindowInfo@@A 10038238     ConEmuPlugin2800.obj
 0003:00001260       ?rc@?CE@??Open@CPluginW2800@@UAEPAXPBX@Z@4UFarMacroCall@@A 10038260     ConEmuPlugin2800.obj
 0003:0000127c       ?ghSyncDlg@@3PAXA          1003827c     ConEmuPlugin995.obj
 0003:00001280       ?store@?M@??GetPanelInfo@CPluginW995@@UAE_NKPAUCEPanelInfo@@@Z@4UPanelInfo@@A 10038280     ConEmuPlugin995.obj
 0003:000012c4       ?szMenu@?1??GetPluginInfoPtr@CPluginW995@@UAEXPAX@Z@4PAPA_WA 100382c4     ConEmuPlugin995.obj
 0003:000012c8       ?szMenu1@?1??GetPluginInfoPtr@CPluginW995@@UAEXPAX@Z@4PA_WA 100382c8     ConEmuPlugin995.obj
 0003:000014d0       ?store@?M@??GetPanelInfo@CPluginAnsi@@UAE_NKPAUCEPanelInfo@@@Z@4UPanelInfo@@A 100384d0     ConEmuPluginA.obj
 0003:000016c0       ?szMenu@?1??GetPluginInfoPtr@CPluginAnsi@@UAEXPAX@Z@4PAPADA 100386c0     ConEmuPluginA.obj
 0003:000016c8       ?szMenu1@?1??GetPluginInfoPtr@CPluginAnsi@@UAEXPAX@Z@4PADA 100386c8     ConEmuPluginA.obj
 0003:000029a8       ?gbTryOpenMapHeader@@3HA   100399a8     ConEmuPluginBase.obj
 0003:000029ac       ?gbStartupHooksAfterMap@@3HA 100399ac     ConEmuPluginBase.obj
 0003:000029b0       ?siEnabled@?1??CheckBufferEnabled@CPluginBase@@QAE_NXZ@4HA 100399b0     ConEmuPluginBase.obj
 0003:000029b4       ?dwLastTickCount@?7??CheckResources@CPluginBase@@QAEX_N@Z@4KA 100399b4     ConEmuPluginBase.obj
 0003:000029b8       ?$TSS0@?7??CheckResources@CPluginBase@@QAEX_N@Z@4HA 100399b8     ConEmuPluginBase.obj
 0003:000029bc       ?dwLastTickCount@?9??OnConsolePeekReadInput@CPluginBase@@SAX_N@Z@4KA 100399bc     ConEmuPluginBase.obj
 0003:00002c04       ?gHeapInit@?A0x8f3601b8@@3U?$atomic@H@std@@A 10039c04     common-kernel32:Memory.obj
 0003:00002c08       ?gHeapCounter@?A0x8f3601b8@@3U?$atomic@H@std@@A 10039c08     common-kernel32:Memory.obj
 0003:00002c20       ?szFile@?1??ModuleName@@YAPB_WPB_W@Z@4PA_WA 10039c20     common-kernel32:ConEmuCheck.obj
 0003:00002c64       ?gh_UnknownTerminatedThread@@3PAXA 10039c64     common-kernel32:WThreads.obj
 0003:00002c68       ?g_Threads@@3PAUConEmuThreadInfo@@A 10039c68     common-kernel32:WThreads.obj
 0003:0000a46c       ?szNil@?1??GetCommand@CESERVER_REQ_NEWCMD@@QAEPA_WXZ@4PA_WA 1004146c     common-kernel32:Common.obj
 0003:0000a478       ?rtlVerifyVersionInfo@?1??_VerifyVersionInfo@@YA_NPAU_OSVERSIONINFOEXW@@K_K@Z@4P6GH0K1@ZA 10041478     common-kernel32:WObjects.obj
 0003:0000a47c       ?hasRtl@?1??_VerifyVersionInfo@@YA_NPAU_OSVERSIONINFOEXW@@K_K@Z@4HA 1004147c     common-kernel32:WObjects.obj
 0003:0000a480       ?ibIsWin6@?1??IsWin6@@YA_NXZ@4HA 10041480     common-kernel32:WObjects.obj
 0003:0000a484       ?ibIsWin7@?1??IsWin7@@YA_NXZ@4HA 10041484     common-kernel32:WObjects.obj
 0003:0000a488       ?is64bitOs@?1??IsWindows64@@YA_NXZ@4_NA 10041488     common-kernel32:WObjects.obj
 0003:0000a489       ?isOsChecked@?1??IsWindows64@@YA_NXZ@4_NA 10041489     common-kernel32:WObjects.obj
 0003:0000a490       ?terminalMode@?1??isTerminalMode@@YA_NXZ@4_NA 10041490     common-kernel32:MProcess.obj
 0003:0000a491       ?terminalChecked@?1??isTerminalMode@@YA_NXZ@4_NA 10041491     common-kernel32:MProcess.obj
 0003:0000a492       ?bSysInfoRetrieved@?1??IsModuleValid@@YA_NPAUHINSTANCE__@@H@Z@4_NA 10041492     common-kernel32:WModuleCheck.obj
 0003:0000a494       ?si@?1??IsModuleValid@@YA_NPAUHINSTANCE__@@H@Z@4U_SYSTEM_INFO@@A 10041494     common-kernel32:WModuleCheck.obj
 0003:0000a4c4       ?_Tss_mutex@@3U_RTL_CRITICAL_SECTION@@A 100414c4     LIBCMT:thread_safe_statics.obj
 0003:0000a4dc       ?_Tss_cv@@3U_RTL_CONDITION_VARIABLE@@A 100414dc     LIBCMT:thread_safe_statics.obj
 0003:0000a4e0       ?_Tss_event@@3PAXA         100414e0     LIBCMT:thread_safe_statics.obj
 0003:0000a4e4       ?encoded_sleep_condition_variable_cs@@3P6GHPAU_RTL_CONDITION_VARIABLE@@PAU_RTL_CRITICAL_SECTION@@K@ZA 100414e4     LIBCMT:thread_safe_statics.obj
 0003:0000a4e8       ?encoded_wake_all_condition_variable@@3P6GXPAU_RTL_CONDITION_VARIABLE@@@ZA 100414e8     LIBCMT:thread_safe_statics.obj
 0003:0000a4ec       ?__proc_attached@@3HA      100414ec     LIBCMT:dll_dllmain.obj
 0003:0000a4f8       ?is_initialized_as_dll@@3_NA 100414f8     LIBCMT:utility.obj
 0003:0000a4f9       ?module_local_atexit_table_initialized@@3_NA 100414f9     LIBCMT:utility.obj
 0003:0000a4fc       ?module_local_atexit_table@@3U_onexit_table_t@@A 100414fc     LIBCMT:utility.obj
 0003:0000a508       ?module_local_at_quick_exit_table@@3U_onexit_table_t@@A 10041508     LIBCMT:utility.obj
 0003:0000a518       _GS_ExceptionRecord        10041518     LIBCMT:gs_report.obj
 0003:0000a568       _GS_ContextRecord          10041568     LIBCMT:gs_report.obj
 0003:0000a854       ?__vcrt_startup_thread_ptd@@3U__vcrt_ptd@@A 10041854     libvcruntime:per_thread_data.obj
 0003:0000a880       ___vcrt_lock_table         10041880     libvcruntime:locks.obj
 0003:0000a898       ___vcrt_locks_initialized  10041898     libvcruntime:locks.obj
 0003:0000a89c       ?module_handles@@3PAPAUHINSTANCE__@@A 1004189c     libvcruntime:winapi_downlevel.obj
 0003:0000a8a8       ?encoded_function_pointers@@3PAPAXA 100418a8     libvcruntime:winapi_downlevel.obj
 0003:0000a8e4       ?heap@@3V_HeapManager@@A   100418e4     libvcruntime:undname.obj
 0003:0000a8f8       ___acrt_invalid_parameter_handler 100418f8     libucrt:invalid_parameter.obj
 0003:0000a8fc       _c_termination_complete    100418fc     libucrt:exit.obj
 0003:0000a900       _thread_local_exit_callback_func 10041900     libucrt:exit.obj
 0003:0000a904       ?c_exit_complete@?5??common_exit@@YAXHW4_crt_exit_cleanup_mode@@W4_crt_exit_return_mode@@@Z@4_NA 10041904     libucrt:exit.obj
 0003:0000a908       ?program_name@?5???$common_configure_argv@D@@YAHW4_crt_argv_mode@@@Z@4PADA 10041908     libucrt:argv_parsing.obj
 0003:0000aa40       _enable_percent_n          10041a40     libucrt:printf_count_output.obj
 0003:0000ac60       ___acrt_lock_table         10041c60     libucrt:locks.obj
 0003:0000ad98       ___acrt_locks_initialized  10041d98     libucrt:locks.obj
 0003:0000ada0       _module_handles            10041da0     libucrt:winapi_thunks.obj
 0003:0000adf0       _encoded_function_pointers 10041df0     libucrt:winapi_thunks.obj
 0003:0000ae70       ?state_cache@?1??__acrt_is_packaged_app@@9@4JA 10041e70     libucrt:winapi_thunks.obj
 0003:0000ae8c       _fSystemSet                10041e8c     libucrt:mbctype.obj
 0003:0000ae90       ?initialized@?1??__acrt_initialize_multibyte@@9@4_NA 10041e90     libucrt:mbctype.obj
 0003:0000aeb0       ___acrt_new_handler        10041eb0     libucrt:new_handler.obj
 0003:0000aeb4       _ctrlc_action              10041eb4     libucrt:signal.obj
 0003:0000aeb8       _ctrlbreak_action          10041eb8     libucrt:signal.obj
 0003:0000aebc       _abort_action              10041ebc     libucrt:signal.obj
 0003:0000aec0       _term_action               10041ec0     libucrt:signal.obj
 0003:0000aec4       _user_matherr              10041ec4     libucrt:matherr.obj
 0003:0000aec8       ___acrt_global_new_mode    10041ec8     libucrt:new_mode.obj
 0003:0000aed4       ___acrt_app_type           10041ed4     libucrt:report_runtime_error.obj
 0003:0000aedc       __pmatherr_set             10041edc     libucrt:libm_error.obj
 0003:0000af34       ?gbPauseConsoleWasRequested@@3_NA 10041f34     common-kernel32:WConsole.obj
 0003:0000af38       ?GetCurrentConsoleFontEx@?1??apiGetCurrentConsoleFontEx@@YAHPAXHPAUMY_CONSOLE_FONT_INFOEX@@@Z@4P6GH0H1@ZA 10041f38     common-kernel32:WConsole.obj
 0003:0000af3c       ?bFuncChecked@?1??apiGetCurrentConsoleFontEx@@YAHPAXHPAUMY_CONSOLE_FONT_INFOEX@@@Z@4_NA 10041f3c     common-kernel32:WConsole.obj
 0003:0000af40       ?SetCurrentConsoleFontEx@?1??apiSetCurrentConsoleFontEx@@YAHPAXHPAUMY_CONSOLE_FONT_INFOEX@@@Z@4P6GH0H1@ZA 10041f40     common-kernel32:WConsole.obj
 0003:0000af44       ?bFuncChecked@?1??apiSetCurrentConsoleFontEx@@YAHPAXHPAUMY_CONSOLE_FONT_INFOEX@@@Z@4_NA 10041f44     common-kernel32:WConsole.obj
 0004:000000a0       $R000000                   100420a0     ConEmu.res
 0004:000003a8       $R000308                   100423a8     ConEmu.res
