 ConEmu.x64

 Timestamp is 6081f30d (Fri Apr 23 00:05:01 2021)

 Preferred load address is 0000000180000000

 Start         Length     Name                   Class
 0001:00000000 00000010H .text$di                CODE
 0001:00000010 000310a0H .text$mn                CODE
 0001:000310b0 00000040H .text$mn$00             CODE
 0001:000310f0 000006f0H .text$x                 CODE
 0001:000317e0 0000003dH .text$yd                CODE
 0002:00000000 00000660H .idata$5                DATA
 0002:00000660 00000028H .00cfg                  DATA
 0002:00000688 00000008H .CRT$XCA                DATA
 0002:00000690 00000008H .CRT$XCU                DATA
 0002:00000698 00000008H .CRT$XCZ                DATA
 0002:000006a0 00000008H .CRT$XIA                DATA
 0002:000006a8 00000020H .CRT$XIC                DATA
 0002:000006c8 00000008H .CRT$XIZ                DATA
 0002:000006d0 00000008H .CRT$XLA                DATA
 0002:000006d8 00000008H .CRT$XLZ                DATA
 0002:000006e0 00000008H .CRT$XPA                DATA
 0002:000006e8 00000010H .CRT$XPX                DATA
 0002:000006f8 00000008H .CRT$XPXA               DATA
 0002:00000700 00000008H .CRT$XPZ                DATA
 0002:00000708 00000008H .CRT$XTA                DATA
 0002:00000710 00000010H .CRT$XTZ                DATA
 0002:00000718 00000000H .gehcont$y              DATA
 0002:00000718 00000000H .gfids$y                DATA
 0002:00000720 0000ce60H .rdata                  DATA
 0002:0000d580 00000000H .rdata$CastGuardVftablesA DATA
 0002:0000d580 00000000H .rdata$CastGuardVftablesC DATA
 0002:0000d580 00000028H .rdata$T                DATA
 0002:0000d5a8 0000097cH .rdata$r                DATA
 0002:0000df24 0000040cH .rdata$zzzdbg           DATA
 0002:0000e330 00000008H .rtc$IAA                DATA
 0002:0000e338 00000008H .rtc$IZZ                DATA
 0002:0000e340 00000008H .rtc$TAA                DATA
 0002:0000e348 00000008H .rtc$TZZ                DATA
 0002:0000e350 00000004H .tls                    DATA
 0002:0000e354 00000004H .tls$                   DATA
 0002:0000e358 00000008H .tls$ZZZ                DATA
 0002:0000e360 00002698H .xdata                  DATA
 0002:000109f8 00000268H .xdata$x                DATA
 0002:00010c60 000002e4H .edata                  DATA
 0002:00010f44 00000064H .idata$2                DATA
 0002:00010fa8 00000018H .idata$3                DATA
 0002:00010fc0 00000660H .idata$4                DATA
 0002:00011620 00000e82H .idata$6                DATA
 0003:00000000 00000c80H .data                   DATA
 0003:00000c80 000001d0H .data$r                 DATA
 0003:00000e50 000002c0H .data$rs                DATA
 0003:00001110 0000bc30H .bss                    DATA
 0004:00000000 000028a4H .pdata                  DATA
 0005:00000000 00000100H _RDATA                  DATA
 0006:00000000 000000a0H .rsrc$01                DATA
 0006:000000a0 00000490H .rsrc$02                DATA

  Address         Publics by Value              Rva+Base               Lib:Object

 0000:00000000       ___safe_se_handler_table   0000000000000000     <absolute>
 0000:00000000       __arm64x_redirection_metadata 0000000000000000     <absolute>
 0000:00000000       __guard_iat_table          0000000000000000     <absolute>
 0000:00000000       __guard_longjmp_table      0000000000000000     <absolute>
 0000:00000000       __x64_code_ranges_to_entry_points 0000000000000000     <absolute>
 0000:00000000       __guard_iat_count          0000000000000000     <absolute>
 0000:00000000       __guard_longjmp_count      0000000000000000     <absolute>
 0000:00000000       __guard_fids_count         0000000000000000     <absolute>
 0000:00000000       __dynamic_value_reloc_table 0000000000000000     <absolute>
 0000:00000000       __x64_code_ranges_to_entry_points_count 0000000000000000     <absolute>
 0000:00000000       __arm64x_extra_rfe_table   0000000000000000     <absolute>
 0000:00000000       __hybrid_auxiliary_iat     0000000000000000     <absolute>
 0000:00000000       __hybrid_code_map          0000000000000000     <absolute>
 0000:00000000       __volatile_metadata        0000000000000000     <absolute>
 0000:00000000       __arm64x_extra_rfe_table_size 0000000000000000     <absolute>
 0000:00000000       ___safe_se_handler_count   0000000000000000     <absolute>
 0000:00000000       __AbsoluteZero             0000000000000000     <absolute>
 0000:00000000       __guard_fids_table         0000000000000000     <absolute>
 0000:00000000       __guard_eh_cont_count      0000000000000000     <absolute>
 0000:00000000       __arm64x_redirection_metadata_count 0000000000000000     <absolute>
 0000:00000000       __enclave_config           0000000000000000     <absolute>
 0000:00000000       __guard_eh_cont_table      0000000000000000     <absolute>
 0000:00000000       __arm64x_native_entrypoint 0000000000000000     <absolute>
 0000:00000000       __hybrid_code_map_count    0000000000000000     <absolute>
 0000:00000100       __guard_flags              0000000000000100     <absolute>
 0000:00000000       __ImageBase                0000000180000000     <linker-defined>
 0001:00000010       ??$swprintf_c@$0EA@@@YAHAEAY0EA@_WPEB_WZZ 0000000180001010 f i ConEmuInjects.obj
 0001:0000003c       ??$swprintf_c@$0IA@@@YAHAEAY0IA@_WPEB_WZZ 000000018000103c f i ConEmuInjects.obj
 0001:00000068       ??$swprintf_c@$0PP@@@YAHAEAY0PP@_WPEB_WZZ 0000000180001068 f i ConEmuInjects.obj
 0001:00000094       ?ShutdownHooks@@YAXXZ      0000000180001094 f   ConEmuInjects.obj
 0001:00000284       ?StartupConsoleHooks@@YAXXZ 0000000180001284 f   ConEmuInjects.obj
 0001:00000310       ?StartupHooks@@YA_NPEAUHINSTANCE__@@@Z 0000000180001310 f   ConEmuInjects.obj
 0001:000006f8       ?StringCchVPrintfW@@YAJPEA_W_KPEB_WPEAD@Z 00000001800016f8 f i ConEmuInjects.obj
 0001:0000079c       __local_stdio_printf_options 000000018000179c f i ConEmuInjects.obj
 0001:000007a4       ?ProcessSynchroEventW3@@YA_JPEAX@Z 00000001800017a4 f   ConEmuPlugin.obj
 0001:000007cc       ?ProcessEditorEventW3@@YA_JPEAX@Z 00000001800017cc f   ConEmuPlugin.obj
 0001:000007f4       ?ProcessViewerEventW3@@YA_JPEAX@Z 00000001800017f4 f   ConEmuPlugin.obj
 0001:0000081c       ?ExitFARW3@@YAXPEAX@Z      000000018000181c f   ConEmuPlugin.obj
 0001:00000874       ExitFARW                   0000000180001874 f   ConEmuPlugin.obj
 0001:000008cc       ProcessEditorEventW        00000001800018cc f   ConEmuPlugin.obj
 0001:000008cc       ?ProcessEditorEvent@@YAHHPEAX@Z 00000001800018cc f   ConEmuPlugin.obj
 0001:000008ec       ProcessSynchroEventW       00000001800018ec f   ConEmuPlugin.obj
 0001:00000918       ProcessViewerEventW        0000000180001918 f   ConEmuPlugin.obj
 0001:00000918       ?ProcessViewerEvent@@YAHHPEAX@Z 0000000180001918 f   ConEmuPlugin.obj
 0001:00000938       ?ActivateConsole@@YAHXZ    0000000180001938 f   ConEmuPlugin.obj
 0001:000009c8       ?ExitFAR@@YAXXZ            00000001800019c8 f   ConEmuPlugin.obj
 0001:00000a20       ?GetFarHWND2@@YAPEAUHWND__@@H@Z 0000000180001a20 f   ConEmuPlugin.obj
 0001:00000a8c       ?GetFarHWND@@YAPEAUHWND__@@XZ 0000000180001a8c f   ConEmuPlugin.obj
 0001:00000a94       ?GetFarVersion@@YAXPEAUFarVersion@@@Z 0000000180001a94 f   ConEmuPlugin.obj
 0001:00000ab0       ?GetMinFarVersion@@YAHXZ   0000000180001ab0 f   ConEmuPlugin.obj
 0001:00000ad8       ?GetPluginInfo@@YAXPEAX@Z  0000000180001ad8 f   ConEmuPlugin.obj
 0001:00000b24       ?GetPluginInfoW@@YAXPEAX@Z 0000000180001b24 f   ConEmuPlugin.obj
 0001:00000b44       ?IsConsoleActive@@YAHXZ    0000000180001b44 f   ConEmuPlugin.obj
 0001:00000b9c       ?IsTerminalMode@@YAHXZ     0000000180001b9c f   ConEmuPlugin.obj
 0001:00000ba4       ?OpenPlugin@@YAPEAXH_J@Z   0000000180001ba4 f   ConEmuPlugin.obj
 0001:00000bd4       ?OpenW@@YAPEAXPEBX@Z       0000000180001bd4 f   ConEmuPlugin.obj
 0001:00000bf8       ?ProcessEditorInput@@YAHPEBU_INPUT_RECORD@@@Z 0000000180001bf8 f   ConEmuPlugin.obj
 0001:00000c1c       ?RegisterBackground@@YAHPEAURegisterBackgroundArg@@@Z 0000000180001c1c f   ConEmuPlugin.obj
 0001:00000c98       ?RegisterPanelView@@YAHPEAUPanelViewInit@@@Z 0000000180001c98 f   ConEmuPlugin.obj
 0001:00000e00       ?SetStartupInfo@@YAXPEAX@Z 0000000180001e00 f   ConEmuPlugin.obj
 0001:00000e5c       ?SetupExportsFar3@@YAXXZ   0000000180001e5c f   ConEmuPlugin.obj
 0001:00000fcc       ?SyncExecute@@YAHPEAUHINSTANCE__@@P6AX_J@Z1@Z 0000000180001fcc f   ConEmuPlugin.obj
 0001:00001018       DllMain                    0000000180002018 f   ConEmuPlugin.obj
 0001:0000103c       GetMinFarVersionW          000000018000203c f   ConEmuPlugin.obj
 0001:00001044       OpenPluginW                0000000180002044 f   ConEmuPlugin.obj
 0001:00001084       ProcessEditorInputW        0000000180002084 f   ConEmuPlugin.obj
 0001:000010a8       SetStartupInfoW            00000001800020a8 f   ConEmuPlugin.obj
 0001:000010d8       ??0CPluginW1900@@QEAA@XZ   00000001800020d8 f   ConEmuPlugin1900.obj
 0001:0000127c       ??_GCPluginW1900@@UEAAPEAXI@Z 000000018000227c f i ConEmuPlugin1900.obj
 0001:0000127c       ??_ECPluginW1900@@UEAAPEAXI@Z 000000018000227c f i ConEmuPlugin1900.obj
 0001:00001784       ?CheckPanelExist@CPluginW1900@@UEAA_NXZ 0000000180002784 f   ConEmuPlugin1900.obj
 0001:000017c0       ?Color2BgIndex@Far3Color@@SAXKHAEAGPEBK@Z 00000001800027c0 f i ConEmuPlugin1900.obj
 0001:000018d4       ?Color2FgIndex@Far3Color@@SAXKAEAGPEBK@Z 00000001800028d4 f i ConEmuPlugin1900.obj
 0001:000019c4       ?ExecuteSynchroApi@CPluginW1900@@UEAA_NXZ 00000001800029c4 f   ConEmuPlugin1900.obj
 0001:000019f8       ?ExitFar@CPluginW1900@@UEAAXXZ 00000001800029f8 f   ConEmuPlugin1900.obj
 0001:00001a80       ?FarColor_3_2@@YAEAEBUFarColor@@_N@Z 0000000180002a80 f i ConEmuPlugin1900.obj
 0001:00001b40       ?GetActiveWindowType@CPluginW1900@@UEAAHXZ 0000000180002b40 f   ConEmuPlugin1900.obj
 0001:00001bec       ?GetEditorModifiedState@CPluginW1900@@UEAAKXZ 0000000180002bec f   ConEmuPlugin1900.obj
 0001:00001c48       ?GetFarRect@CPluginW1900@@UEAA_NAEAU_SMALL_RECT@@@Z 0000000180002c48 f   ConEmuPlugin1900.obj
 0001:00001cf4       ?GetMacroArea@CPluginW1900@@UEAAHXZ 0000000180002cf4 f   ConEmuPlugin1900.obj
 0001:00001d14       ?GetMsg@CPluginW1900@@UEAAPEB_WHPEA_W_K@Z 0000000180002d14 f   ConEmuPlugin1900.obj
 0001:00001d88       ?GetPanelDir@CPluginW1900@@UEAAPEA_WKPEA_WH@Z 0000000180002d88 f   ConEmuPlugin1900.obj
 0001:00001ee8       ?GetPanelInfo@CPluginW1900@@UEAA_NKPEAUCEPanelInfo@@@Z 0000000180002ee8 f   ConEmuPlugin1900.obj
 0001:00002188       ?GetPanelItemInfo@CPluginW1900@@UEAA_NAEBUCEPanelInfo@@_N_JAEAU_WIN32_FIND_DATAW@@PEAPEA_W@Z 0000000180003188 f   ConEmuPlugin1900.obj
 0001:00002344       ?GetPluginInfoPtr@CPluginW1900@@UEAAXPEAX@Z 0000000180003344 f   ConEmuPlugin1900.obj
 0001:000023a0       ?GetWindowCount@CPluginW1900@@UEAAHXZ 00000001800033a0 f   ConEmuPlugin1900.obj
 0001:000023d0       ?GetWindowTypeName@CPluginW2800@@UEAAPEB_WH@Z 00000001800033d0 f   ConEmuPlugin2800.obj
 0001:000023d0       ?GetWindowTypeName@CPluginAnsi@@UEAAPEB_WH@Z 00000001800033d0 f   ConEmuPluginA.obj
 0001:000023d0       ?GetWindowTypeName@CPluginW1900@@UEAAPEB_WH@Z 00000001800033d0 f   ConEmuPlugin1900.obj
 0001:000023d0       ?GetWindowTypeName@CPluginW995@@UEAAPEB_WH@Z 00000001800033d0 f   ConEmuPlugin995.obj
 0001:00002428       ?GuiMacroDlg@CPluginW1900@@UEAAXXZ 0000000180003428 f   ConEmuPlugin1900.obj
 0001:00002430       ?InputBox@CPluginW1900@@UEAA_NPEB_W000AEAPEA_W@Z 0000000180003430 f   ConEmuPlugin1900.obj
 0001:000024e0       ?IsMacroActive@CPluginW1900@@UEAA_NXZ 00000001800034e0 f   ConEmuPlugin1900.obj
 0001:00002524       ?LoadFarColors@CPluginW1900@@UEAAXAEAY0BAA@E@Z 0000000180003524 f   ConEmuPlugin1900.obj
 0001:000026b8       ?LoadFarSettings@CPluginW1900@@UEAAXPEAUCEFarInterfaceSettings@@PEAUCEFarPanelSettings@@@Z 00000001800036b8 f   ConEmuPlugin1900.obj
 0001:000027f8       ?Open@CPluginW1900@@UEAAPEAXPEBX@Z 00000001800037f8 f   ConEmuPlugin1900.obj
 0001:000028d4       ?OpenEditor@CPluginW1900@@UEAA_NPEB_W_N11HH@Z 00000001800038d4 f   ConEmuPlugin1900.obj
 0001:000029e8       ?PanelControlApi@CPluginW1900@@UEAA_JPEAXH_J0@Z 00000001800039e8 f   ConEmuPlugin1900.obj
 0001:00002a20       ?PostMacroApi@CPluginW1900@@UEAAXPEB_WPEAU_INPUT_RECORD@@_N@Z 0000000180003a20 f   ConEmuPlugin1900.obj
 0001:00002fe0       ?ProcessEditorEventPtr@CPluginW2800@@UEAAHPEAX@Z 0000000180003fe0 f   ConEmuPlugin2800.obj
 0001:00002fe0       ?ProcessEditorEventPtr@CPluginW1900@@UEAAHPEAX@Z 0000000180003fe0 f   ConEmuPlugin1900.obj
 0001:00002fec       ?ProcessEditorInputPtr@CPluginW1900@@UEAAHPEBX@Z 0000000180003fec f   ConEmuPlugin1900.obj
 0001:0000300c       ?ProcessSynchroEventPtr@CPluginW1900@@UEAAHPEAX@Z 000000018000400c f   ConEmuPlugin1900.obj
 0001:0000300c       ?ProcessSynchroEventPtr@CPluginW2800@@UEAAHPEAX@Z 000000018000400c f   ConEmuPlugin2800.obj
 0001:00003030       ?ProcessViewerEventPtr@CPluginW2800@@UEAAHPEAX@Z 0000000180004030 f   ConEmuPlugin2800.obj
 0001:00003030       ?ProcessViewerEventPtr@CPluginW1900@@UEAAHPEAX@Z 0000000180004030 f   ConEmuPlugin1900.obj
 0001:0000303c       ?RedrawAll@CPluginW1900@@UEAAXXZ 000000018000403c f   ConEmuPlugin1900.obj
 0001:00003074       ?SetStartupInfoPtr@CPluginW1900@@UEAAXPEAX@Z 0000000180004074 f   ConEmuPlugin1900.obj
 0001:000031c8       ?SetWindow@CPluginW1900@@UEAAXH@Z 00000001800041c8 f   ConEmuPlugin1900.obj
 0001:00003220       ?ShowMessage@CPluginW1900@@UEAAHPEB_WH_N@Z 0000000180004220 f   ConEmuPlugin1900.obj
 0001:00003288       ?ShowPluginMenu@CPluginW1900@@UEAAHPEAUConEmuPluginMenuItem@@HH@Z 0000000180004288 f   ConEmuPlugin1900.obj
 0001:000033d8       ?ShowUserScreen@CPluginW1900@@UEAAX_N@Z 00000001800043d8 f   ConEmuPlugin1900.obj
 0001:00003404       ?PlugServerInit@@YAXXZ     0000000180004404 f   PluginSrv.obj
 0001:00003404       ?WaitEndSynchro@CPluginW2800@@UEAAXXZ 0000000180004404 f   ConEmuPlugin2800.obj
 0001:00003404       _guard_check_icall_nop     0000000180004404 f   LIBCMT:guard_support.obj
 0001:00003404       ?WaitEndSynchro@CPluginAnsi@@UEAAXXZ 0000000180004404 f   ConEmuPluginA.obj
 0001:00003404       ?_Doraise@exception@stdext@@MEBAXXZ 0000000180004404 f   common-kernel64:CEStr.obj
 0001:00003404       ?StopWaitEndSynchro@CPluginW1900@@UEAAXXZ 0000000180004404 f   ConEmuPlugin1900.obj
 0001:00003404       ?ShutdownPluginStep@CPluginBase@@SAXPEB_WHHHH@Z 0000000180004404 f   ConEmuPluginBase.obj
 0001:00003404       ?WaitEndSynchro@CPluginW1900@@UEAAXXZ 0000000180004404 f   ConEmuPlugin1900.obj
 0001:00003404       ?StopWaitEndSynchro@CPluginAnsi@@UEAAXXZ 0000000180004404 f   ConEmuPluginA.obj
 0001:00003404       ?StopWaitEndSynchro@CPluginW2800@@UEAAXXZ 0000000180004404 f   ConEmuPlugin2800.obj
 0001:00003408       ?UpdateConEmuTabsApi@CPluginW1900@@UEAA_NH@Z 0000000180004408 f   ConEmuPlugin1900.obj
 0001:000038d8       ??$_Emplace_reallocate@AEBUWindowInfo@@@?$vector@UWindowInfo@@V?$MArrayAllocator@UWindowInfo@@@@@std@@QEAAPEAUWindowInfo@@QEAU2@AEBU2@@Z 00000001800048d8 f i ConEmuPlugin2800.obj
 0001:00003a7c       ??$_Uninitialized_fill_n@V?$MArrayAllocator@UWindowInfo@@@@@std@@YAPEAUWindowInfo@@PEAU1@_KAEBU1@AEAV?$MArrayAllocator@UWindowInfo@@@@@Z 0000000180004a7c f i ConEmuPlugin2800.obj
 0001:00003abc       ??0CPluginW2800@@QEAA@XZ   0000000180004abc f   ConEmuPlugin2800.obj
 0001:00003c60       ??0bad_alloc@std@@QEAA@AEBV01@@Z 0000000180004c60 f i ConEmuPlugin2800.obj
 0001:00003c9c       ??0bad_alloc@std@@QEAA@XZ  0000000180004c9c f i ConEmuPlugin2800.obj
 0001:00003cbc       ??0exception@std@@QEAA@AEBV01@@Z 0000000180004cbc f i ConEmuPlugin2800.obj
 0001:00003cf0       ??1?$MArray@UWindowInfo@@@@QEAA@XZ 0000000180004cf0 f i ConEmuPlugin2800.obj
 0001:00003d1c       ??1length_error@std@@UEAA@XZ 0000000180004d1c f i libcpmt:xthrow.obj
 0001:00003d1c       ??1bad_function_call@std@@UEAA@XZ 0000000180004d1c f i libcpmt:xthrow.obj
 0001:00003d1c       ??1bad_exception@std@@UEAA@XZ 0000000180004d1c f i libvcruntime:frame.obj
 0001:00003d1c       ??1bad_alloc@std@@UEAA@XZ  0000000180004d1c f i ConEmuPlugin2800.obj
 0001:00003d30       ??_ECPluginW2800@@UEAAPEAXI@Z 0000000180004d30 f i ConEmuPlugin2800.obj
 0001:00003d30       ??_GCPluginW2800@@UEAAPEAXI@Z 0000000180004d30 f i ConEmuPlugin2800.obj
 0001:00003d70       ??_Gbad_alloc@std@@UEAAPEAXI@Z 0000000180004d70 f i ConEmuPlugin2800.obj
 0001:00003d70       ??_Ebad_alloc@std@@UEAAPEAXI@Z 0000000180004d70 f i ConEmuPlugin2800.obj
 0001:00003d70       ??_Gbad_exception@std@@UEAAPEAXI@Z 0000000180004d70 f i libvcruntime:frame.obj
 0001:00003d70       ??_Ebad_exception@std@@UEAAPEAXI@Z 0000000180004d70 f i libvcruntime:frame.obj
 0001:00003d70       ??_Gexception@std@@UEAAPEAXI@Z 0000000180004d70 f i ConEmuPlugin2800.obj
 0001:00003d70       ??_Ebad_function_call@std@@UEAAPEAXI@Z 0000000180004d70 f i libcpmt:xthrow.obj
 0001:00003d70       ??_Elength_error@std@@UEAAPEAXI@Z 0000000180004d70 f i libcpmt:xthrow.obj
 0001:00003d70       ??_Elogic_error@std@@UEAAPEAXI@Z 0000000180004d70 f i libcpmt:xthrow.obj
 0001:00003d70       ??_Glogic_error@std@@UEAAPEAXI@Z 0000000180004d70 f i libcpmt:xthrow.obj
 0001:00003d70       ??_Eexception@std@@UEAAPEAXI@Z 0000000180004d70 f i ConEmuPlugin2800.obj
 0001:00003d70       ??_Glength_error@std@@UEAAPEAXI@Z 0000000180004d70 f i libcpmt:xthrow.obj
 0001:00003d70       ??_Gbad_function_call@std@@UEAAPEAXI@Z 0000000180004d70 f i libcpmt:xthrow.obj
 0001:00004300       ?CheckPanelExist@CPluginW2800@@UEAA_NXZ 0000000180005300 f   ConEmuPlugin2800.obj
 0001:0000433c       ?ExecuteSynchroApi@CPluginW2800@@UEAA_NXZ 000000018000533c f   ConEmuPlugin2800.obj
 0001:00004370       ?ExitFar@CPluginW2800@@UEAAXXZ 0000000180005370 f   ConEmuPlugin2800.obj
 0001:00004404       ?GetActiveWindowType@CPluginW2800@@UEAAHXZ 0000000180005404 f   ConEmuPlugin2800.obj
 0001:000044bc       ?GetEditorModifiedState@CPluginW2800@@UEAAKXZ 00000001800054bc f   ConEmuPlugin2800.obj
 0001:0000451c       ?GetFarRect@CPluginW2800@@UEAA_NAEAU_SMALL_RECT@@@Z 000000018000551c f   ConEmuPlugin2800.obj
 0001:000045d0       ?GetMacroArea@CPluginW2800@@UEAAHXZ 00000001800055d0 f   ConEmuPlugin2800.obj
 0001:000045f0       ?GetMsg@CPluginW2800@@UEAAPEB_WHPEA_W_K@Z 00000001800055f0 f   ConEmuPlugin2800.obj
 0001:00004668       ?GetPanelDir@CPluginW2800@@UEAAPEA_WKPEA_WH@Z 0000000180005668 f   ConEmuPlugin2800.obj
 0001:000047c8       ?GetPanelInfo@CPluginW2800@@UEAA_NKPEAUCEPanelInfo@@@Z 00000001800057c8 f   ConEmuPlugin2800.obj
 0001:00004a68       ?GetPanelItemInfo@CPluginW2800@@UEAA_NAEBUCEPanelInfo@@_N_JAEAU_WIN32_FIND_DATAW@@PEAPEA_W@Z 0000000180005a68 f   ConEmuPlugin2800.obj
 0001:00004c44       ?GetPluginInfoPtr@CPluginW2800@@UEAAXPEAX@Z 0000000180005c44 f   ConEmuPlugin2800.obj
 0001:00004ca0       ?GetWindowCount@CPluginW2800@@UEAAHXZ 0000000180005ca0 f   ConEmuPlugin2800.obj
 0001:00004cd0       ?GuiMacroDlg@CPluginW2800@@UEAAXXZ 0000000180005cd0 f   ConEmuPlugin2800.obj
 0001:00004cd8       ?InputBox@CPluginW2800@@UEAA_NPEB_W000AEAPEA_W@Z 0000000180005cd8 f   ConEmuPlugin2800.obj
 0001:00004d88       ?IsMacroActive@CPluginW2800@@UEAA_NXZ 0000000180005d88 f   ConEmuPlugin2800.obj
 0001:00004dcc       ?LoadFarColors@CPluginW2800@@UEAAXAEAY0BAA@E@Z 0000000180005dcc f   ConEmuPlugin2800.obj
 0001:00004f60       ?LoadFarSettings@CPluginW2800@@UEAAXPEAUCEFarInterfaceSettings@@PEAUCEFarPanelSettings@@@Z 0000000180005f60 f   ConEmuPlugin2800.obj
 0001:000050a0       ?Open@CPluginW2800@@UEAAPEAXPEBX@Z 00000001800060a0 f   ConEmuPlugin2800.obj
 0001:00005218       ?OpenEditor@CPluginW2800@@UEAA_NPEB_W_N11HH@Z 0000000180006218 f   ConEmuPlugin2800.obj
 0001:0000533c       ?PanelControlApi@CPluginW2800@@UEAA_JPEAXH_J0@Z 000000018000633c f   ConEmuPlugin2800.obj
 0001:00005374       ?PostMacroApi@CPluginW2800@@UEAAXPEB_WPEAU_INPUT_RECORD@@_N@Z 0000000180006374 f   ConEmuPlugin2800.obj
 0001:000056e8       ?ProcessEditorInputPtr@CPluginW2800@@UEAAHPEBX@Z 00000001800066e8 f   ConEmuPlugin2800.obj
 0001:00005708       ?RedrawAll@CPluginW2800@@UEAAXXZ 0000000180006708 f   ConEmuPlugin2800.obj
 0001:00005740       ?SetStartupInfoPtr@CPluginW2800@@UEAAXPEAX@Z 0000000180006740 f   ConEmuPlugin2800.obj
 0001:00005894       ?SetWindow@CPluginW2800@@UEAAXH@Z 0000000180006894 f   ConEmuPlugin2800.obj
 0001:000059d0       ?ShowMessage@CPluginW2800@@UEAAHPEB_WH_N@Z 00000001800069d0 f   ConEmuPlugin2800.obj
 0001:00005a38       ?ShowPluginMenu@CPluginW2800@@UEAAHPEAUConEmuPluginMenuItem@@HH@Z 0000000180006a38 f   ConEmuPlugin2800.obj
 0001:00005b8c       ?ShowUserScreen@CPluginW2800@@UEAAX_N@Z 0000000180006b8c f   ConEmuPlugin2800.obj
 0001:00005bb8       ?UpdateConEmuTabsApi@CPluginW2800@@UEAA_NH@Z 0000000180006bb8 f   ConEmuPlugin2800.obj
 0001:00006534       ?_Getal@?$vector@UWindowInfo@@V?$MArrayAllocator@UWindowInfo@@@@@std@@AEAAAEAV?$MArrayAllocator@UWindowInfo@@@@XZ 0000000180007534 f i ConEmuPlugin2800.obj
 0001:00006538       ?_Xlength@?$vector@UWindowInfo@@V?$MArrayAllocator@UWindowInfo@@@@@std@@CAXXZ 0000000180007538 f i ConEmuPlugin2800.obj
 0001:00006538       ?_Xlength@?$vector@UtagPROCESSENTRY32W@@V?$MArrayAllocator@UtagPROCESSENTRY32W@@@@@std@@CAXXZ 0000000180007538 f i common-kernel64:MProcess.obj
 0001:0000654c       ?deallocate@?$MArrayAllocator@UWindowInfo@@@@QEAAXPEAUWindowInfo@@_K@Z 000000018000754c f i ConEmuPlugin2800.obj
 0001:00006564       ?erase@?$MArray@UWindowInfo@@@@QEAAX_J0@Z 0000000180007564 f i ConEmuPlugin2800.obj
 0001:000065f8       ?insert@?$MArray@UWindowInfo@@@@QEAA_J_JAEBUWindowInfo@@0@Z 00000001800075f8 f i ConEmuPlugin2800.obj
 0001:000066a0       ?insert@?$vector@UWindowInfo@@V?$MArrayAllocator@UWindowInfo@@@@@std@@QEAA?AV?$_Vector_iterator@V?$_Vector_val@U?$_Simple_types@UWindowInfo@@@std@@@std@@@2@V?$_Vector_const_iterator@V?$_Vector_val@U?$_Simple_types@UWindowInfo@@@std@@@std@@@2@_KAEBUWindowInfo@@@Z 00000001800076a0 f i ConEmuPlugin2800.obj
 0001:00006aa8       ?push_back@?$MArray@UWindowInfo@@@@QEAA_JAEBUWindowInfo@@@Z 0000000180007aa8 f i ConEmuPlugin2800.obj
 0001:00006b2c       ?what@exception@std@@UEBAPEBDXZ 0000000180007b2c f i ConEmuPlugin2800.obj
 0001:00006b40       GetGlobalInfoW             0000000180007b40 f   ConEmuPlugin2800.obj
 0001:00006bd8       ??0CPluginW995@@QEAA@XZ    0000000180007bd8 f   ConEmuPlugin995.obj
 0001:00006d70       ??_ECPluginW995@@UEAAPEAXI@Z 0000000180007d70 f i ConEmuPlugin995.obj
 0001:00006d70       ??_GCPluginW995@@UEAAPEAXI@Z 0000000180007d70 f i ConEmuPlugin995.obj
 0001:000071f0       ?CheckPanelExist@CPluginW995@@UEAA_NXZ 00000001800081f0 f   ConEmuPlugin995.obj
 0001:00007228       ?ExecuteSynchroApi@CPluginW995@@UEAA_NXZ 0000000180008228 f   ConEmuPlugin995.obj
 0001:00007258       ?ExitFar@CPluginW995@@UEAAXXZ 0000000180008258 f   ConEmuPlugin995.obj
 0001:000072e0       ?GetActiveWindowType@CPluginW995@@UEAAHXZ 00000001800082e0 f   ConEmuPlugin995.obj
 0001:000073c0       ?GetEditorModifiedState@CPluginW995@@UEAAKXZ 00000001800083c0 f   ConEmuPlugin995.obj
 0001:00007418       ?GetFarRect@CPluginW995@@UEAA_NAEAU_SMALL_RECT@@@Z 0000000180008418 f   ConEmuPlugin995.obj
 0001:00007470       ?GetMacroArea@CPluginW995@@UEAAHXZ 0000000180008470 f   ConEmuPlugin995.obj
 0001:000074c8       ?GetMsg@CPluginW995@@UEAAPEB_WHPEA_W_K@Z 00000001800084c8 f   ConEmuPlugin995.obj
 0001:00007538       ?GetPanelDir@CPluginW995@@UEAAPEA_WKPEA_WH@Z 0000000180008538 f   ConEmuPlugin995.obj
 0001:0000765c       ?GetPanelInfo@CPluginW995@@UEAA_NKPEAUCEPanelInfo@@@Z 000000018000865c f   ConEmuPlugin995.obj
 0001:0000789c       ?GetPanelItemInfo@CPluginW995@@UEAA_NAEBUCEPanelInfo@@_N_JAEAU_WIN32_FIND_DATAW@@PEAPEA_W@Z 000000018000889c f   ConEmuPlugin995.obj
 0001:00007a44       ?GetPluginInfoPtr@CPluginW995@@UEAAXPEAX@Z 0000000180008a44 f   ConEmuPlugin995.obj
 0001:00007ab0       ?GetWindowCount@CPluginW995@@UEAAHXZ 0000000180008ab0 f   ConEmuPlugin995.obj
 0001:00007adc       ?GuiMacroDlg@CPluginW995@@UEAAXXZ 0000000180008adc f   ConEmuPlugin995.obj
 0001:00007ae4       ?InputBox@CPluginW995@@UEAA_NPEB_W000AEAPEA_W@Z 0000000180008ae4 f   ConEmuPlugin995.obj
 0001:00007b94       ?IsMacroActive@CPluginW995@@UEAA_NXZ 0000000180008b94 f   ConEmuPlugin995.obj
 0001:00007c04       ?LoadFarColors@CPluginW995@@UEAAXAEAY0BAA@E@Z 0000000180008c04 f   ConEmuPlugin995.obj
 0001:00007cc0       ?LoadFarSettings@CPluginW995@@UEAAXPEAUCEFarInterfaceSettings@@PEAUCEFarPanelSettings@@@Z 0000000180008cc0 f   ConEmuPlugin995.obj
 0001:00007d1c       ?Open@CPluginAnsi@@UEAAPEAXPEBX@Z 0000000180008d1c f i ConEmuPluginA.obj
 0001:00007d1c       ?Open@CPluginW995@@UEAAPEAXPEBX@Z 0000000180008d1c f i ConEmuPlugin995.obj
 0001:00007d24       ?OpenEditor@CPluginW995@@UEAA_NPEB_W_N11HH@Z 0000000180008d24 f   ConEmuPlugin995.obj
 0001:00007e2c       ?PanelControlApi@CPluginW995@@UEAA_JPEAXH_J0@Z 0000000180008e2c f   ConEmuPlugin995.obj
 0001:00007e70       ?PostMacroApi@CPluginW995@@UEAAXPEB_WPEAU_INPUT_RECORD@@_N@Z 0000000180008e70 f   ConEmuPlugin995.obj
 0001:00007f18       ?ProcessViewerEventPtr@CPluginAnsi@@UEAAHPEAX@Z 0000000180008f18 f i ConEmuPluginA.obj
 0001:00007f18       ?ProcessEditorEventPtr@CPluginW995@@UEAAHPEAX@Z 0000000180008f18 f i ConEmuPlugin995.obj
 0001:00007f18       ?ProcessEditorInputPtr@CPluginAnsi@@UEAAHPEBX@Z 0000000180008f18 f i ConEmuPluginA.obj
 0001:00007f18       ?ProcessViewerEventPtr@CPluginW995@@UEAAHPEAX@Z 0000000180008f18 f i ConEmuPlugin995.obj
 0001:00007f18       ?ProcessSynchroEventPtr@CPluginAnsi@@UEAAHPEAX@Z 0000000180008f18 f i ConEmuPluginA.obj
 0001:00007f18       ?ProcessEditorEventPtr@CPluginAnsi@@UEAAHPEAX@Z 0000000180008f18 f i ConEmuPluginA.obj
 0001:00007f18       ?ProcessSynchroEventPtr@CPluginW995@@UEAAHPEAX@Z 0000000180008f18 f i ConEmuPlugin995.obj
 0001:00007f1c       ?ProcessEditorInputPtr@CPluginW995@@UEAAHPEBX@Z 0000000180008f1c f   ConEmuPlugin995.obj
 0001:00007f38       ?RedrawAll@CPluginW995@@UEAAXXZ 0000000180008f38 f   ConEmuPlugin995.obj
 0001:00007f68       ?SetStartupInfoPtr@CPluginW995@@UEAAXPEAX@Z 0000000180008f68 f   ConEmuPlugin995.obj
 0001:000080a8       ?SetWindow@CPluginW995@@UEAAXH@Z 00000001800090a8 f   ConEmuPlugin995.obj
 0001:000080f4       ?ShowMessage@CPluginW995@@UEAAHPEB_WH_N@Z 00000001800090f4 f   ConEmuPlugin995.obj
 0001:00008154       ?ShowPluginMenu@CPluginW995@@UEAAHPEAUConEmuPluginMenuItem@@HH@Z 0000000180009154 f   ConEmuPlugin995.obj
 0001:00008290       ?ShowUserScreen@CPluginW995@@UEAAX_N@Z 0000000180009290 f   ConEmuPlugin995.obj
 0001:000082bc       ?StopWaitEndSynchro@CPluginW995@@UEAAXXZ 00000001800092bc f   ConEmuPlugin995.obj
 0001:000082ec       ?UpdateConEmuTabsApi@CPluginW995@@UEAA_NH@Z 00000001800092ec f   ConEmuPlugin995.obj
 0001:00008564       ?WaitEndSynchro@CPluginW995@@UEAAXXZ 0000000180009564 f   ConEmuPlugin995.obj
 0001:000086fc       ??0CPluginAnsi@@QEAA@XZ    00000001800096fc f   ConEmuPluginA.obj
 0001:00008860       ??_ECPluginAnsi@@UEAAPEAXI@Z 0000000180009860 f i ConEmuPluginA.obj
 0001:00008860       ??_GCPluginAnsi@@UEAAPEAXI@Z 0000000180009860 f i ConEmuPluginA.obj
 0001:00008e18       ?CheckPanelExist@CPluginAnsi@@UEAA_NXZ 0000000180009e18 f   ConEmuPluginA.obj
 0001:00008e50       ?ExecuteSynchroApi@CPluginAnsi@@UEAA_NXZ 0000000180009e50 f i ConEmuPluginA.obj
 0001:00008e50       ?GetFarRect@CPluginAnsi@@UEAA_NAEAU_SMALL_RECT@@@Z 0000000180009e50 f i ConEmuPluginA.obj
 0001:00008e54       ?ExitFar@CPluginAnsi@@UEAAXXZ 0000000180009e54 f   ConEmuPluginA.obj
 0001:00008e98       ?GetActiveWindowType@CPluginAnsi@@UEAAHXZ 0000000180009e98 f   ConEmuPluginA.obj
 0001:00008f1c       ?GetEditorModifiedState@CPluginAnsi@@UEAAKXZ 0000000180009f1c f   ConEmuPluginA.obj
 0001:00008f74       ?GetMacroArea@CPluginAnsi@@UEAAHXZ 0000000180009f74 f   ConEmuPluginA.obj
 0001:00008f74       _get_startup_argv_mode     0000000180009f74 f   LIBCMT:argv_mode.obj
 0001:00008f7c       ?GetMsg@CPluginAnsi@@UEAAPEB_WHPEA_W_K@Z 0000000180009f7c f   ConEmuPluginA.obj
 0001:0000901c       ?GetPanelDir@CPluginAnsi@@UEAAPEA_WKPEA_WH@Z 000000018000a01c f   ConEmuPluginA.obj
 0001:00009114       ?GetPanelInfo@CPluginAnsi@@UEAA_NKPEAUCEPanelInfo@@@Z 000000018000a114 f   ConEmuPluginA.obj
 0001:0000936c       ?GetPanelItemInfo@CPluginAnsi@@UEAA_NAEBUCEPanelInfo@@_N_JAEAU_WIN32_FIND_DATAW@@PEAPEA_W@Z 000000018000a36c f   ConEmuPluginA.obj
 0001:00009490       ?GetPluginInfoPtr@CPluginAnsi@@UEAAXPEAX@Z 000000018000a490 f   ConEmuPluginA.obj
 0001:0000951c       ?GetWindowCount@CPluginAnsi@@UEAAHXZ 000000018000a51c f   ConEmuPluginA.obj
 0001:00009548       ?GuiMacroDlg@CPluginAnsi@@UEAAXXZ 000000018000a548 f   ConEmuPluginA.obj
 0001:00009550       ?InputBox@CPluginAnsi@@UEAA_NPEB_W000AEAPEA_W@Z 000000018000a550 f   ConEmuPluginA.obj
 0001:000096b0       ?IsMacroActive@CPluginAnsi@@UEAA_NXZ 000000018000a6b0 f   ConEmuPluginA.obj
 0001:00009724       ?LoadFarColors@CPluginAnsi@@UEAAXAEAY0BAA@E@Z 000000018000a724 f   ConEmuPluginA.obj
 0001:000097e4       ?LoadFarSettings@CPluginAnsi@@UEAAXPEAUCEFarInterfaceSettings@@PEAUCEFarPanelSettings@@@Z 000000018000a7e4 f   ConEmuPluginA.obj
 0001:00009844       ?OpenEditor@CPluginAnsi@@UEAA_NPEB_W_N11HH@Z 000000018000a844 f   ConEmuPluginA.obj
 0001:00009980       ?PanelControlApi@CPluginAnsi@@UEAA_JPEAXH_J0@Z 000000018000a980 f   ConEmuPluginA.obj
 0001:000099bc       ?PostMacroApi@CPluginAnsi@@UEAAXPEB_WPEAU_INPUT_RECORD@@_N@Z 000000018000a9bc f   ConEmuPluginA.obj
 0001:00009a80       ?RedrawAll@CPluginAnsi@@UEAAXXZ 000000018000aa80 f   ConEmuPluginA.obj
 0001:00009ab4       ?SetStartupInfoPtr@CPluginAnsi@@UEAAXPEAX@Z 000000018000aab4 f   ConEmuPluginA.obj
 0001:00009bf8       ?SetWindow@CPluginAnsi@@UEAAXH@Z 000000018000abf8 f   ConEmuPluginA.obj
 0001:00009c4c       ?ShowMessage@CPluginAnsi@@UEAAHPEB_WH_N@Z 000000018000ac4c f   ConEmuPluginA.obj
 0001:00009d28       ?ShowPluginMenu@CPluginAnsi@@UEAAHPEAUConEmuPluginMenuItem@@HH@Z 000000018000ad28 f   ConEmuPluginA.obj
 0001:00009ec8       ?ShowUserScreen@CPluginAnsi@@UEAAX_N@Z 000000018000aec8 f   ConEmuPluginA.obj
 0001:00009ef4       ?UpdateConEmuTabsApi@CPluginAnsi@@UEAA_NH@Z 000000018000aef4 f   ConEmuPluginA.obj
 0001:0000a1b0       ??$swprintf_c@$0BAE@@@YAHAEAY0BAE@_WPEB_WZZ 000000018000b1b0 f i ConEmuPluginBase.obj
 0001:0000a1dc       ??$swprintf_c@$0DAM@@@YAHAEAY0DAM@_WPEB_WZZ 000000018000b1dc f i ConEmuPluginBase.obj
 0001:0000a208       ??$swprintf_c@$0EAA@@@YAHAEAY0EAA@_WPEB_WZZ 000000018000b208 f i ConEmuPluginBase.obj
 0001:0000a234       ??$swprintf_c@$0MI@@@YAHAEAY0MI@_WPEB_WZZ 000000018000b234 f i ConEmuPluginBase.obj
 0001:0000a260       ??$wcscpy_c@$0BBE@@@YAHAEAY0BBE@_WPEB_W@Z 000000018000b260 f i ConEmuPluginBase.obj
 0001:0000a2ac       ??$wcscpy_c@$0CAI@@@YAHAEAY0CAI@_WPEB_W@Z 000000018000b2ac f i ConEmuPluginBase.obj
 0001:0000a2f8       ??0CPluginBase@@QEAA@XZ    000000018000b2f8 f   ConEmuPluginBase.obj
 0001:0000a414       ??0MWow64Disable@@QEAA@XZ  000000018000b414 f i ConEmuPluginBase.obj
 0001:0000a488       ??1?$MFileMapping@UConEmuGuiMapping@@@@QEAA@XZ 000000018000b488 f i common-user64:ConEmuCheckEx.obj
 0001:0000a488       ??1?$MFileMapping@UPanelViewSetMapping@@@@QEAA@XZ 000000018000b488 f i PluginBackground.obj
 0001:0000a488       ??1?$MFileMapping@UCESERVER_CONSOLE_MAPPING_HDR@@@@QEAA@XZ 000000018000b488 f i ConEmuPluginBase.obj
 0001:0000a49c       ??1CPluginBase@@UEAA@XZ    000000018000b49c f   ConEmuPluginBase.obj
 0001:0000a4a8       ??1MWow64Disable@@QEAA@XZ  000000018000b4a8 f i ConEmuPluginBase.obj
 0001:0000a4cc       ??_ECPluginBase@@UEAAPEAXI@Z 000000018000b4cc f i ConEmuPluginBase.obj
 0001:0000a4cc       ??_GCPluginBase@@UEAAPEAXI@Z 000000018000b4cc f i ConEmuPluginBase.obj
 0001:0000a4f8       ?ActivatePlugin@CPluginBase@@QEAA_NKPEAXK@Z 000000018000b4f8 f   ConEmuPluginBase.obj
 0001:0000a6b4       ?AddTab@CPluginBase@@QEAA_NAEAHH_N1HPEB_W2HHHH@Z 000000018000b6b4 f   ConEmuPluginBase.obj
 0001:0000aa18       ?AddTabFinish@CPluginBase@@QEAAXH@Z 000000018000ba18 f   ConEmuPluginBase.obj
 0001:0000aa24       ?Attach2Gui@CPluginBase@@QEAA_N_N@Z 000000018000ba24 f   ConEmuPluginBase.obj
 0001:0000ae4c       ?BackgroundMacroError@CPluginBase@@SAKPEAX@Z 000000018000be4c f   ConEmuPluginBase.obj
 0001:0000ae74       ?CheckBufferEnabled@CPluginBase@@QEAA_NXZ 000000018000be74 f   ConEmuPluginBase.obj
 0001:0000aed8       ?CheckConEmuDetached@CPluginBase@@SAXXZ 000000018000bed8 f   ConEmuPluginBase.obj
 0001:0000b0c8       ?CheckResources@CPluginBase@@QEAAX_N@Z 000000018000c0c8 f   ConEmuPluginBase.obj
 0001:0000b2a8       ?CloseMap@?$MFileMapping@UCESERVER_CONSOLE_MAPPING_HDR@@@@QEAAXXZ 000000018000c2a8 f i ConEmuPluginBase.obj
 0001:0000b2a8       ?CloseMap@?$MFileMapping@UConEmuGuiMapping@@@@QEAAXXZ 000000018000c2a8 f i common-kernel64:ConEmuCheck.obj
 0001:0000b2a8       ?CloseMap@?$MFileMapping@UPanelViewSetMapping@@@@QEAAXXZ 000000018000c2a8 f i PluginBackground.obj
 0001:0000b30c       ?CloseMapHeader@CPluginBase@@SAXXZ 000000018000c30c f   ConEmuPluginBase.obj
 0001:0000b330       ?CloseTabs@CPluginBase@@SAXXZ 000000018000c330 f   ConEmuPluginBase.obj
 0001:0000b3d0       ?CommonPluginStartup@CPluginBase@@QEAAXXZ 000000018000c3d0 f   ConEmuPluginBase.obj
 0001:0000b4dc       ?CreateTabs@CPluginBase@@SA_NH@Z 000000018000c4dc f   ConEmuPluginBase.obj
 0001:0000b59c       ?DllCheckUnique@CPluginBase@@KA_N_N@Z 000000018000c59c f   ConEmuPluginBase.obj
 0001:0000b7d8       ?DllMain_ProcessAttach@CPluginBase@@KAXPEAUHINSTANCE__@@@Z 000000018000c7d8 f   ConEmuPluginBase.obj
 0001:0000b8c0       ?DllMain_ProcessDetach@CPluginBase@@KAXXZ 000000018000c8c0 f   ConEmuPluginBase.obj
 0001:0000b9a8       ?EditViewConsoleOutput@CPluginBase@@QEAAX_N@Z 000000018000c9a8 f   ConEmuPluginBase.obj
 0001:0000ba74       ?EmergencyShow@CPluginBase@@KAXXZ 000000018000ca74 f   ConEmuPluginBase.obj
 0001:0000bad0       ?ExecuteSynchro@CPluginBase@@QEAAXXZ 000000018000cad0 f   ConEmuPluginBase.obj
 0001:0000bb50       ?ExitFarCommon@CPluginBase@@QEAAX_N@Z 000000018000cb50 f   ConEmuPluginBase.obj
 0001:0000bb7c       ?FarSetConsoleSize@CPluginBase@@SA_NFF@Z 000000018000cb7c f   ConEmuPluginBase.obj
 0001:0000bc88       ?FillLoadedParm@CPluginBase@@SAXPEAUConEmuLoadedArg@@PEAUHINSTANCE__@@H@Z 000000018000cc88 f   ConEmuPluginBase.obj
 0001:0000bd60       ?FillUpdateBackground@CPluginBase@@QEAAXPEAUPaintBackgroundArg@@@Z 000000018000cd60 f   ConEmuPluginBase.obj
 0001:0000bedc       ?FindServerCmd@CPluginBase@@QEAA_NKAEAK_N@Z 000000018000cedc f   ConEmuPluginBase.obj
 0001:0000bfd8       ?GetMainThreadId@CPluginBase@@SAKXZ 000000018000cfd8 f   ConEmuPluginBase.obj
 0001:0000c088       ?GetPanelInfo@CPluginBase@@QEAA_NKPEAUBkPanelInfo@@@Z 000000018000d088 f   ConEmuPluginBase.obj
 0001:0000c12c       ?InitHWND@CPluginBase@@SAXXZ 000000018000d12c f   ConEmuPluginBase.obj
 0001:0000c3bc       ?InitResources@CPluginBase@@QEAAXXZ 000000018000d3bc f   ConEmuPluginBase.obj
 0001:0000c5e0       ?InitRootRegKey@CPluginBase@@IEAAXXZ 000000018000d5e0 f   ConEmuPluginBase.obj
 0001:0000c6e0       ?InternalOpenCreate@?$MFileMapping@UPanelViewSetMapping@@@@IEAAPEAUPanelViewSetMapping@@_N0H@Z 000000018000d6e0 f i PluginBackground.obj
 0001:0000c6e0       ?InternalOpenCreate@?$MFileMapping@UConEmuGuiMapping@@@@IEAAPEAUConEmuGuiMapping@@_N0H@Z 000000018000d6e0 f i common-kernel64:ConEmuCheck.obj
 0001:0000c6e0       ?InternalOpenCreate@?$MFileMapping@UCESERVER_CONSOLE_MAPPING_HDR@@@@IEAAPEAUCESERVER_CONSOLE_MAPPING_HDR@@_N0H@Z 000000018000d6e0 f i ConEmuPluginBase.obj
 0001:0000c994       ?IsCurrentTabModal@CPluginBase@@QEAA_NXZ 000000018000d994 f   ConEmuPluginBase.obj
 0001:0000cb50       ?LoadFarVersion@CPluginBase@@SA_NXZ 000000018000db50 f   ConEmuPluginBase.obj
 0001:0000ce04       ?LoadPanelTabsFromRegistry@CPluginBase@@IEAAXXZ 000000018000de04 f   ConEmuPluginBase.obj
 0001:0000cf30       ?MonitorThreadProcW@CPluginBase@@SAKPEAX@Z 000000018000df30 f   ConEmuPluginBase.obj
 0001:0000d334       ?NotifyConEmuUnloaded@CPluginBase@@SAXXZ 000000018000e334 f   ConEmuPluginBase.obj
 0001:0000d458       ?OnConsoleDetaching@CPluginBase@@SAHPEAUHookCallbackArg@@@Z 000000018000e458 f   ConEmuPluginBase.obj
 0001:0000d59c       ?OnConsolePeekInput@CPluginBase@@SAHPEAUHookCallbackArg@@@Z 000000018000e59c f   ConEmuPluginBase.obj
 0001:0000d604       ?OnConsolePeekInputPost@CPluginBase@@SAHPEAUHookCallbackArg@@@Z 000000018000e604 f   ConEmuPluginBase.obj
 0001:0000d634       ?OnConsolePeekReadInput@CPluginBase@@SAX_N@Z 000000018000e634 f   ConEmuPluginBase.obj
 0001:0000d828       ?OnConsoleReadInput@CPluginBase@@SAHPEAUHookCallbackArg@@@Z 000000018000e828 f   ConEmuPluginBase.obj
 0001:0000d830       ?OnConsoleReadInputPost@CPluginBase@@SAHPEAUHookCallbackArg@@@Z 000000018000e830 f   ConEmuPluginBase.obj
 0001:0000d9e0       ?OnConsoleReadInputWork@CPluginBase@@SAHPEAUHookCallbackArg@@@Z 000000018000e9e0 f   ConEmuPluginBase.obj
 0001:0000da54       ?OnConsoleWasAttached@CPluginBase@@SAHPEAUHookCallbackArg@@@Z 000000018000ea54 f   ConEmuPluginBase.obj
 0001:0000dabc       ?OnCurDirChanged@CPluginBase@@SAXXZ 000000018000eabc f   ConEmuPluginBase.obj
 0001:0000db18       ?OnGetNumberOfConsoleInputEventsPost@CPluginBase@@SAHPEAUHookCallbackArg@@@Z 000000018000eb18 f   ConEmuPluginBase.obj
 0001:0000db4c       ?OnLibraryLoaded@CPluginBase@@SAXPEAUHINSTANCE__@@@Z 000000018000eb4c f   ConEmuPluginBase.obj
 0001:0000dbec       ?OnMainThreadActivated@CPluginBase@@QEAAXXZ 000000018000ebec f   ConEmuPluginBase.obj
 0001:0000dd90       ?OnPanelViewCallbacks@CPluginBase@@SA_NPEAUHookCallbackArg@@P6AHPEAXPEAU_INPUT_RECORD@@KPEAKPEAH@Z5@Z 000000018000ed90 f   ConEmuPluginBase.obj
 0001:0000de68       ?OnPostWriteConsoleOutput@CPluginBase@@SAHPEAUHookCallbackArg@@@Z 000000018000ee68 f   ConEmuPluginBase.obj
 0001:0000de74       ?OnShellExecuteExW_Except@CPluginBase@@SAHPEAUHookCallbackArg@@@Z 000000018000ee74 f   ConEmuPluginBase.obj
 0001:0000deb4       ?OnWriteConsoleOutput@CPluginBase@@SAHPEAUHookCallbackArg@@@Z 000000018000eeb4 f   ConEmuPluginBase.obj
 0001:0000df88       ?OpenMapHeader@CPluginBase@@SAHXZ 000000018000ef88 f   ConEmuPluginBase.obj
 0001:0000e144       ?OpenPluginCommon@CPluginBase@@QEAAPEAXH_J_N@Z 000000018000f144 f   ConEmuPluginBase.obj
 0001:0000e42c       ?OutDataAlloc@CPluginBase@@SA_NK@Z 000000018000f42c f   ConEmuPluginBase.obj
 0001:0000e48c       ?OutDataRealloc@CPluginBase@@SA_NK@Z 000000018000f48c f   ConEmuPluginBase.obj
 0001:0000e558       ?OutDataWrite@CPluginBase@@SA_NPEAXK@Z 000000018000f558 f   ConEmuPluginBase.obj
 0001:0000e5f8       ?PanelControl@CPluginBase@@QEAA_JPEAXH_J0@Z 000000018000f5f8 f   ConEmuPluginBase.obj
 0001:0000e690       ?Plugin@@YAPEAVCPluginBase@@XZ 000000018000f690 f   ConEmuPluginBase.obj
 0001:0000e768       ?PrintText@CPluginBase@@QEAA_NPEB_W@Z 000000018000f768 f   ConEmuPluginBase.obj
 0001:0000e884       ?ProcessCommand@CPluginBase@@QEAA_NKHPEAXPEAPEAUCESERVER_REQ@@_N@Z 000000018000f884 f   ConEmuPluginBase.obj
 0001:0000ed24       ?ProcessCommandLine@CPluginBase@@QEAA_NPEA_W@Z 000000018000fd24 f   ConEmuPluginBase.obj
 0001:0000ed70       ?ProcessDragFrom@CPluginBase@@QEAAXXZ 000000018000fd70 f   ConEmuPluginBase.obj
 0001:0000f1f4       ?ProcessDragTo@CPluginBase@@QEAAXXZ 00000001800101f4 f   ConEmuPluginBase.obj
 0001:0000f504       ?ProcessEditorInputInternal@CPluginBase@@QEAAXAEBU_INPUT_RECORD@@@Z 0000000180010504 f   ConEmuPluginBase.obj
 0001:0000f530       ?ProcessEditorViewerEvent@CPluginBase@@QEAAHHH@Z 0000000180010530 f   ConEmuPluginBase.obj
 0001:0000f5e4       ?ProcessSetWindowCommand@CPluginBase@@QEAAXXZ 00000001800105e4 f   ConEmuPluginBase.obj
 0001:0000f70c       ?ProcessSynchroEvent@CPluginBase@@QEAAHHPEAX@Z 000000018001070c f   ConEmuPluginBase.obj
 0001:0000f790       ?ReloadFarInfo@CPluginBase@@QEAA_N_N@Z 0000000180010790 f   ConEmuPluginBase.obj
 0001:0000fa0c       ?ReloadFarInfoApi@CPluginBase@@IEAA_NXZ 0000000180010a0c f   ConEmuPluginBase.obj
 0001:0000fbe0       ?RunExternalProgram@CPluginBase@@QEAA_NPEA_W@Z 0000000180010be0 f   ConEmuPluginBase.obj
 0001:0000fd70       ?RunExternalProgramW@CPluginBase@@SA_NPEA_W0_N@Z 0000000180010d70 f   ConEmuPluginBase.obj
 0001:0000ffd4       ?SendTabs@CPluginBase@@SAXH_N@Z 0000000180010fd4 f   ConEmuPluginBase.obj
 0001:00010190       ?SetRootRegKey@CPluginBase@@IEAAXPEA_W@Z 0000000180011190 f   ConEmuPluginBase.obj
 0001:0001022c       ?ShowConsoleInfo@CPluginBase@@QEAAXXZ 000000018001122c f   ConEmuPluginBase.obj
 0001:00010430       ?ShowMessage@CPluginBase@@QEAAHHH@Z 0000000180011430 f   ConEmuPluginBase.obj
 0001:000104ac       ?ShowMessageBox@CPluginBase@@KAHPEB_WI@Z 00000001800114ac f   ConEmuPluginBase.obj
 0001:00010590       ?ShowMessageGui@CPluginBase@@QEAAHHH@Z 0000000180011590 f   ConEmuPluginBase.obj
 0001:00010618       ?ShowPanelsList@CPluginBase@@QEAAXXZ 0000000180011618 f   ConEmuPluginBase.obj
 0001:0001076c       ?ShowPluginMenu@CPluginBase@@QEAAXW4PluginCallCommands@@@Z 000000018001176c f   ConEmuPluginBase.obj
 0001:00010980       ?ShowProtocolWarning@CPluginBase@@KAXXZ 0000000180011980 f   ConEmuPluginBase.obj
 0001:00010af8       ?ShowTabsList@CPluginBase@@QEAAXXZ 0000000180011af8 f   ConEmuPluginBase.obj
 0001:00010d84       ?StartDebugger@CPluginBase@@QEAA_NXZ 0000000180011d84 f   ConEmuPluginBase.obj
 0001:00011038       ?StopThread@CPluginBase@@QEAAX_N@Z 0000000180012038 f   ConEmuPluginBase.obj
 0001:0001129c       ?StorePanelDirs@CPluginBase@@QEAA_NPEB_W0@Z 000000018001229c f   ConEmuPluginBase.obj
 0001:0001140c       ?StringCchCatW@@YAJPEA_W_KPEB_W@Z 000000018001240c f i ConEmuPluginBase.obj
 0001:000114c8       ?StringCchCopyW@@YAJPEA_W_KPEB_W@Z 00000001800124c8 f i ConEmuPluginBase.obj
 0001:00011534       ?SwitchTabCommand@CPluginBase@@QEAAXW4PluginMenuCommands@@@Z 0000000180012534 f   ConEmuPluginBase.obj
 0001:000115b8       ?ToOem@CPluginBase@@SAPEADPEB_W@Z 00000001800125b8 f   ConEmuPluginBase.obj
 0001:00011614       ?ToOem@CPluginBase@@SAXPEB_WPEAD_J@Z 0000000180012614 f   ConEmuPluginBase.obj
 0001:00011654       ?ToUnicode@CPluginBase@@SAPEA_WPEBD@Z 0000000180012654 f   ConEmuPluginBase.obj
 0001:000116d4       ?TouchReadPeekConsoleInputs@CPluginBase@@SAXH@Z 00000001800126d4 f   ConEmuPluginBase.obj
 0001:00011720       ?UngetDummyMouseEvent@CPluginBase@@SA_N_NPEAUHookCallbackArg@@@Z 0000000180012720 f   ConEmuPluginBase.obj
 0001:000118cc       ?UpdateConEmuTabs@CPluginBase@@QEAA_N_N@Z 00000001800128cc f   ConEmuPluginBase.obj
 0001:00011b4c       ?UpdatePanelDirs@CPluginBase@@QEAAXXZ 0000000180012b4c f   ConEmuPluginBase.obj
 0001:00011d1c       ?WaitPluginActivation@CPluginBase@@SAKKPEAPEAXHK@Z 0000000180012d1c f   ConEmuPluginBase.obj
 0001:00011e24       ?cmd_CloseQSearch@CPluginBase@@QEAAXXZ 0000000180012e24 f   ConEmuPluginBase.obj
 0001:00011e5c       ?cmd_ConSetFont@CPluginBase@@QEAAXPEAX@Z 0000000180012e5c f   ConEmuPluginBase.obj
 0001:00011eb0       ?cmd_EMenu@CPluginBase@@QEAAXPEAX@Z 0000000180012eb0 f   ConEmuPluginBase.obj
 0001:00011fcc       ?cmd_ExternalCallback@CPluginBase@@QEAA_NPEAX@Z 0000000180012fcc f   ConEmuPluginBase.obj
 0001:00012030       ?cmd_GuiChanged@CPluginBase@@QEAAXPEAX@Z 0000000180013030 f   ConEmuPluginBase.obj
 0001:000120bc       ?cmd_LeftClickSync@CPluginBase@@QEAAXPEAX@Z 00000001800130bc f   ConEmuPluginBase.obj
 0001:000121a8       ?cmd_OpenEditorLine@CPluginBase@@QEAA_NPEAUCESERVER_REQ_FAREDITOR@@@Z 00000001800131a8 f   ConEmuPluginBase.obj
 0001:00012274       ?cmd_RedrawFarCall@CPluginBase@@QEAA_NAEAPEAUCESERVER_REQ@@PEAPEAU2@@Z 0000000180013274 f   ConEmuPluginBase.obj
 0001:00012348       ?cmd_SetWindow@CPluginBase@@QEAA_NPEAX_N@Z 0000000180013348 f   ConEmuPluginBase.obj
 0001:000123d4       ?isMacroActive@CPluginBase@@QEAA_NAEAH@Z 00000001800133d4 f   ConEmuPluginBase.obj
 0001:00012410       ?isModalEditorViewer@CPluginBase@@QEAA_NXZ 0000000180013410 f   ConEmuPluginBase.obj
 0001:0001243c       ?pcc_Disabled@CPluginBase@@SA_NW4PluginMenuCommands@@@Z 000000018001343c f   ConEmuPluginBase.obj
 0001:000124b0       ?pcc_Selected@CPluginBase@@SA_NW4PluginMenuCommands@@@Z 00000001800134b0 f   ConEmuPluginBase.obj
 0001:0001250c       ??0CPluginBackground@@QEAA@XZ 000000018001350c f   PluginBackground.obj
 0001:000126c4       ??1CPluginBackground@@QEAA@XZ 00000001800136c4 f   PluginBackground.obj
 0001:0001282c       ?CheckPanelFolders@CPluginBackground@@IEAAXH@Z 000000018001382c f   PluginBackground.obj
 0001:000128fc       ?GetTo@?$MFileMapping@UPanelViewSetMapping@@@@QEAA_NPEAUPanelViewSetMapping@@H@Z 00000001800138fc f i PluginBackground.obj
 0001:000129cc       ?IsParmChanged@CPluginBackground@@IEAA_NPEAUPaintBackgroundArg@@0@Z 00000001800139cc f   PluginBackground.obj
 0001:00012c44       ?LoadThSet@CPluginBackground@@IEAAHH@Z 0000000180013c44 f   PluginBackground.obj
 0001:00012fb8       ?MonitorBackground@CPluginBackground@@QEAAXXZ 0000000180013fb8 f   PluginBackground.obj
 0001:00013020       ?OnMainThreadActivated@CPluginBackground@@QEAAXHH@Z 0000000180014020 f   PluginBackground.obj
 0001:000130e4       ?ReallocItems@CPluginBackground@@IEAAXH@Z 00000001800140e4 f   PluginBackground.obj
 0001:0001314c       ?RegisterSubplugin@CPluginBackground@@QEAAHPEAURegisterBackgroundArg@@@Z 000000018001414c f   PluginBackground.obj
 0001:000133d8       ?SetDcPanelRect@CPluginBackground@@IEAAXPEAUtagRECT@@PEAUBkPanelInfo@@PEAUPaintBackgroundArg@@@Z 00000001800143d8 f   PluginBackground.obj
 0001:000134ac       ?SetForceThLoad@CPluginBackground@@QEAAXXZ 00000001800144ac f   PluginBackground.obj
 0001:000134c4       ?SetForceUpdate@CPluginBackground@@QEAAX_N@Z 00000001800144c4 f   PluginBackground.obj
 0001:000134e4       ?UpdateBackground@CPluginBackground@@IEAAXXZ 00000001800144e4 f   PluginBackground.obj
 0001:00013d58       ?UpdateBackground_Exec@CPluginBackground@@KAXPEAURegisterBackgroundArg@@PEAUPaintBackgroundArg@@@Z 0000000180014d58 f   PluginBackground.obj
 0001:00013d9c       ??$swprintf_c@$09@@YAHAEAY09_WPEB_WZZ 0000000180014d9c f i PluginSrv.obj
 0001:00013dc8       ??$wcscpy_c@$0BAE@@@YAHAEAY0BAE@_WPEB_W@Z 0000000180014dc8 f i PluginSrv.obj
 0001:00013e14       ?DumpError@?$PipeServer@UCESERVER_REQ@@@@IEAAXPEAUPipeInst@1@PEB_WH@Z 0000000180014e14 f i PluginSrv.obj
 0001:00013f28       ?PipeServerRead@?$PipeServer@UCESERVER_REQ@@@@IEAAHPEAUPipeInst@1@@Z 0000000180014f28 f i PluginSrv.obj
 0001:000141c4       ?PipeServerThread@?$PipeServer@UCESERVER_REQ@@@@IEAAKPEAUPipeInst@1@@Z 00000001800151c4 f i PluginSrv.obj
 0001:00014494       ?PipeServerWrite@?$PipeServer@UCESERVER_REQ@@@@IEAAHPEAUPipeInst@1@PEBXKPEAKH@Z 0000000180015494 f i PluginSrv.obj
 0001:000145c0       ?PlugServerCommand@@YAHPEAXPEAUCESERVER_REQ@@AEAPEAU1@AEAK3_J@Z 00000001800155c0 f   PluginSrv.obj
 0001:00014ae4       ?PlugServerFree@@YAXPEAUCESERVER_REQ@@_J@Z 0000000180015ae4 f   PluginSrv.obj
 0001:00014afc       ?PlugServerStart@@YA_NXZ   0000000180015afc f   PluginSrv.obj
 0001:00014c10       ?PlugServerStop@@YAX_N@Z   0000000180015c10 f   PluginSrv.obj
 0001:00014c58       ?StartPipeInstance@?$PipeServer@UCESERVER_REQ@@@@IEAA_NPEAUPipeInst@1@@Z 0000000180015c58 f i PluginSrv.obj
 0001:00014de8       ?StartPipeServer@?$PipeServer@UCESERVER_REQ@@@@QEAA_N_NPEB_W_JPEAU_SECURITY_ATTRIBUTES@@P6AHPEAXPEAUCESERVER_REQ@@AEAPEAU3@AEAK72@ZP6AX52@ZP6AH42@ZP6AH42@ZP6AH42@Z@Z 0000000180015de8 f i PluginSrv.obj
 0001:00014f6c       ?StopPipeServer@?$PipeServer@UCESERVER_REQ@@@@QEAAX_NAEA_N@Z 0000000180015f6c f i PluginSrv.obj
 0001:000152f4       ?WaitForClient@?$PipeServer@UCESERVER_REQ@@@@IEAA_NPEAUPipeInst@1@AEAH1@Z 00000001800162f4 f i PluginSrv.obj
 0001:0001560c       ?WaitOverlapped@?$PipeServer@UCESERVER_REQ@@@@IEAAHPEAUPipeInst@1@PEAK@Z 000000018001660c f i PluginSrv.obj
 0001:000157e0       ?WriteDummyAnswer@?$PipeServer@UCESERVER_REQ@@@@IEAAHPEAUPipeInst@1@@Z 00000001800167e0 f i PluginSrv.obj
 0001:00015860       ?_PipeServerThread@?$PipeServer@UCESERVER_REQ@@@@KAKPEAX@Z 0000000180016860 f i PluginSrv.obj
 0001:000158bc       ?cmd_FarSetChanged@@YAXPEAUFAR_REQ_FARSETCHANGED@@@Z 00000001800168bc f   PluginSrv.obj
 0001:00015916       GetFileVersionInfoSizeW    0000000180016916 f   version:VERSION.dll
 0001:0001591c       GetFileVersionInfoW        000000018001691c f   version:VERSION.dll
 0001:00015922       VerQueryValueW             0000000180016922 f   version:VERSION.dll
 0001:00015928       CreateToolhelp32Snapshot   0000000180016928 f   kernel32:KERNEL32.dll
 0001:0001592e       Thread32First              000000018001692e f   kernel32:KERNEL32.dll
 0001:00015934       Thread32Next               0000000180016934 f   kernel32:KERNEL32.dll
 0001:0001593a       Module32FirstW             000000018001693a f   kernel32:KERNEL32.dll
 0001:00015940       Module32NextW              0000000180016940 f   kernel32:KERNEL32.dll
 0001:00015948       ??2@YAPEAX_K@Z             0000000180016948 f   common-kernel64:Memory.obj
 0001:00015970       ??_V@YAXPEAX@Z             0000000180016970 f   common-kernel64:Memory.obj
 0001:00015970       ??3@YAXPEAX@Z              0000000180016970 f   common-kernel64:Memory.obj
 0001:00015978       ??_U@YAPEAX_K@Z            0000000180016978 f   common-kernel64:Memory.obj
 0001:00015980       ?HeapDeinitialize@@YAXXZ   0000000180016980 f   common-kernel64:Memory.obj
 0001:000159e0       ?HeapInitialize@@YA_NXZ    00000001800169e0 f   common-kernel64:Memory.obj
 0001:00015a1c       ?xf_calloc@@YAPEAX_K0@Z    0000000180016a1c f   common-kernel64:Memory.obj
 0001:00015a4c       ?xf_free@@YAXPEAX@Z        0000000180016a4c f   common-kernel64:Memory.obj
 0001:00015ac0       ?xf_malloc@@YAPEAX_K@Z     0000000180016ac0 f   common-kernel64:Memory.obj
 0001:00015ae8       ?xf_realloc@@YAPEAXPEAX_K@Z 0000000180016ae8 f   common-kernel64:Memory.obj
 0001:00015b10       ??$wcscpy_c@$0CA@@@YAHAEAY0CA@_WPEB_W@Z 0000000180016b10 f i common-kernel64:ConEmuCheck.obj
 0001:00015b5c       ?ExecuteCmd@@YAPEAUCESERVER_REQ@@PEB_WPEAU1@KPEAUHWND__@@HKH@Z 0000000180016b5c f   common-kernel64:ConEmuCheck.obj
 0001:00015d44       ?ExecuteFreeResult@@YAXAEAPEAUCESERVER_REQ@@@Z 0000000180016d44 f   common-kernel64:ConEmuCheck.obj
 0001:00015d64       ?ExecuteGuiCmd@@YAPEAUCESERVER_REQ@@PEAUHWND__@@PEAU1@0H@Z 0000000180016d64 f   common-kernel64:ConEmuCheck.obj
 0001:00015e24       ?ExecuteNewCmd@@YAPEAUCESERVER_REQ@@K_K@Z 0000000180016e24 f   common-kernel64:ConEmuCheck.obj
 0001:00015e88       ?ExecuteNewCmd@@YA_NAEAPEAUCESERVER_REQ@@AEAKK_K@Z 0000000180016e88 f   common-kernel64:ConEmuCheck.obj
 0001:00015f7c       ?ExecuteOpenPipe@@YAPEAXPEB_WAEAY0CAI@_W0KKHPEAXH@Z 0000000180016f7c f   common-kernel64:ConEmuCheck.obj
 0001:0001612c       ?ExecutePrepareCmd@@YAXPEAUCESERVER_REQ@@K_K@Z 000000018001712c f   common-kernel64:ConEmuCheck.obj
 0001:00016168       ?ExecutePrepareCmd@@YAXPEAUCESERVER_REQ_HDR@@K_K@Z 0000000180017168 f   common-kernel64:ConEmuCheck.obj
 0001:000161d8       ?ExecuteSrvCmd@@YAPEAUCESERVER_REQ@@KPEAU1@PEAUHWND__@@HKH@Z 00000001800171d8 f   common-kernel64:ConEmuCheck.obj
 0001:000162ac       ?GetConEmuHWND@@YAPEAUHWND__@@H@Z 00000001800172ac f   common-kernel64:ConEmuCheck.obj
 0001:000163f0       ?GuiMessageBox@@YAHPEAUHWND__@@PEB_W1H@Z 00000001800173f0 f   common-kernel64:ConEmuCheck.obj
 0001:00016558       ?LoadSrvMapping@@YAHPEAUHWND__@@AEAUCESERVER_CONSOLE_MAPPING_HDR@@@Z 0000000180017558 f   common-kernel64:ConEmuCheck.obj
 0001:0001675c       ?ModuleName@@YAPEB_WPEB_W@Z 000000018001775c f   common-kernel64:ConEmuCheck.obj
 0001:0001681c       ?isConsoleClass@@YA_NPEB_W@Z 000000018001781c f   common-kernel64:ConEmuCheck.obj
 0001:0001686c       ?isConsoleWindow@@YA_NPEAUHWND__@@@Z 000000018001786c f   common-kernel64:ConEmuCheck.obj
 0001:0001695c       ?myGetConsoleWindow@@YAPEAUHWND__@@XZ 000000018001795c f   common-kernel64:ConEmuCheck.obj
 0001:000169f8       ?StringCchVPrintfA@@YAJPEAD_KPEBD0@Z 00000001800179f8 f i common-kernel64:MStrSafe.obj
 0001:00016aa0       ?lstrcmpni@@YAHPEB_W0H@Z   0000000180017aa0 f   common-kernel64:MStrSafe.obj
 0001:00016bc8       ?msprintf@@YAPEB_WPEA_W_KPEB_WZZ 0000000180017bc8 f   common-kernel64:MStrSafe.obj
 0001:00016be8       ?mvsprintf@@YAPEB_WPEA_W_KPEB_WPEAD@Z 0000000180017be8 f   common-kernel64:MStrSafe.obj
 0001:00017088       ?sprintf_c@@YAHPEAD_JPEBDZZ 0000000180018088 f   common-kernel64:MStrSafe.obj
 0001:000170c8       ?swprintf_c@@YAHPEA_W_JPEB_WZZ 00000001800180c8 f   common-kernel64:MStrSafe.obj
 0001:00017108       ?IsFilePath@@YA_NPEB_W_N@Z 0000000180018108 f   common-kernel64:CmdLine.obj
 0001:000172a8       ?PointToExt@@YAPEB_WPEB_W@Z 00000001800182a8 f   common-kernel64:CmdLine.obj
 0001:000172cc       ?PointToName@@YAPEB_WPEB_W@Z 00000001800182cc f   common-kernel64:CmdLine.obj
 0001:00017328       ?Unquote@@YAPEB_WPEA_W_N@Z 0000000180018328 f   common-kernel64:CmdLine.obj
 0001:00017390       ??$sprintf_c@$0CI@@@YAHAEAY0CI@DPEBDZZ 0000000180018390 f i common-kernel64:WThreads.obj
 0001:000173bc       ?SetThreadName@@YAXKPEAD@Z 00000001800183bc f   common-kernel64:WThreads.obj
 0001:000173f4       ?apiCreateThread@@YAPEAXP6AKPEAX@Z0PEAKPEBDH@Z 00000001800183f4 f   common-kernel64:WThreads.obj
 0001:0001753c       ?apiTerminateThreadEx@@YAHPEAXKPEBDH@Z 000000018001853c f   common-kernel64:WThreads.obj
 0001:00017644       ?apiThreadHelper@@YAKPEAX@Z 0000000180018644 f   common-kernel64:WThreads.obj
 0001:00017850       ?lstrdup@@YAPEA_WPEB_W_K@Z 0000000180018850 f   common-kernel64:MStrDup.obj
 0001:000178c4       ?lstrmerge@@YAPEA_WPEB_W00000000@Z 00000001800188c4 f   common-kernel64:MStrDup.obj
 0001:00017a08       ?lstrmerge@@YA_NPEAPEA_WPEB_W1111111@Z 0000000180018a08 f   common-kernel64:MStrDup.obj
 0001:00017a80       ??0CEStr@@QEAA@$$QEAPEA_W@Z 0000000180018a80 f   common-kernel64:CEStr.obj
 0001:00017aa0       ??0CEStr@@QEAA@$$QEAU0@@Z  0000000180018aa0 f   common-kernel64:CEStr.obj
 0001:00017ac8       ??0CEStr@@QEAA@PEB_W00000000@Z 0000000180018ac8 f   common-kernel64:CEStr.obj
 0001:00017b60       ??0CEStr@@QEAA@XZ          0000000180018b60 f   common-kernel64:CEStr.obj
 0001:00017b70       ??0bad_alloc@stdext@@QEAA@AEBV01@@Z 0000000180018b70 f i common-kernel64:CEStr.obj
 0001:00017b90       ??0bad_alloc@stdext@@QEAA@XZ 0000000180018b90 f i common-kernel64:CEStr.obj
 0001:00017bac       ??0exception@stdext@@QEAA@AEBV01@@Z 0000000180018bac f i common-kernel64:CEStr.obj
 0001:00017bc4       ??1CEStr@@QEAA@XZ          0000000180018bc4 f   common-kernel64:CEStr.obj
 0001:00017bcc       ??1bad_alloc@stdext@@UEAA@XZ 0000000180018bcc f i common-kernel64:CEStr.obj
 0001:00017bd8       ??4CEStr@@QEAAAEAU0@$$QEAU0@@Z 0000000180018bd8 f   common-kernel64:CEStr.obj
 0001:00017c24       ??4CEStr@@QEAAAEAU0@PEB_W@Z 0000000180018c24 f   common-kernel64:CEStr.obj
 0001:00017c44       ??BCEStr@@QEBAPEB_WXZ      0000000180018c44 f   common-kernel64:CEStr.obj
 0001:00017c44       ?data@CEStr@@QEBAPEA_WXZ   0000000180018c44 f   common-kernel64:CEStr.obj
 0001:00017c48       ??BCEStr@@QEBA_NXZ         0000000180018c48 f   common-kernel64:CEStr.obj
 0001:00017c5c       ??_Gexception@stdext@@UEAAPEAXI@Z 0000000180018c5c f i common-kernel64:CEStr.obj
 0001:00017c5c       ??_Eexception@stdext@@UEAAPEAXI@Z 0000000180018c5c f i common-kernel64:CEStr.obj
 0001:00017c5c       ??_Gbad_alloc@stdext@@UEAAPEAXI@Z 0000000180018c5c f i common-kernel64:CEStr.obj
 0001:00017c5c       ??_Ebad_alloc@stdext@@UEAAPEAXI@Z 0000000180018c5c f i common-kernel64:CEStr.obj
 0001:00017c88       ?AttachInt@CEStr@@AEAAPEB_WAEAPEA_W@Z 0000000180018c88 f   common-kernel64:CEStr.obj
 0001:00017d08       ?Clear@CEStr@@QEAAXXZ      0000000180018d08 f   common-kernel64:CEStr.obj
 0001:00017d24       ?Compare@CEStr@@QEBAHPEB_W_N@Z 0000000180018d24 f   common-kernel64:CEStr.obj
 0001:00017d54       ?Detach@CEStr@@QEAAPEA_WXZ 0000000180018d54 f   common-kernel64:CEStr.obj
 0001:00017d64       ?GetBuffer@CEStr@@QEAAPEA_W_J@Z 0000000180018d64 f   common-kernel64:CEStr.obj
 0001:00017e30       ?GetLen@CEStr@@QEBA_JXZ    0000000180018e30 f   common-kernel64:CEStr.obj
 0001:00017e58       ?GetMaxCount@CEStr@@QEAA_JXZ 0000000180018e58 f   common-kernel64:CEStr.obj
 0001:00017e84       ?Release@CEStr@@QEAAXXZ    0000000180018e84 f   common-kernel64:CEStr.obj
 0001:00017ea8       ?Set@CEStr@@QEAAPEB_WPEB_W_J@Z 0000000180018ea8 f   common-kernel64:CEStr.obj
 0001:00017f94       ?SetAt@CEStr@@QEAA_W_J_W@Z 0000000180018f94 f   common-kernel64:CEStr.obj
 0001:00017ff0       ?StringCchCopyNW@@YAJPEA_W_KPEB_W1@Z 0000000180018ff0 f i common-kernel64:CEStr.obj
 0001:00018064       ?_Doraise@bad_alloc@stdext@@MEBAXXZ 0000000180019064 f i common-kernel64:CEStr.obj
 0001:00018080       ?c_str@CEStr@@QEBAPEB_WPEB_W@Z 0000000180019080 f   common-kernel64:CEStr.obj
 0001:0001808c       ?what@exception@stdext@@UEBAPEBDXZ 000000018001908c f i common-kernel64:CEStr.obj
 0001:0001825c       ??0CEnvStrings@@QEAA@PEA_W@Z 000000018001925c f   common-kernel64:EnvVar.obj
 0001:000182b0       ??1CEnvStrings@@QEAA@XZ    00000001800192b0 f   common-kernel64:EnvVar.obj
 0001:000182d4       ?Clear@CEnvRestorer@@QEAAXXZ 00000001800192d4 f   common-kernel64:EnvVar.obj
 0001:000182f8       ?ExpandEnvStr@@YA?AUCEStr@@PEB_W@Z 00000001800192f8 f   common-kernel64:EnvVar.obj
 0001:0001831c       ?GetEnvVar@@YA?AUCEStr@@PEB_W@Z 000000018001931c f   common-kernel64:EnvVar.obj
 0001:00018440       ?SavePathVar@CEnvRestorer@@QEAAXPEB_W@Z 0000000180019440 f   common-kernel64:EnvVar.obj
 0001:00018474       ?CommonShutdown@@YAXXZ     0000000180019474 f   common-kernel64:Common.obj
 0001:00018484       ?IsEnvBlockVariableValid@@YA_NPEB_W@Z 0000000180019484 f   common-kernel64:Common.obj
 0001:000184b8       ?IsEnvBlockVariableValid@@YA_NPEB_WAEAPEB_W@Z 00000001800194b8 f   common-kernel64:Common.obj
 0001:0001850c       ?SetCommand@CESERVER_REQ_NEWCMD@@QEAAXPEB_W@Z 000000018001950c f   common-kernel64:Common.obj
 0001:00018574       ?SetEnvStrings@CESERVER_REQ_NEWCMD@@QEAAXPEB_WK@Z 0000000180019574 f   common-kernel64:Common.obj
 0001:0001868c       ??_GMNullDesc@@QEAAPEAXI@Z 000000018001968c f i common-kernel64:MSecurity.obj
 0001:00018700       ?LoadAdvApi@MNullDesc@@IEAAHXZ 0000000180019700 f i common-kernel64:MSecurity.obj
 0001:00018828       ?LocalSecurity@@YAPEAU_SECURITY_ATTRIBUTES@@XZ 0000000180019828 f   common-kernel64:MSecurity.obj
 0001:00018880       ?LocalSecurity@MNullDesc@@QEAAPEAU_SECURITY_ATTRIBUTES@@XZ 0000000180019880 f i common-kernel64:MSecurity.obj
 0001:000189fc       ?ShutdownSecurity@@YAXXZ   00000001800199fc f   common-kernel64:MSecurity.obj
 0001:00018a24       ??0MHandle@@QEAA@PEAXV?$function@$$A6AXPEAX@Z@std@@@Z 0000000180019a24 f i common-kernel64:WObjects.obj
 0001:00018a98       ??4?$function@$$A6AXPEAX@Z@std@@QEAAAEAV01@$$QEAV01@@Z 0000000180019a98 f i common-kernel64:WObjects.obj
 0001:00018b10       ?Close@MHandle@@QEAAXXZ    0000000180019b10 f i common-kernel64:WObjects.obj
 0001:00018b74       ?FileExists@@YA_NPEB_WPEA_K@Z 0000000180019b74 f   common-kernel64:WObjects.obj
 0001:00018e10       ?IsWin6@@YA_NXZ            0000000180019e10 f   common-kernel64:WObjects.obj
 0001:00018e44       ?IsWin7@@YA_NXZ            0000000180019e44 f   common-kernel64:WObjects.obj
 0001:00018e78       ?IsWinVerOrHigher@@YA_NG@Z 0000000180019e78 f   common-kernel64:WObjects.obj
 0001:00018f90       ?IsWindows64@@YA_NXZ       0000000180019f90 f   common-kernel64:WObjects.obj
 0001:00018fb4       ?SetHandle@MHandle@@QEAA_NPEAXV?$function@$$A6AXPEAX@Z@std@@@Z 0000000180019fb4 f i common-kernel64:WObjects.obj
 0001:00019020       ?_Copy@?$_Func_impl_no_alloc@P6AHPEAX@ZXPEAX@std@@EEBAPEAV?$_Func_base@XPEAX@2@PEAX@Z 000000018001a020 f i common-kernel64:WObjects.obj
 0001:00019020       ?_Move@?$_Func_impl_no_alloc@P6AHPEAX@ZXPEAX@std@@EEAAPEAV?$_Func_base@XPEAX@2@PEAX@Z 000000018001a020 f i common-kernel64:WObjects.obj
 0001:00019038       ?_Delete_this@?$_Func_impl_no_alloc@P6AHPEAX@ZXPEAX@std@@EEAAX_N@Z 000000018001a038 f i common-kernel64:WObjects.obj
 0001:00019038       ?_Delete_this@?$_Func_impl_no_alloc@V<lambda_217d18733db987cb8fc0adfd68028951>@@_NAEBUtagPROCESSENTRY32W@@@std@@EEAAX_N@Z 000000018001a038 f i common-kernel64:MProcess.obj
 0001:00019050       ?_Do_call@?$_Func_impl_no_alloc@P6AHPEAX@ZXPEAX@std@@EEAAX$$QEAPEAX@Z 000000018001a050 f i common-kernel64:WObjects.obj
 0001:0001905c       ?_Get@?$_Func_impl_no_alloc@V<lambda_217d18733db987cb8fc0adfd68028951>@@_NAEBUtagPROCESSENTRY32W@@@std@@EEBAPEBXXZ 000000018001a05c f i common-kernel64:MProcess.obj
 0001:0001905c       ?_Get@?$_Func_impl_no_alloc@P6AHPEAX@ZXPEAX@std@@EEBAPEBXXZ 000000018001a05c f i common-kernel64:WObjects.obj
 0001:00019064       ?_Target_type@?$_Func_impl_no_alloc@P6AHPEAX@ZXPEAX@std@@EEBAAEBVtype_info@@XZ 000000018001a064 f i common-kernel64:WObjects.obj
 0001:0001906c       ?_VerifyVersionInfo@@YA_NPEAU_OSVERSIONINFOEXW@@K_K@Z 000000018001a06c f   common-kernel64:WObjects.obj
 0001:0001913c       ?Init@HkFunc@@QEAA_NPEB_WPEAUHINSTANCE__@@@Z 000000018001a13c f   common-kernel64:HkFunc.obj
 0001:000191cc       ?isConEmuHk@HkFunc@@QEAA_NXZ 000000018001a1cc f   common-kernel64:HkFunc.obj
 0001:000191d4       ??$_Emplace_reallocate@AEBUtagPROCESSENTRY32W@@@?$vector@UtagPROCESSENTRY32W@@V?$MArrayAllocator@UtagPROCESSENTRY32W@@@@@std@@QEAAPEAUtagPROCESSENTRY32W@@QEAU2@AEBU2@@Z 000000018001a1d4 f i common-kernel64:MProcess.obj
 0001:000193c4       ??$emplace_back@AEBUtagPROCESSENTRY32W@@@?$vector@UtagPROCESSENTRY32W@@V?$MArrayAllocator@UtagPROCESSENTRY32W@@@@@std@@QEAAXAEBUtagPROCESSENTRY32W@@@Z 000000018001a3c4 f i common-kernel64:MProcess.obj
 0001:00019460       ??0?$MToolHelp@UtagPROCESSENTRY32W@@$1?Process32FirstW@@YAHPEAXPEAU1@@Z$1?Process32NextW@@YAH01@Z@@QEAA@KK@Z 000000018001a460 f i common-kernel64:MProcess.obj
 0001:000194e8       ??_E?$MToolHelp@UtagPROCESSENTRY32W@@$1?Process32FirstW@@YAHPEAXPEAU1@@Z$1?Process32NextW@@YAH01@Z@@UEAAPEAXI@Z 000000018001a4e8 f i common-kernel64:MProcess.obj
 0001:000194e8       ??_EMToolHelpProcess@@UEAAPEAXI@Z 000000018001a4e8 f i common-kernel64:MProcess.obj
 0001:000194e8       ??_G?$MToolHelp@UtagPROCESSENTRY32W@@$1?Process32FirstW@@YAHPEAXPEAU1@@Z$1?Process32NextW@@YAH01@Z@@UEAAPEAXI@Z 000000018001a4e8 f i common-kernel64:MProcess.obj
 0001:000194e8       ??_GMToolHelpProcess@@UEAAPEAXI@Z 000000018001a4e8 f i common-kernel64:MProcess.obj
 0001:00019550       ?Close@?$MToolHelp@UtagPROCESSENTRY32W@@$1?Process32FirstW@@YAHPEAXPEAU1@@Z$1?Process32NextW@@YAH01@Z@@QEAAXXZ 000000018001a550 f i common-kernel64:MProcess.obj
 0001:000195d0       ?Filter@?$MToolHelp@UtagPROCESSENTRY32W@@$1?Process32FirstW@@YAHPEAXPEAU1@@Z$1?Process32NextW@@YAH01@Z@@MEAA_NAEBUtagPROCESSENTRY32W@@@Z 000000018001a5d0 f i common-kernel64:MProcess.obj
 0001:000195d0       __acrt_uninitialize_command_line 000000018001a5d0 f i libucrt:argv_data.obj
 0001:000195d4       ?Find@?$MToolHelp@UtagPROCESSENTRY32W@@$1?Process32FirstW@@YAHPEAXPEAU1@@Z$1?Process32NextW@@YAH01@Z@@QEAA_NAEBV?$function@$$A6A_NAEBUtagPROCESSENTRY32W@@@Z@std@@AEAUtagPROCESSENTRY32W@@@Z 000000018001a5d4 f i common-kernel64:MProcess.obj
 0001:000196e8       ?Find@MToolHelpProcess@@QEAA_NKAEAUtagPROCESSENTRY32W@@@Z 000000018001a6e8 f i common-kernel64:MProcess.obj
 0001:00019754       ?Next@?$MToolHelp@UtagPROCESSENTRY32W@@$1?Process32FirstW@@YAHPEAXPEAU1@@Z$1?Process32NextW@@YAH01@Z@@QEAA_NAEAUtagPROCESSENTRY32W@@@Z 000000018001a754 f i common-kernel64:MProcess.obj
 0001:0001983c       ?Open@?$MToolHelp@UtagPROCESSENTRY32W@@$1?Process32FirstW@@YAHPEAXPEAU1@@Z$1?Process32NextW@@YAH01@Z@@QEAA_NXZ 000000018001a83c f i common-kernel64:MProcess.obj
 0001:000198ac       ?_Copy@?$_Func_impl_no_alloc@V<lambda_217d18733db987cb8fc0adfd68028951>@@_NAEBUtagPROCESSENTRY32W@@@std@@EEBAPEAV?$_Func_base@_NAEBUtagPROCESSENTRY32W@@@2@PEAX@Z 000000018001a8ac f i common-kernel64:MProcess.obj
 0001:000198ac       ?_Move@?$_Func_impl_no_alloc@V<lambda_217d18733db987cb8fc0adfd68028951>@@_NAEBUtagPROCESSENTRY32W@@@std@@EEAAPEAV?$_Func_base@_NAEBUtagPROCESSENTRY32W@@@2@PEAX@Z 000000018001a8ac f i common-kernel64:MProcess.obj
 0001:000198c0       ?_Do_call@?$_Func_impl_no_alloc@V<lambda_217d18733db987cb8fc0adfd68028951>@@_NAEBUtagPROCESSENTRY32W@@@std@@EEAA_NAEBUtagPROCESSENTRY32W@@@Z 000000018001a8c0 f i common-kernel64:MProcess.obj
 0001:000198cc       ?_Target_type@?$_Func_impl_no_alloc@V<lambda_217d18733db987cb8fc0adfd68028951>@@_NAEBUtagPROCESSENTRY32W@@@std@@EEBAAEBVtype_info@@XZ 000000018001a8cc f i common-kernel64:MProcess.obj
 0001:000198d4       ?getNext@?$MToolHelp@UtagPROCESSENTRY32W@@$1?Process32FirstW@@YAHPEAXPEAU1@@Z$1?Process32NextW@@YAH01@Z@@IEAA_NXZ 000000018001a8d4 f i common-kernel64:MProcess.obj
 0001:00019974       ?isTerminalMode@@YA_NXZ    000000018001a974 f   common-kernel64:MProcess.obj
 0001:00019ab0       ??0MSection@@QEAA@XZ       000000018001aab0 f   common-kernel64:MSection.obj
 0001:00019b38       ??0MSectionLock@@QEAA@XZ   000000018001ab38 f   common-kernel64:MSection.obj
 0001:00019b48       ??0MSectionThread@@QEAA@PEAVMSection@@@Z 000000018001ab48 f   common-kernel64:MSection.obj
 0001:00019b68       ??1MSection@@QEAA@XZ       000000018001ab68 f   common-kernel64:MSection.obj
 0001:00019bd0       ??1MSectionLock@@QEAA@XZ   000000018001abd0 f   common-kernel64:MSection.obj
 0001:00019bf4       ??1MSectionThread@@QEAA@XZ 000000018001abf4 f   common-kernel64:MSection.obj
 0001:00019c30       ?AddRef@MSection@@IEAAXK@Z 000000018001ac30 f   common-kernel64:MSection.obj
 0001:00019cc4       ?Lock@MSection@@IEAAHHK@Z  000000018001acc4 f   common-kernel64:MSection.obj
 0001:00019dc0       ?Lock@MSectionLock@@QEAAHPEAVMSection@@HK@Z 000000018001adc0 f   common-kernel64:MSection.obj
 0001:00019e14       ?MyEnterCriticalSection@MSection@@IEAA_NK@Z 000000018001ae14 f   common-kernel64:MSection.obj
 0001:00019f40       ?ReleaseRef@MSection@@IEAAHK@Z 000000018001af40 f   common-kernel64:MSection.obj
 0001:00019fe0       ?Unlock@MSection@@IEAAXH@Z 000000018001afe0 f   common-kernel64:MSection.obj
 0001:0001a038       ?Unlock@MSectionLock@@QEAAXXZ 000000018001b038 f   common-kernel64:MSection.obj
 0001:0001a064       ?WaitUnlocked@MSection@@IEAAXKK@Z 000000018001b064 f   common-kernel64:MSection.obj
 0001:0001a0f8       ?CheckCallbackPtr@@YA_NPEAUHINSTANCE__@@_KPEAP6A_JXZHHH@Z 000000018001b0f8 f   common-kernel64:WModuleCheck.obj
 0001:0001a200       ?IsModuleValid@@YA_NPEAUHINSTANCE__@@H@Z 000000018001b200 f   common-kernel64:WModuleCheck.obj
 0001:0001a308       ??0MModule@@QEAA@PEAUHINSTANCE__@@@Z 000000018001b308 f   common-kernel64:MModule.obj
 0001:0001a318       ??1MModule@@QEAA@XZ        000000018001b318 f   common-kernel64:MModule.obj
 0001:0001a320       ?Free@MModule@@QEAAXXZ     000000018001b320 f   common-kernel64:MModule.obj
 0001:0001a358       ??0MSectionSimple@@QEAA@_N@Z 000000018001b358 f   common-kernel64:MSectionSimple.obj
 0001:0001a390       ?Close@MSectionSimple@@QEAAXXZ 000000018001b390 f   common-kernel64:MSectionSimple.obj
 0001:0001a390       ??1MSectionSimple@@QEAA@XZ 000000018001b390 f   common-kernel64:MSectionSimple.obj
 0001:0001a3b0       ?Enter@MSectionSimple@@QEAAXXZ 000000018001b3b0 f   common-kernel64:MSectionSimple.obj
 0001:0001a3b8       ?Init@MSectionSimple@@QEAAXXZ 000000018001b3b8 f   common-kernel64:MSectionSimple.obj
 0001:0001a3d8       ?Leave@MSectionSimple@@QEAAXXZ 000000018001b3d8 f   common-kernel64:MSectionSimple.obj
 0001:0001a3e0       ?RecreateAndLock@MSectionSimple@@QEAA_NXZ 000000018001b3e0 f   common-kernel64:MSectionSimple.obj
 0001:0001a450       ?TryEnter@MSectionSimple@@QEAA_NXZ 000000018001b450 f   common-kernel64:MSectionSimple.obj
 0001:0001a478       ?SetConEmuEnvHWND@@YAXPEB_WPEAUHWND__@@@Z 000000018001b478 f   common-user64:SetEnvVar.obj
 0001:0001a4d0       ?SetConEmuEnvVar@@YAXPEAUHWND__@@@Z 000000018001b4d0 f   common-user64:SetEnvVar.obj
 0001:0001a554       ?SetConEmuEnvVarChild@@YAXPEAUHWND__@@0@Z 000000018001b554 f   common-user64:SetEnvVar.obj
 0001:0001a580       ??$wcscpy_c@$0BAF@@@YAHAEAY0BAF@_WPEB_W@Z 000000018001b580 f i common-user64:ConEmuCheckEx.obj
 0001:0001a5cc       ?FindConEmuBaseDir@@YAHAEAY0BAF@_W0PEAUHINSTANCE__@@@Z 000000018001b5cc f   common-user64:ConEmuCheckEx.obj
 0001:0001ace0       ?IsConEmuExeExist@@YAHPEB_WAEAY0BAF@_W@Z 000000018001bce0 f   common-user64:ConEmuCheckEx.obj
 0001:0001ad8c       ??$swprintf_c@$0FA@@@YAHAEAY0FA@_WPEB_WZZ 000000018001bd8c f i common-user64:EmergencyShow.obj
 0001:0001adb8       ?CorrectConsolePos@@YAXPEAUHWND__@@@Z 000000018001bdb8 f   common-user64:EmergencyShow.obj
 0001:0001aed4       ?EmergencyShow@@YAXPEAUHWND__@@HH@Z 000000018001bed4 f   common-user64:EmergencyShow.obj
 0001:0001b014       ?EvaluateDefaultFontWidth@@YAHHPEB_W@Z 000000018001c014 f   common-user64:EmergencyShow.obj
 0001:0001b138       ?SetUserFriendlyFont@@YAXPEAUHWND__@@HH@Z 000000018001c138 f   common-user64:EmergencyShow.obj
 0001:0001b49c       ??0MSetter@@QEAA@PEAJ@Z    000000018001c49c f   common-user64:MSetter.obj
 0001:0001b4b4       ??1MSetter@@QEAA@XZ        000000018001c4b4 f   common-user64:MSetter.obj
 0001:0001b4bc       ?Unlock@MSetter@@QEAAXXZ   000000018001c4bc f   common-user64:MSetter.obj
 0001:0001b51c       ?IsDotsName@@YA_NPEB_W@Z   000000018001c51c f   common-user64:WFiles.obj
 0001:0001b540       ?SearchAppPaths@@YA_NPEB_WAEAUCEStr@@_NPEAVCEnvRestorer@@@Z 000000018001c540 f   common-user64:WFiles.obj
 0001:0001b9d0       ?GetConsoleSizeInfo@@YAXPEAUCONSOLE_INFO@@@Z 000000018001c9d0 f   common-user64:WConsoleEx.obj
 0001:0001ba5c       ?SetConsoleFontSizeTo@@YAXPEAUHWND__@@HHPEB_WGG@Z 000000018001ca5c f   common-user64:WConsoleEx.obj
 0001:0001be44       ?SetConsoleInfo@@YAHPEAUHWND__@@PEAUCONSOLE_INFO@@@Z 000000018001ce44 f   common-user64:WConsoleEx.obj
 0001:0001c04c       ?SetEnvVarExpanded@@YAXPEB_W0@Z 000000018001d04c f   common-user64:WUser.obj
 0001:0001c134       ?UpdateComspec@@YAXPEAUConEmuComspec@@_N@Z 000000018001d134 f   common-user64:WUser.obj
 0001:0001c47c       ?apiShowWindow@@YA_NPEAUHWND__@@H@Z 000000018001d47c f   common-user64:WUser.obj
 0001:0001c490       ?apiShowWindowAsync@@YA_NPEAUHWND__@@H@Z 000000018001d490 f   common-user64:WUser.obj
 0001:0001c4a4       ?RegGetStringValue@@YAHPEAUHKEY__@@PEB_W1AEAUCEStr@@K@Z 000000018001d4a4 f   common-user64:WRegistry.obj
 0001:0001c67c       ?FindMonitorsWorkspace@@YAHPEAUHMONITOR__@@PEAUHDC__@@PEAUtagRECT@@_J@Z 000000018001d67c f   common-user64:Monitors.obj
 0001:0001c6b8       ?GetAllMonitorsWorkspace@@YA?AUtagRECT@@XZ 000000018001d6b8 f   common-user64:Monitors.obj
 0001:0001c718       ??0bad_function_call@std@@QEAA@AEBV01@@Z 000000018001d718 f i libcpmt:xthrow.obj
 0001:0001c754       ??0bad_function_call@std@@QEAA@XZ 000000018001d754 f i libcpmt:xthrow.obj
 0001:0001c76c       ??0length_error@std@@QEAA@AEBV01@@Z 000000018001d76c f i libcpmt:xthrow.obj
 0001:0001c7a8       ??0length_error@std@@QEAA@PEBD@Z 000000018001d7a8 f i libcpmt:xthrow.obj
 0001:0001c7f0       ??0logic_error@std@@QEAA@AEBV01@@Z 000000018001d7f0 f i libcpmt:xthrow.obj
 0001:0001c82c       ?_Xbad_function_call@std@@YAXXZ 000000018001d82c f   libcpmt:xthrow.obj
 0001:0001c84c       ?_Xlength_error@std@@YAXPEBD@Z 000000018001d84c f   libcpmt:xthrow.obj
 0001:0001c870       ?what@bad_function_call@std@@UEBAPEBDXZ 000000018001d870 f i libcpmt:xthrow.obj
 0001:0001c878       __GSHandlerCheck           000000018001d878 f   LIBCMT:gshandler.obj
 0001:0001c898       __GSHandlerCheckCommon     000000018001d898 f   LIBCMT:gshandler.obj
 0001:0001c910       __security_check_cookie    000000018001d910 f   LIBCMT:amdsecgs.obj
 0001:0001c934       ??3@YAXPEAX_K@Z            000000018001d934 f   LIBCMT:delete_scalar_size.obj
 0001:0001c950       _alloca_probe              000000018001d950 f   LIBCMT:chkstk.obj
 0001:0001c950       __chkstk                   000000018001d950 f   LIBCMT:chkstk.obj
 0001:0001c9a4       ??_Etype_info@@UEAAPEAXI@Z 000000018001d9a4 f i LIBCMT:std_type_info_static.obj
 0001:0001c9a4       ??_Gtype_info@@UEAAPEAXI@Z 000000018001d9a4 f i LIBCMT:std_type_info_static.obj
 0001:0001c9d0       __GSHandlerCheck_EH4       000000018001d9d0 f   LIBCMT:gshandlereh4.obj
 0001:0001cb48       _Init_thread_footer        000000018001db48 f   LIBCMT:thread_safe_statics.obj
 0001:0001cba8       _Init_thread_header        000000018001dba8 f   LIBCMT:thread_safe_statics.obj
 0001:0001cc10       _Init_thread_notify        000000018001dc10 f   LIBCMT:thread_safe_statics.obj
 0001:0001cc54       _Init_thread_wait          000000018001dc54 f   LIBCMT:thread_safe_statics.obj
 0001:0001cfd8       _DllMainCRTStartup         000000018001dfd8 f   LIBCMT:dll_dllmain.obj
 0001:0001d018       __scrt_acquire_startup_lock 000000018001e018 f   LIBCMT:utility.obj
 0001:0001d054       __scrt_dllmain_after_initialize_c 000000018001e054 f   LIBCMT:utility.obj
 0001:0001d088       __scrt_dllmain_before_initialize_c 000000018001e088 f   LIBCMT:utility.obj
 0001:0001d0a0       __scrt_dllmain_crt_thread_attach 000000018001e0a0 f   LIBCMT:utility.obj
 0001:0001d0c8       __scrt_dllmain_crt_thread_detach 000000018001e0c8 f   LIBCMT:utility.obj
 0001:0001d0e0       __scrt_dllmain_exception_filter 000000018001e0e0 f   LIBCMT:utility.obj
 0001:0001d140       __scrt_dllmain_uninitialize_c 000000018001e140 f   LIBCMT:utility.obj
 0001:0001d170       __scrt_dllmain_uninitialize_critical 000000018001e170 f   LIBCMT:utility.obj
 0001:0001d184       __scrt_initialize_crt      000000018001e184 f   LIBCMT:utility.obj
 0001:0001d1d0       __scrt_initialize_onexit_tables 000000018001e1d0 f   LIBCMT:utility.obj
 0001:0001d25c       __scrt_is_nonwritable_in_current_image 000000018001e25c f   LIBCMT:utility.obj
 0001:0001d2f4       __scrt_release_startup_lock 000000018001e2f4 f   LIBCMT:utility.obj
 0001:0001d318       __scrt_uninitialize_crt    000000018001e318 f   LIBCMT:utility.obj
 0001:0001d344       _onexit                    000000018001e344 f   LIBCMT:utility.obj
 0001:0001d380       atexit                     000000018001e380 f   LIBCMT:utility.obj
 0001:0001d398       __raise_securityfailure    000000018001e398 f   LIBCMT:gs_report.obj
 0001:0001d3cc       __report_gsfailure         000000018001e3cc f   LIBCMT:gs_report.obj
 0001:0001d4a0       __report_rangecheckfailure 000000018001e4a0 f   LIBCMT:gs_report.obj
 0001:0001d4b4       __report_securityfailure   000000018001e4b4 f   LIBCMT:gs_report.obj
 0001:0001d634       __crt_debugger_hook        000000018001e634 f   LIBCMT:utility_desktop.obj
 0001:0001d63c       __scrt_fastfail            000000018001e63c f   LIBCMT:utility_desktop.obj
 0001:0001d788       __security_init_cookie     000000018001e788 f   LIBCMT:gs_support.obj
 0001:0001d834       ?__scrt_initialize_type_info@@YAXXZ 000000018001e834 f   LIBCMT:tncleanup.obj
 0001:0001d844       ?__scrt_uninitialize_type_info@@YAXXZ 000000018001e844 f   LIBCMT:tncleanup.obj
 0001:0001d850       __local_stdio_scanf_options 000000018001e850 f i LIBCMT:default_local_stdio_options.obj
 0001:0001d858       __scrt_initialize_default_local_stdio_options 000000018001e858 f   LIBCMT:default_local_stdio_options.obj
 0001:0001d874       __scrt_get_dyn_tls_init_callback 000000018001e874 f   LIBCMT:dyn_tls_init.obj
 0001:0001d87c       _RTC_Initialize            000000018001e87c f   LIBCMT:initsect.obj
 0001:0001d8b8       _RTC_Terminate             000000018001e8b8 f   LIBCMT:initsect.obj
 0001:0001d8f4       __isa_available_init       000000018001e8f4 f   LIBCMT:cpu_disp.obj
 0001:0001da98       __scrt_is_ucrt_dll_in_use  000000018001ea98 f   LIBCMT:ucrt_detection.obj
 0001:0001dab0       ??$_CallSETranslator@V__FrameHandler4@@@@YAHPEAUEHExceptionRecord@@PEA_KPEAU_CONTEXT@@PEAU_xDISPATCHER_CONTEXT@@PEAUFuncInfo4@FH4@@K1H@Z 000000018001eab0 f i libvcruntime:risctrnsctrl.obj
 0001:0001db04       ?DecompFuncInfo@FH4@@YA_JPEAEAEAUFuncInfo4@1@_KH_N@Z 000000018001eb04 f i libvcruntime:risctrnsctrl.obj
 0001:0001dc28       ?ExecutionInCatch@__FrameHandler4@@SA_NPEAU_xDISPATCHER_CONTEXT@@PEAUFuncInfo4@FH4@@@Z 000000018001ec28 f   libvcruntime:risctrnsctrl.obj
 0001:0001dc30       ?FrameUnwindToEmptyState@__FrameHandler4@@SAXPEA_KPEAU_xDISPATCHER_CONTEXT@@PEAUFuncInfo4@FH4@@@Z 000000018001ec30 f   libvcruntime:risctrnsctrl.obj
 0001:0001dc64       ?GetEstablisherFrame@__FrameHandler4@@SAPEA_KPEA_KPEAU_xDISPATCHER_CONTEXT@@PEAUFuncInfo4@FH4@@0@Z 000000018001ec64 f   libvcruntime:risctrnsctrl.obj
 0001:0001dc88       ?GetRangeOfTrysToCheck@__FrameHandler4@@SA?AU?$pair@Viterator@TryBlockMap4@FH4@@V123@@std@@AEAVTryBlockMap4@FH4@@HPEAU_xDISPATCHER_CONTEXT@@PEAUFuncInfo4@5@H@Z 000000018001ec88 f   libvcruntime:risctrnsctrl.obj
 0001:0001ddf0       ?UnwindNestedFrames@__FrameHandler4@@SAXPEA_KPEAUEHExceptionRecord@@PEAU_CONTEXT@@0PEAXPEAUFuncInfo4@FH4@@HHPEAUHandlerType4@5@PEAU_xDISPATCHER_CONTEXT@@E@Z 000000018001edf0 f   libvcruntime:risctrnsctrl.obj
 0001:0001df10       ?setBuffer@TryBlockMap4@FH4@@QEAAXViterator@12@@Z 000000018001ef10 f i libvcruntime:risctrnsctrl.obj
 0001:0001e0d0       _CreateFrameInfo           000000018001f0d0 f   libvcruntime:risctrnsctrl.obj
 0001:0001e10c       _FindAndUnlinkFrame        000000018001f10c f   libvcruntime:risctrnsctrl.obj
 0001:0001e160       _GetImageBase              000000018001f160 f   libvcruntime:risctrnsctrl.obj
 0001:0001e174       _GetThrowImageBase         000000018001f174 f   libvcruntime:risctrnsctrl.obj
 0001:0001e188       _SetImageBase              000000018001f188 f   libvcruntime:risctrnsctrl.obj
 0001:0001e1a0       _SetThrowImageBase         000000018001f1a0 f   libvcruntime:risctrnsctrl.obj
 0001:0001e1b8       __CxxFrameHandler4         000000018001f1b8 f   libvcruntime:risctrnsctrl.obj
 0001:0001e290       memcpy_repmovs             000000018001f290 f   libvcruntime:memcpy.obj
 0001:0001e2b0       memmove                    000000018001f2b0 f   libvcruntime:memcpy.obj
 0001:0001e2b0       memcpy                     000000018001f2b0 f   libvcruntime:memcpy.obj
 0001:0001e688       wcschr                     000000018001f688 f   libvcruntime:wcschr.obj
 0001:0001e704       wcsstr                     000000018001f704 f   libvcruntime:wcsstr.obj
 0001:0001e930       memset_repmovs             000000018001f930 f   libvcruntime:memset.obj
 0001:0001e950       memset                     000000018001f950 f   libvcruntime:memset.obj
 0001:0001eaf0       __DestructExceptionObject  000000018001faf0 f   libvcruntime:ehhelpers.obj
 0001:0001eb60       ?_CallMemberFunction0@@YAXQEAX0@Z 000000018001fb60 f i libvcruntime:ehhelpers.obj
 0001:0001eb64       _IsExceptionObjectToBeDestroyed 000000018001fb64 f   libvcruntime:ehhelpers.obj
 0001:0001eb94       __AdjustPointer            000000018001fb94 f   libvcruntime:ehhelpers.obj
 0001:0001ebb8       __FrameUnwindFilter        000000018001fbb8 f   libvcruntime:ehhelpers.obj
 0001:0001ec20       __std_terminate            000000018001fc20 f   libvcruntime:ehhelpers.obj
 0001:0001ec2c       __std_exception_copy       000000018001fc2c f   libvcruntime:std_exception.obj
 0001:0001ecbc       __std_exception_destroy    000000018001fcbc f   libvcruntime:std_exception.obj
 0001:0001ece4       _CxxThrowException         000000018001fce4 f   libvcruntime:throw.obj
 0001:0001ed84       _get_purecall_handler      000000018001fd84 f   libvcruntime:purevirt.obj
 0001:0001ed8c       _purecall                  000000018001fd8c f   libvcruntime:purevirt.obj
 0001:0001eda8       wcsrchr                    000000018001fda8 f   libvcruntime:wcsrchr.obj
 0001:0001ee70       memcmp                     000000018001fe70 f   libvcruntime:memcmp.obj
 0001:0001ef38       __C_specific_handler       000000018001ff38 f   libvcruntime:riscchandler.obj
 0001:0001f14c       strrchr                    000000018002014c f   libvcruntime:strrchr.obj
 0001:0001f27c       strchr                     000000018002027c f   libvcruntime:strchr.obj
 0001:0001f2fc       __vcrt_initialize          00000001800202fc f   libvcruntime:initialization.obj
 0001:0001f324       __vcrt_thread_attach       0000000180020324 f   libvcruntime:initialization.obj
 0001:0001f338       __vcrt_thread_detach       0000000180020338 f   libvcruntime:initialization.obj
 0001:0001f34c       __vcrt_uninitialize        000000018002034c f   libvcruntime:initialization.obj
 0001:0001f368       __vcrt_uninitialize_critical 0000000180020368 f   libvcruntime:initialization.obj
 0001:0001f378       __std_type_info_compare    0000000180020378 f   libvcruntime:std_type_info.obj
 0001:0001f3a0       __std_type_info_destroy_list 00000001800203a0 f   libvcruntime:std_type_info.obj
 0001:0001f3cc       __vcrt_freefls             00000001800203cc f   libvcruntime:per_thread_data.obj
 0001:0001f3ec       __vcrt_freeptd             00000001800203ec f   libvcruntime:per_thread_data.obj
 0001:0001f43c       __vcrt_getptd              000000018002043c f   libvcruntime:per_thread_data.obj
 0001:0001f458       __vcrt_getptd_noexit       0000000180020458 f   libvcruntime:per_thread_data.obj
 0001:0001f518       __vcrt_initialize_ptd      0000000180020518 f   libvcruntime:per_thread_data.obj
 0001:0001f560       __vcrt_uninitialize_ptd    0000000180020560 f   libvcruntime:per_thread_data.obj
 0001:0001f584       ?StateFromControlPc@__FrameHandler4@@SAHPEAUFuncInfo4@FH4@@PEAU_xDISPATCHER_CONTEXT@@@Z 0000000180020584 f   libvcruntime:ehstate.obj
 0001:0001f58c       ?StateFromIp@__FrameHandler4@@SAHPEAUFuncInfo4@FH4@@PEAU_xDISPATCHER_CONTEXT@@_K@Z 000000018002058c f   libvcruntime:ehstate.obj
 0001:0002022c       ??$TypeMatchHelper@V__FrameHandler3@@@@YAHPEBU_s_HandlerType@@PEBU_s_CatchableType@@PEBU_s_ThrowInfo@@@Z 000000018002122c f i libvcruntime:frame.obj
 0001:0002036c       ??$TypeMatchHelper@V__FrameHandler4@@@@YAHPEAUHandlerType4@FH4@@PEBU_s_CatchableType@@PEBU_s_ThrowInfo@@@Z 000000018002136c f i libvcruntime:frame.obj
 0001:000204b0       ??$__InternalCxxFrameHandler@V__FrameHandler4@@@@YA?AW4_EXCEPTION_DISPOSITION@@PEAUEHExceptionRecord@@PEA_KPEAU_CONTEXT@@PEAU_xDISPATCHER_CONTEXT@@PEAUFuncInfo4@FH4@@H1E@Z 00000001800214b0 f i libvcruntime:frame.obj
 0001:00020750       ??0HandlerMap4@FH4@@QEAA@PEBUTryBlockMapEntry4@1@_KH@Z 0000000180021750 f i libvcruntime:frame.obj
 0001:000207cc       ??0TryBlockMap4@FH4@@QEAA@PEBUFuncInfo4@1@_K@Z 00000001800217cc f i libvcruntime:frame.obj
 0001:000208a4       ??0bad_exception@std@@QEAA@AEBV01@@Z 00000001800218a4 f i libvcruntime:frame.obj
 0001:000208e0       ??0bad_exception@std@@QEAA@XZ 00000001800218e0 f i libvcruntime:frame.obj
 0001:00020900       ?CxxCallCatchBlock@__FrameHandler4@@SAPEAXPEAU_EXCEPTION_RECORD@@@Z 0000000180021900 f   libvcruntime:frame.obj
 0001:00020b5c       ?DecompHandler@HandlerMap4@FH4@@AEAAXXZ 0000000180021b5c f i libvcruntime:frame.obj
 0001:00020d9c       ?FrameUnwindToState@__FrameHandler4@@SAXPEA_KPEAU_xDISPATCHER_CONTEXT@@PEAUFuncInfo4@FH4@@H@Z 0000000180021d9c f   libvcruntime:frame.obj
 0001:000211fc       ?ReadEntry@UWMap4@FH4@@AEAAXPEAPEAE@Z 00000001800221fc f i libvcruntime:frame.obj
 0001:0002129c       ?_CallMemberFunction1@@YAXQEAX00@Z 000000018002229c f i libvcruntime:frame.obj
 0001:000212a8       ?_CallMemberFunction2@@YAXQEAX00H@Z 00000001800222a8 f i libvcruntime:frame.obj
 0001:000212b8       ?getStartStop@UWMap4@FH4@@QEAAXHHAEAViterator@12@0@Z 00000001800222b8 f i libvcruntime:frame.obj
 0001:00021388       ?getStateFromIterators@UWMap4@FH4@@SAHAEBViterator@12@H0H0@Z 0000000180022388 f i libvcruntime:frame.obj
 0001:00021460       _NLG_Notify                0000000180022460 f   libvcruntime:notify.obj
 0001:00021480       __NLG_Dispatch2            0000000180022480 f   libvcruntime:notify.obj
 0001:00021490       __NLG_Return2              0000000180022490 f   libvcruntime:notify.obj
 0001:00021494       __except_validate_context_record 0000000180022494 f   libvcruntime:jbcxrval.obj
 0001:000214cc       __vcrt_initialize_locks    00000001800224cc f   libvcruntime:locks.obj
 0001:00021500       __vcrt_uninitialize_locks  0000000180022500 f   libvcruntime:locks.obj
 0001:00021684       __vcrt_FlsAlloc            0000000180022684 f   libvcruntime:winapi_downlevel.obj
 0001:000216cc       __vcrt_FlsFree             00000001800226cc f   libvcruntime:winapi_downlevel.obj
 0001:00021714       __vcrt_FlsGetValue         0000000180022714 f   libvcruntime:winapi_downlevel.obj
 0001:0002175c       __vcrt_FlsSetValue         000000018002275c f   libvcruntime:winapi_downlevel.obj
 0001:000217b0       __vcrt_InitializeCriticalSectionEx 00000001800227b0 f   libvcruntime:winapi_downlevel.obj
 0001:00021830       _CallSettingFrame          0000000180022830 f   libvcruntime:handlers.obj
 0001:00021880       _CallSettingFrame_LookupContinuationIndex 0000000180022880 f   libvcruntime:handlers.obj
 0001:000218b0       _CallSettingFrame_NotifyContinuationAddr 00000001800228b0 f   libvcruntime:handlers.obj
 0001:000218e0       _CallSettingFrameEncoded   00000001800228e0 f   libvcruntime:handlers.obj
 0001:00021cc8       ??$ensure_buffer_is_big_enough@D@formatting_buffer@__crt_stdio_output@@QEAA_N_K@Z 0000000180022cc8 f i libucrt:output.obj
 0001:00021d70       ??$ensure_buffer_is_big_enough@_W@formatting_buffer@__crt_stdio_output@@QEAA_N_K@Z 0000000180022d70 f i libucrt:output.obj
 0001:00021e1c       ??$is_wide_character_specifier@_W@__crt_stdio_output@@YA_N_K_WW4length_modifier@0@@Z 0000000180022e1c f i libucrt:output.obj
 0001:00021e5c       ??$type_case_integer_parse_into_buffer@I@?$output_processor@DV?$string_output_adapter@D@__crt_stdio_output@@V?$standard_base@DV?$string_output_adapter@D@__crt_stdio_output@@@2@@__crt_stdio_output@@AEAAXII_N@Z 0000000180022e5c f i libucrt:output.obj
 0001:00021ee4       ??$type_case_integer_parse_into_buffer@I@?$output_processor@_WV?$string_output_adapter@_W@__crt_stdio_output@@V?$standard_base@_WV?$string_output_adapter@_W@__crt_stdio_output@@@2@@__crt_stdio_output@@AEAAXII_N@Z 0000000180022ee4 f i libucrt:output.obj
 0001:00021f88       ??$type_case_integer_parse_into_buffer@_K@?$output_processor@DV?$string_output_adapter@D@__crt_stdio_output@@V?$standard_base@DV?$string_output_adapter@D@__crt_stdio_output@@@2@@__crt_stdio_output@@AEAAX_KI_N@Z 0000000180022f88 f i libucrt:output.obj
 0001:00022018       ??$type_case_integer_parse_into_buffer@_K@?$output_processor@_WV?$string_output_adapter@_W@__crt_stdio_output@@V?$standard_base@_WV?$string_output_adapter@_W@__crt_stdio_output@@@2@@__crt_stdio_output@@AEAAX_KI_N@Z 0000000180023018 f i libucrt:output.obj
 0001:000220bc       ??$write_multiple_characters@V?$string_output_adapter@D@__crt_stdio_output@@D@__crt_stdio_output@@YAXAEBV?$string_output_adapter@D@0@DHQEAH@Z 00000001800230bc f i libucrt:output.obj
 0001:00022134       ??$write_multiple_characters@V?$string_output_adapter@_W@__crt_stdio_output@@D@__crt_stdio_output@@YAXAEBV?$string_output_adapter@_W@0@DHQEAH@Z 0000000180023134 f i libucrt:output.obj
 0001:000221ac       ??0_LocaleUpdate@@QEAA@QEAU__crt_locale_pointers@@@Z 00000001800231ac f i libucrt:output.obj
 0001:00022250       ?crop_zeroes@__crt_stdio_output@@YAXPEADQEAU__crt_locale_pointers@@@Z 0000000180023250 f i libucrt:output.obj
 0001:000222f0       ?force_decimal_point@__crt_stdio_output@@YAXPEADQEAU__crt_locale_pointers@@@Z 00000001800232f0 f i libucrt:output.obj
 0001:00022368       ?parse_int_from_format_string@?$output_processor@DV?$string_output_adapter@D@__crt_stdio_output@@V?$standard_base@DV?$string_output_adapter@D@__crt_stdio_output@@@2@@__crt_stdio_output@@AEAA_NQEAH@Z 0000000180023368 f i libucrt:output.obj
 0001:0002240c       ?parse_int_from_format_string@?$output_processor@_WV?$string_output_adapter@_W@__crt_stdio_output@@V?$standard_base@_WV?$string_output_adapter@_W@__crt_stdio_output@@@2@@__crt_stdio_output@@AEAA_NQEAH@Z 000000018002340c f i libucrt:output.obj
 0001:000224b0       ?process@?$output_processor@DV?$string_output_adapter@D@__crt_stdio_output@@V?$standard_base@DV?$string_output_adapter@D@__crt_stdio_output@@@2@@__crt_stdio_output@@QEAAHXZ 00000001800234b0 f i libucrt:output.obj
 0001:000226b8       ?process@?$output_processor@_WV?$string_output_adapter@_W@__crt_stdio_output@@V?$standard_base@_WV?$string_output_adapter@_W@__crt_stdio_output@@@2@@__crt_stdio_output@@QEAAHXZ 00000001800236b8 f i libucrt:output.obj
 0001:00022924       ?state_case_normal@?$output_processor@DV?$string_output_adapter@D@__crt_stdio_output@@V?$standard_base@DV?$string_output_adapter@D@__crt_stdio_output@@@2@@__crt_stdio_output@@AEAA_NXZ 0000000180023924 f i libucrt:output.obj
 0001:00022998       ?state_case_normal_tchar@?$output_processor@DV?$string_output_adapter@D@__crt_stdio_output@@V?$standard_base@DV?$string_output_adapter@D@__crt_stdio_output@@@2@@__crt_stdio_output@@AEAA_ND@Z 0000000180023998 f i libucrt:output.obj
 0001:00022a40       ?state_case_size@?$output_processor@DV?$string_output_adapter@D@__crt_stdio_output@@V?$standard_base@DV?$string_output_adapter@D@__crt_stdio_output@@@2@@__crt_stdio_output@@AEAA_NXZ 0000000180023a40 f i libucrt:output.obj
 0001:00022bb0       ?state_case_size@?$output_processor@_WV?$string_output_adapter@_W@__crt_stdio_output@@V?$standard_base@_WV?$string_output_adapter@_W@__crt_stdio_output@@@2@@__crt_stdio_output@@AEAA_NXZ 0000000180023bb0 f i libucrt:output.obj
 0001:00022d44       ?state_case_type@?$output_processor@DV?$string_output_adapter@D@__crt_stdio_output@@V?$standard_base@DV?$string_output_adapter@D@__crt_stdio_output@@@2@@__crt_stdio_output@@AEAA_NXZ 0000000180023d44 f i libucrt:output.obj
 0001:00022fac       ?state_case_type@?$output_processor@_WV?$string_output_adapter@_W@__crt_stdio_output@@V?$standard_base@_WV?$string_output_adapter@_W@__crt_stdio_output@@@2@@__crt_stdio_output@@AEAA_NXZ 0000000180023fac f i libucrt:output.obj
 0001:00023280       ?to_integer_size@__crt_stdio_output@@YA_KW4length_modifier@1@@Z 0000000180024280 f i libucrt:output.obj
 0001:000232e8       ?type_case_Z@?$output_processor@DV?$string_output_adapter@D@__crt_stdio_output@@V?$standard_base@DV?$string_output_adapter@D@__crt_stdio_output@@@2@@__crt_stdio_output@@AEAA_NXZ 00000001800242e8 f i libucrt:output.obj
 0001:0002335c       ?type_case_Z@?$output_processor@_WV?$string_output_adapter@_W@__crt_stdio_output@@V?$standard_base@_WV?$string_output_adapter@_W@__crt_stdio_output@@@2@@__crt_stdio_output@@AEAA_NXZ 000000018002435c f i libucrt:output.obj
 0001:000233d8       ?type_case_a@?$output_processor@DV?$string_output_adapter@D@__crt_stdio_output@@V?$standard_base@DV?$string_output_adapter@D@__crt_stdio_output@@@2@@__crt_stdio_output@@AEAA_NXZ 00000001800243d8 f i libucrt:output.obj
 0001:00023594       ?type_case_a@?$output_processor@_WV?$string_output_adapter@_W@__crt_stdio_output@@V?$standard_base@_WV?$string_output_adapter@_W@__crt_stdio_output@@@2@@__crt_stdio_output@@AEAA_NXZ 0000000180024594 f i libucrt:output.obj
 0001:00023774       ?type_case_c_tchar@?$output_processor@DV?$string_output_adapter@D@__crt_stdio_output@@V?$standard_base@DV?$string_output_adapter@D@__crt_stdio_output@@@2@@__crt_stdio_output@@AEAA_ND@Z 0000000180024774 f i libucrt:output.obj
 0001:0002383c       ?type_case_c_tchar@?$output_processor@_WV?$string_output_adapter@_W@__crt_stdio_output@@V?$standard_base@_WV?$string_output_adapter@_W@__crt_stdio_output@@@2@@__crt_stdio_output@@AEAA_N_W@Z 000000018002483c f i libucrt:output.obj
 0001:000238e4       ?type_case_integer@?$output_processor@DV?$string_output_adapter@D@__crt_stdio_output@@V?$standard_base@DV?$string_output_adapter@D@__crt_stdio_output@@@2@@__crt_stdio_output@@AEAA_NI_N@Z 00000001800248e4 f i libucrt:output.obj
 0001:00023a64       ?type_case_integer@?$output_processor@_WV?$string_output_adapter@_W@__crt_stdio_output@@V?$standard_base@_WV?$string_output_adapter@_W@__crt_stdio_output@@@2@@__crt_stdio_output@@AEAA_NI_N@Z 0000000180024a64 f i libucrt:output.obj
 0001:00023bec       ?type_case_n@?$output_processor@_WV?$string_output_adapter@_W@__crt_stdio_output@@V?$standard_base@_WV?$string_output_adapter@_W@__crt_stdio_output@@@2@@__crt_stdio_output@@AEAA_NXZ 0000000180024bec f i libucrt:output.obj
 0001:00023bec       ?type_case_n@?$output_processor@DV?$string_output_adapter@D@__crt_stdio_output@@V?$standard_base@DV?$string_output_adapter@D@__crt_stdio_output@@@2@@__crt_stdio_output@@AEAA_NXZ 0000000180024bec f i libucrt:output.obj
 0001:00023c74       ?type_case_s@?$output_processor@DV?$string_output_adapter@D@__crt_stdio_output@@V?$standard_base@DV?$string_output_adapter@D@__crt_stdio_output@@@2@@__crt_stdio_output@@AEAA_NXZ 0000000180024c74 f i libucrt:output.obj
 0001:00023d0c       ?type_case_s@?$output_processor@_WV?$string_output_adapter@_W@__crt_stdio_output@@V?$standard_base@_WV?$string_output_adapter@_W@__crt_stdio_output@@@2@@__crt_stdio_output@@AEAA_NXZ 0000000180024d0c f i libucrt:output.obj
 0001:00023dd4       ?write_stored_string_tchar@?$output_processor@DV?$string_output_adapter@D@__crt_stdio_output@@V?$standard_base@DV?$string_output_adapter@D@__crt_stdio_output@@@2@@__crt_stdio_output@@AEAA_ND@Z 0000000180024dd4 f i libucrt:output.obj
 0001:00023eb0       ?write_stored_string_tchar@?$output_processor@_WV?$string_output_adapter@_W@__crt_stdio_output@@V?$standard_base@_WV?$string_output_adapter@_W@__crt_stdio_output@@@2@@__crt_stdio_output@@AEAA_N_W@Z 0000000180024eb0 f i libucrt:output.obj
 0001:00023f98       ?write_string@?$string_output_adapter@D@__crt_stdio_output@@QEBAXQEBDHQEAHAEAV__crt_deferred_errno_cache@@@Z 0000000180024f98 f i libucrt:output.obj
 0001:0002403c       ?write_string@?$string_output_adapter@_W@__crt_stdio_output@@QEBAXQEB_WHQEAHAEAV__crt_deferred_errno_cache@@@Z 000000018002503c f i libucrt:output.obj
 0001:000240e4       __stdio_common_vsprintf    00000001800250e4 f   libucrt:output.obj
 0001:000240ec       __stdio_common_vswprintf   00000001800250ec f   libucrt:output.obj
 0001:000240f4       ??$parse_integer@KV?$c_string_character_source@D@__crt_strtox@@@__crt_strtox@@YAKQEAU__crt_locale_pointers@@V?$c_string_character_source@D@0@H_N@Z 00000001800250f4 f i libucrt:strtox.obj
 0001:000243f8       ??$parse_integer@KV?$c_string_character_source@_W@__crt_strtox@@@__crt_strtox@@YAKQEAU__crt_locale_pointers@@V?$c_string_character_source@_W@0@H_N@Z 00000001800253f8 f i libucrt:strtox.obj
 0001:00024aa0       _ischartype_l              0000000180025aa0 f i libucrt:strtox.obj
 0001:00024b18       strtol                     0000000180025b18 f   libucrt:strtox.obj
 0001:00024b44       wcstol                     0000000180025b44 f   libucrt:strtox.obj
 0001:00024b70       wcsncmp                    0000000180025b70 f   libucrt:wcsncmp.obj
 0001:00024b9c       __acrt_call_reportfault    0000000180025b9c f   libucrt:invalid_parameter.obj
 0001:00024cf8       __acrt_initialize_invalid_parameter_handler 0000000180025cf8 f   libucrt:invalid_parameter.obj
 0001:00024d00       _invalid_parameter         0000000180025d00 f   libucrt:invalid_parameter.obj
 0001:00024db0       _invalid_parameter_noinfo  0000000180025db0 f   libucrt:invalid_parameter.obj
 0001:00024dd0       _invoke_watson             0000000180025dd0 f   libucrt:invalid_parameter.obj
 0001:00024e18       __acrt_errno_from_os_error 0000000180025e18 f   libucrt:errno.obj
 0001:00024e60       __acrt_errno_map_os_error  0000000180025e60 f   libucrt:errno.obj
 0001:00024eb0       __doserrno                 0000000180025eb0 f   libucrt:errno.obj
 0001:00024ed0       _errno                     0000000180025ed0 f   libucrt:errno.obj
 0001:00024ef0       _initterm                  0000000180025ef0 f   libucrt:initterm.obj
 0001:00024f54       _initterm_e                0000000180025f54 f   libucrt:initterm.obj
 0001:00024f94       _seh_filter_dll            0000000180025f94 f   libucrt:exception_filter.obj
 0001:00024fa8       _seh_filter_exe            0000000180025fa8 f   libucrt:exception_filter.obj
 0001:00025398       __acrt_initialize_thread_local_exit_callback 0000000180026398 f   libucrt:exit.obj
 0001:000253a0       _cexit                     00000001800263a0 f   libucrt:exit.obj
 0001:000253b0       _exit                      00000001800263b0 f   libucrt:exit.obj
 0001:000253bc       _is_c_termination_complete 00000001800263bc f   libucrt:exit.obj
 0001:00025584       __acrt_allocate_buffer_for_argv 0000000180026584 f   libucrt:argv_parsing.obj
 0001:000255e4       _configure_narrow_argv     00000001800265e4 f   libucrt:argv_parsing.obj
 0001:0002595c       __dcrt_uninitialize_environments_nolock 000000018002695c f   libucrt:environment_initialization.obj
 0001:00025994       _initialize_narrow_environment 0000000180026994 f   libucrt:environment_initialization.obj
 0001:00025cdc       _crt_atexit                0000000180026cdc f   libucrt:onexit.obj
 0001:00025cec       _execute_onexit_table      0000000180026cec f   libucrt:onexit.obj
 0001:00025d28       _initialize_onexit_table   0000000180026d28 f   libucrt:onexit.obj
 0001:00025d50       _register_onexit_function  0000000180026d50 f   libucrt:onexit.obj
 0001:00025ec4       __acrt_initialize          0000000180026ec4 f   libucrt:initialization.obj
 0001:00025ed8       __acrt_thread_attach       0000000180026ed8 f   libucrt:initialization.obj
 0001:00025eec       __acrt_thread_detach       0000000180026eec f   libucrt:initialization.obj
 0001:00025efc       __acrt_uninitialize        0000000180026efc f   libucrt:initialization.obj
 0001:00025f34       __acrt_uninitialize_critical 0000000180026f34 f   libucrt:initialization.obj
 0001:00025f44       terminate                  0000000180026f44 f   libucrt:terminate.obj
 0001:00025f64       abort                      0000000180026f64 f   libucrt:abort.obj
 0001:00025fbc       free                       0000000180026fbc f   libucrt:free.obj
 0001:00025fd0       malloc                     0000000180026fd0 f   libucrt:malloc.obj
 0001:00025fd8       strcpy_s                   0000000180026fd8 f   libucrt:strcpy_s.obj
 0001:00026038       calloc                     0000000180027038 f   libucrt:calloc.obj
 0001:00026050       strncmp                    0000000180027050 f   libucrt:strncmp.obj
 0001:000260d0       _free_base                 00000001800270d0 f   libucrt:free_base.obj
 0001:00026110       _malloc_base               0000000180027110 f   libucrt:malloc_base.obj
 0001:00026170       _mbtowc_l                  0000000180027170 f   libucrt:mbtowc.obj
 0001:000262f0       mbtowc                     00000001800272f0 f   libucrt:mbtowc.obj
 0001:000262f8       _wctomb_s_l                00000001800272f8 f   libucrt:wctomb.obj
 0001:00026494       strnlen                    0000000180027494 f   libucrt:strnlen.obj
 0001:000265e4       wcsnlen                    00000001800275e4 f   libucrt:strnlen.obj
 0001:00026b34       __acrt_freeptd             0000000180027b34 f   libucrt:per_thread_data.obj
 0001:00026b78       __acrt_getptd              0000000180027b78 f   libucrt:per_thread_data.obj
 0001:00026c4c       __acrt_getptd_head         0000000180027c4c f   libucrt:per_thread_data.obj
 0001:00026cf4       __acrt_getptd_noexit       0000000180027cf4 f   libucrt:per_thread_data.obj
 0001:00026dc0       __acrt_initialize_ptd      0000000180027dc0 f   libucrt:per_thread_data.obj
 0001:00026dfc       __acrt_uninitialize_ptd    0000000180027dfc f   libucrt:per_thread_data.obj
 0001:00026e20       __acrt_update_locale_info  0000000180027e20 f   libucrt:locale_update.obj
 0001:00026e54       __acrt_update_multibyte_info 0000000180027e54 f   libucrt:locale_update.obj
 0001:00027894       __acrt_fp_format           0000000180028894 f   libucrt:cvt.obj
 0001:00027bcc       _fileno                    0000000180028bcc f   libucrt:fileno.obj
 0001:00027bf4       __acrt_initialize_stdio    0000000180028bf4 f   libucrt:_file.obj
 0001:00027d14       __acrt_uninitialize_stdio  0000000180028d14 f   libucrt:_file.obj
 0001:00027d70       _lock_file                 0000000180028d70 f   libucrt:_file.obj
 0001:00027d7c       _unlock_file               0000000180028d7c f   libucrt:_file.obj
 0001:00027d88       _get_printf_count_output   0000000180028d88 f   libucrt:printf_count_output.obj
 0001:00027e10       __acrt_set_locale_changed  0000000180028e10 f   libucrt:wsetlocale.obj
 0001:00027e1c       __acrt_uninitialize_locale 0000000180028e1c f   libucrt:wsetlocale.obj
 0001:00028048       __acrt_initialize_lowio    0000000180029048 f   libucrt:ioinit.obj
 0001:00028084       __acrt_uninitialize_lowio  0000000180029084 f   libucrt:ioinit.obj
 0001:000280c4       __pctype_func              00000001800290c4 f   libucrt:ctype.obj
 0001:000280f4       iswctype                   00000001800290f4 f   libucrt:iswctype.obj
 0001:00028160       _isctype_l                 0000000180029160 f   libucrt:isctype.obj
 0001:00028268       __acrt_initialize_locks    0000000180029268 f   libucrt:locks.obj
 0001:000282b0       __acrt_lock                00000001800292b0 f   libucrt:locks.obj
 0001:000282cc       __acrt_uninitialize_locks  00000001800292cc f   libucrt:locks.obj
 0001:00028304       __acrt_unlock              0000000180029304 f   libucrt:locks.obj
 0001:00028320       __acrt_get_process_end_policy 0000000180029320 f   libucrt:win_policies.obj
 0001:0002835c       _calloc_base               000000018002935c f   libucrt:calloc_base.obj
 0001:000283e8       ??$__acrt_mbs_to_wcs_cp@U__crt_win32_buffer_internal_dynamic_resizing@@@@YAHQEBDAEAV?$__crt_win32_buffer@_WU__crt_win32_buffer_internal_dynamic_resizing@@@@I@Z 00000001800293e8 f i libucrt:argv_wildcards.obj
 0001:00028560       ??$__acrt_wcs_to_mbs_cp@U__crt_win32_buffer_internal_dynamic_resizing@@@@YAHQEB_WAEAV?$__crt_win32_buffer@DU__crt_win32_buffer_internal_dynamic_resizing@@@@I@Z 0000000180029560 f i libucrt:argv_wildcards.obj
 0001:00028d90       __acrt_expand_narrow_argv_wildcards 0000000180029d90 f   libucrt:argv_wildcards.obj
 0001:00028d98       ??$__acrt_wcs_to_mbs_cp@U__crt_win32_buffer_no_resizing@@@@YAHQEB_WAEAV?$__crt_win32_buffer@DU__crt_win32_buffer_no_resizing@@@@I@Z 0000000180029d98 f i libucrt:getmodulefilenamea.obj
 0001:00028eac       __acrt_GetModuleFileNameA  0000000180029eac f   libucrt:getmodulefilenamea.obj
 0001:000296f4       __acrt_initialize_multibyte 000000018002a6f4 f   libucrt:mbctype.obj
 0001:00029754       __acrt_update_thread_multibyte_data 000000018002a754 f   libucrt:mbctype.obj
 0001:00029770       _setmbcp_nolock            000000018002a770 f   libucrt:mbctype.obj
 0001:00029aa4       _ismbblead                 000000018002aaa4 f   libucrt:ismbbyte.obj
 0001:00029ab8       __acrt_initialize_command_line 000000018002aab8 f   libucrt:argv_data.obj
 0001:00029ae0       __acrt_MultiByteToWideChar 000000018002aae0 f   libucrt:multibytetowidechar.obj
 0001:00029b3c       __acrt_WideCharToMultiByte 000000018002ab3c f   libucrt:widechartomultibyte.obj
 0001:00029bec       __dcrt_get_narrow_environment_from_os 000000018002abec f   libucrt:get_environment_from_os.obj
 0001:00029cf0       _recalloc_base             000000018002acf0 f   libucrt:recalloc.obj
 0001:00029f60       __acrt_AppPolicyGetProcessTerminationMethodInternal 000000018002af60 f   libucrt:winapi_thunks.obj
 0001:00029fb0       __acrt_AreFileApisANSI     000000018002afb0 f   libucrt:winapi_thunks.obj
 0001:00029fec       __acrt_FlsAlloc            000000018002afec f   libucrt:winapi_thunks.obj
 0001:0002a034       __acrt_FlsFree             000000018002b034 f   libucrt:winapi_thunks.obj
 0001:0002a07c       __acrt_FlsGetValue         000000018002b07c f   libucrt:winapi_thunks.obj
 0001:0002a0c4       __acrt_FlsSetValue         000000018002b0c4 f   libucrt:winapi_thunks.obj
 0001:0002a118       __acrt_InitializeCriticalSectionEx 000000018002b118 f   libucrt:winapi_thunks.obj
 0001:0002a17c       __acrt_LCMapStringEx       000000018002b17c f   libucrt:winapi_thunks.obj
 0001:0002a258       __acrt_LocaleNameToLCID    000000018002b258 f   libucrt:winapi_thunks.obj
 0001:0002a2a8       __acrt_initialize_winapi_thunks 000000018002b2a8 f   libucrt:winapi_thunks.obj
 0001:0002a2dc       __acrt_uninitialize_winapi_thunks 000000018002b2dc f   libucrt:winapi_thunks.obj
 0001:0002a320       __acrt_initialize_heap     000000018002b320 f   libucrt:heap_handle.obj
 0001:0002a33c       __acrt_uninitialize_heap   000000018002b33c f   libucrt:heap_handle.obj
 0001:0002a348       __acrt_execute_initializers 000000018002b348 f   libucrt:shared_initialization.obj
 0001:0002a3c8       __acrt_execute_uninitializers 000000018002b3c8 f   libucrt:shared_initialization.obj
 0001:0002a404       __acrt_initialize_new_handler 000000018002b404 f   libucrt:new_handler.obj
 0001:0002a40c       _callnewh                  000000018002b40c f   libucrt:new_handler.obj
 0001:0002a43c       _query_new_handler         000000018002b43c f   libucrt:new_handler.obj
 0001:0002a4b8       __acrt_get_sigabrt_handler 000000018002b4b8 f   libucrt:signal.obj
 0001:0002a4e8       __acrt_initialize_signal_handlers 000000018002b4e8 f   libucrt:signal.obj
 0001:0002a508       raise                      000000018002b508 f   libucrt:signal.obj
 0001:0002a774       __acrt_has_user_matherr    000000018002b774 f   libucrt:matherr.obj
 0001:0002a794       __acrt_initialize_user_matherr 000000018002b794 f   libucrt:matherr.obj
 0001:0002a79c       __acrt_invoke_user_matherr 000000018002b79c f   libucrt:matherr.obj
 0001:0002a9a8       __acrt_stdio_flush_nolock  000000018002b9a8 f   libucrt:fflush.obj
 0001:0002aa24       _fflush_nolock             000000018002ba24 f   libucrt:fflush.obj
 0001:0002aa70       _flushall                  000000018002ba70 f   libucrt:fflush.obj
 0001:0002aa78       _query_new_mode            000000018002ba78 f   libucrt:new_mode.obj
 0001:0002aa80       _isleadbyte_l              000000018002ba80 f i libucrt:_wctype.obj
 0001:0002aacc       ?__mbrtowc_utf8@__crt_mbstring@@YA_KPEA_WPEBD_KPEAU_Mbstatet@@@Z 000000018002bacc f   libucrt:mbrtowc.obj
 0001:0002ab08       ?__mbsrtowcs_utf8@__crt_mbstring@@YA_KPEA_WPEAPEBD_KPEAU_Mbstatet@@@Z 000000018002bb08 f   libucrt:mbrtowc.obj
 0001:0002ac80       ?__c32rtomb_utf8@__crt_mbstring@@YA_KPEAD_UPEAU_Mbstatet@@@Z 000000018002bc80 f   libucrt:c32rtomb.obj
 0001:0002ad34       __acrt_add_locale_ref      000000018002bd34 f   libucrt:locale_refcounting.obj
 0001:0002adc0       __acrt_free_locale         000000018002bdc0 f   libucrt:locale_refcounting.obj
 0001:0002af38       __acrt_locale_add_lc_time_reference 000000018002bf38 f   libucrt:locale_refcounting.obj
 0001:0002af60       __acrt_locale_free_lc_time_if_unreferenced 000000018002bf60 f   libucrt:locale_refcounting.obj
 0001:0002af98       __acrt_locale_release_lc_time_reference 000000018002bf98 f   libucrt:locale_refcounting.obj
 0001:0002afc0       __acrt_release_locale_ref  000000018002bfc0 f   libucrt:locale_refcounting.obj
 0001:0002b068       __acrt_update_thread_locale_data 000000018002c068 f   libucrt:locale_refcounting.obj
 0001:0002b0d8       _updatetlocinfoEx_nolock   000000018002c0d8 f   libucrt:locale_refcounting.obj
 0001:0002b140       __acrt_fp_strflt_to_string 000000018002c140 f   libucrt:_fptostr.obj
 0001:0002b2a0       ?divide@__crt_strtox@@YA_KAEAUbig_integer@1@AEBU21@@Z 000000018002c2a0 f i libucrt:cfout.obj
 0001:0002b6cc       __acrt_fltout              000000018002c6cc f   libucrt:cfout.obj
 0001:0002c998       fegetround                 000000018002d998 f   libucrt:fegetround.obj
 0001:0002c9ac       _fcloseall                 000000018002d9ac f   libucrt:closeall.obj
 0001:0002ca60       __acrt_stdio_free_buffer_nolock 000000018002da60 f   libucrt:_freebuf.obj
 0001:0002caa0       _isatty                    000000018002daa0 f   libucrt:isatty.obj
 0001:0002cb00       __acrt_locale_free_monetary 000000018002db00 f   libucrt:initmon.obj
 0001:0002cc0c       __acrt_locale_free_numeric 000000018002dc0c f   libucrt:initnum.obj
 0001:0002ccd0       __acrt_locale_free_time    000000018002dcd0 f   libucrt:inittime.obj
 0001:0002cdd8       __acrt_GetStringTypeA      000000018002ddd8 f   libucrt:getstringtypea.obj
 0001:0002cf68       __acrt_lowio_create_handle_array 000000018002df68 f   libucrt:osfinfo.obj
 0001:0002d010       __acrt_lowio_destroy_handle_array 000000018002e010 f   libucrt:osfinfo.obj
 0001:0002d060       __acrt_lowio_ensure_fh_exists 000000018002e060 f   libucrt:osfinfo.obj
 0001:0002d108       __acrt_lowio_lock_fh       000000018002e108 f   libucrt:osfinfo.obj
 0001:0002d130       __acrt_lowio_unlock_fh     000000018002e130 f   libucrt:osfinfo.obj
 0001:0002d158       _free_osfhnd               000000018002e158 f   libucrt:osfinfo.obj
 0001:0002d214       _get_osfhandle             000000018002e214 f   libucrt:osfinfo.obj
 0001:0002d28c       __acrt_GetStringTypeW      000000018002e28c f   libucrt:getstringtypew.obj
 0001:0002d2a0       qsort                      000000018002e2a0 f   libucrt:qsort.obj
 0001:0002d640       strncpy_s                  000000018002e640 f   libucrt:strncpy_s.obj
 0001:0002d7c0       strpbrk                    000000018002e7c0 f   libucrt:strpbrk.obj
 0001:0002db88       _mbsdec                    000000018002eb88 f   libucrt:mbsdec.obj
 0001:0002db90       _mbsdec_l                  000000018002eb90 f   libucrt:mbsdec.obj
 0001:0002df3c       __acrt_LCMapStringA        000000018002ef3c f   libucrt:lcmapstringa.obj
 0001:0002dfec       _msize_base                000000018002efec f   libucrt:msize.obj
 0001:0002e028       _realloc_base              000000018002f028 f   libucrt:realloc_base.obj
 0001:0002e0a4       __acrt_DownlevelLocaleNameToLCID 000000018002f0a4 f   libucrt:lcidtoname_downlevel.obj
 0001:0002e1e0       _commit                    000000018002f1e0 f   libucrt:commit.obj
 0001:0002eaf0       _write                     000000018002faf0 f   libucrt:write.obj
 0001:0002ebdc       _write_nolock              000000018002fbdc f   libucrt:write.obj
 0001:0002eec0       ?__mbrtoc32_utf8@__crt_mbstring@@YA_KPEA_UPEBD_KPEAU_Mbstatet@@@Z 000000018002fec0 f   libucrt:mbrtoc32.obj
 0001:0002f098       _controlfp_s               0000000180030098 f   libucrt:contrlfp.obj
 0001:0002f0fc       fegetenv                   00000001800300fc f   libucrt:fegetenv.obj
 0001:0002f11c       fesetenv                   000000018003011c f   libucrt:fesetenv.obj
 0001:0002f168       feholdexcept               0000000180030168 f   libucrt:feholdexcept.obj
 0001:0002f1b8       ceil                       00000001800301b8 f   libucrt:ceil.obj
 0001:0002f280       log10                      0000000180030280 f   libucrt:log10.obj
 0001:0002f82c       __acrt_fenv_get_common_round_control 000000018003082c f   libucrt:_fenvutils.obj
 0001:0002f838       __acrt_fenv_get_control    0000000180030838 f   libucrt:_fenvutils.obj
 0001:0002f92c       __acrt_fenv_get_status     000000018003092c f   libucrt:_fenvutils.obj
 0001:0002f980       __acrt_fenv_set_control    0000000180030980 f   libucrt:_fenvutils.obj
 0001:0002fac8       __acrt_fenv_set_status     0000000180030ac8 f   libucrt:_fenvutils.obj
 0001:0002fbe8       _lseeki64_nolock           0000000180030be8 f   libucrt:lseek.obj
 0001:0002fbf0       _fclose_nolock             0000000180030bf0 f   libucrt:fclose.obj
 0001:0002fc74       fclose                     0000000180030c74 f   libucrt:fclose.obj
 0001:0002fcd8       __ascii_wcsnicmp           0000000180030cd8 f   libucrt:wcsnicmp.obj
 0001:0002fd24       _query_app_type            0000000180030d24 f   libucrt:report_runtime_error.obj
 0001:0002fd2c       __strncnt                  0000000180030d2c f   libucrt:strncnt.obj
 0001:0002fd44       _putwch_nolock             0000000180030d44 f   libucrt:putwch.obj
 0001:0002fd80       _clearfp                   0000000180030d80 f   libucrt:ieee.obj
 0001:0002fdf0       _control87                 0000000180030df0 f   libucrt:ieee.obj
 0001:000301dc       _handle_error              00000001800311dc f   libucrt:libm_error.obj
 0001:00030304       _handle_nan                0000000180031304 f   libucrt:libm_error.obj
 0001:00030320       __acrt_initialize_fma3     0000000180031320 f   libucrt:fma3_available.obj
 0001:00030390       _log10_special             0000000180031390 f   libucrt:log_special.obj
 0001:000304bc       _close                     00000001800314bc f   libucrt:close.obj
 0001:00030560       _close_nolock              0000000180031560 f   libucrt:close.obj
 0001:00030620       ?__acrt_stdio_free_stream@@YAXV__crt_stdio_stream@@@Z 0000000180031620 f   libucrt:stream.obj
 0001:0003063c       __dcrt_lowio_ensure_console_output_initialized 000000018003163c f   libucrt:initcon.obj
 0001:00030690       __dcrt_terminate_console_output 0000000180031690 f   libucrt:initcon.obj
 0001:000306ac       __dcrt_write_console       00000001800316ac f   libucrt:initcon.obj
 0001:00030780       _get_fpsr                  0000000180031780 f   libucrt:fpsr.obj
 0001:00030790       _set_fpsr                  0000000180031790 f   libucrt:fpsr.obj
 0001:0003079a       _fclrf                     000000018003179a f   libucrt:fpsr.obj
 0001:000307ae       _frnd                      00000001800317ae f   libucrt:fpsr.obj
 0001:000307d0       _raise_exc                 00000001800317d0 f   libucrt:fpexcept.obj
 0001:000307f8       _raise_exc_ex              00000001800317f8 f   libucrt:fpexcept.obj
 0001:00030b08       _set_errno_from_matherr    0000000180031b08 f   libucrt:fpexcept.obj
 0001:00030b38       _clrfp                     0000000180031b38 f   libucrt:fpctrl.obj
 0001:00030b58       _ctrlfp                    0000000180031b58 f   libucrt:fpctrl.obj
 0001:00030bd4       _set_statfp                0000000180031bd4 f   libucrt:fpctrl.obj
 0001:00030bf4       _statfp                    0000000180031bf4 f   libucrt:fpctrl.obj
 0001:00030c05       Process32FirstW            0000000180031c05 f   kernel32:KERNEL32.dll
 0001:00030c0b       Process32NextW             0000000180031c0b f   kernel32:KERNEL32.dll
 0001:00030c11       IsProcessorFeaturePresent  0000000180031c11 f   kernel32:KERNEL32.dll
 0001:00030c18       ?apiGetConsoleFontSize@@YAHPEAXAEAH1AEAY0CA@_W@Z 0000000180031c18 f   common-kernel64:WConsole.obj
 0001:00030ce0       ?apiGetCurrentConsoleFontEx@@YAHPEAXHPEAUMY_CONSOLE_FONT_INFOEX@@@Z 0000000180031ce0 f   common-kernel64:WConsole.obj
 0001:00030d5c       ?apiSetConsoleFontSize@@YAHPEAXHHPEB_W@Z 0000000180031d5c f   common-kernel64:WConsole.obj
 0001:00030ec8       ?apiSetCurrentConsoleFontEx@@YAHPEAXHPEAUMY_CONSOLE_FONT_INFOEX@@@Z 0000000180031ec8 f   common-kernel64:WConsole.obj
 0001:00030f50       _FindPESection             0000000180031f50 f   LIBCMT:pesect.obj
 0001:00030fa0       _IsNonwritableInCurrentImage 0000000180031fa0 f   LIBCMT:pesect.obj
 0001:00030ff0       _ValidateImageBase         0000000180031ff0 f   LIBCMT:pesect.obj
 0001:00031020       __GSHandlerCheck_SEH       0000000180032020 f   LIBCMT:gshandlerseh.obj
 0001:000310c0       _guard_dispatch_icall_nop  00000001800320c0 f   LIBCMT:guard_dispatch.obj
 0001:000310e0       _guard_xfg_dispatch_icall_nop 00000001800320e0 f   LIBCMT:guard_xfg_dispatch.obj
 0002:00000000       __imp_RegQueryValueExW     0000000180033000     advapi32:ADVAPI32.dll
 0002:00000008       __imp_RegOpenKeyExW        0000000180033008     advapi32:ADVAPI32.dll
 0002:00000010       __imp_RegCloseKey          0000000180033010     advapi32:ADVAPI32.dll
 0002:00000018       __imp_RegCreateKeyExW      0000000180033018     advapi32:ADVAPI32.dll
 0002:00000020       \177ADVAPI32_NULL_THUNK_DATA 0000000180033020     advapi32:ADVAPI32.dll
 0002:00000028       __imp_GdiFlush             0000000180033028     gdi32:GDI32.dll
 0002:00000030       __imp_GetEnhMetaFileBits   0000000180033030     gdi32:GDI32.dll
 0002:00000038       __imp_DeleteEnhMetaFile    0000000180033038     gdi32:GDI32.dll
 0002:00000040       __imp_CreateEnhMetaFileW   0000000180033040     gdi32:GDI32.dll
 0002:00000048       __imp_CloseEnhMetaFile     0000000180033048     gdi32:GDI32.dll
 0002:00000050       __imp_GetDeviceCaps        0000000180033050     gdi32:GDI32.dll
 0002:00000058       __imp_DeleteObject         0000000180033058     gdi32:GDI32.dll
 0002:00000060       __imp_CreateSolidBrush     0000000180033060     gdi32:GDI32.dll
 0002:00000068       __imp_CreateCompatibleDC   0000000180033068     gdi32:GDI32.dll
 0002:00000070       __imp_CreateFontIndirectW  0000000180033070     gdi32:GDI32.dll
 0002:00000078       __imp_DeleteDC             0000000180033078     gdi32:GDI32.dll
 0002:00000080       __imp_SelectObject         0000000180033080     gdi32:GDI32.dll
 0002:00000088       __imp_GetTextMetricsW      0000000180033088     gdi32:GDI32.dll
 0002:00000090       \177GDI32_NULL_THUNK_DATA  0000000180033090     gdi32:GDI32.dll
 0002:00000098       __imp_CreateEventW         0000000180033098     kernel32:KERNEL32.dll
 0002:000000a0       __imp_Sleep                00000001800330a0     kernel32:KERNEL32.dll
 0002:000000a8       __imp_WaitForMultipleObjects 00000001800330a8     kernel32:KERNEL32.dll
 0002:000000b0       __imp_CreateSemaphoreW     00000001800330b0     kernel32:KERNEL32.dll
 0002:000000b8       __imp_GetCurrentProcess    00000001800330b8     kernel32:KERNEL32.dll
 0002:000000c0       __imp_TerminateProcess     00000001800330c0     kernel32:KERNEL32.dll
 0002:000000c8       __imp_GetExitCodeProcess   00000001800330c8     kernel32:KERNEL32.dll
 0002:000000d0       __imp_GetCurrentThreadId   00000001800330d0     kernel32:KERNEL32.dll
 0002:000000d8       __imp_SuspendThread        00000001800330d8     kernel32:KERNEL32.dll
 0002:000000e0       __imp_ResumeThread         00000001800330e0     kernel32:KERNEL32.dll
 0002:000000e8       __imp_CreateProcessW       00000001800330e8     kernel32:KERNEL32.dll
 0002:000000f0       __imp_GetTickCount         00000001800330f0     kernel32:KERNEL32.dll
 0002:000000f8       __imp_VirtualQuery         00000001800330f8     kernel32:KERNEL32.dll
 0002:00000100       __imp_CreateFileMappingW   0000000180033100     kernel32:KERNEL32.dll
 0002:00000108       __imp_OpenFileMappingW     0000000180033108     kernel32:KERNEL32.dll
 0002:00000110       __imp_MapViewOfFile        0000000180033110     kernel32:KERNEL32.dll
 0002:00000118       __imp_UnmapViewOfFile      0000000180033118     kernel32:KERNEL32.dll
 0002:00000120       __imp_GetModuleFileNameW   0000000180033120     kernel32:KERNEL32.dll
 0002:00000128       __imp_lstrcmpW             0000000180033128     kernel32:KERNEL32.dll
 0002:00000130       __imp_lstrcmpiW            0000000180033130     kernel32:KERNEL32.dll
 0002:00000138       __imp_lstrcatW             0000000180033138     kernel32:KERNEL32.dll
 0002:00000140       __imp_IsBadStringPtrW      0000000180033140     kernel32:KERNEL32.dll
 0002:00000148       __imp_GetConsoleMode       0000000180033148     kernel32:KERNEL32.dll
 0002:00000150       __imp_SetConsoleMode       0000000180033150     kernel32:KERNEL32.dll
 0002:00000158       __imp_GetNumberOfConsoleInputEvents 0000000180033158     kernel32:KERNEL32.dll
 0002:00000160       __imp_ReadConsoleInputW    0000000180033160     kernel32:KERNEL32.dll
 0002:00000168       __imp_lstrcpynA            0000000180033168     kernel32:KERNEL32.dll
 0002:00000170       __imp_GetConsoleCursorInfo 0000000180033170     kernel32:KERNEL32.dll
 0002:00000178       __imp_GetConsoleScreenBufferInfo 0000000180033178     kernel32:KERNEL32.dll
 0002:00000180       __imp_WriteConsoleInputW   0000000180033180     kernel32:KERNEL32.dll
 0002:00000188       __imp_GetConsoleTitleW     0000000180033188     kernel32:KERNEL32.dll
 0002:00000190       __imp_SetConsoleTitleW     0000000180033190     kernel32:KERNEL32.dll
 0002:00000198       __imp_WaitForSingleObject  0000000180033198     kernel32:KERNEL32.dll
 0002:000001a0       __imp_Thread32First        00000001800331a0     kernel32:KERNEL32.dll
 0002:000001a8       __imp_Thread32Next         00000001800331a8     kernel32:KERNEL32.dll
 0002:000001b0       __imp_Module32FirstW       00000001800331b0     kernel32:KERNEL32.dll
 0002:000001b8       __imp_Module32NextW        00000001800331b8     kernel32:KERNEL32.dll
 0002:000001c0       __imp_FlushFileBuffers     00000001800331c0     kernel32:KERNEL32.dll
 0002:000001c8       __imp_ReadFile             00000001800331c8     kernel32:KERNEL32.dll
 0002:000001d0       __imp_WriteFile            00000001800331d0     kernel32:KERNEL32.dll
 0002:000001d8       __imp_ConnectNamedPipe     00000001800331d8     kernel32:KERNEL32.dll
 0002:000001e0       __imp_DisconnectNamedPipe  00000001800331e0     kernel32:KERNEL32.dll
 0002:000001e8       __imp_CreateNamedPipeW     00000001800331e8     kernel32:KERNEL32.dll
 0002:000001f0       __imp_GetOverlappedResult  00000001800331f0     kernel32:KERNEL32.dll
 0002:000001f8       __imp_SetThreadPriority    00000001800331f8     kernel32:KERNEL32.dll
 0002:00000200       __imp_GetExitCodeThread    0000000180033200     kernel32:KERNEL32.dll
 0002:00000208       __imp_lstrlenW             0000000180033208     kernel32:KERNEL32.dll
 0002:00000210       __imp_lstrcpyW             0000000180033210     kernel32:KERNEL32.dll
 0002:00000218       __imp_lstrcpynW            0000000180033218     kernel32:KERNEL32.dll
 0002:00000220       __imp_CloseHandle          0000000180033220     kernel32:KERNEL32.dll
 0002:00000228       __imp_SetEnvironmentVariableW 0000000180033228     kernel32:KERNEL32.dll
 0002:00000230       __imp_VirtualProtect       0000000180033230     kernel32:KERNEL32.dll
 0002:00000238       __imp_LoadLibraryW         0000000180033238     kernel32:KERNEL32.dll
 0002:00000240       __imp_GetProcAddress       0000000180033240     kernel32:KERNEL32.dll
 0002:00000248       __imp_GetModuleHandleW     0000000180033248     kernel32:KERNEL32.dll
 0002:00000250       __imp_GetCurrentProcessId  0000000180033250     kernel32:KERNEL32.dll
 0002:00000258       __imp_GetLastError         0000000180033258     kernel32:KERNEL32.dll
 0002:00000260       __imp_ReleaseSemaphore     0000000180033260     kernel32:KERNEL32.dll
 0002:00000268       __imp_ResetEvent           0000000180033268     kernel32:KERNEL32.dll
 0002:00000270       __imp_SetEvent             0000000180033270     kernel32:KERNEL32.dll
 0002:00000278       __imp_SetLastError         0000000180033278     kernel32:KERNEL32.dll
 0002:00000280       __imp_IsDebuggerPresent    0000000180033280     kernel32:KERNEL32.dll
 0002:00000288       __imp_DeleteFileW          0000000180033288     kernel32:KERNEL32.dll
 0002:00000290       __imp_GetEnvironmentVariableW 0000000180033290     kernel32:KERNEL32.dll
 0002:00000298       __imp_GetEnvironmentStringsW 0000000180033298     kernel32:KERNEL32.dll
 0002:000002a0       __imp_GetStdHandle         00000001800332a0     kernel32:KERNEL32.dll
 0002:000002a8       __imp_WideCharToMultiByte  00000001800332a8     kernel32:KERNEL32.dll
 0002:000002b0       __imp_MultiByteToWideChar  00000001800332b0     kernel32:KERNEL32.dll
 0002:000002b8       __imp_lstrlenA             00000001800332b8     kernel32:KERNEL32.dll
 0002:000002c0       __imp_CreateToolhelp32Snapshot 00000001800332c0     kernel32:KERNEL32.dll
 0002:000002c8       __imp_lstrcpyA             00000001800332c8     kernel32:KERNEL32.dll
 0002:000002d0       __imp_PeekConsoleInputW    00000001800332d0     kernel32:KERNEL32.dll
 0002:000002d8       __imp_FreeLibrary          00000001800332d8     kernel32:KERNEL32.dll
 0002:000002e0       __imp_HeapCreate           00000001800332e0     kernel32:KERNEL32.dll
 0002:000002e8       __imp_HeapDestroy          00000001800332e8     kernel32:KERNEL32.dll
 0002:000002f0       __imp_HeapAlloc            00000001800332f0     kernel32:KERNEL32.dll
 0002:000002f8       __imp_HeapReAlloc          00000001800332f8     kernel32:KERNEL32.dll
 0002:00000300       __imp_HeapFree             0000000180033300     kernel32:KERNEL32.dll
 0002:00000308       __imp_CreateFileW          0000000180033308     kernel32:KERNEL32.dll
 0002:00000310       __imp_SetNamedPipeHandleState 0000000180033310     kernel32:KERNEL32.dll
 0002:00000318       __imp_TransactNamedPipe    0000000180033318     kernel32:KERNEL32.dll
 0002:00000320       __imp_WaitNamedPipeW       0000000180033320     kernel32:KERNEL32.dll
 0002:00000328       __imp_GetConsoleWindow     0000000180033328     kernel32:KERNEL32.dll
 0002:00000330       __imp_DebugBreak           0000000180033330     kernel32:KERNEL32.dll
 0002:00000338       __imp_RaiseException       0000000180033338     kernel32:KERNEL32.dll
 0002:00000340       __imp_CreateThread         0000000180033340     kernel32:KERNEL32.dll
 0002:00000348       __imp_TerminateThread      0000000180033348     kernel32:KERNEL32.dll
 0002:00000350       __imp_FreeEnvironmentStringsW 0000000180033350     kernel32:KERNEL32.dll
 0002:00000358       __imp_ExpandEnvironmentStringsW 0000000180033358     kernel32:KERNEL32.dll
 0002:00000360       __imp_WriteConsoleW        0000000180033360     kernel32:KERNEL32.dll
 0002:00000368       __imp_LocalAlloc           0000000180033368     kernel32:KERNEL32.dll
 0002:00000370       __imp_LocalFree            0000000180033370     kernel32:KERNEL32.dll
 0002:00000378       __imp_VerSetConditionMask  0000000180033378     kernel32:KERNEL32.dll
 0002:00000380       __imp_FindClose            0000000180033380     kernel32:KERNEL32.dll
 0002:00000388       __imp_FindFirstFileW       0000000180033388     kernel32:KERNEL32.dll
 0002:00000390       __imp_FindNextFileW        0000000180033390     kernel32:KERNEL32.dll
 0002:00000398       __imp_GetFileInformationByHandle 0000000180033398     kernel32:KERNEL32.dll
 0002:000003a0       __imp_VerifyVersionInfoW   00000001800333a0     kernel32:KERNEL32.dll
 0002:000003a8       __imp_Process32FirstW      00000001800333a8     kernel32:KERNEL32.dll
 0002:000003b0       __imp_Process32NextW       00000001800333b0     kernel32:KERNEL32.dll
 0002:000003b8       __imp_OpenThread           00000001800333b8     kernel32:KERNEL32.dll
 0002:000003c0       __imp_GetSystemInfo        00000001800333c0     kernel32:KERNEL32.dll
 0002:000003c8       __imp_VirtualAlloc         00000001800333c8     kernel32:KERNEL32.dll
 0002:000003d0       __imp_VirtualFree          00000001800333d0     kernel32:KERNEL32.dll
 0002:000003d8       __imp_IsBadReadPtr         00000001800333d8     kernel32:KERNEL32.dll
 0002:000003e0       __imp_InitializeCriticalSection 00000001800333e0     kernel32:KERNEL32.dll
 0002:000003e8       __imp_EnterCriticalSection 00000001800333e8     kernel32:KERNEL32.dll
 0002:000003f0       __imp_LeaveCriticalSection 00000001800333f0     kernel32:KERNEL32.dll
 0002:000003f8       __imp_TryEnterCriticalSection 00000001800333f8     kernel32:KERNEL32.dll
 0002:00000400       __imp_DeleteCriticalSection 0000000180033400     kernel32:KERNEL32.dll
 0002:00000408       __imp_ReleaseMutex         0000000180033408     kernel32:KERNEL32.dll
 0002:00000410       __imp_CreateMutexW         0000000180033410     kernel32:KERNEL32.dll
 0002:00000418       __imp_GetConsoleOutputCP   0000000180033418     kernel32:KERNEL32.dll
 0002:00000420       __imp_GetStartupInfoW      0000000180033420     kernel32:KERNEL32.dll
 0002:00000428       __imp_InitializeCriticalSectionAndSpinCount 0000000180033428     kernel32:KERNEL32.dll
 0002:00000430       __imp_WaitForSingleObjectEx 0000000180033430     kernel32:KERNEL32.dll
 0002:00000438       __imp_RtlCaptureContext    0000000180033438     kernel32:KERNEL32.dll
 0002:00000440       __imp_RtlLookupFunctionEntry 0000000180033440     kernel32:KERNEL32.dll
 0002:00000448       __imp_RtlVirtualUnwind     0000000180033448     kernel32:KERNEL32.dll
 0002:00000450       __imp_UnhandledExceptionFilter 0000000180033450     kernel32:KERNEL32.dll
 0002:00000458       __imp_SetUnhandledExceptionFilter 0000000180033458     kernel32:KERNEL32.dll
 0002:00000460       __imp_IsProcessorFeaturePresent 0000000180033460     kernel32:KERNEL32.dll
 0002:00000468       __imp_QueryPerformanceCounter 0000000180033468     kernel32:KERNEL32.dll
 0002:00000470       __imp_GetSystemTimeAsFileTime 0000000180033470     kernel32:KERNEL32.dll
 0002:00000478       __imp_InitializeSListHead  0000000180033478     kernel32:KERNEL32.dll
 0002:00000480       __imp_RtlUnwindEx          0000000180033480     kernel32:KERNEL32.dll
 0002:00000488       __imp_RtlPcToFileHeader    0000000180033488     kernel32:KERNEL32.dll
 0002:00000490       __imp_InterlockedFlushSList 0000000180033490     kernel32:KERNEL32.dll
 0002:00000498       __imp_EncodePointer        0000000180033498     kernel32:KERNEL32.dll
 0002:000004a0       __imp_TlsAlloc             00000001800334a0     kernel32:KERNEL32.dll
 0002:000004a8       __imp_TlsGetValue          00000001800334a8     kernel32:KERNEL32.dll
 0002:000004b0       __imp_TlsSetValue          00000001800334b0     kernel32:KERNEL32.dll
 0002:000004b8       __imp_TlsFree              00000001800334b8     kernel32:KERNEL32.dll
 0002:000004c0       __imp_LoadLibraryExW       00000001800334c0     kernel32:KERNEL32.dll
 0002:000004c8       __imp_ExitProcess          00000001800334c8     kernel32:KERNEL32.dll
 0002:000004d0       __imp_GetModuleHandleExW   00000001800334d0     kernel32:KERNEL32.dll
 0002:000004d8       __imp_GetFileType          00000001800334d8     kernel32:KERNEL32.dll
 0002:000004e0       __imp_FindFirstFileExW     00000001800334e0     kernel32:KERNEL32.dll
 0002:000004e8       __imp_IsValidCodePage      00000001800334e8     kernel32:KERNEL32.dll
 0002:000004f0       __imp_GetACP               00000001800334f0     kernel32:KERNEL32.dll
 0002:000004f8       __imp_GetOEMCP             00000001800334f8     kernel32:KERNEL32.dll
 0002:00000500       __imp_GetCPInfo            0000000180033500     kernel32:KERNEL32.dll
 0002:00000508       __imp_GetCommandLineA      0000000180033508     kernel32:KERNEL32.dll
 0002:00000510       __imp_GetCommandLineW      0000000180033510     kernel32:KERNEL32.dll
 0002:00000518       __imp_LCMapStringW         0000000180033518     kernel32:KERNEL32.dll
 0002:00000520       __imp_GetProcessHeap       0000000180033520     kernel32:KERNEL32.dll
 0002:00000528       __imp_SetFilePointerEx     0000000180033528     kernel32:KERNEL32.dll
 0002:00000530       __imp_GetStringTypeW       0000000180033530     kernel32:KERNEL32.dll
 0002:00000538       __imp_SetStdHandle         0000000180033538     kernel32:KERNEL32.dll
 0002:00000540       __imp_HeapSize             0000000180033540     kernel32:KERNEL32.dll
 0002:00000548       \177KERNEL32_NULL_THUNK_DATA 0000000180033548     kernel32:KERNEL32.dll
 0002:00000550       __imp_GetSystemMetrics     0000000180033550     user32:USER32.dll
 0002:00000558       __imp_FindWindowW          0000000180033558     user32:USER32.dll
 0002:00000560       __imp_SetWindowPos         0000000180033560     user32:USER32.dll
 0002:00000568       __imp_EnableWindow         0000000180033568     user32:USER32.dll
 0002:00000570       __imp_IsWindowEnabled      0000000180033570     user32:USER32.dll
 0002:00000578       __imp_GetWindowRect        0000000180033578     user32:USER32.dll
 0002:00000580       __imp_MonitorFromWindow    0000000180033580     user32:USER32.dll
 0002:00000588       __imp_GetMonitorInfoW      0000000180033588     user32:USER32.dll
 0002:00000590       __imp_SendMessageW         0000000180033590     user32:USER32.dll
 0002:00000598       __imp_ShowWindow           0000000180033598     user32:USER32.dll
 0002:000005a0       __imp_ShowWindowAsync      00000001800335a0     user32:USER32.dll
 0002:000005a8       __imp_IsRectEmpty          00000001800335a8     user32:USER32.dll
 0002:000005b0       __imp_EnumDisplayMonitors  00000001800335b0     user32:USER32.dll
 0002:000005b8       __imp_ActivateKeyboardLayout 00000001800335b8     user32:USER32.dll
 0002:000005c0       __imp_LoadKeyboardLayoutW  00000001800335c0     user32:USER32.dll
 0002:000005c8       __imp_FillRect             00000001800335c8     user32:USER32.dll
 0002:000005d0       __imp_ReleaseDC            00000001800335d0     user32:USER32.dll
 0002:000005d8       __imp_GetDC                00000001800335d8     user32:USER32.dll
 0002:000005e0       __imp_GetWindowThreadProcessId 00000001800335e0     user32:USER32.dll
 0002:000005e8       __imp_IsWindowVisible      00000001800335e8     user32:USER32.dll
 0002:000005f0       __imp_PostMessageW         00000001800335f0     user32:USER32.dll
 0002:000005f8       __imp_RegisterWindowMessageW 00000001800335f8     user32:USER32.dll
 0002:00000600       __imp_wsprintfW            0000000180033600     user32:USER32.dll
 0002:00000608       __imp_CharUpperBuffW       0000000180033608     user32:USER32.dll
 0002:00000610       __imp_GetParent            0000000180033610     user32:USER32.dll
 0002:00000618       __imp_GetWindowLongPtrW    0000000180033618     user32:USER32.dll
 0002:00000620       __imp_IsWindow             0000000180033620     user32:USER32.dll
 0002:00000628       __imp_MessageBoxW          0000000180033628     user32:USER32.dll
 0002:00000630       __imp_GetClassNameW        0000000180033630     user32:USER32.dll
 0002:00000638       \177USER32_NULL_THUNK_DATA 0000000180033638     user32:USER32.dll
 0002:00000640       __imp_VerQueryValueW       0000000180033640     version:VERSION.dll
 0002:00000648       __imp_GetFileVersionInfoW  0000000180033648     version:VERSION.dll
 0002:00000650       __imp_GetFileVersionInfoSizeW 0000000180033650     version:VERSION.dll
 0002:00000658       \177VERSION_NULL_THUNK_DATA 0000000180033658     version:VERSION.dll
 0002:00000660       __guard_check_icall_fptr   0000000180033660     LIBCMT:guard_support.obj
 0002:00000668       __guard_xfg_check_icall_fptr 0000000180033668     LIBCMT:guard_support.obj
 0002:00000670       __guard_dispatch_icall_fptr 0000000180033670     LIBCMT:guard_support.obj
 0002:00000678       __guard_xfg_dispatch_icall_fptr 0000000180033678     LIBCMT:guard_support.obj
 0002:00000680       __guard_xfg_table_dispatch_icall_fptr 0000000180033680     LIBCMT:guard_support.obj
 0002:00000688       __xc_a                     0000000180033688     LIBCMT:initializers.obj
 0002:00000698       __xc_z                     0000000180033698     LIBCMT:initializers.obj
 0002:000006a0       __xi_a                     00000001800336a0     LIBCMT:initializers.obj
 0002:000006b0       __acrt_stdio_initializer   00000001800336b0     libucrt:stdio_initializer.obj
 0002:000006b8       __acrt_multibyte_initializer 00000001800336b8     libucrt:multibyte_initializer.obj
 0002:000006c0       __acrt_tran_fma3_initializer 00000001800336c0     libucrt:fma3_initializer.obj
 0002:000006c8       __xi_z                     00000001800336c8     LIBCMT:initializers.obj
 0002:000006d0       __xl_a                     00000001800336d0     LIBCMT:tlssup.obj
 0002:000006d8       __xl_z                     00000001800336d8     LIBCMT:tlssup.obj
 0002:000006e0       __xp_a                     00000001800336e0     LIBCMT:initializers.obj
 0002:000006e8       __acrt_locale_terminator   00000001800336e8     libucrt:locale_initializer.obj
 0002:000006f0       __dcrt_console_output_terminator 00000001800336f0     libucrt:console_output_initializer.obj
 0002:000006f8       __acrt_stdio_terminator    00000001800336f8     libucrt:stdio_initializer.obj
 0002:00000700       __xp_z                     0000000180033700     LIBCMT:initializers.obj
 0002:00000708       __xt_a                     0000000180033708     LIBCMT:initializers.obj
 0002:00000710       __xt_z                     0000000180033710     LIBCMT:initializers.obj
 0002:00000720       ??_C@_1BO@MLCHEAGG@?$AAC?$AAo?$AAn?$AAE?$AAm?$AAu?$AAH?$AAk?$AA6?$AA4?$AA?4?$AAd?$AAl?$AAl@ 0000000180033720     ConEmuInjects.obj
 0002:00000740       ??_C@_1IM@IDJBHJMA@?$AAC?$AAo?$AAn?$AAE?$AAm?$AAu?$AAH?$AAk?$AA?5?$AAw?$AAa?$AAs?$AA?5?$AAn?$AAo@ 0000000180033740     ConEmuInjects.obj
 0002:000007d0       ??_C@_1BM@LHLFCECN@?$AAC?$AAo?$AAn?$AAE?$AAm?$AAu?$AA?5?$AAp?$AAl?$AAu?$AAg?$AAi?$AAn@ 00000001800337d0     ConEmuInjects.obj
 0002:000007f0       ??_C@_0BB@OPFPFOCM@SetHookCallbacks@ 00000001800337f0     ConEmuInjects.obj
 0002:00000808       ??_C@_0BH@HLKHEPME@SetLoadLibraryCallback@ 0000000180033808     ConEmuInjects.obj
 0002:00000820       ??_C@_0P@JOHNNMGG@SetFarHookMode@ 0000000180033820     ConEmuInjects.obj
 0002:00000830       ??_C@_1CM@DEPCLAGE@?$AAC?$AAo?$AAn?$AAE?$AAm?$AAu?$AA?5?$AAp?$AAl?$AAu?$AAg?$AAi?$AAn?$AA?0?$AA?5@ 0000000180033830     ConEmuInjects.obj
 0002:00000860       ??_C@_1CC@JNEFFKJH@?$AAS?$AAe?$AAt?$AAH?$AAo?$AAo?$AAk?$AAC?$AAa?$AAl?$AAl?$AAb?$AAa?$AAc?$AAk@ 0000000180033860     ConEmuInjects.obj
 0002:00000888       ??_C@_1CO@HHOFMBDD@?$AAS?$AAe?$AAt?$AAL?$AAo?$AAa?$AAd?$AAL?$AAi?$AAb?$AAr?$AAa?$AAr?$AAy?$AAC@ 0000000180033888     ConEmuInjects.obj
 0002:000008b8       ??_C@_1BO@OGOEDKED@?$AAS?$AAe?$AAt?$AAF?$AAa?$AAr?$AAH?$AAo?$AAo?$AAk?$AAM?$AAo?$AAd?$AAe@ 00000001800338b8     ConEmuInjects.obj
 0002:000008e0       ??_C@_1FG@GKBMDCCM@?$AAC?$AAo?$AAn?$AAE?$AAm?$AAu?$AAH?$AAk?$AA?5?$AAi?$AAs?$AA?5?$AAb?$AAr?$AAo@ 00000001800338e0     ConEmuInjects.obj
 0002:00000938       ??_C@_1BK@MGMFAEKH@?$AAk?$AAe?$AAr?$AAn?$AAe?$AAl?$AA3?$AA2?$AA?4?$AAd?$AAl?$AAl@ 0000000180033938     ConEmuInjects.obj
 0002:00000958       ??_C@_0M@LAGCIMKJ@FreeConsole@ 0000000180033958     ConEmuInjects.obj
 0002:00000968       ??_C@_0N@MOGGHBHN@AllocConsole@ 0000000180033968     ConEmuInjects.obj
 0002:00000978       ??_C@_0BC@BINPJBNK@PeekConsoleInputA@ 0000000180033978     ConEmuInjects.obj
 0002:00000990       ??_C@_0BC@EEHCEAN@PeekConsoleInputW@ 0000000180033990     ConEmuInjects.obj
 0002:000009a8       ??_C@_0BC@JNLCHFED@ReadConsoleInputA@ 00000001800339a8     ConEmuInjects.obj
 0002:000009c0       ??_C@_0BC@IBCKMAJE@ReadConsoleInputW@ 00000001800339c0     ConEmuInjects.obj
 0002:000009d8       ??_C@_0BE@PKLMIEOM@WriteConsoleOutputA@ 00000001800339d8     ConEmuInjects.obj
 0002:000009f0       ??_C@_0BE@OGCEDBDL@WriteConsoleOutputW@ 00000001800339f0     ConEmuInjects.obj
 0002:00000a08       ??_C@_0BO@HCPBIAL@GetNumberOfConsoleInputEvents@ 0000000180033a08     ConEmuInjects.obj
 0002:00000a28       ??_C@_1BI@BNFKGMFK@?$AAs?$AAh?$AAe?$AAl?$AAl?$AA3?$AA2?$AA?4?$AAd?$AAl?$AAl@ 0000000180033a28     ConEmuInjects.obj
 0002:00000a40       ??_C@_0BA@LIPPODFA@ShellExecuteExW@ 0000000180033a40     ConEmuInjects.obj
 0002:00000a50       ??_C@_1CM@NELFNPDE@?$AAE?$AAx?$AAt?$AAe?$AAn?$AAd?$AAe?$AAd?$AAC?$AAo?$AAn?$AAs?$AAo?$AAl?$AAe@ 0000000180033a50     ConEmuInjects.obj
 0002:00000a80       ??_C@_0BE@MFLNGBIK@SetConsoleCallbacks@ 0000000180033a80     ConEmuInjects.obj
 0002:00000a98       ??_C@_08BCACMCCB@ExitFARW@ 0000000180033a98     ConEmuPlugin.obj
 0002:00000aa8       ??_C@_0BE@PJBDJPG@ProcessEditorEventW@ 0000000180033aa8     ConEmuPlugin.obj
 0002:00000ac0       ??_C@_0BE@OMPAFBFG@ProcessViewerEventW@ 0000000180033ac0     ConEmuPlugin.obj
 0002:00000ad8       ??_C@_0BF@NLPJFAHE@ProcessSynchroEventW@ 0000000180033ad8     ConEmuPlugin.obj
 0002:00000af0       ??_C@_1BA@JOPOJEME@?$AAE?$AAx?$AAi?$AAt?$AAF?$AAA?$AAR@ 0000000180033af0     ConEmuPlugin.obj
 0002:00000b00       ??_C@_1BO@LDDOEOAL@?$AAE?$AAx?$AAi?$AAt?$AAF?$AAA?$AAR?$AA?5?$AA?9?$AA?5?$AAd?$AAo?$AAn?$AAe@ 0000000180033b00     ConEmuPlugin.obj
 0002:00000b20       ??_C@_1BC@OCOOMPC@?$AAE?$AAx?$AAi?$AAt?$AAF?$AAA?$AAR?$AAW@ 0000000180033b20     ConEmuPlugin.obj
 0002:00000b38       ??_C@_1CA@IFHGCKFI@?$AAE?$AAx?$AAi?$AAt?$AAF?$AAA?$AAR?$AAW?$AA?5?$AA?9?$AA?5?$AAd?$AAo?$AAn?$AAe@ 0000000180033b38     ConEmuPlugin.obj
 0002:00000b58       ??_C@_1BE@GNKIHEAN@?$AAE?$AAx?$AAi?$AAt?$AAF?$AAA?$AAR?$AAW?$AA3@ 0000000180033b58     ConEmuPlugin.obj
 0002:00000b70       ??_C@_1CC@LCFMKIJA@?$AAE?$AAx?$AAi?$AAt?$AAF?$AAA?$AAR?$AAW?$AA3?$AA?5?$AA?9?$AA?5?$AAd?$AAo?$AAn@ 0000000180033b70     ConEmuPlugin.obj
 0002:00000b94       ??_C@_11LOCGONAA@@         0000000180033b94     ConEmuPlugin1900.obj
 0002:00000ba0       ??_7CPluginW1900@@6B@      0000000180033ba0     ConEmuPlugin1900.obj
 0002:00000cc8       ??_C@_1O@PICBDAL@?$AAC?$AAo?$AAn?$AAE?$AAm?$AAu@ 0000000180033cc8     ConEmuPlugin1900.obj
 0002:00000cd8       ??_C@_1BK@BCDKFLCP@?$AAE?$AAx?$AAi?$AAt?$AAF?$AAA?$AAR?$AAW?$AA1?$AA9?$AA0?$AA0@ 0000000180033cd8     ConEmuPlugin1900.obj
 0002:00000cf8       ??_C@_1CI@OHGGDAJD@?$AAE?$AAx?$AAi?$AAt?$AAF?$AAA?$AAR?$AAW?$AA1?$AA9?$AA0?$AA0?$AA?5?$AA?9?$AA?5@ 0000000180033cf8     ConEmuPlugin1900.obj
 0002:00000d20       ??_C@_1M@OKCNCBMD@?$AA$?$AAT?$AAE?$AAX?$AAT@ 0000000180033d20     ConEmuPlugin1900.obj
 0002:00000d30       ??_C@_1O@BBPMHPCD@?$AAp?$AAr?$AAi?$AAn?$AAt?$AA?$CI@ 0000000180033d30     ConEmuPlugin1900.obj
 0002:00000d40       ??_C@_19JPEEHMMI@?$AA?5?$AA?7?$AA?$AN?$AA?6@ 0000000180033d40     ConEmuPlugin1900.obj
 0002:00000d50       ??_C@_1BC@OLJIBFPH@?$AA?0?$AA?5?$AAH?$AAi?$AAn?$AAt?$AA?3?$AA?5@ 0000000180033d50     ConEmuPlugin1900.obj
 0002:00000d70       ??_C@_1BCK@MAAKAKN@?$AAE?$AAr?$AAr?$AAo?$AAr?$AA?5?$AAi?$AAn?$AA?5?$AAM?$AAa?$AAc?$AAr?$AAo?$AA?4@ 0000000180033d70     ConEmuPlugin1900.obj
 0002:00000ea0       ??_C@_1OK@GOJADEAC@?$AAE?$AAr?$AAr?$AAo?$AAr?$AA?5?$AAi?$AAn?$AA?5?$AAM?$AAa?$AAc?$AAr?$AAo?$AA?4@ 0000000180033ea0     ConEmuPlugin1900.obj
 0002:00000f90       ??_C@_0BF@MFOIGNA@BackgroundMacroError@ 0000000180033f90     ConEmuPlugin1900.obj
 0002:00000fa8       ??_C@_1BI@EKLHEFDO@?$AAS?$AAh?$AAo?$AAw?$AAM?$AAe?$AAn?$AAu?$AAB?$AAa?$AAr@ 0000000180033fa8     ConEmuPlugin1900.obj
 0002:00000fc0       ??_C@_1O@PDEOIOBG@?$AAK?$AAe?$AAy?$AAB?$AAa?$AAr@ 0000000180033fc0     ConEmuPlugin1900.obj
 0002:00000fd0       ??_C@_1BK@MBFACEDG@?$AAC?$AAo?$AAl?$AAu?$AAm?$AAn?$AAT?$AAi?$AAt?$AAl?$AAe?$AAs@ 0000000180033fd0     ConEmuPlugin1900.obj
 0002:00000ff0       ??_C@_1BG@MHMKAABO@?$AAS?$AAt?$AAa?$AAt?$AAu?$AAs?$AAL?$AAi?$AAn?$AAe@ 0000000180033ff0     ConEmuPlugin1900.obj
 0002:00001008       ??_C@_1BC@IALIJCAM@?$AAS?$AAo?$AAr?$AAt?$AAM?$AAo?$AAd?$AAe@ 0000000180034008     ConEmuPlugin1900.obj
 0002:00001020       ??_C@_1BK@BKCACCAI@?$AAW?$AAT?$AAY?$AAP?$AAE?$AA_?$AAP?$AAA?$AAN?$AAE?$AAL?$AAS@ 0000000180034020     ConEmuPlugin1900.obj
 0002:00001040       ??_C@_1BK@LNCDOEEM@?$AAW?$AAT?$AAY?$AAP?$AAE?$AA_?$AAV?$AAI?$AAE?$AAW?$AAE?$AAR@ 0000000180034040     ConEmuPlugin1900.obj
 0002:00001060       ??_C@_1BK@MHHDIBO@?$AAW?$AAT?$AAY?$AAP?$AAE?$AA_?$AAE?$AAD?$AAI?$AAT?$AAO?$AAR@ 0000000180034060     ConEmuPlugin1900.obj
 0002:00001080       ??_C@_1BK@NEJJBFEB@?$AAW?$AAT?$AAY?$AAP?$AAE?$AA_?$AAD?$AAI?$AAA?$AAL?$AAO?$AAG@ 0000000180034080     ConEmuPlugin1900.obj
 0002:000010a0       ??_C@_1BI@IHGDMIGH@?$AAW?$AAT?$AAY?$AAP?$AAE?$AA_?$AAV?$AAM?$AAE?$AAN?$AAU@ 00000001800340a0     ConEmuPlugin1900.obj
 0002:000010b8       ??_C@_1BG@LKGDBHML@?$AAW?$AAT?$AAY?$AAP?$AAE?$AA_?$AAH?$AAE?$AAL?$AAP@ 00000001800340b8     ConEmuPlugin1900.obj
 0002:000010d0       ??_C@_1BA@LEPJIIOK@?$AAU?$AAn?$AAk?$AAn?$AAo?$AAw?$AAn@ 00000001800340d0     ConEmuPlugin1900.obj
 0002:000010e0       ??_C@_1CE@PEOBLGJK@?$AAC?$AAo?$AAn?$AAE?$AAm?$AAu?$AAM?$AAa?$AAc?$AAr?$AAo?$AAR?$AAe?$AAs?$AAu@ 00000001800340e0     ConEmuPlugin1900.obj
 0002:00001108       ??_C@_1BO@HNJMHBAE@?$AAC?$AAo?$AAn?$AAE?$AAm?$AAu?$AAG?$AAu?$AAi?$AAM?$AAa?$AAc?$AAr?$AAo@ 0000000180034108     ConEmuPlugin1900.obj
 0002:00001130       __xmm@00000000000000020000000500000000 0000000180034130     ConEmuPlugin1900.obj
 0002:00001140       __xmm@00000000000000040000000500000000 0000000180034140     ConEmuPlugin1900.obj
 0002:00001150       __xmm@00000000000000070000000000000007 0000000180034150     ConEmuPlugin1900.obj
 0002:00001160       __xmm@00000046000000030000000500000004 0000000180034160     ConEmuPlugin1900.obj
 0002:00001170       __xmm@00000046000000050000000500000004 0000000180034170     ConEmuPlugin1900.obj
 0002:00001180       __xmm@00000048000000010000000300000003 0000000180034180     ConEmuPlugin1900.obj
 0002:00001198       ??_7exception@std@@6B@     0000000180034198     ConEmuPlugin2800.obj
 0002:000011a8       ??_C@_0BC@EOODALEL@Unknown?5exception@ 00000001800341a8     ConEmuPlugin2800.obj
 0002:000011c8       ??_7bad_alloc@std@@6B@     00000001800341c8     ConEmuPlugin2800.obj
 0002:000011d8       ??_C@_0P@GHFPNOJB@bad?5allocation@ 00000001800341d8     ConEmuPlugin2800.obj
 0002:000011f0       ??_7CPluginW2800@@6B@      00000001800341f0     ConEmuPlugin2800.obj
 0002:00001318       ??_C@_1DO@JIOAOHCJ@?$AAC?$AAo?$AAn?$AAE?$AAm?$AAu?$AA?5?$AAs?$AAu?$AAp?$AAp?$AAo?$AAr?$AAt?$AA?5@ 0000000180034318     ConEmuPlugin2800.obj
 0002:00001358       ??_C@_1DE@DJEAMLPH@?$AAC?$AAo?$AAn?$AAE?$AAm?$AAu?$AA?4?$AAM?$AAa?$AAx?$AAi?$AAm?$AAu?$AAs?$AA5@ 0000000180034358     ConEmuPlugin2800.obj
 0002:00001390       ??_C@_17IOMHDNEC@?$AAf?$AAa?$AAr@ 0000000180034390     ConEmuPlugin2800.obj
 0002:00001398       ??_C@_1BK@DFKHOALC@?$AAE?$AAx?$AAi?$AAt?$AAF?$AAA?$AAR?$AAW?$AA2?$AA8?$AA0?$AA0@ 0000000180034398     ConEmuPlugin2800.obj
 0002:000013b8       ??_C@_1CI@KIFAPNHL@?$AAE?$AAx?$AAi?$AAt?$AAF?$AAA?$AAR?$AAW?$AA2?$AA8?$AA0?$AA0?$AA?5?$AA?9?$AA?5@ 00000001800343b8     ConEmuPlugin2800.obj
 0002:000013e0       ??_C@_1BCK@KGGLGNDM@?$AAE?$AAr?$AAr?$AAo?$AAr?$AA?5?$AAi?$AAn?$AA?5?$AAM?$AAa?$AAc?$AAr?$AAo?$AA?4@ 00000001800343e0     ConEmuPlugin2800.obj
 0002:00001510       ??_C@_1OK@MGLNOED@?$AAE?$AAr?$AAr?$AAo?$AAr?$AA?5?$AAi?$AAn?$AA?5?$AAM?$AAa?$AAc?$AAr?$AAo?$AA?4@ 0000000180034510     ConEmuPlugin2800.obj
 0002:00001600       ??_C@_0BA@FOIKENOD@vector?5too?5long@ 0000000180034600     ConEmuPlugin2800.obj
 0002:00001610       __xmm@00000000000000000000000000000002 0000000180034610     ConEmuPlugin2800.obj
 0002:00001620       __xmm@00000000000000000000000000000004 0000000180034620     ConEmuPlugin2800.obj
 0002:00001630       __xmm@00000000000000000000000000000007 0000000180034630     ConEmuPlugin2800.obj
 0002:00001640       __xmm@00000000000000460000000000000003 0000000180034640     ConEmuPlugin2800.obj
 0002:00001650       __xmm@00000000000000460000000000000005 0000000180034650     ConEmuPlugin2800.obj
 0002:00001660       __xmm@00000000000000480000000000000001 0000000180034660     ConEmuPlugin2800.obj
 0002:00001678       ??_7CPluginW995@@6B@       0000000180034678     ConEmuPlugin995.obj
 0002:000017a0       ??_C@_1BI@IBAPHBGL@?$AAE?$AAx?$AAi?$AAt?$AAF?$AAA?$AAR?$AAW?$AA9?$AA9?$AA5@ 00000001800347a0     ConEmuPlugin995.obj
 0002:000017b8       ??_C@_1CG@PKCNLDOL@?$AAE?$AAx?$AAi?$AAt?$AAF?$AAA?$AAR?$AAW?$AA9?$AA9?$AA5?$AA?5?$AA?9?$AA?5?$AAd@ 00000001800347b8     ConEmuPlugin995.obj
 0002:000017e0       __xmm@00000001000000000000000000000002 00000001800347e0     ConEmuPlugin995.obj
 0002:000017f0       __xmm@00000033000000010000000300000003 00000001800347f0     ConEmuPlugin995.obj
 0002:00001800       ??_C@_00CNPNBAHC@@         0000000180034800     ConEmuPluginA.obj
 0002:00001810       ??_7CPluginAnsi@@6B@       0000000180034810     ConEmuPluginA.obj
 0002:00001938       ??_C@_1O@BKFLFFPA@?$AAP?$AAl?$AAu?$AAg?$AAi?$AAn@ 0000000180034938     ConEmuPluginA.obj
 0002:00001948       ??_C@_06HGFNEGAJ@ConEmu@   0000000180034948     ConEmuPluginA.obj
 0002:00001950       ??_C@_0P@DFGMHJNG@ConEmuGuiMacro@ 0000000180034950     ConEmuPluginA.obj
 0002:00001968       ??_7CPluginBase@@6B@       0000000180034968     ConEmuPluginBase.obj
 0002:00001a90       ??_C@_13FPGAJAPJ@?$AA?2@   0000000180034a90     ConEmuPluginBase.obj
 0002:00001aa0       ??_C@_1FG@DPPGENBC@?$AAL?$AAo?$AAa?$AAd?$AAA?$AAp?$AAp?$AAV?$AAe?$AAr?$AAs?$AAi?$AAo?$AAn?$AA?4@ 0000000180034aa0     ConEmuPluginBase.obj
 0002:00001b00       ??_C@_1FK@HILEEFML@?$AAL?$AAo?$AAa?$AAd?$AAA?$AAp?$AAp?$AAV?$AAe?$AAr?$AAs?$AAi?$AAo?$AAn?$AA?4@ 0000000180034b00     ConEmuPluginBase.obj
 0002:00001b60       ??_C@_1GC@BINFLBDC@?$AAL?$AAo?$AAa?$AAd?$AAA?$AAp?$AAp?$AAV?$AAe?$AAr?$AAs?$AAi?$AAo?$AAn?$AA?5@ 0000000180034b60     ConEmuPluginBase.obj
 0002:00001bd0       ??_C@_1GC@CPPHDKJK@?$AAL?$AAo?$AAa?$AAd?$AAA?$AAp?$AAp?$AAV?$AAe?$AAr?$AAs?$AAi?$AAo?$AAn?$AA?4@ 0000000180034bd0     ConEmuPluginBase.obj
 0002:00001c40       ??_C@_1EG@IINOBDEG@?$AAI?$AAn?$AAv?$AAa?$AAl?$AAi?$AAd?$AA?5?$AAa?$AAs?$AAM?$AAo?$AAd?$AAu?$AAl@ 0000000180034c40     ConEmuPluginBase.obj
 0002:00001c88       ??_C@_1CA@GGFPMHLH@?$AA?6?$AAE?$AAr?$AAr?$AAC?$AAo?$AAd?$AAe?$AA?$DN?$AA0?$AAx?$AA?$CF?$AA0?$AA8?$AAX@ 0000000180034c88     ConEmuPluginBase.obj
 0002:00001cb0       ??_C@_1FG@LNADFPCE@?$AAL?$AAo?$AAa?$AAd?$AAF?$AAa?$AAr?$AAV?$AAe?$AAr?$AAs?$AAi?$AAo?$AAn?$AA?4@ 0000000180034cb0     ConEmuPluginBase.obj
 0002:00001d08       ??_C@_0BP@OODKCJPP@Wow64DisableWow64FsRedirection@ 0000000180034d08     ConEmuPluginBase.obj
 0002:00001d28       ??_C@_0BO@KOCOEJCM@Wow64RevertWow64FsRedirection@ 0000000180034d28     ConEmuPluginBase.obj
 0002:00001d48       ??_C@_1BO@ONHPLONP@?$AAC?$AAo?$AAn?$AAE?$AAm?$AAu?$AA?4?$AAx?$AA6?$AA4?$AA?4?$AAd?$AAl?$AAl@ 0000000180034d48     ConEmuPluginBase.obj
 0002:00001d70       ??_C@_1IA@EGLJCBKE@?$AAS?$AAy?$AAn?$AAc?$AAh?$AAo?$AA?5?$AAe?$AAv?$AAe?$AAn?$AAt?$AAs?$AA?5?$AAa@ 0000000180034d70     ConEmuPluginBase.obj
 0002:00001df0       ??_C@_1BG@NBIHKCLP@?$AAC?$AAo?$AAn?$AAE?$AAm?$AAu?$AA?4?$AAd?$AAl?$AAl@ 0000000180034df0     ConEmuPluginBase.obj
 0002:00001e08       ??_C@_13LBAGMAIH@?$AA?6@   0000000180034e08     ConEmuPluginBase.obj
 0002:00001e10       ??_C@_1PO@CKPDODMD@?$AAS?$AAe?$AAv?$AAe?$AAr?$AAa?$AAl?$AA?5?$AAi?$AAn?$AAs?$AAt?$AAa?$AAn?$AAc@ 0000000180034e10     ConEmuPluginBase.obj
 0002:00001f10       ??_C@_13IMODFHAA@?$AA?9@   0000000180034f10     ConEmuPluginBase.obj
 0002:00001f20       ??_C@_1FI@CBKBKFFI@?$AAC?$AAo?$AAn?$AAE?$AAm?$AAu?$AA?5?$AAp?$AAl?$AAu?$AAg?$AAi?$AAn?$AA?5?$AA?$CF@ 0000000180034f20     ConEmuPluginBase.obj
 0002:00001f78       ??_C@_1BG@DILNIJHK@?$AA?$DM?$AAM?$AAs?$AAg?$AAI?$AAD?$AA?$DN?$AA?$CF?$AAi?$AA?$DO@ 0000000180034f78     ConEmuPluginBase.obj
 0002:00001f90       ??_C@_1PO@DJAPICLP@?$AA$?$AAi?$AAf?$AA?5?$AA?$CI?$AA?$CB?$AAE?$AAd?$AAi?$AAt?$AAo?$AAr?$AA?5?$AA?$CG?$AA?$CG@ 0000000180034f90     ConEmuPluginBase.obj
 0002:00002090       ??_C@_1EK@LJEKIKEG@?$AA4?$AAb?$AA6?$AA7?$AA5?$AAd?$AA8?$AA0?$AA?9?$AA1?$AAd?$AA4?$AAa?$AA?9?$AA4@ 0000000180035090     ConEmuPluginBase.obj
 0002:000020e0       ??_C@_1BBO@FBOKPEBF@?$AA$?$AAi?$AAf?$AA?5?$AA?$CI?$AAA?$AAP?$AAa?$AAn?$AAe?$AAl?$AA?4?$AAP?$AAl?$AAu@ 00000001800350e0     ConEmuPluginBase.obj
 0002:00002200       ??_C@_1LO@GJMEBJHL@?$AAP?$AAl?$AAu?$AAg?$AAi?$AAn?$AA?4?$AAC?$AAa?$AAl?$AAl?$AA?$CI?$AA?$CC?$AA?$CF?$AAs@ 0000000180035200     ConEmuPluginBase.obj
 0002:000022c0       ??_C@_1BA@CMKDJLHG@?$AA?$HN?$AA?5?$AA?9?$AA?5?$AAF?$AAa?$AAr@ 00000001800352c0     ConEmuPluginBase.obj
 0002:000022d0       ??_C@_17MEJHPLBO@?$AAc?$AAm?$AAd@ 00000001800352d0     ConEmuPluginBase.obj
 0002:000022d8       ??_C@_1CK@KEKIDABI@?$AAC?$AAo?$AAn?$AAE?$AAm?$AAu?$AA?4?$AAC?$AAr?$AAe?$AAa?$AAt?$AAe?$AAP?$AAr@ 00000001800352d8     ConEmuPluginBase.obj
 0002:00002308       ??_C@_1CM@MHCEHIEP@?$AAS?$AAt?$AAa?$AAr?$AAt?$AA?5?$AAc?$AAo?$AAn?$AAs?$AAo?$AAl?$AAe?$AA?5?$AAp@ 0000000180035308     ConEmuPluginBase.obj
 0002:00002338       ??_C@_17BJPFHBEJ@?$AAC?$AA?3?$AA?2@ 0000000180035338     ConEmuPluginBase.obj
 0002:00002340       ??_C@_1BK@NEALEMPH@?$AA?9?$AAn?$AAe?$AAw?$AA_?$AAc?$AAo?$AAn?$AAs?$AAo?$AAl?$AAe@ 0000000180035340     ConEmuPluginBase.obj
 0002:00002360       ??_C@_19KHBBCLDH@?$AAr?$AAu?$AAn?$AA?3@ 0000000180035360     ConEmuPluginBase.obj
 0002:0000236c       ??_C@_13DANNHAJN@?$AAV@    000000018003536c     ConEmuPluginBase.obj
 0002:00002370       ??_C@_13IABLFADB@?$AAH@    0000000180035370     ConEmuPluginBase.obj
 0002:00002378       ??_C@_17PBAHFJOA@?$AAY?$AAe?$AAs@ 0000000180035378     ConEmuPluginBase.obj
 0002:00002380       ??_C@_15BICKNCBF@?$AAN?$AAo@ 0000000180035380     ConEmuPluginBase.obj
 0002:00002390       ??_C@_1BPK@LEDPNENO@?$AAC?$AAo?$AAn?$AAE?$AAm?$AAu?$AA?5?$AAC?$AAo?$AAn?$AAs?$AAo?$AAl?$AAe?$AA?5@ 0000000180035390     ConEmuPluginBase.obj
 0002:00002590       ??_C@_1BM@MGPNCPCE@?$AAC?$AAo?$AAn?$AAE?$AAm?$AAu?$AAB?$AAa?$AAs?$AAe?$AAD?$AAi?$AAr@ 0000000180035590     ConEmuPluginBase.obj
 0002:000025b0       ??_C@_1BK@PCAIPEAH@?$AA?2?$AAC?$AAo?$AAn?$AAE?$AAm?$AAu?$AAC?$AA?4?$AAe?$AAx?$AAe@ 00000001800355b0     ConEmuPluginBase.obj
 0002:000025d0       ??_C@_1CI@DIEJPMOK@?$AA?2?$AAC?$AAo?$AAn?$AAE?$AAm?$AAu?$AA?2?$AAC?$AAo?$AAn?$AAE?$AAm?$AAu?$AAC@ 00000001800355d0     ConEmuPluginBase.obj
 0002:00002600       ??_C@_1HE@BLMGMKID@?$AA?$CC?$AA?$CF?$AAs?$AA?$CC?$AA?5?$AA?1?$AAA?$AAT?$AAT?$AAA?$AAC?$AAH?$AA?5?$AA?1?$AAR@ 0000000180035600     ConEmuPluginBase.obj
 0002:00002680       ??_C@_1EO@CCMHHKOG@?$AA?$CC?$AA?$CF?$AAs?$AA?$CC?$AA?5?$AA?1?$AAD?$AAE?$AAB?$AAU?$AAG?$AAP?$AAI?$AAD?$AA?$DN@ 0000000180035680     ConEmuPluginBase.obj
 0002:000026d0       ??_C@_1CA@CIILNAEN@?$AA?2?$AAC?$AAo?$AAn?$AAE?$AAm?$AAu?$AAH?$AAk?$AA6?$AA4?$AA?4?$AAd?$AAl?$AAl@ 00000001800356d0     ConEmuPluginBase.obj
 0002:000026f0       ??_C@_1BM@DIGKKBBA@?$AAC?$AAo?$AAn?$AAE?$AAm?$AAu?$AAC?$AA6?$AA4?$AA?4?$AAe?$AAx?$AAe@ 00000001800356f0     ConEmuPluginBase.obj
 0002:00002710       ??_C@_1BI@OPBAAHCM@?$AAC?$AAo?$AAn?$AAE?$AAm?$AAu?$AAC?$AA?4?$AAe?$AAx?$AAe@ 0000000180035710     ConEmuPluginBase.obj
 0002:00002728       ??_C@_1BE@FFPCKGKG@?$AA?1?$AAC?$AAO?$AAN?$AAF?$AAI?$AAR?$AAM?$AA?5@ 0000000180035728     ConEmuPluginBase.obj
 0002:00002740       ??_C@_1DA@LLHOBAFM@?$AA?$CC?$AA?5?$AA?1?$AAA?$AAT?$AAT?$AAA?$AAC?$AAH?$AA?5?$AA?1?$AAF?$AAA?$AAR?$AAP@ 0000000180035740     ConEmuPluginBase.obj
 0002:00002770       ??_C@_1BA@JLPJLFMH@?$AA?1?$AAG?$AAI?$AAD?$AA?$DN?$AA?$CF?$AAi@ 0000000180035770     ConEmuPluginBase.obj
 0002:00002780       ??_C@_1CI@EIEAGHGL@?$AAC?$AAo?$AAn?$AAE?$AAm?$AAu?$AAS?$AAr?$AAv?$AAS?$AAt?$AAa?$AAr?$AAt?$AAe@ 0000000180035780     ConEmuPluginBase.obj
 0002:000027a8       ??_C@_0BD@DHBGKFD@RequestLocalServer@ 00000001800357a8     ConEmuPluginBase.obj
 0002:000027c0       ??_C@_17LCEPOKH@?$AAC?$AAE?$AAM@ 00000001800357c0     ConEmuPluginBase.obj
 0002:000027c8       ??_C@_19LKKOIHJI@?$AA?4?$AAt?$AAm?$AAp@ 00000001800357c8     ConEmuPluginBase.obj
 0002:000027e0       ??_C@_1BFI@CAKBMDAF@?$AAW?$AAr?$AAo?$AAn?$AAg?$AA?5?$AAp?$AAl?$AAu?$AAg?$AAi?$AAn?$AA?5?$AAv?$AAe@ 00000001800357e0     ConEmuPluginBase.obj
 0002:00002938       ??_C@_1BA@DAHNNHGF@?$AAF?$AAA?$AAR?$AAL?$AAA?$AAN?$AAG@ 0000000180035938     ConEmuPluginBase.obj
 0002:00002950       ??_C@_1EA@BFFHMENH@?$AAC?$AAo?$AAn?$AAE?$AAm?$AAu?$AAC?$AA?3?$AA?5?$AAC?$AAh?$AAe?$AAc?$AAk?$AAR@ 0000000180035950     ConEmuPluginBase.obj
 0002:00002990       ??_C@_19LELMJPKF@?$AAe?$AAd?$AAi?$AAt@ 0000000180035990     ConEmuPluginBase.obj
 0002:000029a0       ??_C@_19IGFHNPAK@?$AAv?$AAi?$AAe?$AAw@ 00000001800359a0     ConEmuPluginBase.obj
 0002:000029b0       ??_C@_1CC@IHNECLD@?$AA?$HL?$AAT?$AAe?$AAm?$AAp?$AAo?$AAr?$AAa?$AAr?$AAy?$AA?5?$AAp?$AAa?$AAn?$AAe@ 00000001800359b0     ConEmuPluginBase.obj
 0002:000029d8       ??_C@_1CO@ELKEEMPJ@?$AAC?$AAo?$AAn?$AAE?$AAm?$AAu?$AAF?$AAi?$AAl?$AAe?$AAM?$AAa?$AAp?$AAp?$AAi@ 00000001800359d8     ConEmuPluginBase.obj
 0002:00002a08       ??_C@_1BI@ENONIIIC@?$AAF?$AAa?$AAr?$AA?5?$AAM?$AAa?$AAn?$AAa?$AAg?$AAe?$AAr@ 0000000180035a08     ConEmuPluginBase.obj
 0002:00002a20       ??_C@_19HBICLLML@?$AAF?$AAA?$AAR?$AA2@ 0000000180035a20     ConEmuPluginBase.obj
 0002:00002a30       ??_C@_17NACPPFBM@?$AAF?$AAA?$AAR@ 0000000180035a30     ConEmuPluginBase.obj
 0002:00002a38       ??_C@_1BA@NIFIBMHP@?$AAF?$AAA?$AAR?$AAU?$AAS?$AAE?$AAR@ 0000000180035a38     ConEmuPluginBase.obj
 0002:00002a48       ??_C@_1BA@FJJFMPFO@?$AA?2?$AAU?$AAs?$AAe?$AAr?$AAs?$AA?2@ 0000000180035a48     ConEmuPluginBase.obj
 0002:00002a58       ??_C@_1BE@FLHKCJKF@?$AAS?$AAo?$AAf?$AAt?$AAw?$AAa?$AAr?$AAe?$AA?2@ 0000000180035a58     ConEmuPluginBase.obj
 0002:00002a70       ??_C@_1CG@HOMCPCN@?$AA?2?$AAP?$AAl?$AAu?$AAg?$AAi?$AAn?$AAs?$AA?2?$AAP?$AAa?$AAn?$AAe?$AAl?$AAT@ 0000000180035a70     ConEmuPluginBase.obj
 0002:00002a98       ??_C@_1BK@NFAPLMGI@?$AAS?$AAe?$AAp?$AAa?$AAr?$AAa?$AAt?$AAe?$AAT?$AAa?$AAb?$AAs@ 0000000180035a98     ConEmuPluginBase.obj
 0002:00002ab8       ??_C@_1BI@GILFJGEK@?$AAB?$AAu?$AAt?$AAt?$AAo?$AAn?$AAC?$AAo?$AAl?$AAo?$AAr@ 0000000180035ab8     ConEmuPluginBase.obj
 0002:00002ad0       ??_C@_1DE@DBNFJOHM@?$AAC?$AAo?$AAn?$AAs?$AAo?$AAl?$AAe?$AA2?$AA_?$AAc?$AAo?$AAn?$AAs?$AAo?$AAl@ 0000000180035ad0     ConEmuPluginBase.obj
 0002:00002b08       ??_C@_1CK@EANOIBDN@?$AAC?$AAo?$AAn?$AAE?$AAm?$AAu?$AAC?$AAt?$AAr?$AAl?$AAP?$AAr?$AAe?$AAs?$AAs@ 0000000180035b08     ConEmuPluginBase.obj
 0002:00002b38       ??_C@_1CM@JBFABNEO@?$AAC?$AAo?$AAn?$AAE?$AAm?$AAu?$AAS?$AAh?$AAi?$AAf?$AAt?$AAP?$AAr?$AAe?$AAs@ 0000000180035b38     ConEmuPluginBase.obj
 0002:00002b68       ??_C@_1CE@DLFCKCF@?$AAC?$AAo?$AAn?$AAE?$AAm?$AAu?$AAT?$AAa?$AAb?$AAs?$AAC?$AAh?$AAa?$AAn?$AAg@ 0000000180035b68     ConEmuPluginBase.obj
 0002:00002b90       ??_C@_0BG@HFNJBNKJ@Plugin?3?3MonitorThread@ 0000000180035b90     ConEmuPluginBase.obj
 0002:00002ba8       ??_C@_1BG@OILDLIOJ@?$AAu?$AAs?$AAe?$AAr?$AA3?$AA2?$AA?4?$AAd?$AAl?$AAl@ 0000000180035ba8     ConEmuPluginBase.obj
 0002:00002bc0       ??_C@_0BJ@GFJHAGKD@AllowSetForegroundWindow@ 0000000180035bc0     ConEmuPluginBase.obj
 0002:00002be0       ??_C@_1BO@KPCFCPEP@?$AAC?$AAo?$AAn?$AAE?$AAm?$AAu?$AAC?$AAD?$AA6?$AA4?$AA?4?$AAd?$AAl?$AAl@ 0000000180035be0     ConEmuPluginBase.obj
 0002:00002c00       ??_C@_1HO@CHHOFADM@?$AAC?$AAo?$AAn?$AAs?$AAo?$AAl?$AAe?$AA?5?$AAw?$AAa?$AAs?$AA?5?$AAa?$AAb?$AAn@ 0000000180035c00     ConEmuPluginBase.obj
 0002:00002c80       ??_C@_1NC@MNABBPPB@?$AA$?$AAi?$AAf?$AA?5?$AA?$CI?$AAS?$AAe?$AAa?$AAr?$AAc?$AAh?$AA?$CJ?$AA?5?$AAE?$AAs@ 0000000180035c80     ConEmuPluginBase.obj
 0002:00002d60       ??_C@_1MK@EDFFIGHJ@?$AA$?$AAi?$AAf?$AA?5?$AA?$CI?$AAS?$AAe?$AAa?$AAr?$AAc?$AAh?$AA?$CJ?$AA?5?$AAE?$AAs@ 0000000180035d60     ConEmuPluginBase.obj
 0002:00002e30       ??_C@_1BBA@LKLGFJB@?$AAi?$AAf?$AA?5?$AAA?$AAr?$AAe?$AAa?$AA?4?$AAS?$AAe?$AAa?$AAr?$AAc?$AAh?$AA?5@ 0000000180035e30     ConEmuPluginBase.obj
 0002:00002f40       ??_C@_0P@LNKHCDND@OnConEmuLoaded@ 0000000180035f40     ConEmuPluginBase.obj
 0002:00002f50       ??_C@_0BA@IDLLFCLM@SetStartupInfoW@ 0000000180035f50     ConEmuPluginBase.obj
 0002:00002f60       ??_C@_0P@JNNILPEA@SetStartupInfo@ 0000000180035f60     ConEmuPluginBase.obj
 0002:00002f70       ??_C@_0FI@CMDDEBEE@C?3?2Users?2Maksim?4Moisiuk?2Documen@ 0000000180035f70     ConEmuPluginBase.obj
 0002:00002fc8       ??_C@_1BC@GNOFNJJG@?$AAM?$AAs?$AAL?$AAC?$AAl?$AAi?$AAc?$AAk@ 0000000180035fc8     ConEmuPluginBase.obj
 0002:00002fe0       ??_C@_1CC@DFJIOIPL@?$AAK?$AAe?$AAy?$AAs?$AA?$CI?$AA?8?$AAM?$AAs?$AAL?$AAC?$AAl?$AAi?$AAc?$AAk?$AA?8@ 0000000180035fe0     ConEmuPluginBase.obj
 0002:00003008       ??_C@_1CM@IICFOBPI@?$AA$?$AAi?$AAf?$AA?5?$AA?$CI?$AAS?$AAe?$AAa?$AAr?$AAc?$AAh?$AA?$CJ?$AA?5?$AAE?$AAs@ 0000000180036008     ConEmuPluginBase.obj
 0002:00003038       ??_C@_1DO@LEFBPADB@?$AAi?$AAf?$AA?5?$AAA?$AAr?$AAe?$AAa?$AA?4?$AAS?$AAe?$AAa?$AAr?$AAc?$AAh?$AA?5@ 0000000180036038     ConEmuPluginBase.obj
 0002:00003080       ??_C@_1CCO@OMFPMNEO@?$AA?$EA?$AAi?$AAf?$AA?5?$AAn?$AAo?$AAt?$AA?5?$AAC?$AAm?$AAd?$AAL?$AAi?$AAn?$AAe@ 0000000180036080     ConEmuPluginBase.obj
 0002:000032b0       ??_C@_1CAM@BBLMGMFK@?$AA?$EA?$AA$?$AAI?$AAf?$AA?5?$AA?$CI?$AA?$CB?$AAC?$AAm?$AAd?$AAL?$AAi?$AAn?$AAe?$AA?4@ 00000001800362b0     ConEmuPluginBase.obj
 0002:000034c0       ??_C@_1CG@OILEFJJN@?$AAC?$AAo?$AAn?$AAE?$AAm?$AAu?$AAT?$AAh?$AA?3?$AA?3?$AAS?$AAe?$AAt?$AAt?$AAi@ 00000001800364c0     ConEmuPluginBase.obj
 0002:000034e8       ??_C@_1CI@MBMLEGFG@?$AAC?$AAo?$AAn?$AAE?$AAm?$AAu?$AAF?$AAa?$AAr?$AAM?$AAa?$AAp?$AAp?$AAi?$AAn@ 00000001800364e8     ConEmuPluginBase.obj
 0002:00003510       ??_C@_1CO@INAJPHBH@?$AAC?$AAo?$AAn?$AAE?$AAm?$AAu?$AAF?$AAa?$AAr?$AAA?$AAl?$AAi?$AAv?$AAe?$AAE@ 0000000180036510     ConEmuPluginBase.obj
 0002:00003540       ??_C@_1BE@GLIABAAK@?$AA?$EA?$AA?$FO?$AA$?$AAT?$AAE?$AAX?$AAT?$AA?5?$AA?$CC@ 0000000180036540     ConEmuPluginBase.obj
 0002:00003558       ??_C@_1BE@CPLNCDLK@?$AA?$EA?$AA?$FO?$AAp?$AAr?$AAi?$AAn?$AAt?$AA?$CI?$AA?$CC@ 0000000180036558     ConEmuPluginBase.obj
 0002:0000356c       ??_C@_13NEIAEHFG@?$AA?$CC@ 000000018003656c     ConEmuPluginBase.obj
 0002:00003570       ??_C@_15NJGDBKNF@?$AA?$CC?$AA?$CJ@ 0000000180036570     ConEmuPluginBase.obj
 0002:00003580       ??_C@_1GK@OGACKIKJ@?$AAI?$AAn?$AAt?$AAe?$AAr?$AAn?$AAa?$AAl?$AA?5?$AAe?$AAr?$AAr?$AAo?$AAr?$AA?4@ 0000000180036580     ConEmuPluginBase.obj
 0002:000035f0       ??_C@_1O@KBENBEFG@?$AAc?$AAr?$AAe?$AAa?$AAt?$AAe@ 00000001800365f0     ConEmuPluginBase.obj
 0002:00003600       ??_C@_19BDAJEHDN@?$AAo?$AAp?$AAe?$AAn@ 0000000180036600     ConEmuPluginBase.obj
 0002:00003610       ??_C@_1GM@LGOLGABE@?$AAC?$AAa?$AAn?$AA?8?$AAt?$AA?5?$AA?$CF?$AAs?$AA?5?$AAc?$AAo?$AAn?$AAs?$AAo?$AAl@ 0000000180036610     ConEmuPluginBase.obj
 0002:00003680       ??_C@_1BE@HADLJAO@?$AAR?$AAe?$AAa?$AAd?$AAW?$AAr?$AAi?$AAt?$AAe@ 0000000180036680     ConEmuPluginBase.obj
 0002:00003698       ??_C@_19EOHDNDII@?$AAR?$AAe?$AAa?$AAd@ 0000000180036698     ConEmuPluginBase.obj
 0002:000036b0       ??_C@_1FO@BGAPBIGG@?$AAC?$AAa?$AAn?$AA?8?$AAt?$AA?5?$AAm?$AAa?$AAp?$AA?5?$AAc?$AAo?$AAn?$AAs?$AAo@ 00000001800366b0     ConEmuPluginBase.obj
 0002:00003710       ??_C@_1II@OIMPCJAG@?$AAC?$AAa?$AAn?$AA?8?$AAt?$AA?5?$AAm?$AAa?$AAp?$AA?5?$AAc?$AAo?$AAn?$AAs?$AAo@ 0000000180036710     ConEmuPluginBase.obj
 0002:000037a0       ??_C@_1JM@IDPBKCIF@?$AAC?$AAa?$AAn?$AA?8?$AAt?$AA?5?$AAm?$AAa?$AAp?$AA?5?$AAc?$AAo?$AAn?$AAs?$AAo@ 00000001800367a0     ConEmuPluginBase.obj
 0002:00003840       ??_C@_1DA@OEIAGFIH@?$AAC?$AAo?$AAn?$AAE?$AAm?$AAu?$AA?$AA?$AAF?$AAa?$AAr?$AA?5?$AAB?$AAa?$AAc?$AAk@ 0000000180036840     PluginBackground.obj
 0002:00003870       ??_C@_1DA@BMIFHIMF@?$AAC?$AAo?$AAn?$AAE?$AAm?$AAu?$AAV?$AAi?$AAe?$AAw?$AAS?$AAe?$AAt?$AAM?$AAa@ 0000000180036870     PluginBackground.obj
 0002:000038a0       ??_C@_1GA@OEMDGAOF@?$AAI?$AAn?$AAt?$AAe?$AAr?$AAn?$AAa?$AAl?$AA?5?$AAe?$AAr?$AAr?$AAo?$AAr?$AA?4@ 00000001800368a0     PluginBackground.obj
 0002:00003900       ??_C@_13JOFGPIOO@?$AA?4@   0000000180036900     PluginSrv.obj
 0002:00003908       ??_C@_1DC@PFNEMDKA@?$AA?2?$AA?2?$AA?$CF?$AAs?$AA?2?$AAp?$AAi?$AAp?$AAe?$AA?2?$AAC?$AAo?$AAn?$AAE?$AAm@ 0000000180036908     PluginSrv.obj
 0002:00003940       ??_C@_19HGGOABND@?$AA?$CF?$AA0?$AA8?$AAx@ 0000000180036940     PluginSrv.obj
 0002:00003950       ??_C@_1FM@LPOPCJG@?$AAS?$AAt?$AAa?$AAr?$AAt?$AAP?$AAi?$AAp?$AAe?$AAS?$AAe?$AAr?$AAv?$AAe?$AAr@ 0000000180036950     PluginSrv.obj
 0002:000039b0       ??_C@_0EK@DNKFANMG@C?3?2Users?2Maksim?4Moisiuk?2Documen@ 00000001800369b0     PluginSrv.obj
 0002:00003a00       ??_C@_1GC@MCEAIMAO@?$AAS?$AAt?$AAa?$AAr?$AAt?$AAP?$AAi?$AAp?$AAe?$AAI?$AAn?$AAs?$AAt?$AAa?$AAn@ 0000000180036a00     PluginSrv.obj
 0002:00003a68       ??_C@_0BB@MDGFLNIP@PipeServerThread@ 0000000180036a68     PluginSrv.obj
 0002:00003a80       ??_C@_1GG@PAGGIEEF@?$AAS?$AAt?$AAa?$AAr?$AAt?$AAP?$AAi?$AAp?$AAe?$AAI?$AAn?$AAs?$AAt?$AAa?$AAn@ 0000000180036a80     PluginSrv.obj
 0002:00003ae8       ??_C@_1M@KGONCMNM@?$AA?$CF?$AAs?$AA?6?$AA?$CF?$AAs@ 0000000180036ae8     PluginSrv.obj
 0002:00003b00       ??_C@_1EA@JFONKNJK@?$AAP?$AAi?$AAp?$AAe?$AAS?$AAe?$AAr?$AAv?$AAe?$AAr?$AAE?$AAr?$AAr?$AAo?$AAr@ 0000000180036b00     PluginSrv.obj
 0002:00003b40       ??_C@_1FG@DJFPBHJF@?$AAP?$AAi?$AAp?$AAe?$AAS?$AAe?$AAr?$AAv?$AAe?$AAr?$AAE?$AAr?$AAr?$AAo?$AAr@ 0000000180036b40     PluginSrv.obj
 0002:00003ba0       ??_C@_1GK@OLPCHMBE@?$AAP?$AAi?$AAp?$AAe?$AAS?$AAe?$AAr?$AAv?$AAe?$AAr?$AAT?$AAh?$AAr?$AAe?$AAa@ 0000000180036ba0     PluginSrv.obj
 0002:00003c10       ??_C@_1HA@EGHGJDPG@?$AAP?$AAi?$AAp?$AAe?$AAS?$AAe?$AAr?$AAv?$AAe?$AAr?$AAT?$AAh?$AAr?$AAe?$AAa@ 0000000180036c10     PluginSrv.obj
 0002:00003c80       ??_C@_1HG@LHMKOAMG@?$AAP?$AAi?$AAp?$AAe?$AAS?$AAe?$AAr?$AAv?$AAe?$AAr?$AAT?$AAh?$AAr?$AAe?$AAa@ 0000000180036c80     PluginSrv.obj
 0002:00003d00       ??_C@_1EM@INHGIPLC@?$AA?$CF?$AAs?$AA?4?$AA?$CF?$AAu?$AA?3?$AA?5?$AAC?$AAr?$AAe?$AAa?$AAt?$AAe?$AAF?$AAi@ 0000000180036d00     common-kernel64:ConEmuCheck.obj
 0002:00003d50       ??_C@_1DA@LCPELGGN@?$AAC?$AAo?$AAn?$AAE?$AAm?$AAu?$AAG?$AAu?$AAi?$AAI?$AAn?$AAf?$AAo?$AAM?$AAa@ 0000000180036d50     common-kernel64:ConEmuCheck.obj
 0002:00003d80       ??_C@_1DC@MJLCOFMA@?$AA?2?$AA?2?$AA?$CF?$AAs?$AA?2?$AAp?$AAi?$AAp?$AAe?$AA?2?$AAC?$AAo?$AAn?$AAE?$AAm@ 0000000180036d80     common-kernel64:ConEmuCheck.obj
 0002:00003db8       ??_C@_1CM@OPJKOFLA@?$AA?2?$AA?2?$AA?$CF?$AAs?$AA?2?$AAp?$AAi?$AAp?$AAe?$AA?2?$AAC?$AAo?$AAn?$AAE?$AAm@ 0000000180036db8     common-kernel64:ConEmuCheck.obj
 0002:00003de8       ??_C@_1CG@FFFCCLIF@?$AAC?$AAo?$AAn?$AAs?$AAo?$AAl?$AAe?$AAW?$AAi?$AAn?$AAd?$AAo?$AAw?$AAC?$AAl@ 0000000180036de8     common-kernel64:ConEmuCheck.obj
 0002:00003e10       ??_C@_1CC@LMJBOHFL@?$AAW?$AAi?$AAn?$AAe?$AAC?$AAo?$AAn?$AAs?$AAo?$AAl?$AAe?$AAC?$AAl?$AAa?$AAs@ 0000000180036e10     common-kernel64:ConEmuCheck.obj
 0002:00003e38       ??_C@_1BC@LMIJMNIA@?$AA0?$AA0?$AA0?$AA0?$AA0?$AA0?$AA0?$AA0@ 0000000180036e38     common-kernel64:MStrSafe.obj
 0002:00004160       ??_C@_1BC@DDAIKLEO@?$AAA?$AAC?$AAT?$AAI?$AAV?$AAA?$AAT?$AAE@ 0000000180037160     common-kernel64:CmdLine.obj
 0002:00004178       ??_C@_1M@IAAEIFGC@?$AAA?$AAL?$AAI?$AAA?$AAS@ 0000000180037178     common-kernel64:CmdLine.obj
 0002:00004188       ??_C@_1M@NBMJEEAL@?$AAA?$AAS?$AAS?$AAO?$AAC@ 0000000180037188     common-kernel64:CmdLine.obj
 0002:00004198       ??_C@_1O@HDDJOIFH@?$AAA?$AAT?$AAT?$AAR?$AAI?$AAB@ 0000000180037198     common-kernel64:CmdLine.obj
 0002:000041a8       ??_C@_19HDNPBIOA@?$AAB?$AAE?$AAE?$AAP@ 00000001800371a8     common-kernel64:CmdLine.obj
 0002:000041b8       ??_C@_1M@MPPIMPG@?$AAB?$AAR?$AAE?$AAA?$AAK@ 00000001800371b8     common-kernel64:CmdLine.obj
 0002:000041c8       ??_C@_19CFJHMEML@?$AAC?$AAA?$AAL?$AAL@ 00000001800371c8     common-kernel64:CmdLine.obj
 0002:000041d8       ??_C@_17LNHAGCII@?$AAC?$AAD?$AAD@ 00000001800371d8     common-kernel64:CmdLine.obj
 0002:000041e0       ??_C@_19NBEBIFBC@?$AAC?$AAH?$AAC?$AAP@ 00000001800371e0     common-kernel64:CmdLine.obj
 0002:000041f0       ??_C@_1M@ENFOKIIP@?$AAC?$AAO?$AAL?$AAO?$AAR@ 00000001800371f0     common-kernel64:CmdLine.obj
 0002:00004200       ??_C@_19CDMOLDLE@?$AAC?$AAO?$AAP?$AAY@ 0000000180037200     common-kernel64:CmdLine.obj
 0002:00004210       ??_C@_19FFMGBAMO@?$AAD?$AAA?$AAT?$AAE@ 0000000180037210     common-kernel64:CmdLine.obj
 0002:00004220       ??_C@_1BA@KDAEEGIF@?$AAD?$AAE?$AAF?$AAA?$AAU?$AAL?$AAT@ 0000000180037220     common-kernel64:CmdLine.obj
 0002:00004230       ??_C@_17LJFNJANL@?$AAD?$AAE?$AAL@ 0000000180037230     common-kernel64:CmdLine.obj
 0002:00004238       ??_C@_1M@MDOPDHLI@?$AAD?$AAE?$AAL?$AAA?$AAY@ 0000000180037238     common-kernel64:CmdLine.obj
 0002:00004248       ??_C@_1BC@EBILLKF@?$AAD?$AAE?$AAS?$AAC?$AAR?$AAI?$AAB?$AAE@ 0000000180037248     common-kernel64:CmdLine.obj
 0002:00004260       ??_C@_1O@FMDFNCGD@?$AAD?$AAE?$AAT?$AAA?$AAC?$AAH@ 0000000180037260     common-kernel64:CmdLine.obj
 0002:00004270       ??_C@_17HOFJHAAM@?$AAD?$AAI?$AAR@ 0000000180037270     common-kernel64:CmdLine.obj
 0002:00004278       ??_C@_1BG@NDOBACJO@?$AAD?$AAI?$AAR?$AAH?$AAI?$AAS?$AAT?$AAO?$AAR?$AAY@ 0000000180037278     common-kernel64:CmdLine.obj
 0002:00004290       ??_C@_19CFAIOACF@?$AAD?$AAI?$AAR?$AAS@ 0000000180037290     common-kernel64:CmdLine.obj
 0002:000042a0       ??_C@_1BA@EEGPDNCN@?$AAD?$AAR?$AAA?$AAW?$AAB?$AAO?$AAX@ 00000001800372a0     common-kernel64:CmdLine.obj
 0002:000042b0       ??_C@_1BE@MFLGFCAF@?$AAD?$AAR?$AAA?$AAW?$AAH?$AAL?$AAI?$AAN?$AAE@ 00000001800372b0     common-kernel64:CmdLine.obj
 0002:000042c8       ??_C@_1BE@CAJPGMOH@?$AAD?$AAR?$AAA?$AAW?$AAV?$AAL?$AAI?$AAN?$AAE@ 00000001800372c8     common-kernel64:CmdLine.obj
 0002:000042e0       ??_C@_19ODIIFOAJ@?$AAE?$AAC?$AAH?$AAO@ 00000001800372e0     common-kernel64:CmdLine.obj
 0002:000042f0       ??_C@_1BA@GCFKHCBD@?$AAE?$AAC?$AAH?$AAO?$AAE?$AAR?$AAR@ 00000001800372f0     common-kernel64:CmdLine.obj
 0002:00004300       ??_C@_1M@IEKJIEHO@?$AAE?$AAC?$AAH?$AAO?$AAS@ 0000000180037300     common-kernel64:CmdLine.obj
 0002:00004310       ??_C@_1BC@OCCODNGM@?$AAE?$AAC?$AAH?$AAO?$AAS?$AAE?$AAR?$AAR@ 0000000180037310     common-kernel64:CmdLine.obj
 0002:00004328       ??_C@_1BC@HIHGAEJA@?$AAE?$AAN?$AAD?$AAL?$AAO?$AAC?$AAA?$AAL@ 0000000180037328     common-kernel64:CmdLine.obj
 0002:00004340       ??_C@_1M@FCOMLPCA@?$AAE?$AAR?$AAA?$AAS?$AAE@ 0000000180037340     common-kernel64:CmdLine.obj
 0002:00004350       ??_C@_1BG@GOAOIOCC@?$AAE?$AAR?$AAR?$AAO?$AAR?$AAL?$AAE?$AAV?$AAE?$AAL@ 0000000180037350     common-kernel64:CmdLine.obj
 0002:00004368       ??_C@_19KELFKMGC@?$AAE?$AAS?$AAE?$AAT@ 0000000180037368     common-kernel64:CmdLine.obj
 0002:00004378       ??_C@_1O@INDINDHO@?$AAE?$AAX?$AAC?$AAE?$AAP?$AAT@ 0000000180037378     common-kernel64:CmdLine.obj
 0002:00004388       ??_C@_1M@HOIOAEKG@?$AAE?$AAX?$AAI?$AAS?$AAT@ 0000000180037388     common-kernel64:CmdLine.obj
 0002:00004398       ??_C@_19IOBNHAEP@?$AAE?$AAX?$AAI?$AAT@ 0000000180037398     common-kernel64:CmdLine.obj
 0002:000043a8       ??_C@_1M@NPCGCBNH@?$AAF?$AAF?$AAI?$AAN?$AAD@ 00000001800373a8     common-kernel64:CmdLine.obj
 0002:000043b8       ??_C@_17OKCFJEGM@?$AAF?$AAO?$AAR@ 00000001800373b8     common-kernel64:CmdLine.obj
 0002:000043c0       ??_C@_19GLINCHAF@?$AAF?$AAR?$AAE?$AAE@ 00000001800373c0     common-kernel64:CmdLine.obj
 0002:000043d0       ??_C@_1M@BKGEFKH@?$AAF?$AAT?$AAY?$AAP?$AAE@ 00000001800373d0     common-kernel64:CmdLine.obj
 0002:000043e0       ??_C@_1O@COJGIGIJ@?$AAG?$AAL?$AAO?$AAB?$AAA?$AAL@ 00000001800373e0     common-kernel64:CmdLine.obj
 0002:000043f0       ??_C@_19MEMGFJJL@?$AAG?$AAO?$AAT?$AAO@ 00000001800373f0     common-kernel64:CmdLine.obj
 0002:00004400       ??_C@_19EDPCNJOB@?$AAH?$AAE?$AAL?$AAP@ 0000000180037400     common-kernel64:CmdLine.obj
 0002:00004410       ??_C@_1BA@FNCCECPF@?$AAH?$AAI?$AAS?$AAT?$AAO?$AAR?$AAY@ 0000000180037410     common-kernel64:CmdLine.obj
 0002:00004420       ??_C@_15NIBFACBJ@?$AAI?$AAF@ 0000000180037420     common-kernel64:CmdLine.obj
 0002:00004428       ??_C@_17MLHBBHMA@?$AAI?$AAF?$AAF@ 0000000180037428     common-kernel64:CmdLine.obj
 0002:00004430       ??_C@_1M@DEPEIGKO@?$AAI?$AAN?$AAK?$AAE?$AAY@ 0000000180037430     common-kernel64:CmdLine.obj
 0002:00004440       ??_C@_1M@OEJJHBJF@?$AAI?$AAN?$AAP?$AAU?$AAT@ 0000000180037440     common-kernel64:CmdLine.obj
 0002:00004450       ??_C@_1M@KBMHGKGK@?$AAK?$AAE?$AAY?$AAB?$AAD@ 0000000180037450     common-kernel64:CmdLine.obj
 0002:00004460       ??_C@_19OJGLFOCE@?$AAK?$AAE?$AAY?$AAS@ 0000000180037460     common-kernel64:CmdLine.obj
 0002:00004470       ??_C@_1M@CFNEBGLF@?$AAL?$AAA?$AAB?$AAE?$AAL@ 0000000180037470     common-kernel64:CmdLine.obj
 0002:00004480       ??_C@_19GAFEELMN@?$AAL?$AAI?$AAS?$AAT@ 0000000180037480     common-kernel64:CmdLine.obj
 0002:00004490       ??_C@_17BMCCCPAJ@?$AAL?$AAO?$AAG@ 0000000180037490     common-kernel64:CmdLine.obj
 0002:00004498       ??_C@_15OJINIIIE@?$AAM?$AAD@ 0000000180037498     common-kernel64:CmdLine.obj
 0002:000044a0       ??_C@_1O@BMHNHEPH@?$AAM?$AAE?$AAM?$AAO?$AAR?$AAY@ 00000001800374a0     common-kernel64:CmdLine.obj
 0002:000044b0       ??_C@_1M@KIDICDED@?$AAM?$AAK?$AAD?$AAI?$AAR@ 00000001800374b0     common-kernel64:CmdLine.obj
 0002:000044c0       ??_C@_19PBJBIIDN@?$AAM?$AAO?$AAV?$AAE@ 00000001800374c0     common-kernel64:CmdLine.obj
 0002:000044d0       ??_C@_1O@HEILMPND@?$AAM?$AAS?$AAG?$AAB?$AAO?$AAX@ 00000001800374d0     common-kernel64:CmdLine.obj
 0002:000044e0       ??_C@_17BMKLNAAF@?$AAN?$AAO?$AAT@ 00000001800374e0     common-kernel64:CmdLine.obj
 0002:000044e8       ??_C@_15MLPIMJOL@?$AAO?$AAN@ 00000001800374e8     common-kernel64:CmdLine.obj
 0002:000044f0       ??_C@_1O@GPKPHHA@?$AAO?$AAP?$AAT?$AAI?$AAO?$AAN@ 00000001800374f0     common-kernel64:CmdLine.obj
 0002:00004500       ??_C@_19IJOJOJIB@?$AAP?$AAA?$AAT?$AAH@ 0000000180037500     common-kernel64:CmdLine.obj
 0002:00004510       ??_C@_1M@PCDPCAPG@?$AAP?$AAA?$AAU?$AAS?$AAE@ 0000000180037510     common-kernel64:CmdLine.obj
 0002:00004520       ??_C@_19ENCEAGBN@?$AAP?$AAO?$AAP?$AAD@ 0000000180037520     common-kernel64:CmdLine.obj
 0002:00004530       ??_C@_1O@EMMHJCCF@?$AAP?$AAR?$AAO?$AAM?$AAP?$AAT@ 0000000180037530     common-kernel64:CmdLine.obj
 0002:00004540       ??_C@_1M@MLLIJNNO@?$AAP?$AAU?$AAS?$AAH?$AAD@ 0000000180037540     common-kernel64:CmdLine.obj
 0002:0000454c       ??_C@_15BLANDIMK@?$AAR?$AAD@ 000000018003754c     common-kernel64:CmdLine.obj
 0002:00004558       ??_C@_1O@JAHCGOHI@?$AAR?$AAE?$AAB?$AAO?$AAO?$AAT@ 0000000180037558     common-kernel64:CmdLine.obj
 0002:00004568       ??_C@_17KJIAGAPM@?$AAR?$AAE?$AAN@ 0000000180037568     common-kernel64:CmdLine.obj
 0002:00004570       ??_C@_1O@DKKJANDF@?$AAR?$AAE?$AAN?$AAA?$AAM?$AAE@ 0000000180037570     common-kernel64:CmdLine.obj
 0002:00004580       ??_C@_1M@NLKKCBIJ@?$AAR?$AAM?$AAD?$AAI?$AAR@ 0000000180037580     common-kernel64:CmdLine.obj
 0002:00004590       ??_C@_1O@MKBBCDFD@?$AAS?$AAC?$AAR?$AAE?$AAE?$AAN@ 0000000180037590     common-kernel64:CmdLine.obj
 0002:000045a0       ??_C@_1O@MCDIKJHM@?$AAS?$AAC?$AAR?$AAP?$AAU?$AAT@ 00000001800375a0     common-kernel64:CmdLine.obj
 0002:000045b0       ??_C@_1O@PFLGGDAO@?$AAS?$AAE?$AAL?$AAE?$AAC?$AAT@ 00000001800375b0     common-kernel64:CmdLine.obj
 0002:000045c0       ??_C@_17FKIONHJJ@?$AAS?$AAE?$AAT@ 00000001800375c0     common-kernel64:CmdLine.obj
 0002:000045c8       ??_C@_1O@OHHAFKEO@?$AAS?$AAE?$AAT?$AAD?$AAO?$AAS@ 00000001800375c8     common-kernel64:CmdLine.obj
 0002:000045d8       ??_C@_1BC@GEMAPDNM@?$AAS?$AAE?$AAT?$AAL?$AAO?$AAC?$AAA?$AAL@ 00000001800375d8     common-kernel64:CmdLine.obj
 0002:000045f0       ??_C@_1M@OJBOFOHK@?$AAS?$AAH?$AAI?$AAF?$AAT@ 00000001800375f0     common-kernel64:CmdLine.obj
 0002:00004600       ??_C@_1BC@HJGKBLNP@?$AAS?$AAH?$AAR?$AAA?$AAL?$AAI?$AAA?$AAS@ 0000000180037600     common-kernel64:CmdLine.obj
 0002:00004618       ??_C@_1M@JPCOGECE@?$AAS?$AAT?$AAA?$AAR?$AAT@ 0000000180037618     common-kernel64:CmdLine.obj
 0002:00004628       ??_C@_17LIOOOOHK@?$AAT?$AAE?$AAE@ 0000000180037628     common-kernel64:CmdLine.obj
 0002:00004630       ??_C@_19IFFENJMA@?$AAT?$AAI?$AAM?$AAE@ 0000000180037630     common-kernel64:CmdLine.obj
 0002:00004640       ??_C@_1M@FFPBPPED@?$AAT?$AAI?$AAM?$AAE?$AAR@ 0000000180037640     common-kernel64:CmdLine.obj
 0002:00004650       ??_C@_1M@NMMEOLKN@?$AAT?$AAI?$AAT?$AAL?$AAE@ 0000000180037650     common-kernel64:CmdLine.obj
 0002:00004660       ??_C@_1M@BOEMPBHM@?$AAT?$AAO?$AAU?$AAC?$AAH@ 0000000180037660     common-kernel64:CmdLine.obj
 0002:00004670       ??_C@_19EINGHGNA@?$AAT?$AAR?$AAE?$AAE@ 0000000180037670     common-kernel64:CmdLine.obj
 0002:00004680       ??_C@_1BC@DJLLAHAG@?$AAT?$AAR?$AAU?$AAE?$AAN?$AAA?$AAM?$AAE@ 0000000180037680     common-kernel64:CmdLine.obj
 0002:00004698       ??_C@_19EGKHPJKO@?$AAT?$AAY?$AAP?$AAE@ 0000000180037698     common-kernel64:CmdLine.obj
 0002:000046a8       ??_C@_1BA@CPEILPFL@?$AAU?$AAN?$AAA?$AAL?$AAI?$AAA?$AAS@ 00000001800376a8     common-kernel64:CmdLine.obj
 0002:000046b8       ??_C@_1M@GANCNEJA@?$AAU?$AAN?$AAS?$AAE?$AAT@ 00000001800376b8     common-kernel64:CmdLine.obj
 0002:000046c8       ??_C@_17DHAFIGCB@?$AAV?$AAE?$AAR@ 00000001800376c8     common-kernel64:CmdLine.obj
 0002:000046d0       ??_C@_1O@LNHKOABJ@?$AAV?$AAE?$AAR?$AAI?$AAF?$AAY@ 00000001800376d0     common-kernel64:CmdLine.obj
 0002:000046e0       ??_C@_17CGFIIFOL@?$AAV?$AAO?$AAL@ 00000001800376e0     common-kernel64:CmdLine.obj
 0002:000046e8       ??_C@_1BA@GEPADKGO@?$AAV?$AAS?$AAC?$AAR?$AAP?$AAU?$AAT@ 00000001800376e8     common-kernel64:CmdLine.obj
 0002:000046f8       ??_C@_1O@EEDIBOKC@?$AAW?$AAI?$AAN?$AAD?$AAO?$AAW@ 00000001800376f8     common-kernel64:CmdLine.obj
 0002:00004708       ??_C@_13GILOGAML@?$AAY@    0000000180037708     common-kernel64:CmdLine.obj
 0002:00004710       ??_C@_19DOGDICKI@?$AA?4?$AAe?$AAx?$AAe@ 0000000180037710     common-kernel64:CmdLine.obj
 0002:00004720       ??_C@_1BG@PIGCKNCG@?$AAC?$AAo?$AAn?$AAE?$AAm?$AAu?$AA?4?$AAe?$AAx?$AAe@ 0000000180037720     common-kernel64:CmdLine.obj
 0002:00004738       ??_C@_1BK@BNOCAHHB@?$AAC?$AAo?$AAn?$AAE?$AAm?$AAu?$AA6?$AA4?$AA?4?$AAe?$AAx?$AAe@ 0000000180037738     common-kernel64:CmdLine.obj
 0002:00004754       ??_C@_05LCABBMOG@?$CFs?3?$CFi@ 0000000180037754     common-kernel64:WThreads.obj
 0002:00004768       ??_7exception@stdext@@6B@  0000000180037768     common-kernel64:CEStr.obj
 0002:00004780       ??_C@_0BC@BDKFLDHL@unknown?5exception@ 0000000180037780     common-kernel64:CEStr.obj
 0002:000047a0       ??_7bad_alloc@stdext@@6B@  00000001800377a0     common-kernel64:CEStr.obj
 0002:000047b8       ??_C@_1BO@HJHEFHMO@?$AAK?$AAe?$AAr?$AAn?$AAe?$AAl?$AAB?$AAa?$AAs?$AAe?$AA?4?$AAd?$AAl?$AAl@ 00000001800377b8     common-kernel64:MSecurity.obj
 0002:000047d8       ??_C@_1BK@BIGILECK@?$AAA?$AAd?$AAv?$AAa?$AAp?$AAi?$AA3?$AA2?$AA?4?$AAd?$AAl?$AAl@ 00000001800377d8     common-kernel64:MSecurity.obj
 0002:000047f8       ??_C@_0BE@IPKPLIM@AddAccessAllowedAce@ 00000001800377f8     common-kernel64:MSecurity.obj
 0002:00004810       ??_C@_0BD@EIGAJLOG@AddAccessDeniedAce@ 0000000180037810     common-kernel64:MSecurity.obj
 0002:00004828       ??_C@_0BJ@ECIKFEOL@AllocateAndInitializeSid@ 0000000180037828     common-kernel64:MSecurity.obj
 0002:00004848       ??_C@_0N@HBKDHKNL@GetLengthSid@ 0000000180037848     common-kernel64:MSecurity.obj
 0002:00004858       ??_C@_0O@GKCEJBAA@InitializeAcl@ 0000000180037858     common-kernel64:MSecurity.obj
 0002:00004868       ??_C@_0BN@FNLANPJJ@InitializeSecurityDescriptor@ 0000000180037868     common-kernel64:MSecurity.obj
 0002:00004888       ??_C@_0BK@DNNLOFO@SetSecurityDescriptorDacl@ 0000000180037888     common-kernel64:MSecurity.obj
 0002:000048a8       ??_C@_1BE@GJOFHIHD@?$AAn?$AAt?$AAd?$AAl?$AAl?$AA?4?$AAd?$AAl?$AAl@ 00000001800378a8     common-kernel64:WObjects.obj
 0002:000048c0       ??_C@_0BF@LOGLPPDD@RtlVerifyVersionInfo@ 00000001800378c0     common-kernel64:WObjects.obj
 0002:000048d8       ??_C@_1BA@PHJPMKEE@?$AAC?$AAo?$AAm?$AAS?$AAp?$AAe?$AAc@ 00000001800378d8     common-kernel64:WObjects.obj
 0002:000048f0       ??_7?$_Func_impl_no_alloc@P6AHPEAX@ZXPEAX@std@@6B@ 00000001800378f0     common-kernel64:WObjects.obj
 0002:00004920       ??_C@_0BD@HGJIAJJM@RequestTrampolines@ 0000000180037920     common-kernel64:HkFunc.obj
 0002:00004940       ??_7?$MToolHelp@UtagPROCESSENTRY32W@@$1?Process32FirstW@@YAHPEAXPEAU1@@Z$1?Process32NextW@@YAH01@Z@@6B@ 0000000180037940     common-kernel64:MProcess.obj
 0002:00004958       ??_7MToolHelpProcess@@6B@  0000000180037958     common-kernel64:MProcess.obj
 0002:00004968       ??_C@_1BK@HHKNEJDC@?$AAt?$AAl?$AAn?$AAt?$AAs?$AAe?$AAs?$AAs?$AA?4?$AAe?$AAx?$AAe@ 0000000180037968     common-kernel64:MProcess.obj
 0002:00004988       ??_C@_1BI@MPDCNJBA@?$AAt?$AAl?$AAn?$AAt?$AAs?$AAv?$AAr?$AA?4?$AAe?$AAx?$AAe@ 0000000180037988     common-kernel64:MProcess.obj
 0002:000049a8       ??_7?$_Func_impl_no_alloc@V<lambda_217d18733db987cb8fc0adfd68028951>@@_NAEBUtagPROCESSENTRY32W@@@std@@6B@ 00000001800379a8     common-kernel64:MProcess.obj
 0002:000049d8       ??_C@_1O@GNPNAMOC@?$AA0?$AAx?$AA?$CF?$AA0?$AA8?$AAX@ 00000001800379d8     common-user64:SetEnvVar.obj
 0002:000049e8       ??_C@_1BG@CJNOKBPK@?$AAC?$AAo?$AAn?$AAE?$AAm?$AAu?$AAH?$AAW?$AAN?$AAD@ 00000001800379e8     common-user64:SetEnvVar.obj
 0002:00004a00       ??_C@_15EFLNJKHH@?$AA?$CF?$AAu@ 0000000180037a00     common-user64:SetEnvVar.obj
 0002:00004a08       ??_C@_1BE@GIIMEDBE@?$AAC?$AAo?$AAn?$AAE?$AAm?$AAu?$AAP?$AAI?$AAD@ 0000000180037a08     common-user64:SetEnvVar.obj
 0002:00004a20       ??_C@_1BO@BBOAAODE@?$AAC?$AAo?$AAn?$AAE?$AAm?$AAu?$AAD?$AAr?$AAa?$AAw?$AAH?$AAW?$AAN?$AAD@ 0000000180037a20     common-user64:SetEnvVar.obj
 0002:00004a40       ??_C@_1BO@DIAPFMAN@?$AAC?$AAo?$AAn?$AAE?$AAm?$AAu?$AAB?$AAa?$AAc?$AAk?$AAH?$AAW?$AAN?$AAD@ 0000000180037a40     common-user64:SetEnvVar.obj
 0002:00004a60       ??_C@_1CI@PDOPFPLH@?$AAV?$AAi?$AAr?$AAt?$AAu?$AAa?$AAl?$AAC?$AAo?$AAn?$AAs?$AAo?$AAl?$AAe?$AAC@ 0000000180037a60     common-user64:ConEmuCheckEx.obj
 0002:00004a88       ??_C@_1CC@PDEDDOGK@?$AA?2?$AAP?$AAl?$AAu?$AAg?$AAi?$AAn?$AAs?$AA?2?$AAC?$AAo?$AAn?$AAE?$AAm?$AAu@ 0000000180037a88     common-user64:ConEmuCheckEx.obj
 0002:00004ab0       ??_C@_1CA@CNCOCNJD@?$AAS?$AAo?$AAf?$AAt?$AAw?$AAa?$AAr?$AAe?$AA?2?$AAC?$AAo?$AAn?$AAE?$AAm?$AAu@ 0000000180037ab0     common-user64:ConEmuCheckEx.obj
 0002:00004ad0       ??_C@_1CK@KBHIPEEC@?$AAC?$AAo?$AAn?$AAE?$AAm?$AAu?$AA?2?$AAC?$AAo?$AAn?$AAE?$AAm?$AAu?$AAC?$AA6@ 0000000180037ad0     common-user64:ConEmuCheckEx.obj
 0002:00004b00       ??_C@_1CG@HCDHJIEM@?$AAC?$AAo?$AAn?$AAE?$AAm?$AAu?$AA?2?$AAC?$AAo?$AAn?$AAE?$AAm?$AAu?$AAC?$AA?4@ 0000000180037b00     common-user64:ConEmuCheckEx.obj
 0002:00004b30       __xmm@ffffffff800000010000000000000000 0000000180037b30     common-user64:ConEmuCheckEx.obj
 0002:00004b40       __xmm@ffffffff80000002ffffffff80000002 0000000180037b40     common-user64:ConEmuCheckEx.obj
 0002:00004b50       ??_C@_1BO@CJPKCNHF@?$AAL?$AAu?$AAc?$AAi?$AAd?$AAa?$AA?5?$AAC?$AAo?$AAn?$AAs?$AAo?$AAl?$AAe@ 0000000180037b50     common-user64:EmergencyShow.obj
 0002:00004b70       ??_C@_1BA@GIKDDGPH@?$AAC?$AAo?$AAn?$AAs?$AAo?$AAl?$AAe@ 0000000180037b70     common-user64:EmergencyShow.obj
 0002:00004b80       ??_C@_1BC@MAHCNJIF@?$AAF?$AAo?$AAn?$AAt?$AAS?$AAi?$AAz?$AAe@ 0000000180037b80     common-user64:EmergencyShow.obj
 0002:00004ba0       ??_C@_1EM@OAOIIPGN@?$AAC?$AAo?$AAn?$AAs?$AAo?$AAl?$AAe?$AA?2?$AA?$CF?$AAS?$AAy?$AAs?$AAt?$AAe?$AAm@ 0000000180037ba0     common-user64:EmergencyShow.obj
 0002:00004bf0       ??_C@_1DC@GKBPJPHN@?$AAC?$AAo?$AAn?$AAE?$AAm?$AAu?$AAE?$AAm?$AAe?$AAr?$AAg?$AAe?$AAn?$AAc?$AAy@ 0000000180037bf0     common-user64:EmergencyShow.obj
 0002:00004c30       ??_C@_1GK@PPEHOOAL@?$AAS?$AAO?$AAF?$AAT?$AAW?$AAA?$AAR?$AAE?$AA?2?$AAM?$AAi?$AAc?$AAr?$AAo?$AAs@ 0000000180037c30     common-user64:WFiles.obj
 0002:00004c9c       ??_C@_13PJJBFPED@?$AA?$DL@ 0000000180037c9c     common-user64:WFiles.obj
 0002:00004ca0       ??_C@_1FM@HGFGNGE@?$AAC?$AAa?$AAn?$AA?8?$AAt?$AA?5?$AAC?$AAr?$AAe?$AAa?$AAt?$AAe?$AAF?$AAi?$AAl@ 0000000180037ca0     common-user64:WConsoleEx.obj
 0002:00004d00       ??_C@_1EA@DNEBDKPD@?$AAC?$AAa?$AAn?$AA?8?$AAt?$AA?5?$AAM?$AAa?$AAp?$AAV?$AAi?$AAe?$AAw?$AAO?$AAf@ 0000000180037d00     common-user64:WConsoleEx.obj
 0002:00004d40       ??_C@_1BO@IPFLJP@?$AAC?$AAo?$AAn?$AAs?$AAo?$AAl?$AAe?$AA?2?$AAC?$AAo?$AAn?$AAE?$AAm?$AAu@ 0000000180037d40     common-user64:WConsoleEx.obj
 0002:00004d60       ??_C@_1CE@BJHMHGLF@?$AAH?$AAi?$AAs?$AAt?$AAo?$AAr?$AAy?$AAB?$AAu?$AAf?$AAf?$AAe?$AAr?$AAS?$AAi@ 0000000180037d60     common-user64:WConsoleEx.obj
 0002:00004d88       ??_C@_1CO@DAOCNAIJ@?$AAN?$AAu?$AAm?$AAb?$AAe?$AAr?$AAO?$AAf?$AAH?$AAi?$AAs?$AAt?$AAo?$AAr?$AAy@ 0000000180037d88     common-user64:WConsoleEx.obj
 0002:00004dc0       ??_7bad_function_call@std@@6B@ 0000000180037dc0     libcpmt:xthrow.obj
 0002:00004dd0       ??_C@_0BC@DPJNKNAF@bad?5function?5call@ 0000000180037dd0     libcpmt:xthrow.obj
 0002:00004df0       ??_7logic_error@std@@6B@   0000000180037df0     libcpmt:xthrow.obj
 0002:00004e08       ??_7length_error@std@@6B@  0000000180037e08     libcpmt:xthrow.obj
 0002:00004e20       ??_7type_info@@6B@         0000000180037e20     LIBCMT:std_type_info_static.obj
 0002:00004e30       ??_C@_1EC@JIJBPKFM@?$AAa?$AAp?$AAi?$AA?9?$AAm?$AAs?$AA?9?$AAw?$AAi?$AAn?$AA?9?$AAc?$AAo?$AAr?$AAe@ 0000000180037e30     LIBCMT:thread_safe_statics.obj
 0002:00004e78       ??_C@_0BJ@JEBJOJFJ@SleepConditionVariableCS@ 0000000180037e78     LIBCMT:thread_safe_statics.obj
 0002:00004e98       ??_C@_0BJ@PGPPEPCC@WakeAllConditionVariable@ 0000000180037e98     LIBCMT:thread_safe_statics.obj
 0002:00004eb8       _pRawDllMain               0000000180037eb8     LIBCMT:dll_dllmain.obj
 0002:00004eb8       _pDefaultRawDllMain        0000000180037eb8     LIBCMT:dll_dllmain.obj
 0002:00004ec0       __xmm@ffffffffffffffffffffffffffffffff 0000000180037ec0     LIBCMT:utility.obj
 0002:00004ee0       ?s_negLengthTab@FH4@@3QBCB 0000000180037ee0     libvcruntime:risctrnsctrl.obj
 0002:00004ef0       ?s_shiftTab@FH4@@3QBEB     0000000180037ef0     libvcruntime:risctrnsctrl.obj
 0002:00004f98       _pDestructExceptionObject  0000000180037f98     libvcruntime:ehhelpers.obj
 0002:00004fa8       ??_7bad_exception@std@@6B@ 0000000180037fa8     libvcruntime:frame.obj
 0002:00004fb8       ??_C@_0O@DPKOEFFH@bad?5exception@ 0000000180037fb8     libvcruntime:frame.obj
 0002:000056d0       ??_C@_08EHJDFFNH@__based?$CI@ 00000001800386d0     libvcruntime:undname.obj
 0002:000056e0       ??_C@_07KOLFKCDI@__cdecl@  00000001800386e0     libvcruntime:undname.obj
 0002:000056e8       ??_C@_08GHMPAG@__pascal@   00000001800386e8     libvcruntime:undname.obj
 0002:000056f8       ??_C@_09IFJBGAPI@__stdcall@ 00000001800386f8     libvcruntime:undname.obj
 0002:00005708       ??_C@_0L@NPHFGOKO@__thiscall@ 0000000180038708     libvcruntime:undname.obj
 0002:00005718       ??_C@_0L@JMKHOMEK@__fastcall@ 0000000180038718     libvcruntime:undname.obj
 0002:00005728       ??_C@_0N@BCKKPABJ@__vectorcall@ 0000000180038728     libvcruntime:undname.obj
 0002:00005738       ??_C@_09HIJEGCPM@__clrcall@ 0000000180038738     libvcruntime:undname.obj
 0002:00005744       ??_C@_06GHPCKEAG@__eabi@   0000000180038744     libvcruntime:undname.obj
 0002:00005750       ??_C@_09IOPIDJLG@__swift_1@ 0000000180038750     libvcruntime:undname.obj
 0002:00005760       ??_C@_09KFNFGKHF@__swift_2@ 0000000180038760     libvcruntime:undname.obj
 0002:00005770       ??_C@_07JOMMBBKO@__ptr64@  0000000180038770     libvcruntime:undname.obj
 0002:00005778       ??_C@_0L@PILCLIHE@__restrict@ 0000000180038778     libvcruntime:undname.obj
 0002:00005788       ??_C@_0M@GFIIJFMG@__unaligned@ 0000000180038788     libvcruntime:undname.obj
 0002:00005798       ??_C@_09DHDLOLLB@restrict?$CI@ 0000000180038798     libvcruntime:undname.obj
 0002:000057a4       ??_C@_04NIHEBCM@?5new@     00000001800387a4     libvcruntime:undname.obj
 0002:000057b0       ??_C@_07FPCDHGMM@?5delete@ 00000001800387b0     libvcruntime:undname.obj
 0002:000057b8       ??_C@_01NEMOKFLO@?$DN@     00000001800387b8     libvcruntime:undname.obj
 0002:000057bc       ??_C@_02GPIOPFAK@?$DO?$DO@ 00000001800387bc     libvcruntime:undname.obj
 0002:000057c0       ??_C@_02FODMEDOG@?$DM?$DM@ 00000001800387c0     libvcruntime:undname.obj
 0002:000057c4       ??_C@_01DCLJPIOD@?$CB@     00000001800387c4     libvcruntime:undname.obj
 0002:000057c8       ??_C@_02EGOFBIJA@?$DN?$DN@ 00000001800387c8     libvcruntime:undname.obj
 0002:000057cc       ??_C@_02FDNJECIE@?$CB?$DN@ 00000001800387cc     libvcruntime:undname.obj
 0002:000057d0       ??_C@_02GPECMEKF@?$FL?$FN@ 00000001800387d0     libvcruntime:undname.obj
 0002:000057d8       ??_C@_08LHJFAFGD@operator@ 00000001800387d8     libvcruntime:undname.obj
 0002:000057e4       ??_C@_02HBOOOICD@?9?$DO@   00000001800387e4     libvcruntime:undname.obj
 0002:000057e8       ??_C@_01NBENCBCI@?$CK@     00000001800387e8     libvcruntime:undname.obj
 0002:000057ec       ??_C@_02ECNGHCIF@?$CL?$CL@ 00000001800387ec     libvcruntime:undname.obj
 0002:000057f0       ??_C@_02BAABKJLB@?9?9@     00000001800387f0     libvcruntime:undname.obj
 0002:000057f4       ??_C@_01JOAMLHOP@?9@       00000001800387f4     libvcruntime:undname.obj
 0002:000057f8       ??_C@_01MIFGBAGJ@?$CL@     00000001800387f8     libvcruntime:undname.obj
 0002:000057fc       ??_C@_01HNPIGOCE@?$CG@     00000001800387fc     libvcruntime:undname.obj
 0002:00005800       ??_C@_03MNHNFDLC@?9?$DO?$CK@ 0000000180038800     libvcruntime:undname.obj
 0002:00005804       ??_C@_01KMDKNFGN@?1@       0000000180038804     libvcruntime:undname.obj
 0002:00005808       ??_C@_01FGNFDNOH@?$CF@     0000000180038808     libvcruntime:undname.obj
 0002:0000580c       ??_C@_01MNNFJEPP@?$DM@     000000018003880c     libvcruntime:undname.obj
 0002:00005810       ??_C@_02EHCHHCKH@?$DM?$DN@ 0000000180038810     libvcruntime:undname.obj
 0002:00005814       ??_C@_01PPODPGHN@?$DO@     0000000180038814     libvcruntime:undname.obj
 0002:00005818       ??_C@_02EEKDKGMJ@?$DO?$DN@ 0000000180038818     libvcruntime:undname.obj
 0002:0000581c       ??_C@_01IHBHIGKO@?0@       000000018003881c     libvcruntime:undname.obj
 0002:00005820       ??_C@_02HCKGKOFO@?$CI?$CJ@ 0000000180038820     libvcruntime:undname.obj
 0002:00005824       ??_C@_01PJKLJHI@?$HO@      0000000180038824     libvcruntime:undname.obj
 0002:00005828       ??_C@_01JKBOJNNK@?$FO@     0000000180038828     libvcruntime:undname.obj
 0002:0000582c       ??_C@_01DNKMNLPK@?$HM@     000000018003882c     libvcruntime:undname.obj
 0002:00005830       ??_C@_02PPKAJPJL@?$CG?$CG@ 0000000180038830     libvcruntime:undname.obj
 0002:00005834       ??_C@_02NONPIBCD@?$HM?$HM@ 0000000180038834     libvcruntime:undname.obj
 0002:00005838       ??_C@_02FPIMKNGF@?$CK?$DN@ 0000000180038838     libvcruntime:undname.obj
 0002:0000583c       ??_C@_02FOEOMHFC@?$CL?$DN@ 000000018003883c     libvcruntime:undname.obj
 0002:00005840       ??_C@_02FKMDLLOA@?9?$DN@   0000000180038840     libvcruntime:undname.obj
 0002:00005844       ??_C@_02FJEHGPIO@?1?$DN@   0000000180038844     libvcruntime:undname.obj
 0002:00005848       ??_C@_02FENAOKFI@?$CF?$DN@ 0000000180038848     libvcruntime:undname.obj
 0002:0000584c       ??_C@_03IKFCCPFF@?$DO?$DO?$DN@ 000000018003884c     libvcruntime:undname.obj
 0002:00005850       ??_C@_03CDNPDDLA@?$DM?$DM?$DN@ 0000000180038850     libvcruntime:undname.obj
 0002:00005854       ??_C@_02FGJGFEAB@?$CG?$DN@ 0000000180038854     libvcruntime:undname.obj
 0002:00005858       ??_C@_02DHLNPPGH@?$HM?$DN@ 0000000180038858     libvcruntime:undname.obj
 0002:0000585c       ??_C@_02MHEGNOJ@?$FO?$DN@  000000018003885c     libvcruntime:undname.obj
 0002:00005860       ??_C@_09IFPLHPGF@?$GAvftable?8@ 0000000180038860     libvcruntime:undname.obj
 0002:00005870       ??_C@_09BLBHBJP@?$GAvbtable?8@ 0000000180038870     libvcruntime:undname.obj
 0002:00005880       ??_C@_07FEEIOKP@?$GAvcall?8@ 0000000180038880     libvcruntime:undname.obj
 0002:00005888       ??_C@_08LLFFHHDJ@?$GAtypeof?8@ 0000000180038888     libvcruntime:undname.obj
 0002:00005898       ??_C@_0BF@KDPPACIK@?$GAlocal?5static?5guard?8@ 0000000180038898     libvcruntime:undname.obj
 0002:000058b0       ??_C@_08OBABFOLI@?$GAstring?8@ 00000001800388b0     libvcruntime:undname.obj
 0002:000058c0       ??_C@_0BD@JDLKDPAB@?$GAvbase?5destructor?8@ 00000001800388c0     libvcruntime:undname.obj
 0002:000058d8       ??_C@_0BN@DEGPLNFK@?$GAvector?5deleting?5destructor?8@ 00000001800388d8     libvcruntime:undname.obj
 0002:000058f8       ??_C@_0BO@OBMKPJIG@?$GAdefault?5constructor?5closure?8@ 00000001800388f8     libvcruntime:undname.obj
 0002:00005918       ??_C@_0BN@IMDCHIKM@?$GAscalar?5deleting?5destructor?8@ 0000000180038918     libvcruntime:undname.obj
 0002:00005938       ??_C@_0BO@PFGOCPJJ@?$GAvector?5constructor?5iterator?8@ 0000000180038938     libvcruntime:undname.obj
 0002:00005958       ??_C@_0BN@LFPFMEDL@?$GAvector?5destructor?5iterator?8@ 0000000180038958     libvcruntime:undname.obj
 0002:00005978       ??_C@_0CE@IKBNEHA@?$GAvector?5vbase?5constructor?5itera@ 0000000180038978     libvcruntime:undname.obj
 0002:000059a0       ??_C@_0BL@NILFHHPC@?$GAvirtual?5displacement?5map?8@ 00000001800389a0     libvcruntime:undname.obj
 0002:000059c0       ??_C@_0CB@JONCMFFK@?$GAeh?5vector?5constructor?5iterator@ 00000001800389c0     libvcruntime:undname.obj
 0002:000059e8       ??_C@_0CA@GCEOPDGL@?$GAeh?5vector?5destructor?5iterator?8@ 00000001800389e8     libvcruntime:undname.obj
 0002:00005a08       ??_C@_0CH@OOJPLCPH@?$GAeh?5vector?5vbase?5constructor?5it@ 0000000180038a08     libvcruntime:undname.obj
 0002:00005a30       ??_C@_0BL@LLKPOHJI@?$GAcopy?5constructor?5closure?8@ 0000000180038a30     libvcruntime:undname.obj
 0002:00005a50       ??_C@_0BA@KBCDOMBN@?$GAudt?5returning?8@ 0000000180038a50     libvcruntime:undname.obj
 0002:00005a60       ??_C@_03KLGMFNMG@?$GAEH@   0000000180038a60     libvcruntime:undname.obj
 0002:00005a64       ??_C@_05KHLCHHI@?$GARTTI@  0000000180038a64     libvcruntime:undname.obj
 0002:00005a70       ??_C@_0BA@KKLDJDLB@?$GAlocal?5vftable?8@ 0000000180038a70     libvcruntime:undname.obj
 0002:00005a80       ??_C@_0CE@IIHCMGGL@?$GAlocal?5vftable?5constructor?5clos@ 0000000180038a80     libvcruntime:undname.obj
 0002:00005aa4       ??_C@_06FHBGPFGH@?5new?$FL?$FN@ 0000000180038aa4     libvcruntime:undname.obj
 0002:00005ab0       ??_C@_09LBNFPBCA@?5delete?$FL?$FN@ 0000000180038ab0     libvcruntime:undname.obj
 0002:00005ac0       ??_C@_0P@HJKNJFNN@?$GAomni?5callsig?8@ 0000000180038ac0     libvcruntime:undname.obj
 0002:00005ad0       ??_C@_0BL@CNOONJFP@?$GAplacement?5delete?5closure?8@ 0000000180038ad0     libvcruntime:undname.obj
 0002:00005af0       ??_C@_0BN@CKNJLHMB@?$GAplacement?5delete?$FL?$FN?5closure?8@ 0000000180038af0     libvcruntime:undname.obj
 0002:00005b10       ??_C@_0CG@CFDHKGGD@?$GAmanaged?5vector?5constructor?5ite@ 0000000180038b10     libvcruntime:undname.obj
 0002:00005b38       ??_C@_0CF@IMGKMJNO@?$GAmanaged?5vector?5destructor?5iter@ 0000000180038b38     libvcruntime:undname.obj
 0002:00005b60       ??_C@_0CG@HLDDJMAG@?$GAeh?5vector?5copy?5constructor?5ite@ 0000000180038b60     libvcruntime:undname.obj
 0002:00005b88       ??_C@_0CM@FCBBDIGB@?$GAeh?5vector?5vbase?5copy?5construct@ 0000000180038b88     libvcruntime:undname.obj
 0002:00005bb8       ??_C@_0BL@CLIPGLGB@?$GAdynamic?5initializer?5for?5?8@ 0000000180038bb8     libvcruntime:undname.obj
 0002:00005bd8       ??_C@_0CB@PDBIFEP@?$GAdynamic?5atexit?5destructor?5for?5@ 0000000180038bd8     libvcruntime:undname.obj
 0002:00005c00       ??_C@_0CD@CGAJBKEJ@?$GAvector?5copy?5constructor?5iterat@ 0000000180038c00     libvcruntime:undname.obj
 0002:00005c28       ??_C@_0CJ@GJELGAMM@?$GAvector?5vbase?5copy?5constructor?5@ 0000000180038c28     libvcruntime:undname.obj
 0002:00005c58       ??_C@_0CL@FGIJHLCE@?$GAmanaged?5vector?5copy?5constructo@ 0000000180038c58     libvcruntime:undname.obj
 0002:00005c88       ??_C@_0BM@PMGGMLDN@?$GAlocal?5static?5thread?5guard?8@ 0000000180038c88     libvcruntime:undname.obj
 0002:00005ca8       ??_C@_0N@BDNMDMOL@operator?5?$CC?$CC?5@ 0000000180038ca8     libvcruntime:undname.obj
 0002:00005cb8       ??_C@_0BC@GGEBGALA@operator?5co_await@ 0000000180038cb8     libvcruntime:undname.obj
 0002:00005cd0       ??_C@_0M@GAAIMMOH@operator?$DM?$DN?$DO@ 0000000180038cd0     libvcruntime:undname.obj
 0002:00005ce0       ??_C@_0BC@DAFEJGAK@?5Type?5Descriptor?8@ 0000000180038ce0     libvcruntime:undname.obj
 0002:00005cf8       ??_C@_0BM@LDKODKLH@?5Base?5Class?5Descriptor?5at?5?$CI@ 0000000180038cf8     libvcruntime:undname.obj
 0002:00005d18       ??_C@_0BD@LGICGFMM@?5Base?5Class?5Array?8@ 0000000180038d18     libvcruntime:undname.obj
 0002:00005d30       ??_C@_0BN@MECKDCOJ@?5Class?5Hierarchy?5Descriptor?8@ 0000000180038d30     libvcruntime:undname.obj
 0002:00005d50       ??_C@_0BK@CFCOFLF@?5Complete?5Object?5Locator?8@ 0000000180038d50     libvcruntime:undname.obj
 0002:00005d70       ??_C@_0BG@JNJLAMPM@?$GAanonymous?5namespace?8@ 0000000180038d70     libvcruntime:undname.obj
 0002:00005da0       ??_C@_1DM@KHCHBNEB@?$AAa?$AAp?$AAi?$AA?9?$AAm?$AAs?$AA?9?$AAw?$AAi?$AAn?$AA?9?$AAc?$AAo?$AAr?$AAe@ 0000000180038da0     libvcruntime:winapi_downlevel.obj
 0002:00005de0       ??_C@_1DK@LPPGFMPP@?$AAa?$AAp?$AAi?$AA?9?$AAm?$AAs?$AA?9?$AAw?$AAi?$AAn?$AA?9?$AAc?$AAo?$AAr?$AAe@ 0000000180038de0     libvcruntime:winapi_downlevel.obj
 0002:00005e20       ??_C@_1BC@GDMECMAK@?$AAk?$AAe?$AAr?$AAn?$AAe?$AAl?$AA3?$AA2@ 0000000180038e20     libvcruntime:winapi_downlevel.obj
 0002:00005e38       ??_C@_1BA@PFFKHIOG@?$AAa?$AAp?$AAi?$AA?9?$AAm?$AAs?$AA?9@ 0000000180038e38     libvcruntime:winapi_downlevel.obj
 0002:00005e50       ??_C@_08KNHFBNJ@FlsAlloc@  0000000180038e50     libvcruntime:winapi_downlevel.obj
 0002:00005e68       ??_C@_07PEJMOBNF@FlsFree@  0000000180038e68     libvcruntime:winapi_downlevel.obj
 0002:00005e78       ??_C@_0M@GDNOONDI@FlsGetValue@ 0000000180038e78     libvcruntime:winapi_downlevel.obj
 0002:00005e90       ??_C@_0M@JCPCPOEF@FlsSetValue@ 0000000180038e90     libvcruntime:winapi_downlevel.obj
 0002:00005ea8       ??_C@_0BM@HCFOFFN@InitializeCriticalSectionEx@ 0000000180038ea8     libvcruntime:winapi_downlevel.obj
 0002:00005ed0       ?standard_lookup_table_spectre@__crt_stdio_output@@3V?$spectre_mitigated_lookup_table@Ustate_transition_pair@__crt_stdio_output@@$0IA@@1@B 0000000180038ed0     libucrt:output.obj
 0002:000062d0       ??_C@_1O@CEDCILHN@?$AA?$CI?$AAn?$AAu?$AAl?$AAl?$AA?$CJ@ 00000001800392d0     libucrt:output.obj
 0002:000062e0       ??_C@_06OJHGLDPL@?$CInull?$CJ@ 00000001800392e0     libucrt:output.obj
 0002:00006460       __acrt_exception_action_table 0000000180039460     libucrt:exception_filter.obj
 0002:00006520       __acrt_signal_action_table_count 0000000180039520     libucrt:exception_filter.obj
 0002:00006528       __acrt_signal_action_first_fpe_index 0000000180039528     libucrt:exception_filter.obj
 0002:00006530       __acrt_signal_action_fpe_count 0000000180039530     libucrt:exception_filter.obj
 0002:00006538       ??_C@_1BI@BGOHAHKC@?$AAm?$AAs?$AAc?$AAo?$AAr?$AAe?$AAe?$AA?4?$AAd?$AAl?$AAl@ 0000000180039538     libucrt:exit.obj
 0002:00006550       ??_C@_0P@MIGLKIOC@CorExitProcess@ 0000000180039550     libucrt:exit.obj
 0002:000066e0       ??_C@_03OEIAHPBN@INF@      00000001800396e0     libucrt:cvt.obj
 0002:000066e4       ??_C@_03OJHLLCGB@inf@      00000001800396e4     libucrt:cvt.obj
 0002:000066e8       ??_C@_03LKNCIKJB@NAN@      00000001800396e8     libucrt:cvt.obj
 0002:000066ec       ??_C@_03LHCJEHON@nan@      00000001800396ec     libucrt:cvt.obj
 0002:000066f0       ??_C@_09OFJJIMPC@NAN?$CISNAN?$CJ@ 00000001800396f0     libucrt:cvt.obj
 0002:00006700       ??_C@_09IPFBKMDL@nan?$CIsnan?$CJ@ 0000000180039700     libucrt:cvt.obj
 0002:00006710       ??_C@_08IKHNHAJ@NAN?$CIIND?$CJ@ 0000000180039710     libucrt:cvt.obj
 0002:00006720       ??_C@_08OFCDMILK@nan?$CIind?$CJ@ 0000000180039720     libucrt:cvt.obj
 0002:0000672c       ??_C@_05KLBDPFGC@e?$CL000@ 000000018003972c     libucrt:cvt.obj
 0002:00006740       __lc_time_c                0000000180039740     libucrt:nlsdata.obj
 0002:00006a00       ??_C@_03KOEHGMDN@Sun@      0000000180039a00     libucrt:nlsdata.obj
 0002:00006a04       ??_C@_03PDAGKDH@Mon@       0000000180039a04     libucrt:nlsdata.obj
 0002:00006a08       ??_C@_03NAGEINEP@Tue@      0000000180039a08     libucrt:nlsdata.obj
 0002:00006a0c       ??_C@_03MHOMLAJA@Wed@      0000000180039a0c     libucrt:nlsdata.obj
 0002:00006a10       ??_C@_03IOFIKPDN@Thu@      0000000180039a10     libucrt:nlsdata.obj
 0002:00006a14       ??_C@_03IDIOELNC@Fri@      0000000180039a14     libucrt:nlsdata.obj
 0002:00006a18       ??_C@_03FEFJNEK@Sat@       0000000180039a18     libucrt:nlsdata.obj
 0002:00006a1c       ??_C@_06OOPIFAJ@Sunday@    0000000180039a1c     libucrt:nlsdata.obj
 0002:00006a24       ??_C@_06JLEDEDGH@Monday@   0000000180039a24     libucrt:nlsdata.obj
 0002:00006a30       ??_C@_07BAAGCFCM@Tuesday@  0000000180039a30     libucrt:nlsdata.obj
 0002:00006a38       ??_C@_09DLIGFAKA@Wednesday@ 0000000180039a38     libucrt:nlsdata.obj
 0002:00006a48       ??_C@_08HACCIKIA@Thursday@ 0000000180039a48     libucrt:nlsdata.obj
 0002:00006a54       ??_C@_06JECMNKMI@Friday@   0000000180039a54     libucrt:nlsdata.obj
 0002:00006a60       ??_C@_08INBOOONO@Saturday@ 0000000180039a60     libucrt:nlsdata.obj
 0002:00006a6c       ??_C@_03JIHJHPIE@Jan@      0000000180039a6c     libucrt:nlsdata.obj
 0002:00006a70       ??_C@_03HJBDCHOM@Feb@      0000000180039a70     libucrt:nlsdata.obj
 0002:00006a74       ??_C@_03ODNJBKGA@Mar@      0000000180039a74     libucrt:nlsdata.obj
 0002:00006a78       ??_C@_03LEOLGMJP@Apr@      0000000180039a78     libucrt:nlsdata.obj
 0002:00006a7c       ??_C@_03CNMDKL@May@        0000000180039a7c     libucrt:nlsdata.obj
 0002:00006a80       ??_C@_03IDFGHECI@Jun@      0000000180039a80     libucrt:nlsdata.obj
 0002:00006a84       ??_C@_03LBGABGKK@Jul@      0000000180039a84     libucrt:nlsdata.obj
 0002:00006a88       ??_C@_03IFJFEIGA@Aug@      0000000180039a88     libucrt:nlsdata.obj
 0002:00006a8c       ??_C@_03GGCAPAJC@Sep@      0000000180039a8c     libucrt:nlsdata.obj
 0002:00006a90       ??_C@_03BMAOKBAD@Oct@      0000000180039a90     libucrt:nlsdata.obj
 0002:00006a94       ??_C@_03JPJOFNIA@Nov@      0000000180039a94     libucrt:nlsdata.obj
 0002:00006a98       ??_C@_03MKABNOCG@Dec@      0000000180039a98     libucrt:nlsdata.obj
 0002:00006aa0       ??_C@_07CGJPFGJA@January@  0000000180039aa0     libucrt:nlsdata.obj
 0002:00006aa8       ??_C@_08GNJGEPFN@February@ 0000000180039aa8     libucrt:nlsdata.obj
 0002:00006ab4       ??_C@_05HPCKOFNC@March@    0000000180039ab4     libucrt:nlsdata.obj
 0002:00006abc       ??_C@_05DMJDNLEJ@April@    0000000180039abc     libucrt:nlsdata.obj
 0002:00006ac4       ??_C@_04CNLMGBGM@June@     0000000180039ac4     libucrt:nlsdata.obj
 0002:00006acc       ??_C@_04MIEPOIFP@July@     0000000180039acc     libucrt:nlsdata.obj
 0002:00006ad4       ??_C@_06LBBHFDDG@August@   0000000180039ad4     libucrt:nlsdata.obj
 0002:00006ae0       ??_C@_09BHHEALKD@September@ 0000000180039ae0     libucrt:nlsdata.obj
 0002:00006af0       ??_C@_07JJNFCEND@October@  0000000180039af0     libucrt:nlsdata.obj
 0002:00006af8       ??_C@_08HCHEGEOA@November@ 0000000180039af8     libucrt:nlsdata.obj
 0002:00006b08       ??_C@_08EDHMEBNP@December@ 0000000180039b08     libucrt:nlsdata.obj
 0002:00006b14       ??_C@_02DEDBPAFC@AM@       0000000180039b14     libucrt:nlsdata.obj
 0002:00006b18       ??_C@_02CJNFDJBF@PM@       0000000180039b18     libucrt:nlsdata.obj
 0002:00006b20       ??_C@_08BPBNCDIB@MM?1dd?1yy@ 0000000180039b20     libucrt:nlsdata.obj
 0002:00006b30       ??_C@_0BE@CKGJFCPC@dddd?0?5MMMM?5dd?0?5yyyy@ 0000000180039b30     libucrt:nlsdata.obj
 0002:00006b48       ??_C@_08JCCMCCIL@HH?3mm?3ss@ 0000000180039b48     libucrt:nlsdata.obj
 0002:00006b58       ??_C@_17MBGCMIPB@?$AAS?$AAu?$AAn@ 0000000180039b58     libucrt:nlsdata.obj
 0002:00006b60       ??_C@_17KBOMKBF@?$AAM?$AAo?$AAn@ 0000000180039b60     libucrt:nlsdata.obj
 0002:00006b68       ??_C@_17BMKGEGOJ@?$AAT?$AAu?$AAe@ 0000000180039b68     libucrt:nlsdata.obj
 0002:00006b70       ??_C@_17CJEDCEPE@?$AAW?$AAe?$AAd@ 0000000180039b70     libucrt:nlsdata.obj
 0002:00006b78       ??_C@_17PDPHAADD@?$AAT?$AAh?$AAu@ 0000000180039b78     libucrt:nlsdata.obj
 0002:00006b80       ??_C@_17HFOLPPLP@?$AAF?$AAr?$AAi@ 0000000180039b80     libucrt:nlsdata.obj
 0002:00006b88       ??_C@_17GGIBDPIH@?$AAS?$AAa?$AAt@ 0000000180039b88     libucrt:nlsdata.obj
 0002:00006b90       ??_C@_1O@IHNHDHPB@?$AAS?$AAu?$AAn?$AAd?$AAa?$AAy@ 0000000180039b90     libucrt:nlsdata.obj
 0002:00006ba0       ??_C@_1O@MMNBFLIA@?$AAM?$AAo?$AAn?$AAd?$AAa?$AAy@ 0000000180039ba0     libucrt:nlsdata.obj
 0002:00006bb0       ??_C@_1BA@ENFBFFEK@?$AAT?$AAu?$AAe?$AAs?$AAd?$AAa?$AAy@ 0000000180039bb0     libucrt:nlsdata.obj
 0002:00006bc0       ??_C@_1BE@EBOGMDOH@?$AAW?$AAe?$AAd?$AAn?$AAe?$AAs?$AAd?$AAa?$AAy@ 0000000180039bc0     libucrt:nlsdata.obj
 0002:00006bd8       ??_C@_1BC@HHMNLIHE@?$AAT?$AAh?$AAu?$AAr?$AAs?$AAd?$AAa?$AAy@ 0000000180039bd8     libucrt:nlsdata.obj
 0002:00006bf0       ??_C@_1O@PDICJHAG@?$AAF?$AAr?$AAi?$AAd?$AAa?$AAy@ 0000000180039bf0     libucrt:nlsdata.obj
 0002:00006c00       ??_C@_1BC@ENMNNPAJ@?$AAS?$AAa?$AAt?$AAu?$AAr?$AAd?$AAa?$AAy@ 0000000180039c00     libucrt:nlsdata.obj
 0002:00006c18       ??_C@_17DKNBKCHM@?$AAJ?$AAa?$AAn@ 0000000180039c18     libucrt:nlsdata.obj
 0002:00006c20       ??_C@_17LMDJEKJN@?$AAF?$AAe?$AAb@ 0000000180039c20     libucrt:nlsdata.obj
 0002:00006c28       ??_C@_17CKNLEDEC@?$AAM?$AAa?$AAr@ 0000000180039c28     libucrt:nlsdata.obj
 0002:00006c30       ??_C@_17LFPOIHDD@?$AAA?$AAp?$AAr@ 0000000180039c30     libucrt:nlsdata.obj
 0002:00006c38       ??_C@_17PNNKMEED@?$AAM?$AAa?$AAy@ 0000000180039c38     libucrt:nlsdata.obj
 0002:00006c40       ??_C@_17KCJGOCPB@?$AAJ?$AAu?$AAn@ 0000000180039c40     libucrt:nlsdata.obj
 0002:00006c48       ??_C@_17IJPCKHK@?$AAJ?$AAu?$AAl@ 0000000180039c48     libucrt:nlsdata.obj
 0002:00006c50       ??_C@_17ICPELBCN@?$AAA?$AAu?$AAg@ 0000000180039c50     libucrt:nlsdata.obj
 0002:00006c58       ??_C@_17HCHCOKMG@?$AAS?$AAe?$AAp@ 0000000180039c58     libucrt:nlsdata.obj
 0002:00006c60       ??_C@_17FNLKOI@?$AAO?$AAc?$AAt@ 0000000180039c60     libucrt:nlsdata.obj
 0002:00006c68       ??_C@_17BBDMLCIG@?$AAN?$AAo?$AAv@ 0000000180039c68     libucrt:nlsdata.obj
 0002:00006c70       ??_C@_17EGKACKIF@?$AAD?$AAe?$AAc@ 0000000180039c70     libucrt:nlsdata.obj
 0002:00006c78       ??_C@_1BA@EFMEIEBA@?$AAJ?$AAa?$AAn?$AAu?$AAa?$AAr?$AAy@ 0000000180039c78     libucrt:nlsdata.obj
 0002:00006c88       ??_C@_1BC@JGDDFFAM@?$AAF?$AAe?$AAb?$AAr?$AAu?$AAa?$AAr?$AAy@ 0000000180039c88     libucrt:nlsdata.obj
 0002:00006ca0       ??_C@_1M@IKEENEDF@?$AAM?$AAa?$AAr?$AAc?$AAh@ 0000000180039ca0     libucrt:nlsdata.obj
 0002:00006cb0       ??_C@_1M@GJNLMHFD@?$AAA?$AAp?$AAr?$AAi?$AAl@ 0000000180039cb0     libucrt:nlsdata.obj
 0002:00006cc0       ??_C@_19EPFLPGAP@?$AAJ?$AAu?$AAn?$AAe@ 0000000180039cc0     libucrt:nlsdata.obj
 0002:00006cd0       ??_C@_19BIFMLPCD@?$AAJ?$AAu?$AAl?$AAy@ 0000000180039cd0     libucrt:nlsdata.obj
 0002:00006ce0       ??_C@_1O@PAHLKOAC@?$AAA?$AAu?$AAg?$AAu?$AAs?$AAt@ 0000000180039ce0     libucrt:nlsdata.obj
 0002:00006cf0       ??_C@_1BE@DKAAMBJL@?$AAS?$AAe?$AAp?$AAt?$AAe?$AAm?$AAb?$AAe?$AAr@ 0000000180039cf0     libucrt:nlsdata.obj
 0002:00006d08       ??_C@_1BA@EPANDLNG@?$AAO?$AAc?$AAt?$AAo?$AAb?$AAe?$AAr@ 0000000180039d08     libucrt:nlsdata.obj
 0002:00006d18       ??_C@_1BC@BGLIFPF@?$AAN?$AAo?$AAv?$AAe?$AAm?$AAb?$AAe?$AAr@ 0000000180039d18     libucrt:nlsdata.obj
 0002:00006d30       ??_C@_1BC@FEMKIFH@?$AAD?$AAe?$AAc?$AAe?$AAm?$AAb?$AAe?$AAr@ 0000000180039d30     libucrt:nlsdata.obj
 0002:00006d44       ??_C@_15ODEHAHHF@?$AAA?$AAM@ 0000000180039d44     libucrt:nlsdata.obj
 0002:00006d4c       ??_C@_15CLMNNGEL@?$AAP?$AAM@ 0000000180039d4c     libucrt:nlsdata.obj
 0002:00006d58       ??_C@_1BC@IEBCMHCM@?$AAM?$AAM?$AA?1?$AAd?$AAd?$AA?1?$AAy?$AAy@ 0000000180039d58     libucrt:nlsdata.obj
 0002:00006d70       ??_C@_1CI@KNAKOEBC@?$AAd?$AAd?$AAd?$AAd?$AA?0?$AA?5?$AAM?$AAM?$AAM?$AAM?$AA?5?$AAd?$AAd?$AA?0?$AA?5@ 0000000180039d70     libucrt:nlsdata.obj
 0002:00006d98       ??_C@_1BC@GDGBMEMK@?$AAH?$AAH?$AA?3?$AAm?$AAm?$AA?3?$AAs?$AAs@ 0000000180039d98     libucrt:nlsdata.obj
 0002:00006db0       ??_C@_1M@BMHNFIME@?$AAe?$AAn?$AA?9?$AAU?$AAS@ 0000000180039db0     libucrt:nlsdata.obj
 0002:00006dc0       __newctype                 0000000180039dc0     libucrt:ctype.obj
 0002:000070c0       __newclmap                 000000018003a0c0     libucrt:ctype.obj
 0002:00007240       __newcumap                 000000018003a240     libucrt:ctype.obj
 0002:000073c0       _wctype                    000000018003a3c0     libucrt:ctype.obj
 0002:000075e8       ??_C@_1M@HPNHIDJI@?$AAj?$AAa?$AA?9?$AAJ?$AAP@ 000000018003a5e8     libucrt:mbctype.obj
 0002:000075f8       ??_C@_1M@BIBDDEMK@?$AAz?$AAh?$AA?9?$AAC?$AAN@ 000000018003a5f8     libucrt:mbctype.obj
 0002:00007608       ??_C@_1M@JLOOOEGK@?$AAk?$AAo?$AA?9?$AAK?$AAR@ 000000018003a608     libucrt:mbctype.obj
 0002:00007618       ??_C@_1M@CLNBBOPM@?$AAz?$AAh?$AA?9?$AAT?$AAW@ 000000018003a618     libucrt:mbctype.obj
 0002:000076d0       ??_C@_1EA@JGEFHKEI@?$AAa?$AAp?$AAi?$AA?9?$AAm?$AAs?$AA?9?$AAw?$AAi?$AAn?$AA?9?$AAc?$AAo?$AAr?$AAe@ 000000018003a6d0     libucrt:winapi_thunks.obj
 0002:00007710       ??_C@_1DI@IJCEHOCB@?$AAa?$AAp?$AAi?$AA?9?$AAm?$AAs?$AA?9?$AAw?$AAi?$AAn?$AA?9?$AAc?$AAo?$AAr?$AAe@ 000000018003a710     libucrt:winapi_thunks.obj
 0002:00007750       ??_C@_1EI@MPIAOHOC@?$AAa?$AAp?$AAi?$AA?9?$AAm?$AAs?$AA?9?$AAw?$AAi?$AAn?$AA?9?$AAc?$AAo?$AAr?$AAe@ 000000018003a750     libucrt:winapi_thunks.obj
 0002:000077a0       ??_C@_1FK@FPHCKFIE@?$AAa?$AAp?$AAi?$AA?9?$AAm?$AAs?$AA?9?$AAw?$AAi?$AAn?$AA?9?$AAc?$AAo?$AAr?$AAe@ 000000018003a7a0     libucrt:winapi_thunks.obj
 0002:00007800       ??_C@_1EM@DILCGIIO@?$AAa?$AAp?$AAi?$AA?9?$AAm?$AAs?$AA?9?$AAw?$AAi?$AAn?$AA?9?$AAc?$AAo?$AAr?$AAe@ 000000018003a800     libucrt:winapi_thunks.obj
 0002:00007850       ??_C@_1DM@LNCGDDPN@?$AAa?$AAp?$AAi?$AA?9?$AAm?$AAs?$AA?9?$AAw?$AAi?$AAn?$AA?9?$AAc?$AAo?$AAr?$AAe@ 000000018003a850     libucrt:winapi_thunks.obj
 0002:00007890       ??_C@_1DO@FPAPJEMD@?$AAa?$AAp?$AAi?$AA?9?$AAm?$AAs?$AA?9?$AAw?$AAi?$AAn?$AA?9?$AAc?$AAo?$AAr?$AAe@ 000000018003a890     libucrt:winapi_thunks.obj
 0002:000078d0       ??_C@_1DK@NDHNAHIO@?$AAa?$AAp?$AAi?$AA?9?$AAm?$AAs?$AA?9?$AAw?$AAi?$AAn?$AA?9?$AAc?$AAo?$AAr?$AAe@ 000000018003a8d0     libucrt:winapi_thunks.obj
 0002:00007910       ??_C@_1DM@KGHDGBCM@?$AAa?$AAp?$AAi?$AA?9?$AAm?$AAs?$AA?9?$AAw?$AAi?$AAn?$AA?9?$AAc?$AAo?$AAr?$AAe@ 000000018003a910     libucrt:winapi_thunks.obj
 0002:00007950       ??_C@_1EO@IJIOEFOH@?$AAa?$AAp?$AAi?$AA?9?$AAm?$AAs?$AA?9?$AAw?$AAi?$AAn?$AA?9?$AAr?$AAt?$AAc?$AAo@ 000000018003a950     libucrt:winapi_thunks.obj
 0002:000079a0       ??_C@_1FG@HHGEKANL@?$AAa?$AAp?$AAi?$AA?9?$AAm?$AAs?$AA?9?$AAw?$AAi?$AAn?$AA?9?$AAs?$AAe?$AAc?$AAu@ 000000018003a9a0     libucrt:winapi_thunks.obj
 0002:00007a00       ??_C@_1EG@DBIOJECG@?$AAe?$AAx?$AAt?$AA?9?$AAm?$AAs?$AA?9?$AAw?$AAi?$AAn?$AA?9?$AAn?$AAt?$AAu?$AAs@ 000000018003aa00     libucrt:winapi_thunks.obj
 0002:00007a50       ??_C@_1EO@FIHMJCLF@?$AAe?$AAx?$AAt?$AA?9?$AAm?$AAs?$AA?9?$AAw?$AAi?$AAn?$AA?9?$AAn?$AAt?$AAu?$AAs@ 000000018003aa50     libucrt:winapi_thunks.obj
 0002:00007aa0       ??_C@_1BC@DNHGCMLG@?$AAa?$AAd?$AAv?$AAa?$AAp?$AAi?$AA3?$AA2@ 000000018003aaa0     libucrt:winapi_thunks.obj
 0002:00007ab8       ??_C@_1M@OAIMIKLP@?$AAn?$AAt?$AAd?$AAl?$AAl@ 000000018003aab8     libucrt:winapi_thunks.obj
 0002:00007ad0       ??_C@_1EG@DPGNFKGC@?$AAa?$AAp?$AAi?$AA?9?$AAm?$AAs?$AA?9?$AAw?$AAi?$AAn?$AA?9?$AAa?$AAp?$AAp?$AAm@ 000000018003aad0     libucrt:winapi_thunks.obj
 0002:00007b18       ??_C@_1O@BCCLBEOE@?$AAu?$AAs?$AAe?$AAr?$AA3?$AA2@ 000000018003ab18     libucrt:winapi_thunks.obj
 0002:00007b28       ??_C@_1BA@IAIFMGEF@?$AAe?$AAx?$AAt?$AA?9?$AAm?$AAs?$AA?9@ 000000018003ab28     libucrt:winapi_thunks.obj
 0002:00007b40       ??_C@_0BA@FHFNEAED@AreFileApisANSI@ 000000018003ab40     libucrt:winapi_thunks.obj
 0002:00007b80       ??_C@_0O@KKBNKAPF@LCMapStringEx@ 000000018003ab80     libucrt:winapi_thunks.obj
 0002:00007b98       ??_C@_0BB@HBDEELFH@LocaleNameToLCID@ 000000018003ab98     libucrt:winapi_thunks.obj
 0002:00007bb0       ??_C@_0CF@OJOFEIGO@AppPolicyGetProcessTerminationM@ 000000018003abb0     libucrt:winapi_thunks.obj
 0002:00007be0       ?large_power_data@?1??multiply_by_power_of_ten@__crt_strtox@@YA_NAEAUbig_integer@2@I@Z@4QBIB 000000018003abe0     libucrt:cfout.obj
 0002:000084f0       ?large_power_indices@?1??multiply_by_power_of_ten@__crt_strtox@@YA_NAEAUbig_integer@2@I@Z@4QBUunpack_index@?1??12@YA_N0I@Z@B 000000018003b4f0     libucrt:cfout.obj
 0002:00008588       ?small_powers_of_ten@?1??multiply_by_power_of_ten@__crt_strtox@@YA_NAEAUbig_integer@2@I@Z@4QBIB 000000018003b588     libucrt:cfout.obj
 0002:000085ac       ??_C@_01GBGANLPD@0@        000000018003b5ac     libucrt:cfout.obj
 0002:000085b0       ??_C@_05DNEBIAHO@1?$CDINF@ 000000018003b5b0     libucrt:cfout.obj
 0002:000085b8       ??_C@_06IMKFLFPG@1?$CDQNAN@ 000000018003b5b8     libucrt:cfout.obj
 0002:000085c0       ??_C@_06PGGFOGJG@1?$CDSNAN@ 000000018003b5c0     libucrt:cfout.obj
 0002:000085c8       ??_C@_05PHHOCPM@1?$CDIND@  000000018003b5c8     libucrt:cfout.obj
 0002:000085d0       ??_C@_15PJPFLCCM@?$AAu?$AAk@ 000000018003b5d0     libucrt:get_qualified_locale.obj
 0002:00009420       ??_C@_15EMKDOKLE@?$AAa?$AAr@ 000000018003c420     libucrt:lcidtoname_downlevel.obj
 0002:00009428       ??_C@_15KNPADPLH@?$AAb?$AAg@ 000000018003c428     libucrt:lcidtoname_downlevel.obj
 0002:00009430       ??_C@_15EDMHLDMO@?$AAc?$AAa@ 000000018003c430     libucrt:lcidtoname_downlevel.obj
 0002:00009438       ??_C@_1O@BPEAJADD@?$AAz?$AAh?$AA?9?$AAC?$AAH?$AAS@ 000000018003c438     libucrt:lcidtoname_downlevel.obj
 0002:00009448       ??_C@_15LJNHCMNK@?$AAc?$AAs@ 000000018003c448     libucrt:lcidtoname_downlevel.obj
 0002:00009450       ??_C@_15FOMCIDHG@?$AAd?$AAa@ 000000018003c450     libucrt:lcidtoname_downlevel.obj
 0002:00009458       ??_C@_15NBKABECB@?$AAd?$AAe@ 000000018003c458     libucrt:lcidtoname_downlevel.obj
 0002:00009460       ??_C@_15GHPEIIAO@?$AAe?$AAl@ 000000018003c460     libucrt:lcidtoname_downlevel.obj
 0002:00009468       ??_C@_15MNPNEAIF@?$AAe?$AAn@ 000000018003c468     libucrt:lcidtoname_downlevel.obj
 0002:00009470       ??_C@_15GPIOMPMH@?$AAe?$AAs@ 000000018003c470     libucrt:lcidtoname_downlevel.obj
 0002:00009478       ??_C@_15NGLOAKJC@?$AAf?$AAi@ 000000018003c478     libucrt:lcidtoname_downlevel.obj
 0002:00009480       ??_C@_15FBKGNKAM@?$AAf?$AAr@ 000000018003c480     libucrt:lcidtoname_downlevel.obj
 0002:00009488       ??_C@_15KGGCNEFK@?$AAh?$AAe@ 000000018003c488     libucrt:lcidtoname_downlevel.obj
 0002:00009490       ??_C@_15PGHLIDMF@?$AAh?$AAu@ 000000018003c490     libucrt:lcidtoname_downlevel.obj
 0002:00009498       ??_C@_15BIEMAPLM@?$AAi?$AAs@ 000000018003c498     libucrt:lcidtoname_downlevel.obj
 0002:000094a0       ??_C@_15IFJLDHAF@?$AAi?$AAt@ 000000018003c4a0     libucrt:lcidtoname_downlevel.obj
 0002:000094a8       ??_C@_15GEMIOCAG@?$AAj?$AAa@ 000000018003c4a8     libucrt:lcidtoname_downlevel.obj
 0002:000094b0       ??_C@_15EPELEGJA@?$AAk?$AAo@ 000000018003c4b0     libucrt:lcidtoname_downlevel.obj
 0002:000094b8       ??_C@_15NDDHIMN@?$AAn?$AAl@ 000000018003c4b8     libucrt:lcidtoname_downlevel.obj
 0002:000094c0       ??_C@_15BPIGNHCD@?$AAn?$AAo@ 000000018003c4c0     libucrt:lcidtoname_downlevel.obj
 0002:000094c8       ??_C@_15DEOPBLCG@?$AAp?$AAl@ 000000018003c4c8     libucrt:lcidtoname_downlevel.obj
 0002:000094d0       ??_C@_15KBECGEFG@?$AAp?$AAt@ 000000018003c4d0     libucrt:lcidtoname_downlevel.obj
 0002:000094d8       ??_C@_15GLJCBFMD@?$AAr?$AAo@ 000000018003c4d8     libucrt:lcidtoname_downlevel.obj
 0002:000094e0       ??_C@_15FEDGKCDI@?$AAr?$AAu@ 000000018003c4e0     libucrt:lcidtoname_downlevel.obj
 0002:000094e8       ??_C@_15GLKMLLHM@?$AAh?$AAr@ 000000018003c4e8     libucrt:lcidtoname_downlevel.obj
 0002:000094f0       ??_C@_15CPKMFBDB@?$AAs?$AAk@ 000000018003c4f0     libucrt:lcidtoname_downlevel.obj
 0002:000094f8       ??_C@_15BAAIOGMK@?$AAs?$AAq@ 000000018003c4f8     libucrt:lcidtoname_downlevel.obj
 0002:00009500       ??_C@_15INNPNOHD@?$AAs?$AAv@ 000000018003c500     libucrt:lcidtoname_downlevel.obj
 0002:00009508       ??_C@_15CABMMOGH@?$AAt?$AAh@ 000000018003c508     libucrt:lcidtoname_downlevel.obj
 0002:00009510       ??_C@_15BPLIHJJM@?$AAt?$AAr@ 000000018003c510     libucrt:lcidtoname_downlevel.obj
 0002:00009518       ??_C@_15NEOEKKDJ@?$AAu?$AAr@ 000000018003c518     libucrt:lcidtoname_downlevel.obj
 0002:00009520       ??_C@_15NFICGAJK@?$AAi?$AAd@ 000000018003c520     libucrt:lcidtoname_downlevel.obj
 0002:00009528       ??_C@_15HPJPHDM@?$AAb?$AAe@ 000000018003c528     libucrt:lcidtoname_downlevel.obj
 0002:00009530       ??_C@_15LCHLGJII@?$AAs?$AAl@ 000000018003c530     libucrt:lcidtoname_downlevel.obj
 0002:00009538       ??_C@_15PCFJPHHO@?$AAe?$AAt@ 000000018003c538     libucrt:lcidtoname_downlevel.obj
 0002:00009540       ??_C@_15HPFPGODN@?$AAl?$AAv@ 000000018003c540     libucrt:lcidtoname_downlevel.obj
 0002:00009548       ??_C@_15NFFGKGLG@?$AAl?$AAt@ 000000018003c548     libucrt:lcidtoname_downlevel.obj
 0002:00009550       ??_C@_15BDAKCCHN@?$AAf?$AAa@ 000000018003c550     libucrt:lcidtoname_downlevel.obj
 0002:00009558       ??_C@_15NFGIAIAJ@?$AAv?$AAi@ 000000018003c558     libucrt:lcidtoname_downlevel.obj
 0002:00009560       ??_C@_15LMKNDMHN@?$AAh?$AAy@ 000000018003c560     libucrt:lcidtoname_downlevel.obj
 0002:00009568       ??_C@_15IJBHMCFL@?$AAa?$AAz@ 000000018003c568     libucrt:lcidtoname_downlevel.obj
 0002:00009570       ??_C@_15EKOFJABL@?$AAe?$AAu@ 000000018003c570     libucrt:lcidtoname_downlevel.obj
 0002:00009578       ??_C@_15BGHADCNK@?$AAm?$AAk@ 000000018003c578     libucrt:lcidtoname_downlevel.obj
 0002:00009580       ??_C@_15JDNICKHM@?$AAa?$AAf@ 000000018003c580     libucrt:lcidtoname_downlevel.obj
 0002:00009588       ??_C@_15KPJEDBKD@?$AAk?$AAa@ 000000018003c588     libucrt:lcidtoname_downlevel.obj
 0002:00009590       ??_C@_15PDNFFFEO@?$AAf?$AAo@ 000000018003c590     libucrt:lcidtoname_downlevel.obj
 0002:00009598       ??_C@_15OMLEGLOC@?$AAh?$AAi@ 000000018003c598     libucrt:lcidtoname_downlevel.obj
 0002:000095a0       ??_C@_15IDNNENKK@?$AAm?$AAs@ 000000018003c5a0     libucrt:lcidtoname_downlevel.obj
 0002:000095a8       ??_C@_15MACJNBMH@?$AAk?$AAk@ 000000018003c5a8     libucrt:lcidtoname_downlevel.obj
 0002:000095b0       ??_C@_15DKDJEOND@?$AAk?$AAy@ 000000018003c5b0     libucrt:lcidtoname_downlevel.obj
 0002:000095b8       ??_C@_15DFGDLJBG@?$AAs?$AAw@ 000000018003c5b8     libucrt:lcidtoname_downlevel.obj
 0002:000095c0       ??_C@_15BBFAICNG@?$AAu?$AAz@ 000000018003c5c0     libucrt:lcidtoname_downlevel.obj
 0002:000095c8       ??_C@_15DKNDCGEA@?$AAt?$AAt@ 000000018003c5c8     libucrt:lcidtoname_downlevel.obj
 0002:000095d0       ??_C@_15MGIFMDPL@?$AAp?$AAa@ 000000018003c5d0     libucrt:lcidtoname_downlevel.obj
 0002:000095d8       ??_C@_15HCNDBBA@?$AAg?$AAu@ 000000018003c5d8     libucrt:lcidtoname_downlevel.obj
 0002:000095e0       ??_C@_15FNBEIBON@?$AAt?$AAa@ 000000018003c5e0     libucrt:lcidtoname_downlevel.obj
 0002:000095e8       ??_C@_15NCHGBGLK@?$AAt?$AAe@ 000000018003c5e8     libucrt:lcidtoname_downlevel.obj
 0002:000095f0       ??_C@_15PHPHCBPF@?$AAk?$AAn@ 000000018003c5f0     libucrt:lcidtoname_downlevel.obj
 0002:000095f8       ??_C@_15DLGBCKMP@?$AAm?$AAr@ 000000018003c5f8     libucrt:lcidtoname_downlevel.obj
 0002:00009600       ??_C@_15EABBLBFF@?$AAs?$AAa@ 000000018003c600     libucrt:lcidtoname_downlevel.obj
 0002:00009608       ??_C@_15CBKOMCOI@?$AAm?$AAn@ 000000018003c608     libucrt:lcidtoname_downlevel.obj
 0002:00009610       ??_C@_15CKDMCJAF@?$AAg?$AAl@ 000000018003c610     libucrt:lcidtoname_downlevel.obj
 0002:00009618       ??_C@_17CNJFBPG@?$AAk?$AAo?$AAk@ 000000018003c618     libucrt:lcidtoname_downlevel.obj
 0002:00009620       ??_C@_17FFBJICPL@?$AAs?$AAy?$AAr@ 000000018003c620     libucrt:lcidtoname_downlevel.obj
 0002:00009628       ??_C@_17KPNDCPAF@?$AAd?$AAi?$AAv@ 000000018003c628     libucrt:lcidtoname_downlevel.obj
 0002:00009630       ??_C@_1M@OKAHONE@?$AAa?$AAr?$AA?9?$AAS?$AAA@ 000000018003c630     libucrt:lcidtoname_downlevel.obj
 0002:00009640       ??_C@_1M@FFFIGIGK@?$AAb?$AAg?$AA?9?$AAB?$AAG@ 000000018003c640     libucrt:lcidtoname_downlevel.obj
 0002:00009650       ??_C@_1M@BJNKEDC@?$AAc?$AAa?$AA?9?$AAE?$AAS@ 000000018003c650     libucrt:lcidtoname_downlevel.obj
 0002:00009660       ??_C@_1M@IJJHFJHA@?$AAc?$AAs?$AA?9?$AAC?$AAZ@ 000000018003c660     libucrt:lcidtoname_downlevel.obj
 0002:00009670       ??_C@_1M@CLPEOBGI@?$AAd?$AAa?$AA?9?$AAD?$AAK@ 000000018003c670     libucrt:lcidtoname_downlevel.obj
 0002:00009680       ??_C@_1M@MCMADGCB@?$AAd?$AAe?$AA?9?$AAD?$AAE@ 000000018003c680     libucrt:lcidtoname_downlevel.obj
 0002:00009690       ??_C@_1M@OOCKEMAM@?$AAe?$AAl?$AA?9?$AAG?$AAR@ 000000018003c690     libucrt:lcidtoname_downlevel.obj
 0002:000096a0       ??_C@_1M@DDNJFGID@?$AAf?$AAi?$AA?9?$AAF?$AAI@ 000000018003c6a0     libucrt:lcidtoname_downlevel.obj
 0002:000096b0       ??_C@_1M@GLIPPMAC@?$AAf?$AAr?$AA?9?$AAF?$AAR@ 000000018003c6b0     libucrt:lcidtoname_downlevel.obj
 0002:000096c0       ??_C@_1M@GFMCHPE@?$AAh?$AAe?$AA?9?$AAI?$AAL@ 000000018003c6c0     libucrt:lcidtoname_downlevel.obj
 0002:000096d0       ??_C@_1M@MHLPGNKM@?$AAh?$AAu?$AA?9?$AAH?$AAU@ 000000018003c6d0     libucrt:lcidtoname_downlevel.obj
 0002:000096e0       ??_C@_1M@LPDDNNPN@?$AAi?$AAs?$AA?9?$AAI?$AAS@ 000000018003c6e0     libucrt:lcidtoname_downlevel.obj
 0002:000096f0       ??_C@_1M@MADIPODN@?$AAi?$AAt?$AA?9?$AAI?$AAT@ 000000018003c6f0     libucrt:lcidtoname_downlevel.obj
 0002:00009700       ??_C@_1M@IHBJJGG@?$AAn?$AAl?$AA?9?$AAN?$AAL@ 000000018003c700     libucrt:lcidtoname_downlevel.obj
 0002:00009710       ??_C@_1M@EANAGDL@?$AAn?$AAb?$AA?9?$AAN?$AAO@ 000000018003c710     libucrt:lcidtoname_downlevel.obj
 0002:00009720       ??_C@_1M@NEIEMEGP@?$AAp?$AAl?$AA?9?$AAP?$AAL@ 000000018003c720     libucrt:lcidtoname_downlevel.obj
 0002:00009730       ??_C@_1M@BOCFIGEP@?$AAp?$AAt?$AA?9?$AAB?$AAR@ 000000018003c730     libucrt:lcidtoname_downlevel.obj
 0002:00009740       ??_C@_1M@IMPFOPBG@?$AAr?$AAo?$AA?9?$AAR?$AAO@ 000000018003c740     libucrt:lcidtoname_downlevel.obj
 0002:00009750       ??_C@_1M@IDNNEJMM@?$AAr?$AAu?$AA?9?$AAR?$AAU@ 000000018003c750     libucrt:lcidtoname_downlevel.obj
 0002:00009760       ??_C@_1M@LILEEOGM@?$AAh?$AAr?$AA?9?$AAH?$AAR@ 000000018003c760     libucrt:lcidtoname_downlevel.obj
 0002:00009770       ??_C@_1M@FKIFEHPB@?$AAs?$AAk?$AA?9?$AAS?$AAK@ 000000018003c770     libucrt:lcidtoname_downlevel.obj
 0002:00009780       ??_C@_1M@LJMAMNPJ@?$AAs?$AAq?$AA?9?$AAA?$AAL@ 000000018003c780     libucrt:lcidtoname_downlevel.obj
 0002:00009790       ??_C@_1M@GIAKDKJK@?$AAs?$AAv?$AA?9?$AAS?$AAE@ 000000018003c790     libucrt:lcidtoname_downlevel.obj
 0002:000097a0       ??_C@_1M@MKJKIKCL@?$AAt?$AAh?$AA?9?$AAT?$AAH@ 000000018003c7a0     libucrt:lcidtoname_downlevel.obj
 0002:000097b0       ??_C@_1M@MFLCCMPB@?$AAt?$AAr?$AA?9?$AAT?$AAR@ 000000018003c7b0     libucrt:lcidtoname_downlevel.obj
 0002:000097c0       ??_C@_1M@OIJHDKJN@?$AAu?$AAr?$AA?9?$AAP?$AAK@ 000000018003c7c0     libucrt:lcidtoname_downlevel.obj
 0002:000097d0       ??_C@_1M@LHIPCIEK@?$AAi?$AAd?$AA?9?$AAI?$AAD@ 000000018003c7d0     libucrt:lcidtoname_downlevel.obj
 0002:000097e0       ??_C@_1M@MFMOBGI@?$AAu?$AAk?$AA?9?$AAU?$AAA@ 000000018003c7e0     libucrt:lcidtoname_downlevel.obj
 0002:000097f0       ??_C@_1M@OBGLJIPL@?$AAb?$AAe?$AA?9?$AAB?$AAY@ 000000018003c7f0     libucrt:lcidtoname_downlevel.obj
 0002:00009800       ??_C@_1M@BCFAJEAD@?$AAs?$AAl?$AA?9?$AAS?$AAI@ 000000018003c800     libucrt:lcidtoname_downlevel.obj
 0002:00009810       ??_C@_1M@FKFFEDDN@?$AAe?$AAt?$AA?9?$AAE?$AAE@ 000000018003c810     libucrt:lcidtoname_downlevel.obj
 0002:00009820       ??_C@_1M@KGKKAACI@?$AAl?$AAv?$AA?9?$AAL?$AAV@ 000000018003c820     libucrt:lcidtoname_downlevel.obj
 0002:00009830       ??_C@_1M@IFGBIJO@?$AAl?$AAt?$AA?9?$AAL?$AAT@ 000000018003c830     libucrt:lcidtoname_downlevel.obj
 0002:00009840       ??_C@_1M@FGEAHEDM@?$AAf?$AAa?$AA?9?$AAI?$AAR@ 000000018003c840     libucrt:lcidtoname_downlevel.obj
 0002:00009850       ??_C@_1M@KBMAIBFN@?$AAv?$AAi?$AA?9?$AAV?$AAN@ 000000018003c850     libucrt:lcidtoname_downlevel.obj
 0002:00009860       ??_C@_1M@GPCBKDJK@?$AAh?$AAy?$AA?9?$AAA?$AAM@ 000000018003c860     libucrt:lcidtoname_downlevel.obj
 0002:00009870       ??_C@_1BG@BECMDDJB@?$AAa?$AAz?$AA?9?$AAA?$AAZ?$AA?9?$AAL?$AAa?$AAt?$AAn@ 000000018003c870     libucrt:lcidtoname_downlevel.obj
 0002:00009888       ??_C@_1M@MAOFCAEA@?$AAe?$AAu?$AA?9?$AAE?$AAS@ 000000018003c888     libucrt:lcidtoname_downlevel.obj
 0002:00009898       ??_C@_1M@IGHABKPI@?$AAm?$AAk?$AA?9?$AAM?$AAK@ 000000018003c898     libucrt:lcidtoname_downlevel.obj
 0002:000098a8       ??_C@_1M@IAIGNEJG@?$AAt?$AAn?$AA?9?$AAZ?$AAA@ 000000018003c8a8     libucrt:lcidtoname_downlevel.obj
 0002:000098b8       ??_C@_1M@IIJCOJFA@?$AAx?$AAh?$AA?9?$AAZ?$AAA@ 000000018003c8b8     libucrt:lcidtoname_downlevel.obj
 0002:000098c8       ??_C@_1M@LGPJHNJH@?$AAz?$AAu?$AA?9?$AAZ?$AAA@ 000000018003c8c8     libucrt:lcidtoname_downlevel.obj
 0002:000098d8       ??_C@_1M@HOKAOIO@?$AAa?$AAf?$AA?9?$AAZ?$AAA@ 000000018003c8d8     libucrt:lcidtoname_downlevel.obj
 0002:000098e8       ??_C@_1M@DPCLHLIE@?$AAk?$AAa?$AA?9?$AAG?$AAE@ 000000018003c8e8     libucrt:lcidtoname_downlevel.obj
 0002:000098f8       ??_C@_1M@BLKMHJBI@?$AAf?$AAo?$AA?9?$AAF?$AAO@ 000000018003c8f8     libucrt:lcidtoname_downlevel.obj
 0002:00009908       ??_C@_1M@LGGJAPPB@?$AAh?$AAi?$AA?9?$AAI?$AAN@ 000000018003c908     libucrt:lcidtoname_downlevel.obj
 0002:00009918       ??_C@_1M@FIKPIHFE@?$AAm?$AAt?$AA?9?$AAM?$AAT@ 000000018003c918     libucrt:lcidtoname_downlevel.obj
 0002:00009928       ??_C@_1M@HEGGPBFA@?$AAs?$AAe?$AA?9?$AAN?$AAO@ 000000018003c928     libucrt:lcidtoname_downlevel.obj
 0002:00009938       ??_C@_1M@EIBJEEPA@?$AAm?$AAs?$AA?9?$AAM?$AAY@ 000000018003c938     libucrt:lcidtoname_downlevel.obj
 0002:00009948       ??_C@_1M@FHLBGMPP@?$AAk?$AAk?$AA?9?$AAK?$AAZ@ 000000018003c948     libucrt:lcidtoname_downlevel.obj
 0002:00009958       ??_C@_1M@NGJJLCGI@?$AAk?$AAy?$AA?9?$AAK?$AAG@ 000000018003c958     libucrt:lcidtoname_downlevel.obj
 0002:00009968       ??_C@_1M@GIENNBFC@?$AAs?$AAw?$AA?9?$AAK?$AAE@ 000000018003c968     libucrt:lcidtoname_downlevel.obj
 0002:00009978       ??_C@_1BG@NDGMJIMJ@?$AAu?$AAz?$AA?9?$AAU?$AAZ?$AA?9?$AAL?$AAa?$AAt?$AAn@ 000000018003c978     libucrt:lcidtoname_downlevel.obj
 0002:00009990       ??_C@_1M@IDCCIHBC@?$AAt?$AAt?$AA?9?$AAR?$AAU@ 000000018003c990     libucrt:lcidtoname_downlevel.obj
 0002:000099a0       ??_C@_1M@LOICPMOJ@?$AAb?$AAn?$AA?9?$AAI?$AAN@ 000000018003c9a0     libucrt:lcidtoname_downlevel.obj
 0002:000099b0       ??_C@_1M@KPKKNEAH@?$AAp?$AAa?$AA?9?$AAI?$AAN@ 000000018003c9b0     libucrt:lcidtoname_downlevel.obj
 0002:000099c0       ??_C@_1M@PJGPPBOG@?$AAg?$AAu?$AA?9?$AAI?$AAN@ 000000018003c9c0     libucrt:lcidtoname_downlevel.obj
 0002:000099d0       ??_C@_1M@KMKMOPHI@?$AAt?$AAa?$AA?9?$AAI?$AAN@ 000000018003c9d0     libucrt:lcidtoname_downlevel.obj
 0002:000099e0       ??_C@_1M@KFEHEPAC@?$AAt?$AAe?$AA?9?$AAI?$AAN@ 000000018003c9e0     libucrt:lcidtoname_downlevel.obj
 0002:000099f0       ??_C@_1M@CDCLMGHI@?$AAk?$AAn?$AA?9?$AAI?$AAN@ 000000018003c9f0     libucrt:lcidtoname_downlevel.obj
 0002:00009a00       ??_C@_1M@MIODLDKF@?$AAm?$AAl?$AA?9?$AAI?$AAN@ 000000018003ca00     libucrt:lcidtoname_downlevel.obj
 0002:00009a10       ??_C@_1M@PBIEACPO@?$AAm?$AAr?$AA?9?$AAI?$AAN@ 000000018003ca10     libucrt:lcidtoname_downlevel.obj
 0002:00009a20       ??_C@_1M@NIDEAGPH@?$AAs?$AAa?$AA?9?$AAI?$AAN@ 000000018003ca20     libucrt:lcidtoname_downlevel.obj
 0002:00009a30       ??_C@_1M@FHIHCBIO@?$AAm?$AAn?$AA?9?$AAM?$AAN@ 000000018003ca30     libucrt:lcidtoname_downlevel.obj
 0002:00009a40       ??_C@_1M@JAIJPENP@?$AAc?$AAy?$AA?9?$AAG?$AAB@ 000000018003ca40     libucrt:lcidtoname_downlevel.obj
 0002:00009a50       ??_C@_1M@PHGFBEPN@?$AAg?$AAl?$AA?9?$AAE?$AAS@ 000000018003ca50     libucrt:lcidtoname_downlevel.obj
 0002:00009a60       ??_C@_1O@KPIPDNCP@?$AAk?$AAo?$AAk?$AA?9?$AAI?$AAN@ 000000018003ca60     libucrt:lcidtoname_downlevel.obj
 0002:00009a70       ??_C@_1O@KNHJLDJA@?$AAs?$AAy?$AAr?$AA?9?$AAS?$AAY@ 000000018003ca70     libucrt:lcidtoname_downlevel.obj
 0002:00009a80       ??_C@_1O@MKEKBLAH@?$AAd?$AAi?$AAv?$AA?9?$AAM?$AAV@ 000000018003ca80     libucrt:lcidtoname_downlevel.obj
 0002:00009a90       ??_C@_1O@OHDCKDDF@?$AAq?$AAu?$AAz?$AA?9?$AAB?$AAO@ 000000018003ca90     libucrt:lcidtoname_downlevel.obj
 0002:00009aa0       ??_C@_1M@LEPJNLFD@?$AAn?$AAs?$AA?9?$AAZ?$AAA@ 000000018003caa0     libucrt:lcidtoname_downlevel.obj
 0002:00009ab0       ??_C@_1M@OMLEIIJB@?$AAm?$AAi?$AA?9?$AAN?$AAZ@ 000000018003cab0     libucrt:lcidtoname_downlevel.obj
 0002:00009ac0       ??_C@_1M@PMPEAILG@?$AAa?$AAr?$AA?9?$AAI?$AAQ@ 000000018003cac0     libucrt:lcidtoname_downlevel.obj
 0002:00009ad0       ??_C@_1M@CNKPNOEE@?$AAd?$AAe?$AA?9?$AAC?$AAH@ 000000018003cad0     libucrt:lcidtoname_downlevel.obj
 0002:00009ae0       ??_C@_1M@LKMGMLKO@?$AAe?$AAn?$AA?9?$AAG?$AAB@ 000000018003cae0     libucrt:lcidtoname_downlevel.obj
 0002:00009af0       ??_C@_1M@PGKJFFGL@?$AAe?$AAs?$AA?9?$AAM?$AAX@ 000000018003caf0     libucrt:lcidtoname_downlevel.obj
 0002:00009b00       ??_C@_1M@DNNANBDC@?$AAf?$AAr?$AA?9?$AAB?$AAE@ 000000018003cb00     libucrt:lcidtoname_downlevel.obj
 0002:00009b10       ??_C@_1M@HLGMDFHM@?$AAi?$AAt?$AA?9?$AAC?$AAH@ 000000018003cb10     libucrt:lcidtoname_downlevel.obj
 0002:00009b20       ??_C@_1M@CLLBGJH@?$AAn?$AAl?$AA?9?$AAB?$AAE@ 000000018003cb20     libucrt:lcidtoname_downlevel.obj
 0002:00009b30       ??_C@_1M@BODBOGLF@?$AAn?$AAn?$AA?9?$AAN?$AAO@ 000000018003cb30     libucrt:lcidtoname_downlevel.obj
 0002:00009b40       ??_C@_1M@HFFAHKAD@?$AAp?$AAt?$AA?9?$AAP?$AAT@ 000000018003cb40     libucrt:lcidtoname_downlevel.obj
 0002:00009b50       ??_C@_1BG@LNOAKHIE@?$AAs?$AAr?$AA?9?$AAS?$AAP?$AA?9?$AAL?$AAa?$AAt?$AAn@ 000000018003cb50     libucrt:lcidtoname_downlevel.obj
 0002:00009b68       ??_C@_1M@HBMHBGAK@?$AAs?$AAv?$AA?9?$AAF?$AAI@ 000000018003cb68     libucrt:lcidtoname_downlevel.obj
 0002:00009b78       ??_C@_1BG@DGCJGJBE@?$AAa?$AAz?$AA?9?$AAA?$AAZ?$AA?9?$AAC?$AAy?$AAr?$AAl@ 000000018003cb78     libucrt:lcidtoname_downlevel.obj
 0002:00009b90       ??_C@_1M@KEJDAAHB@?$AAs?$AAe?$AA?9?$AAS?$AAE@ 000000018003cb90     libucrt:lcidtoname_downlevel.obj
 0002:00009ba0       ??_C@_1M@HEIBJJAD@?$AAm?$AAs?$AA?9?$AAB?$AAN@ 000000018003cba0     libucrt:lcidtoname_downlevel.obj
 0002:00009bb0       ??_C@_1BG@PBGJMCEM@?$AAu?$AAz?$AA?9?$AAU?$AAZ?$AA?9?$AAC?$AAy?$AAr?$AAl@ 000000018003cbb0     libucrt:lcidtoname_downlevel.obj
 0002:00009bc8       ??_C@_1O@LAOBCMDF@?$AAq?$AAu?$AAz?$AA?9?$AAE?$AAC@ 000000018003cbc8     libucrt:lcidtoname_downlevel.obj
 0002:00009bd8       ??_C@_1M@POEEMAIO@?$AAa?$AAr?$AA?9?$AAE?$AAG@ 000000018003cbd8     libucrt:lcidtoname_downlevel.obj
 0002:00009be8       ??_C@_1M@EFAKDEDL@?$AAz?$AAh?$AA?9?$AAH?$AAK@ 000000018003cbe8     libucrt:lcidtoname_downlevel.obj
 0002:00009bf8       ??_C@_1M@HKKIJHGI@?$AAd?$AAe?$AA?9?$AAA?$AAT@ 000000018003cbf8     libucrt:lcidtoname_downlevel.obj
 0002:00009c08       ??_C@_1M@KBFBEHJF@?$AAe?$AAn?$AA?9?$AAA?$AAU@ 000000018003cc08     libucrt:lcidtoname_downlevel.obj
 0002:00009c18       ??_C@_1M@MNPLFAAH@?$AAe?$AAs?$AA?9?$AAE?$AAS@ 000000018003cc18     libucrt:lcidtoname_downlevel.obj
 0002:00009c28       ??_C@_1M@HJOOJFMA@?$AAf?$AAr?$AA?9?$AAC?$AAA@ 000000018003cc28     libucrt:lcidtoname_downlevel.obj
 0002:00009c38       ??_C@_1BG@JPOFPNAB@?$AAs?$AAr?$AA?9?$AAS?$AAP?$AA?9?$AAC?$AAy?$AAr?$AAl@ 000000018003cc38     libucrt:lcidtoname_downlevel.obj
 0002:00009c50       ??_C@_1M@LNFOCMOB@?$AAs?$AAe?$AA?9?$AAF?$AAI@ 000000018003cc50     libucrt:lcidtoname_downlevel.obj
 0002:00009c60       ??_C@_1O@MGJBOAMB@?$AAq?$AAu?$AAz?$AA?9?$AAP?$AAE@ 000000018003cc60     libucrt:lcidtoname_downlevel.obj
 0002:00009c70       ??_C@_1M@GJINLBOK@?$AAa?$AAr?$AA?9?$AAL?$AAY@ 000000018003cc70     libucrt:lcidtoname_downlevel.obj
 0002:00009c80       ??_C@_1M@GGMNHJNL@?$AAz?$AAh?$AA?9?$AAS?$AAG@ 000000018003cc80     libucrt:lcidtoname_downlevel.obj
 0002:00009c90       ??_C@_1M@HOIKODND@?$AAd?$AAe?$AA?9?$AAL?$AAU@ 000000018003cc90     libucrt:lcidtoname_downlevel.obj
 0002:00009ca0       ??_C@_1M@DDOCCGFG@?$AAe?$AAn?$AA?9?$AAC?$AAA@ 000000018003cca0     libucrt:lcidtoname_downlevel.obj
 0002:00009cb0       ??_C@_1M@BNOEMJLF@?$AAe?$AAs?$AA?9?$AAG?$AAT@ 000000018003ccb0     libucrt:lcidtoname_downlevel.obj
 0002:00009cc0       ??_C@_1M@EOGNKEK@?$AAf?$AAr?$AA?9?$AAC?$AAH@ 000000018003ccc0     libucrt:lcidtoname_downlevel.obj
 0002:00009cd0       ??_C@_1M@FLIDJFHL@?$AAh?$AAr?$AA?9?$AAB?$AAA@ 000000018003ccd0     libucrt:lcidtoname_downlevel.obj
 0002:00009ce0       ??_C@_1O@FMCELNAJ@?$AAs?$AAm?$AAj?$AA?9?$AAN?$AAO@ 000000018003cce0     libucrt:lcidtoname_downlevel.obj
 0002:00009cf0       ??_C@_1M@JHGLJMGJ@?$AAa?$AAr?$AA?9?$AAD?$AAZ@ 000000018003ccf0     libucrt:lcidtoname_downlevel.obj
 0002:00009d00       ??_C@_1M@JKKFDCNP@?$AAz?$AAh?$AA?9?$AAM?$AAO@ 000000018003cd00     libucrt:lcidtoname_downlevel.obj
 0002:00009d10       ??_C@_1M@GEEFALPE@?$AAd?$AAe?$AA?9?$AAL?$AAI@ 000000018003cd10     libucrt:lcidtoname_downlevel.obj
 0002:00009d20       ??_C@_1M@IGEOFBG@?$AAe?$AAn?$AA?9?$AAN?$AAZ@ 000000018003cd20     libucrt:lcidtoname_downlevel.obj
 0002:00009d30       ??_C@_1M@KDBONEHP@?$AAe?$AAs?$AA?9?$AAC?$AAR@ 000000018003cd30     libucrt:lcidtoname_downlevel.obj
 0002:00009d40       ??_C@_1M@FHMDOHNN@?$AAf?$AAr?$AA?9?$AAL?$AAU@ 000000018003cd40     libucrt:lcidtoname_downlevel.obj
 0002:00009d50       ??_C@_1BG@NFKKMAFG@?$AAb?$AAs?$AA?9?$AAB?$AAA?$AA?9?$AAL?$AAa?$AAt?$AAn@ 000000018003cd50     libucrt:lcidtoname_downlevel.obj
 0002:00009d68       ??_C@_1O@IMNBEMCI@?$AAs?$AAm?$AAj?$AA?9?$AAS?$AAE@ 000000018003cd68     libucrt:lcidtoname_downlevel.obj
 0002:00009d78       ??_C@_1M@DHHMBNDP@?$AAa?$AAr?$AA?9?$AAM?$AAA@ 000000018003cd78     libucrt:lcidtoname_downlevel.obj
 0002:00009d88       ??_C@_1M@BNBLJCGH@?$AAe?$AAn?$AA?9?$AAI?$AAE@ 000000018003cd88     libucrt:lcidtoname_downlevel.obj
 0002:00009d98       ??_C@_1M@GEPAFMDL@?$AAe?$AAs?$AA?9?$AAP?$AAA@ 000000018003cd98     libucrt:lcidtoname_downlevel.obj
 0002:00009da8       ??_C@_1M@OJONDMDL@?$AAf?$AAr?$AA?9?$AAM?$AAC@ 000000018003cda8     libucrt:lcidtoname_downlevel.obj
 0002:00009db8       ??_C@_1BG@OBCNFJB@?$AAs?$AAr?$AA?9?$AAB?$AAA?$AA?9?$AAL?$AAa?$AAt?$AAn@ 000000018003cdb8     libucrt:lcidtoname_downlevel.obj
 0002:00009dd0       ??_C@_1O@KEMEEGPO@?$AAs?$AAm?$AAa?$AA?9?$AAN?$AAO@ 000000018003cdd0     libucrt:lcidtoname_downlevel.obj
 0002:00009de0       ??_C@_1M@ELMGFODK@?$AAa?$AAr?$AA?9?$AAT?$AAN@ 000000018003cde0     libucrt:lcidtoname_downlevel.obj
 0002:00009df0       ??_C@_1M@BHDLHFAF@?$AAe?$AAn?$AA?9?$AAZ?$AAA@ 000000018003cdf0     libucrt:lcidtoname_downlevel.obj
 0002:00009e00       ??_C@_1M@BMGIGLIF@?$AAe?$AAs?$AA?9?$AAD?$AAO@ 000000018003ce00     libucrt:lcidtoname_downlevel.obj
 0002:00009e10       ??_C@_1BG@CMBHIPBE@?$AAs?$AAr?$AA?9?$AAB?$AAA?$AA?9?$AAC?$AAy?$AAr?$AAl@ 000000018003ce10     libucrt:lcidtoname_downlevel.obj
 0002:00009e28       ??_C@_1O@HEDBLHNP@?$AAs?$AAm?$AAa?$AA?9?$AAS?$AAE@ 000000018003ce28     libucrt:lcidtoname_downlevel.obj
 0002:00009e38       ??_C@_1M@DAGCADIM@?$AAa?$AAr?$AA?9?$AAO?$AAM@ 000000018003ce38     libucrt:lcidtoname_downlevel.obj
 0002:00009e48       ??_C@_1M@FODLMICG@?$AAe?$AAn?$AA?9?$AAJ?$AAM@ 000000018003ce48     libucrt:lcidtoname_downlevel.obj
 0002:00009e58       ??_C@_1M@DNMLCIHB@?$AAe?$AAs?$AA?9?$AAV?$AAE@ 000000018003ce58     libucrt:lcidtoname_downlevel.obj
 0002:00009e68       ??_C@_1O@EOKHMKJK@?$AAs?$AAm?$AAs?$AA?9?$AAF?$AAI@ 000000018003ce68     libucrt:lcidtoname_downlevel.obj
 0002:00009e78       ??_C@_1M@CAFJMKOF@?$AAa?$AAr?$AA?9?$AAY?$AAE@ 000000018003ce78     libucrt:lcidtoname_downlevel.obj
 0002:00009e88       ??_C@_1M@CBFHIJLI@?$AAe?$AAn?$AA?9?$AAC?$AAB@ 000000018003ce88     libucrt:lcidtoname_downlevel.obj
 0002:00009e98       ??_C@_1M@BGNFLDN@?$AAe?$AAs?$AA?9?$AAC?$AAO@ 000000018003ce98     libucrt:lcidtoname_downlevel.obj
 0002:00009ea8       ??_C@_1O@JMPHMAMC@?$AAs?$AAm?$AAn?$AA?9?$AAF?$AAI@ 000000018003cea8     libucrt:lcidtoname_downlevel.obj
 0002:00009eb8       ??_C@_1M@JLANABKE@?$AAa?$AAr?$AA?9?$AAS?$AAY@ 000000018003ceb8     libucrt:lcidtoname_downlevel.obj
 0002:00009ec8       ??_C@_1M@HPKGCFGN@?$AAe?$AAn?$AA?9?$AAB?$AAZ@ 000000018003cec8     libucrt:lcidtoname_downlevel.obj
 0002:00009ed8       ??_C@_1M@OLJCMLGM@?$AAe?$AAs?$AA?9?$AAP?$AAE@ 000000018003ced8     libucrt:lcidtoname_downlevel.obj
 0002:00009ee8       ??_C@_1M@MKKGFKLE@?$AAa?$AAr?$AA?9?$AAJ?$AAO@ 000000018003cee8     libucrt:lcidtoname_downlevel.obj
 0002:00009ef8       ??_C@_1M@EKPGLDNI@?$AAe?$AAn?$AA?9?$AAT?$AAT@ 000000018003cef8     libucrt:lcidtoname_downlevel.obj
 0002:00009f08       ??_C@_1M@OONGHFHE@?$AAe?$AAs?$AA?9?$AAA?$AAR@ 000000018003cf08     libucrt:lcidtoname_downlevel.obj
 0002:00009f18       ??_C@_1M@OOJFGBHE@?$AAa?$AAr?$AA?9?$AAL?$AAB@ 000000018003cf18     libucrt:lcidtoname_downlevel.obj
 0002:00009f28       ??_C@_1M@GCEJHNEG@?$AAe?$AAn?$AA?9?$AAZ?$AAW@ 000000018003cf28     libucrt:lcidtoname_downlevel.obj
 0002:00009f38       ??_C@_1M@JNOCAHJI@?$AAe?$AAs?$AA?9?$AAE?$AAC@ 000000018003cf38     libucrt:lcidtoname_downlevel.obj
 0002:00009f48       ??_C@_1M@JEFHPGGB@?$AAa?$AAr?$AA?9?$AAK?$AAW@ 000000018003cf48     libucrt:lcidtoname_downlevel.obj
 0002:00009f58       ??_C@_1M@MLKIBJOJ@?$AAe?$AAn?$AA?9?$AAP?$AAH@ 000000018003cf58     libucrt:lcidtoname_downlevel.obj
 0002:00009f68       ??_C@_1M@BDNIPEND@?$AAe?$AAs?$AA?9?$AAC?$AAL@ 000000018003cf68     libucrt:lcidtoname_downlevel.obj
 0002:00009f78       ??_C@_1M@MPNMEKBD@?$AAa?$AAr?$AA?9?$AAA?$AAE@ 000000018003cf78     libucrt:lcidtoname_downlevel.obj
 0002:00009f88       ??_C@_1M@KBJALCPI@?$AAe?$AAs?$AA?9?$AAU?$AAY@ 000000018003cf88     libucrt:lcidtoname_downlevel.obj
 0002:00009f98       ??_C@_1M@LLCCOAGA@?$AAa?$AAr?$AA?9?$AAB?$AAH@ 000000018003cf98     libucrt:lcidtoname_downlevel.obj
 0002:00009fa8       ??_C@_1M@PBFNCDEL@?$AAe?$AAs?$AA?9?$AAP?$AAY@ 000000018003cfa8     libucrt:lcidtoname_downlevel.obj
 0002:00009fb8       ??_C@_1M@EDGINPNP@?$AAa?$AAr?$AA?9?$AAQ?$AAA@ 000000018003cfb8     libucrt:lcidtoname_downlevel.obj
 0002:00009fc8       ??_C@_1M@MKDBIIJI@?$AAe?$AAs?$AA?9?$AAB?$AAO@ 000000018003cfc8     libucrt:lcidtoname_downlevel.obj
 0002:00009fd8       ??_C@_1M@CPKKEBLD@?$AAe?$AAs?$AA?9?$AAS?$AAV@ 000000018003cfd8     libucrt:lcidtoname_downlevel.obj
 0002:00009fe8       ??_C@_1M@NDBGMMJL@?$AAe?$AAs?$AA?9?$AAH?$AAN@ 000000018003cfe8     libucrt:lcidtoname_downlevel.obj
 0002:00009ff8       ??_C@_1M@JIJIBHDP@?$AAe?$AAs?$AA?9?$AAN?$AAI@ 000000018003cff8     libucrt:lcidtoname_downlevel.obj
 0002:0000a008       ??_C@_1M@CGFMKEEK@?$AAe?$AAs?$AA?9?$AAP?$AAR@ 000000018003d008     libucrt:lcidtoname_downlevel.obj
 0002:0000a018       ??_C@_1O@ICJHKIIK@?$AAz?$AAh?$AA?9?$AAC?$AAH?$AAT@ 000000018003d018     libucrt:lcidtoname_downlevel.obj
 0002:0000a028       ??_C@_15CLNEJCE@?$AAs?$AAr@ 000000018003d028     libucrt:lcidtoname_downlevel.obj
 0002:0000ae70       ??_C@_1M@KAHEKEIG@?$AAa?$AAf?$AA?9?$AAz?$AAa@ 000000018003de70     libucrt:lcidtoname_downlevel.obj
 0002:0000ae80       ??_C@_1M@GIECOABL@?$AAa?$AAr?$AA?9?$AAa?$AAe@ 000000018003de80     libucrt:lcidtoname_downlevel.obj
 0002:0000ae90       ??_C@_1M@BMLMEKGI@?$AAa?$AAr?$AA?9?$AAb?$AAh@ 000000018003de90     libucrt:lcidtoname_downlevel.obj
 0002:0000aea0       ??_C@_1M@DAPFDGGB@?$AAa?$AAr?$AA?9?$AAd?$AAz@ 000000018003dea0     libucrt:lcidtoname_downlevel.obj
 0002:0000aeb0       ??_C@_1M@FJNKGKIG@?$AAa?$AAr?$AA?9?$AAe?$AAg@ 000000018003deb0     libucrt:lcidtoname_downlevel.obj
 0002:0000aec0       ??_C@_1M@FLGKKCLO@?$AAa?$AAr?$AA?9?$AAi?$AAq@ 000000018003dec0     libucrt:lcidtoname_downlevel.obj
 0002:0000aed0       ??_C@_1M@GNDIPALM@?$AAa?$AAr?$AA?9?$AAj?$AAo@ 000000018003ded0     libucrt:lcidtoname_downlevel.obj
 0002:0000aee0       ??_C@_1M@DDMJFMGJ@?$AAa?$AAr?$AA?9?$AAk?$AAw@ 000000018003dee0     libucrt:lcidtoname_downlevel.obj
 0002:0000aef0       ??_C@_1M@EJALMLHM@?$AAa?$AAr?$AA?9?$AAl?$AAb@ 000000018003def0     libucrt:lcidtoname_downlevel.obj
 0002:0000af00       ??_C@_1M@MOBDBLOC@?$AAa?$AAr?$AA?9?$AAl?$AAy@ 000000018003df00     libucrt:lcidtoname_downlevel.obj
 0002:0000af10       ??_C@_1M@JAOCLHDH@?$AAa?$AAr?$AA?9?$AAm?$AAa@ 000000018003df10     libucrt:lcidtoname_downlevel.obj
 0002:0000af20       ??_C@_1M@JHPMKJIE@?$AAa?$AAr?$AA?9?$AAo?$AAm@ 000000018003df20     libucrt:lcidtoname_downlevel.obj
 0002:0000af30       ??_C@_1M@OEPGHFNH@?$AAa?$AAr?$AA?9?$AAq?$AAa@ 000000018003df30     libucrt:lcidtoname_downlevel.obj
 0002:0000af40       ??_C@_1M@KJDONENM@?$AAa?$AAr?$AA?9?$AAs?$AAa@ 000000018003df40     libucrt:lcidtoname_downlevel.obj
 0002:0000af50       ??_C@_1M@DMJDKLKM@?$AAa?$AAr?$AA?9?$AAs?$AAy@ 000000018003df50     libucrt:lcidtoname_downlevel.obj
 0002:0000af60       ??_C@_1M@OMFIPEDC@?$AAa?$AAr?$AA?9?$AAt?$AAn@ 000000018003df60     libucrt:lcidtoname_downlevel.obj
 0002:0000af70       ??_C@_1M@IHMHGAON@?$AAa?$AAr?$AA?9?$AAy?$AAe@ 000000018003df70     libucrt:lcidtoname_downlevel.obj
 0002:0000af80       ??_C@_1BG@KDCPGJGB@?$AAa?$AAz?$AA?9?$AAa?$AAz?$AA?9?$AAc?$AAy?$AAr?$AAl@ 000000018003df80     libucrt:lcidtoname_downlevel.obj
 0002:0000af98       ??_C@_1BG@IBCKDDOE@?$AAa?$AAz?$AA?9?$AAa?$AAz?$AA?9?$AAl?$AAa?$AAt?$AAn@ 000000018003df98     libucrt:lcidtoname_downlevel.obj
 0002:0000afb0       ??_C@_1M@EGPFDCPD@?$AAb?$AAe?$AA?9?$AAb?$AAy@ 000000018003dfb0     libucrt:lcidtoname_downlevel.obj
 0002:0000afc0       ??_C@_1M@PCMGMCGC@?$AAb?$AAg?$AA?9?$AAb?$AAg@ 000000018003dfc0     libucrt:lcidtoname_downlevel.obj
 0002:0000afd0       ??_C@_1M@BJBMFGOB@?$AAb?$AAn?$AA?9?$AAi?$AAn@ 000000018003dfd0     libucrt:lcidtoname_downlevel.obj
 0002:0000afe0       ??_C@_1BG@EAKMMACD@?$AAb?$AAs?$AA?9?$AAb?$AAa?$AA?9?$AAl?$AAa?$AAt?$AAn@ 000000018003dfe0     libucrt:lcidtoname_downlevel.obj
 0002:0000aff8       ??_C@_1M@KGADAODK@?$AAc?$AAa?$AA?9?$AAe?$AAs@ 000000018003dff8     libucrt:lcidtoname_downlevel.obj
 0002:0000b008       ??_C@_1M@COAJPDHI@?$AAc?$AAs?$AA?9?$AAc?$AAz@ 000000018003e008     libucrt:lcidtoname_downlevel.obj
 0002:0000b018       ??_C@_1M@DHBHFONH@?$AAc?$AAy?$AA?9?$AAg?$AAb@ 000000018003e018     libucrt:lcidtoname_downlevel.obj
 0002:0000b028       ??_C@_1M@IMGKELGA@?$AAd?$AAa?$AA?9?$AAd?$AAk@ 000000018003e028     libucrt:lcidtoname_downlevel.obj
 0002:0000b038       ??_C@_1M@NNDGDNGA@?$AAd?$AAe?$AA?9?$AAa?$AAt@ 000000018003e038     libucrt:lcidtoname_downlevel.obj
 0002:0000b048       ??_C@_1M@IKDBHEEM@?$AAd?$AAe?$AA?9?$AAc?$AAh@ 000000018003e048     libucrt:lcidtoname_downlevel.obj
 0002:0000b058       ??_C@_1M@GFFOJMCJ@?$AAd?$AAe?$AA?9?$AAd?$AAe@ 000000018003e058     libucrt:lcidtoname_downlevel.obj
 0002:0000b068       ??_C@_1M@MDNLKBPM@?$AAd?$AAe?$AA?9?$AAl?$AAi@ 000000018003e068     libucrt:lcidtoname_downlevel.obj
 0002:0000b078       ??_C@_1M@NJBEEJNL@?$AAd?$AAe?$AA?9?$AAl?$AAu@ 000000018003e078     libucrt:lcidtoname_downlevel.obj
 0002:0000b088       ??_C@_1O@GNNELBAP@?$AAd?$AAi?$AAv?$AA?9?$AAm?$AAv@ 000000018003e088     libucrt:lcidtoname_downlevel.obj
 0002:0000b098       ??_C@_1M@EJLEOGAE@?$AAe?$AAl?$AA?9?$AAg?$AAr@ 000000018003e098     libucrt:lcidtoname_downlevel.obj
 0002:0000b0a8       ??_C@_1M@GMPONJN@?$AAe?$AAn?$AA?9?$AAa?$AAu@ 000000018003e0a8     libucrt:lcidtoname_downlevel.obj
 0002:0000b0b8       ??_C@_1M@NIDIIPGF@?$AAe?$AAn?$AA?9?$AAb?$AAz@ 000000018003e0b8     libucrt:lcidtoname_downlevel.obj
 0002:0000b0c8       ??_C@_1M@JEHMIMFO@?$AAe?$AAn?$AA?9?$AAc?$AAa@ 000000018003e0c8     libucrt:lcidtoname_downlevel.obj
 0002:0000b0d8       ??_C@_1M@IGMJCDLA@?$AAe?$AAn?$AA?9?$AAc?$AAb@ 000000018003e0d8     libucrt:lcidtoname_downlevel.obj
 0002:0000b0e8       ??_C@_1M@BNFIGBKG@?$AAe?$AAn?$AA?9?$AAg?$AAb@ 000000018003e0e8     libucrt:lcidtoname_downlevel.obj
 0002:0000b0f8       ??_C@_1M@LKIFDIGP@?$AAe?$AAn?$AA?9?$AAi?$AAe@ 000000018003e0f8     libucrt:lcidtoname_downlevel.obj
 0002:0000b108       ??_C@_1M@PJKFGCCO@?$AAe?$AAn?$AA?9?$AAj?$AAm@ 000000018003e108     libucrt:lcidtoname_downlevel.obj
 0002:0000b118       ??_C@_1M@KPPKEPBO@?$AAe?$AAn?$AA?9?$AAn?$AAz@ 000000018003e118     libucrt:lcidtoname_downlevel.obj
 0002:0000b128       ??_C@_1M@GMDGLDOB@?$AAe?$AAn?$AA?9?$AAp?$AAh@ 000000018003e128     libucrt:lcidtoname_downlevel.obj
 0002:0000b138       ??_C@_1M@ONGIBJNA@?$AAe?$AAn?$AA?9?$AAt?$AAt@ 000000018003e138     libucrt:lcidtoname_downlevel.obj
 0002:0000b148       ??_C@_1M@LLODPCMM@?$AAe?$AAn?$AA?9?$AAu?$AAs@ 000000018003e148     libucrt:lcidtoname_downlevel.obj
 0002:0000b158       ??_C@_1M@LAKFNPAN@?$AAe?$AAn?$AA?9?$AAz?$AAa@ 000000018003e158     libucrt:lcidtoname_downlevel.obj
 0002:0000b168       ??_C@_1M@MFNHNHEO@?$AAe?$AAn?$AA?9?$AAz?$AAw@ 000000018003e168     libucrt:lcidtoname_downlevel.obj
 0002:0000b178       ??_C@_1M@EJEINPHM@?$AAe?$AAs?$AA?9?$AAa?$AAr@ 000000018003e178     libucrt:lcidtoname_downlevel.obj
 0002:0000b188       ??_C@_1M@GNKPCCJA@?$AAe?$AAs?$AA?9?$AAb?$AAo@ 000000018003e188     libucrt:lcidtoname_downlevel.obj
 0002:0000b198       ??_C@_1M@LEEGFONL@?$AAe?$AAs?$AA?9?$AAc?$AAl@ 000000018003e198     libucrt:lcidtoname_downlevel.obj
 0002:0000b1a8       ??_C@_1M@KGPDPBDF@?$AAe?$AAs?$AA?9?$AAc?$AAo@ 000000018003e1a8     libucrt:lcidtoname_downlevel.obj
 0002:0000b1b8       ??_C@_1M@EIAHOHH@?$AAe?$AAs?$AA?9?$AAc?$AAr@ 000000018003e1b8     libucrt:lcidtoname_downlevel.obj
 0002:0000b1c8       ??_C@_1M@LLPGMBIN@?$AAe?$AAs?$AA?9?$AAd?$AAo@ 000000018003e1c8     libucrt:lcidtoname_downlevel.obj
 0002:0000b1d8       ??_C@_1M@DKHMKNJA@?$AAe?$AAs?$AA?9?$AAe?$AAc@ 000000018003e1d8     libucrt:lcidtoname_downlevel.obj
 0002:0000b1e8       ??_C@_1M@GKGFPKAP@?$AAe?$AAs?$AA?9?$AAe?$AAs@ 000000018003e1e8     libucrt:lcidtoname_downlevel.obj
 0002:0000b1f8       ??_C@_1M@LKHKGDLN@?$AAe?$AAs?$AA?9?$AAg?$AAt@ 000000018003e1f8     libucrt:lcidtoname_downlevel.obj
 0002:0000b208       ??_C@_1M@HEIIGGJD@?$AAe?$AAs?$AA?9?$AAh?$AAn@ 000000018003e208     libucrt:lcidtoname_downlevel.obj
 0002:0000b218       ??_C@_1M@FBDHPPGD@?$AAe?$AAs?$AA?9?$AAm?$AAx@ 000000018003e218     libucrt:lcidtoname_downlevel.obj
 0002:0000b228       ??_C@_1M@DPAGLNDH@?$AAe?$AAs?$AA?9?$AAn?$AAi@ 000000018003e228     libucrt:lcidtoname_downlevel.obj
 0002:0000b238       ??_C@_1M@MDGOPGDD@?$AAe?$AAs?$AA?9?$AAp?$AAa@ 000000018003e238     libucrt:lcidtoname_downlevel.obj
 0002:0000b248       ??_C@_1M@EMAMGBGE@?$AAe?$AAs?$AA?9?$AAp?$AAe@ 000000018003e248     libucrt:lcidtoname_downlevel.obj
 0002:0000b258       ??_C@_1M@IBMCAOEC@?$AAe?$AAs?$AA?9?$AAp?$AAr@ 000000018003e258     libucrt:lcidtoname_downlevel.obj
 0002:0000b268       ??_C@_1M@FGMDIJED@?$AAe?$AAs?$AA?9?$AAp?$AAy@ 000000018003e268     libucrt:lcidtoname_downlevel.obj
 0002:0000b278       ??_C@_1M@IIDEOLLL@?$AAe?$AAs?$AA?9?$AAs?$AAv@ 000000018003e278     libucrt:lcidtoname_downlevel.obj
 0002:0000b288       ??_C@_1M@GAOBIPA@?$AAe?$AAs?$AA?9?$AAu?$AAy@ 000000018003e288     libucrt:lcidtoname_downlevel.obj
 0002:0000b298       ??_C@_1M@JKFFICHJ@?$AAe?$AAs?$AA?9?$AAv?$AAe@ 000000018003e298     libucrt:lcidtoname_downlevel.obj
 0002:0000b2a8       ??_C@_1M@PNMLOJDF@?$AAe?$AAt?$AA?9?$AAe?$AAe@ 000000018003e2a8     libucrt:lcidtoname_downlevel.obj
 0002:0000b2b8       ??_C@_1M@GHHLIKEI@?$AAe?$AAu?$AA?9?$AAe?$AAs@ 000000018003e2b8     libucrt:lcidtoname_downlevel.obj
 0002:0000b2c8       ??_C@_1M@PBNONODE@?$AAf?$AAa?$AA?9?$AAi?$AAr@ 000000018003e2c8     libucrt:lcidtoname_downlevel.obj
 0002:0000b2d8       ??_C@_1M@JEEHPMIL@?$AAf?$AAi?$AA?9?$AAf?$AAi@ 000000018003e2d8     libucrt:lcidtoname_downlevel.obj
 0002:0000b2e8       ??_C@_1M@LMDCNDBA@?$AAf?$AAo?$AA?9?$AAf?$AAo@ 000000018003e2e8     libucrt:lcidtoname_downlevel.obj
 0002:0000b2f8       ??_C@_1M@JKEOHLDK@?$AAf?$AAr?$AA?9?$AAb?$AAe@ 000000018003e2f8     libucrt:lcidtoname_downlevel.obj
 0002:0000b308       ??_C@_1M@NOHADPMI@?$AAf?$AAr?$AA?9?$AAc?$AAa@ 000000018003e308     libucrt:lcidtoname_downlevel.obj
 0002:0000b318       ??_C@_1M@KDHIHAEC@?$AAf?$AAr?$AA?9?$AAc?$AAh@ 000000018003e318     libucrt:lcidtoname_downlevel.obj
 0002:0000b328       ??_C@_1M@MMBBFGAK@?$AAf?$AAr?$AA?9?$AAf?$AAr@ 000000018003e328     libucrt:lcidtoname_downlevel.obj
 0002:0000b338       ??_C@_1M@PAFNENNF@?$AAf?$AAr?$AA?9?$AAl?$AAu@ 000000018003e338     libucrt:lcidtoname_downlevel.obj
 0002:0000b348       ??_C@_1M@EOHDJGDD@?$AAf?$AAr?$AA?9?$AAm?$AAc@ 000000018003e348     libucrt:lcidtoname_downlevel.obj
 0002:0000b358       ??_C@_1M@FAPLLOPF@?$AAg?$AAl?$AA?9?$AAe?$AAs@ 000000018003e358     libucrt:lcidtoname_downlevel.obj
 0002:0000b368       ??_C@_1M@FOPBFLOO@?$AAg?$AAu?$AA?9?$AAi?$AAn@ 000000018003e368     libucrt:lcidtoname_downlevel.obj
 0002:0000b378       ??_C@_1M@KBMCINPM@?$AAh?$AAe?$AA?9?$AAi?$AAl@ 000000018003e378     libucrt:lcidtoname_downlevel.obj
 0002:0000b388       ??_C@_1M@BBPHKFPJ@?$AAh?$AAi?$AA?9?$AAi?$AAn@ 000000018003e388     libucrt:lcidtoname_downlevel.obj
 0002:0000b398       ??_C@_1M@PMBNDPHD@?$AAh?$AAr?$AA?9?$AAb?$AAa@ 000000018003e398     libucrt:lcidtoname_downlevel.obj
 0002:0000b3a8       ??_C@_1M@BPCKOEGE@?$AAh?$AAr?$AA?9?$AAh?$AAr@ 000000018003e3a8     libucrt:lcidtoname_downlevel.obj
 0002:0000b3b8       ??_C@_1M@GACBMHKE@?$AAh?$AAu?$AA?9?$AAh?$AAu@ 000000018003e3b8     libucrt:lcidtoname_downlevel.obj
 0002:0000b3c8       ??_C@_1M@MILPAJJC@?$AAh?$AAy?$AA?9?$AAa?$AAm@ 000000018003e3c8     libucrt:lcidtoname_downlevel.obj
 0002:0000b3d8       ??_C@_1M@BABBICEC@?$AAi?$AAd?$AA?9?$AAi?$AAd@ 000000018003e3d8     libucrt:lcidtoname_downlevel.obj
 0002:0000b3e8       ??_C@_1M@BIKNHHPF@?$AAi?$AAs?$AA?9?$AAi?$AAs@ 000000018003e3e8     libucrt:lcidtoname_downlevel.obj
 0002:0000b3f8       ??_C@_1M@NMPCJPHE@?$AAi?$AAt?$AA?9?$AAc?$AAh@ 000000018003e3f8     libucrt:lcidtoname_downlevel.obj
 0002:0000b408       ??_C@_1M@GHKGFEDF@?$AAi?$AAt?$AA?9?$AAi?$AAt@ 000000018003e408     libucrt:lcidtoname_downlevel.obj
 0002:0000b418       ??_C@_1M@NIEJCJJA@?$AAj?$AAa?$AA?9?$AAj?$AAp@ 000000018003e418     libucrt:lcidtoname_downlevel.obj
 0002:0000b428       ??_C@_1M@JILFNBIM@?$AAk?$AAa?$AA?9?$AAg?$AAe@ 000000018003e428     libucrt:lcidtoname_downlevel.obj
 0002:0000b438       ??_C@_1M@PACPMGPH@?$AAk?$AAk?$AA?9?$AAk?$AAz@ 000000018003e438     libucrt:lcidtoname_downlevel.obj
 0002:0000b448       ??_C@_1M@IELFGMHA@?$AAk?$AAn?$AA?9?$AAi?$AAn@ 000000018003e448     libucrt:lcidtoname_downlevel.obj
 0002:0000b458       ??_C@_1O@IBBJHCH@?$AAk?$AAo?$AAk?$AA?9?$AAi?$AAn@ 000000018003e458     libucrt:lcidtoname_downlevel.obj
 0002:0000b468       ??_C@_1M@DMHAEOGC@?$AAk?$AAo?$AA?9?$AAk?$AAr@ 000000018003e468     libucrt:lcidtoname_downlevel.obj
 0002:0000b478       ??_C@_1M@HBAHBIGA@?$AAk?$AAy?$AA?9?$AAk?$AAg@ 000000018003e478     libucrt:lcidtoname_downlevel.obj
 0002:0000b488       ??_C@_1M@KPMILCJG@?$AAl?$AAt?$AA?9?$AAl?$AAt@ 000000018003e488     libucrt:lcidtoname_downlevel.obj
 0002:0000b498       ??_C@_1M@BDEKKCA@?$AAl?$AAv?$AA?9?$AAl?$AAv@ 000000018003e498     libucrt:lcidtoname_downlevel.obj
 0002:0000b4a8       ??_C@_1M@ELCKCCJJ@?$AAm?$AAi?$AA?9?$AAn?$AAz@ 000000018003e4a8     libucrt:lcidtoname_downlevel.obj
 0002:0000b4b8       ??_C@_1M@CBOOLAPA@?$AAm?$AAk?$AA?9?$AAm?$AAk@ 000000018003e4b8     libucrt:lcidtoname_downlevel.obj
 0002:0000b4c8       ??_C@_1M@GPHNBJKN@?$AAm?$AAl?$AA?9?$AAi?$AAn@ 000000018003e4c8     libucrt:lcidtoname_downlevel.obj
 0002:0000b4d8       ??_C@_1M@PABJILIG@?$AAm?$AAn?$AA?9?$AAm?$AAn@ 000000018003e4d8     libucrt:lcidtoname_downlevel.obj
 0002:0000b4e8       ??_C@_1M@FGBKKIPG@?$AAm?$AAr?$AA?9?$AAi?$AAn@ 000000018003e4e8     libucrt:lcidtoname_downlevel.obj
 0002:0000b4f8       ??_C@_1M@NDBPDDAL@?$AAm?$AAs?$AA?9?$AAb?$AAn@ 000000018003e4f8     libucrt:lcidtoname_downlevel.obj
 0002:0000b508       ??_C@_1M@OPIHOOPI@?$AAm?$AAs?$AA?9?$AAm?$AAy@ 000000018003e508     libucrt:lcidtoname_downlevel.obj
 0002:0000b518       ??_C@_1M@PPDBCNFM@?$AAm?$AAt?$AA?9?$AAm?$AAt@ 000000018003e518     libucrt:lcidtoname_downlevel.obj
 0002:0000b528       ??_C@_1M@KDJDKMDD@?$AAn?$AAb?$AA?9?$AAn?$AAo@ 000000018003e528     libucrt:lcidtoname_downlevel.obj
 0002:0000b538       ??_C@_1M@KFCFLMJP@?$AAn?$AAl?$AA?9?$AAb?$AAe@ 000000018003e538     libucrt:lcidtoname_downlevel.obj
 0002:0000b548       ??_C@_1M@KPOPDDGO@?$AAn?$AAl?$AA?9?$AAn?$AAl@ 000000018003e548     libucrt:lcidtoname_downlevel.obj
 0002:0000b558       ??_C@_1M@LJKPEMLN@?$AAn?$AAn?$AA?9?$AAn?$AAo@ 000000018003e558     libucrt:lcidtoname_downlevel.obj
 0002:0000b568       ??_C@_1M@BDGHHBFL@?$AAn?$AAs?$AA?9?$AAz?$AAa@ 000000018003e568     libucrt:lcidtoname_downlevel.obj
 0002:0000b578       ??_C@_1M@IDEHOAP@?$AAp?$AAa?$AA?9?$AAi?$AAn@ 000000018003e578     libucrt:lcidtoname_downlevel.obj
 0002:0000b588       ??_C@_1M@HDBKGOGH@?$AAp?$AAl?$AA?9?$AAp?$AAl@ 000000018003e588     libucrt:lcidtoname_downlevel.obj
 0002:0000b598       ??_C@_1M@LJLLCMEH@?$AAp?$AAt?$AA?9?$AAb?$AAr@ 000000018003e598     libucrt:lcidtoname_downlevel.obj
 0002:0000b5a8       ??_C@_1M@NCMONAAL@?$AAp?$AAt?$AA?9?$AAp?$AAt@ 000000018003e5a8     libucrt:lcidtoname_downlevel.obj
 0002:0000b5b8       ??_C@_1O@EAKMAJDN@?$AAq?$AAu?$AAz?$AA?9?$AAb?$AAo@ 000000018003e5b8     libucrt:lcidtoname_downlevel.obj
 0002:0000b5c8       ??_C@_1O@BHHPIGDN@?$AAq?$AAu?$AAz?$AA?9?$AAe?$AAc@ 000000018003e5c8     libucrt:lcidtoname_downlevel.obj
 0002:0000b5d8       ??_C@_1O@GBAPEKMJ@?$AAq?$AAu?$AAz?$AA?9?$AAp?$AAe@ 000000018003e5d8     libucrt:lcidtoname_downlevel.obj
 0002:0000b5e8       ??_C@_1M@CLGLEFBO@?$AAr?$AAo?$AA?9?$AAr?$AAo@ 000000018003e5e8     libucrt:lcidtoname_downlevel.obj
 0002:0000b5f8       ??_C@_1M@CEEDODME@?$AAr?$AAu?$AA?9?$AAr?$AAu@ 000000018003e5f8     libucrt:lcidtoname_downlevel.obj
 0002:0000b608       ??_C@_1M@HPKKKMPP@?$AAs?$AAa?$AA?9?$AAi?$AAn@ 000000018003e608     libucrt:lcidtoname_downlevel.obj
 0002:0000b618       ??_C@_1M@BKMAIGOJ@?$AAs?$AAe?$AA?9?$AAf?$AAi@ 000000018003e618     libucrt:lcidtoname_downlevel.obj
 0002:0000b628       ??_C@_1M@NDPIFLFI@?$AAs?$AAe?$AA?9?$AAn?$AAo@ 000000018003e628     libucrt:lcidtoname_downlevel.obj
 0002:0000b638       ??_C@_1M@DANKKHJ@?$AAs?$AAe?$AA?9?$AAs?$AAe@ 000000018003e638     libucrt:lcidtoname_downlevel.obj
 0002:0000b648       ??_C@_1M@PNBLONPJ@?$AAs?$AAk?$AA?9?$AAs?$AAk@ 000000018003e648     libucrt:lcidtoname_downlevel.obj
 0002:0000b658       ??_C@_1M@LFMODOAL@?$AAs?$AAl?$AA?9?$AAs?$AAi@ 000000018003e658     libucrt:lcidtoname_downlevel.obj
 0002:0000b668       ??_C@_1O@DFKOMPG@?$AAs?$AAm?$AAa?$AA?9?$AAn?$AAo@ 000000018003e668     libucrt:lcidtoname_downlevel.obj
 0002:0000b678       ??_C@_1O@NDKPBNNH@?$AAs?$AAm?$AAa?$AA?9?$AAs?$AAe@ 000000018003e678     libucrt:lcidtoname_downlevel.obj
 0002:0000b688       ??_C@_1O@PLLKBHAB@?$AAs?$AAm?$AAj?$AA?9?$AAn?$AAo@ 000000018003e688     libucrt:lcidtoname_downlevel.obj
 0002:0000b698       ??_C@_1O@CLEPOGCA@?$AAs?$AAm?$AAj?$AA?9?$AAs?$AAe@ 000000018003e698     libucrt:lcidtoname_downlevel.obj
 0002:0000b6a8       ??_C@_1O@DLGJGKMK@?$AAs?$AAm?$AAn?$AA?9?$AAf?$AAi@ 000000018003e6a8     libucrt:lcidtoname_downlevel.obj
 0002:0000b6b8       ??_C@_1O@OJDJGAJC@?$AAs?$AAm?$AAs?$AA?9?$AAf?$AAi@ 000000018003e6b8     libucrt:lcidtoname_downlevel.obj
 0002:0000b6c8       ??_C@_1M@BOFOGHPB@?$AAs?$AAq?$AA?9?$AAa?$AAl@ 000000018003e6c8     libucrt:lcidtoname_downlevel.obj
 0002:0000b6d8       ??_C@_1BG@LJBBIPGB@?$AAs?$AAr?$AA?9?$AAb?$AAa?$AA?9?$AAc?$AAy?$AAr?$AAl@ 000000018003e6d8     libucrt:lcidtoname_downlevel.obj
 0002:0000b6f0       ??_C@_1BG@JLBENFOE@?$AAs?$AAr?$AA?9?$AAb?$AAa?$AA?9?$AAl?$AAa?$AAt?$AAn@ 000000018003e6f0     libucrt:lcidtoname_downlevel.obj
 0002:0000b708       ??_C@_1BG@KODPNHE@?$AAs?$AAr?$AA?9?$AAs?$AAp?$AA?9?$AAc?$AAy?$AAr?$AAl@ 000000018003e708     libucrt:lcidtoname_downlevel.obj
 0002:0000b720       ??_C@_1BG@CIOGKHPB@?$AAs?$AAr?$AA?9?$AAs?$AAp?$AA?9?$AAl?$AAa?$AAt?$AAn@ 000000018003e720     libucrt:lcidtoname_downlevel.obj
 0002:0000b738       ??_C@_1M@NGFJLMAC@?$AAs?$AAv?$AA?9?$AAf?$AAi@ 000000018003e738     libucrt:lcidtoname_downlevel.obj
 0002:0000b748       ??_C@_1M@MPJEJAJC@?$AAs?$AAv?$AA?9?$AAs?$AAe@ 000000018003e748     libucrt:lcidtoname_downlevel.obj
 0002:0000b758       ??_C@_1M@MPNDHLFK@?$AAs?$AAw?$AA?9?$AAk?$AAe@ 000000018003e758     libucrt:lcidtoname_downlevel.obj
 0002:0000b768       ??_C@_1O@KOHBJJI@?$AAs?$AAy?$AAr?$AA?9?$AAs?$AAy@ 000000018003e768     libucrt:lcidtoname_downlevel.obj
 0002:0000b778       ??_C@_1M@LDCEFHA@?$AAt?$AAa?$AA?9?$AAi?$AAn@ 000000018003e778     libucrt:lcidtoname_downlevel.obj
 0002:0000b788       ??_C@_1M@CNJOFAK@?$AAt?$AAe?$AA?9?$AAi?$AAn@ 000000018003e788     libucrt:lcidtoname_downlevel.obj
 0002:0000b798       ??_C@_1M@GNAECACD@?$AAt?$AAh?$AA?9?$AAt?$AAh@ 000000018003e798     libucrt:lcidtoname_downlevel.obj
 0002:0000b7a8       ??_C@_1M@CHBIHOJO@?$AAt?$AAn?$AA?9?$AAz?$AAa@ 000000018003e7a8     libucrt:lcidtoname_downlevel.obj
 0002:0000b7b8       ??_C@_1M@GCCMIGPJ@?$AAt?$AAr?$AA?9?$AAt?$AAr@ 000000018003e7b8     libucrt:lcidtoname_downlevel.obj
 0002:0000b7c8       ??_C@_1M@CELMCNBK@?$AAt?$AAt?$AA?9?$AAr?$AAu@ 000000018003e7c8     libucrt:lcidtoname_downlevel.obj
 0002:0000b7d8       ??_C@_1M@KLMCELGA@?$AAu?$AAk?$AA?9?$AAu?$AAa@ 000000018003e7d8     libucrt:lcidtoname_downlevel.obj
 0002:0000b7e8       ??_C@_1M@EPAJJAJF@?$AAu?$AAr?$AA?9?$AAp?$AAk@ 000000018003e7e8     libucrt:lcidtoname_downlevel.obj
 0002:0000b7f8       ??_C@_1BG@GEGPMCDJ@?$AAu?$AAz?$AA?9?$AAu?$AAz?$AA?9?$AAc?$AAy?$AAr?$AAl@ 000000018003e7f8     libucrt:lcidtoname_downlevel.obj
 0002:0000b810       ??_C@_1BG@EGGKJILM@?$AAu?$AAz?$AA?9?$AAu?$AAz?$AA?9?$AAl?$AAa?$AAt?$AAn@ 000000018003e810     libucrt:lcidtoname_downlevel.obj
 0002:0000b828       ??_C@_1M@GFOCLFF@?$AAv?$AAi?$AA?9?$AAv?$AAn@ 000000018003e828     libucrt:lcidtoname_downlevel.obj
 0002:0000b838       ??_C@_1M@CPAMEDFI@?$AAx?$AAh?$AA?9?$AAz?$AAa@ 000000018003e838     libucrt:lcidtoname_downlevel.obj
 0002:0000b848       ??_C@_1O@EBKIFIGN@?$AAz?$AAh?$AA?9?$AAc?$AAh?$AAs@ 000000018003e848     libucrt:lcidtoname_downlevel.obj
 0002:0000b858       ??_C@_1O@NMHPGANE@?$AAz?$AAh?$AA?9?$AAc?$AAh?$AAt@ 000000018003e858     libucrt:lcidtoname_downlevel.obj
 0002:0000b868       ??_C@_1M@LPINJOMC@?$AAz?$AAh?$AA?9?$AAc?$AAn@ 000000018003e868     libucrt:lcidtoname_downlevel.obj
 0002:0000b878       ??_C@_1M@OCJEJODD@?$AAz?$AAh?$AA?9?$AAh?$AAk@ 000000018003e878     libucrt:lcidtoname_downlevel.obj
 0002:0000b888       ??_C@_1M@DNDLJINH@?$AAz?$AAh?$AA?9?$AAm?$AAo@ 000000018003e888     libucrt:lcidtoname_downlevel.obj
 0002:0000b898       ??_C@_1M@MBFDNDND@?$AAz?$AAh?$AA?9?$AAs?$AAg@ 000000018003e898     libucrt:lcidtoname_downlevel.obj
 0002:0000b8a8       ??_C@_1M@IMEPLEPE@?$AAz?$AAh?$AA?9?$AAt?$AAw@ 000000018003e8a8     libucrt:lcidtoname_downlevel.obj
 0002:0000b8b8       ??_C@_1M@BBGHNHJP@?$AAz?$AAu?$AA?9?$AAz?$AAa@ 000000018003e8b8     libucrt:lcidtoname_downlevel.obj
 0002:0000b8c8       __real@3ff0000000000000    000000018003e8c8     libucrt:ceil.obj
 0002:0000bb20       __log10_256_lead           000000018003eb20     libucrt:log10_256_lead_tail_table.obj
 0002:0000c330       __log10_256_tail           000000018003f330     libucrt:log10_256_lead_tail_table.obj
 0002:0000cb40       __log_F_inv_qword          000000018003fb40     libucrt:log_f_inv_qword_table.obj
 0002:0000d350       ??_C@_05HGHHAHAP@log10@    0000000180040350     libucrt:log_special.obj
 0002:0000d358       ??_C@_1BA@BALFACEM@?$AAC?$AAO?$AAN?$AAO?$AAU?$AAT?$AA$@ 0000000180040358     libucrt:initcon.obj
 0002:0000d380       ??_C@_0BI@OEHNMHCG@GetCurrentConsoleFontEx@ 0000000180040380     common-kernel64:WConsole.obj
 0002:0000d398       ??_C@_0BI@PCBACGEE@SetCurrentConsoleFontEx@ 0000000180040398     common-kernel64:WConsole.obj
 0002:0000d410       _load_config_used          0000000180040410     LIBCMT:loadcfg.obj
 0002:0000d580       _tls_used                  0000000180040580     LIBCMT:tlssup.obj
 0002:0000d5a8       ??_R4CPluginW1900@@6B@     00000001800405a8     ConEmuPlugin1900.obj
 0002:0000d5d0       ??_R3CPluginW1900@@8       00000001800405d0     ConEmuPlugin1900.obj
 0002:0000d5e8       ??_R2CPluginW1900@@8       00000001800405e8     ConEmuPlugin1900.obj
 0002:0000d600       ??_R1A@?0A@EA@CPluginW1900@@8 0000000180040600     ConEmuPlugin1900.obj
 0002:0000d628       ??_R1A@?0A@EA@CPluginBase@@8 0000000180040628     ConEmuPlugin1900.obj
 0002:0000d650       ??_R3CPluginBase@@8        0000000180040650     ConEmuPlugin1900.obj
 0002:0000d668       ??_R2CPluginBase@@8        0000000180040668     ConEmuPlugin1900.obj
 0002:0000d678       ??_R4exception@std@@6B@    0000000180040678     ConEmuPlugin2800.obj
 0002:0000d6a0       ??_R3exception@std@@8      00000001800406a0     ConEmuPlugin2800.obj
 0002:0000d6b8       ??_R2exception@std@@8      00000001800406b8     ConEmuPlugin2800.obj
 0002:0000d6c8       ??_R1A@?0A@EA@exception@std@@8 00000001800406c8     ConEmuPlugin2800.obj
 0002:0000d6f0       ??_R4bad_alloc@std@@6B@    00000001800406f0     ConEmuPlugin2800.obj
 0002:0000d718       ??_R3bad_alloc@std@@8      0000000180040718     ConEmuPlugin2800.obj
 0002:0000d730       ??_R2bad_alloc@std@@8      0000000180040730     ConEmuPlugin2800.obj
 0002:0000d748       ??_R1A@?0A@EA@bad_alloc@std@@8 0000000180040748     ConEmuPlugin2800.obj
 0002:0000d770       ??_R4CPluginW2800@@6B@     0000000180040770     ConEmuPlugin2800.obj
 0002:0000d798       ??_R3CPluginW2800@@8       0000000180040798     ConEmuPlugin2800.obj
 0002:0000d7b0       ??_R2CPluginW2800@@8       00000001800407b0     ConEmuPlugin2800.obj
 0002:0000d7c8       ??_R1A@?0A@EA@CPluginW2800@@8 00000001800407c8     ConEmuPlugin2800.obj
 0002:0000d7f0       ??_R4CPluginW995@@6B@      00000001800407f0     ConEmuPlugin995.obj
 0002:0000d818       ??_R3CPluginW995@@8        0000000180040818     ConEmuPlugin995.obj
 0002:0000d830       ??_R2CPluginW995@@8        0000000180040830     ConEmuPlugin995.obj
 0002:0000d848       ??_R1A@?0A@EA@CPluginW995@@8 0000000180040848     ConEmuPlugin995.obj
 0002:0000d870       ??_R4CPluginAnsi@@6B@      0000000180040870     ConEmuPluginA.obj
 0002:0000d898       ??_R3CPluginAnsi@@8        0000000180040898     ConEmuPluginA.obj
 0002:0000d8b0       ??_R2CPluginAnsi@@8        00000001800408b0     ConEmuPluginA.obj
 0002:0000d8c8       ??_R1A@?0A@EA@CPluginAnsi@@8 00000001800408c8     ConEmuPluginA.obj
 0002:0000d8f0       ??_R4CPluginBase@@6B@      00000001800408f0     ConEmuPluginBase.obj
 0002:0000d918       ??_R4exception@stdext@@6B@ 0000000180040918     common-kernel64:CEStr.obj
 0002:0000d940       ??_R3exception@stdext@@8   0000000180040940     common-kernel64:CEStr.obj
 0002:0000d958       ??_R2exception@stdext@@8   0000000180040958     common-kernel64:CEStr.obj
 0002:0000d968       ??_R1A@?0A@EA@exception@stdext@@8 0000000180040968     common-kernel64:CEStr.obj
 0002:0000d990       ??_R4bad_alloc@stdext@@6B@ 0000000180040990     common-kernel64:CEStr.obj
 0002:0000d9b8       ??_R3bad_alloc@stdext@@8   00000001800409b8     common-kernel64:CEStr.obj
 0002:0000d9d0       ??_R2bad_alloc@stdext@@8   00000001800409d0     common-kernel64:CEStr.obj
 0002:0000d9e8       ??_R1A@?0A@EA@bad_alloc@stdext@@8 00000001800409e8     common-kernel64:CEStr.obj
 0002:0000da10       ??_R3?$_Func_base@XPEAX@std@@8 0000000180040a10     common-kernel64:WObjects.obj
 0002:0000da28       ??_R2?$_Func_base@XPEAX@std@@8 0000000180040a28     common-kernel64:WObjects.obj
 0002:0000da38       ??_R1A@?0A@EA@?$_Func_base@XPEAX@std@@8 0000000180040a38     common-kernel64:WObjects.obj
 0002:0000da60       ??_R4?$_Func_impl_no_alloc@P6AHPEAX@ZXPEAX@std@@6B@ 0000000180040a60     common-kernel64:WObjects.obj
 0002:0000da88       ??_R3?$_Func_impl_no_alloc@P6AHPEAX@ZXPEAX@std@@8 0000000180040a88     common-kernel64:WObjects.obj
 0002:0000daa0       ??_R2?$_Func_impl_no_alloc@P6AHPEAX@ZXPEAX@std@@8 0000000180040aa0     common-kernel64:WObjects.obj
 0002:0000dab8       ??_R1A@?0A@EA@?$_Func_impl_no_alloc@P6AHPEAX@ZXPEAX@std@@8 0000000180040ab8     common-kernel64:WObjects.obj
 0002:0000dae0       ??_R4MToolHelpProcess@@6B@ 0000000180040ae0     common-kernel64:MProcess.obj
 0002:0000db08       ??_R3MToolHelpProcess@@8   0000000180040b08     common-kernel64:MProcess.obj
 0002:0000db20       ??_R2MToolHelpProcess@@8   0000000180040b20     common-kernel64:MProcess.obj
 0002:0000db38       ??_R1A@?0A@EA@MToolHelpProcess@@8 0000000180040b38     common-kernel64:MProcess.obj
 0002:0000db60       ??_R1A@?0A@EA@?$MToolHelp@UtagPROCESSENTRY32W@@$1?Process32FirstW@@YAHPEAXPEAU1@@Z$1?Process32NextW@@YAH01@Z@@8 0000000180040b60     common-kernel64:MProcess.obj
 0002:0000db88       ??_R3?$MToolHelp@UtagPROCESSENTRY32W@@$1?Process32FirstW@@YAHPEAXPEAU1@@Z$1?Process32NextW@@YAH01@Z@@8 0000000180040b88     common-kernel64:MProcess.obj
 0002:0000dba0       ??_R2?$MToolHelp@UtagPROCESSENTRY32W@@$1?Process32FirstW@@YAHPEAXPEAU1@@Z$1?Process32NextW@@YAH01@Z@@8 0000000180040ba0     common-kernel64:MProcess.obj
 0002:0000dbb0       ??_R4?$MToolHelp@UtagPROCESSENTRY32W@@$1?Process32FirstW@@YAHPEAXPEAU1@@Z$1?Process32NextW@@YAH01@Z@@6B@ 0000000180040bb0     common-kernel64:MProcess.obj
 0002:0000dbd8       ??_R3?$_Func_base@_NAEBUtagPROCESSENTRY32W@@@std@@8 0000000180040bd8     common-kernel64:MProcess.obj
 0002:0000dbf0       ??_R2?$_Func_base@_NAEBUtagPROCESSENTRY32W@@@std@@8 0000000180040bf0     common-kernel64:MProcess.obj
 0002:0000dc00       ??_R1A@?0A@EA@?$_Func_base@_NAEBUtagPROCESSENTRY32W@@@std@@8 0000000180040c00     common-kernel64:MProcess.obj
 0002:0000dc28       ??_R4?$_Func_impl_no_alloc@V<lambda_217d18733db987cb8fc0adfd68028951>@@_NAEBUtagPROCESSENTRY32W@@@std@@6B@ 0000000180040c28     common-kernel64:MProcess.obj
 0002:0000dc50       ??_R3?$_Func_impl_no_alloc@V<lambda_217d18733db987cb8fc0adfd68028951>@@_NAEBUtagPROCESSENTRY32W@@@std@@8 0000000180040c50     common-kernel64:MProcess.obj
 0002:0000dc68       ??_R2?$_Func_impl_no_alloc@V<lambda_217d18733db987cb8fc0adfd68028951>@@_NAEBUtagPROCESSENTRY32W@@@std@@8 0000000180040c68     common-kernel64:MProcess.obj
 0002:0000dc80       ??_R1A@?0A@EA@?$_Func_impl_no_alloc@V<lambda_217d18733db987cb8fc0adfd68028951>@@_NAEBUtagPROCESSENTRY32W@@@std@@8 0000000180040c80     common-kernel64:MProcess.obj
 0002:0000dca8       ??_R4bad_function_call@std@@6B@ 0000000180040ca8     libcpmt:xthrow.obj
 0002:0000dcd0       ??_R3bad_function_call@std@@8 0000000180040cd0     libcpmt:xthrow.obj
 0002:0000dce8       ??_R2bad_function_call@std@@8 0000000180040ce8     libcpmt:xthrow.obj
 0002:0000dd00       ??_R1A@?0A@EA@bad_function_call@std@@8 0000000180040d00     libcpmt:xthrow.obj
 0002:0000dd28       ??_R4logic_error@std@@6B@  0000000180040d28     libcpmt:xthrow.obj
 0002:0000dd50       ??_R3logic_error@std@@8    0000000180040d50     libcpmt:xthrow.obj
 0002:0000dd68       ??_R2logic_error@std@@8    0000000180040d68     libcpmt:xthrow.obj
 0002:0000dd80       ??_R1A@?0A@EA@logic_error@std@@8 0000000180040d80     libcpmt:xthrow.obj
 0002:0000dda8       ??_R4length_error@std@@6B@ 0000000180040da8     libcpmt:xthrow.obj
 0002:0000ddd0       ??_R3length_error@std@@8   0000000180040dd0     libcpmt:xthrow.obj
 0002:0000dde8       ??_R2length_error@std@@8   0000000180040de8     libcpmt:xthrow.obj
 0002:0000de08       ??_R1A@?0A@EA@length_error@std@@8 0000000180040e08     libcpmt:xthrow.obj
 0002:0000de30       ??_R4type_info@@6B@        0000000180040e30     LIBCMT:std_type_info_static.obj
 0002:0000de58       ??_R3type_info@@8          0000000180040e58     LIBCMT:std_type_info_static.obj
 0002:0000de70       ??_R2type_info@@8          0000000180040e70     LIBCMT:std_type_info_static.obj
 0002:0000de80       ??_R1A@?0A@EA@type_info@@8 0000000180040e80     LIBCMT:std_type_info_static.obj
 0002:0000dea8       ??_R4bad_exception@std@@6B@ 0000000180040ea8     libvcruntime:frame.obj
 0002:0000ded0       ??_R3bad_exception@std@@8  0000000180040ed0     libvcruntime:frame.obj
 0002:0000dee8       ??_R2bad_exception@std@@8  0000000180040ee8     libvcruntime:frame.obj
 0002:0000df00       ??_R1A@?0A@EA@bad_exception@std@@8 0000000180040f00     libvcruntime:frame.obj
 0002:0000e330       __rtc_iaa                  0000000180041330     LIBCMT:initsect.obj
 0002:0000e338       __rtc_izz                  0000000180041338     LIBCMT:initsect.obj
 0002:0000e340       __rtc_taa                  0000000180041340     LIBCMT:initsect.obj
 0002:0000e348       __rtc_tzz                  0000000180041348     LIBCMT:initsect.obj
 0002:0000e350       _tls_start                 0000000180041350     LIBCMT:tlssup.obj
 0002:0000e354       _Init_thread_epoch         0000000180041354     LIBCMT:thread_safe_statics.obj
 0002:0000e358       _tls_end                   0000000180041358     LIBCMT:tlssup.obj
 0002:000109f8       _CT??_R0?AVbad_alloc@std@@@8??0bad_alloc@std@@QEAA@AEBV01@@Z24 00000001800439f8     ConEmuPlugin2800.obj
 0002:00010a20       _CT??_R0?AVexception@std@@@8??0exception@std@@QEAA@AEBV01@@Z24 0000000180043a20     ConEmuPlugin2800.obj
 0002:00010a48       _TI2?AVbad_alloc@std@@     0000000180043a48     ConEmuPlugin2800.obj
 0002:00010a68       _CTA2?AVbad_alloc@std@@    0000000180043a68     ConEmuPlugin2800.obj
 0002:00010a80       _TI2?AVbad_alloc@stdext@@  0000000180043a80     common-kernel64:CEStr.obj
 0002:00010aa0       _CTA2?AVbad_alloc@stdext@@ 0000000180043aa0     common-kernel64:CEStr.obj
 0002:00010ab8       _CT??_R0?AVbad_alloc@stdext@@@8??0bad_alloc@stdext@@QEAA@AEBV01@@Z16 0000000180043ab8     common-kernel64:CEStr.obj
 0002:00010ae0       _CT??_R0?AVexception@stdext@@@8??0exception@stdext@@QEAA@AEBV01@@Z16 0000000180043ae0     common-kernel64:CEStr.obj
 0002:00010b08       _CT??_R0?AVlogic_error@std@@@8??0logic_error@std@@QEAA@AEBV01@@Z24 0000000180043b08     libcpmt:xthrow.obj
 0002:00010b30       _TI3?AVlength_error@std@@  0000000180043b30     libcpmt:xthrow.obj
 0002:00010b50       _CTA3?AVlength_error@std@@ 0000000180043b50     libcpmt:xthrow.obj
 0002:00010b70       _CT??_R0?AVlength_error@std@@@8??0length_error@std@@QEAA@AEBV01@@Z24 0000000180043b70     libcpmt:xthrow.obj
 0002:00010b98       _TI2?AVbad_function_call@std@@ 0000000180043b98     libcpmt:xthrow.obj
 0002:00010bb8       _CTA2?AVbad_function_call@std@@ 0000000180043bb8     libcpmt:xthrow.obj
 0002:00010bd0       _CT??_R0?AVbad_function_call@std@@@8??0bad_function_call@std@@QEAA@AEBV01@@Z24 0000000180043bd0     libcpmt:xthrow.obj
 0002:00010bf8       _TI2?AVbad_exception@std@@ 0000000180043bf8     libvcruntime:frame.obj
 0002:00010c18       _CTA2?AVbad_exception@std@@ 0000000180043c18     libvcruntime:frame.obj
 0002:00010c30       _CT??_R0?AVbad_exception@std@@@8??0bad_exception@std@@QEAA@AEBV01@@Z24 0000000180043c30     libvcruntime:frame.obj
 0002:00010f44       __IMPORT_DESCRIPTOR_VERSION 0000000180043f44     version:VERSION.dll
 0002:00010f58       __IMPORT_DESCRIPTOR_KERNEL32 0000000180043f58     kernel32:KERNEL32.dll
 0002:00010f6c       __IMPORT_DESCRIPTOR_USER32 0000000180043f6c     user32:USER32.dll
 0002:00010f80       __IMPORT_DESCRIPTOR_GDI32  0000000180043f80     gdi32:GDI32.dll
 0002:00010f94       __IMPORT_DESCRIPTOR_ADVAPI32 0000000180043f94     advapi32:ADVAPI32.dll
 0002:00010fa8       __NULL_IMPORT_DESCRIPTOR   0000000180043fa8     version:VERSION.dll
 0003:00000000       ?Far3Func@@3PAUExportFunc@@A 0000000180046000     ConEmuPlugin.obj
 0003:00000080       ?StdPalette@?1??GetStdPalette@Far3Color@@SAPEBKXZ@4PAKA 0000000180046080     ConEmuPlugin1900.obj
 0003:000000c0       ?guid_ConEmu@@3U_GUID@@A   00000001800460c0     ConEmuPlugin2800.obj
 0003:000000d0       ?guid_ConEmuPluginItems@@3U_GUID@@A 00000001800460d0     ConEmuPlugin2800.obj
 0003:000000e0       ?guid_ConEmuPluginMenu@@3U_GUID@@A 00000001800460e0     ConEmuPlugin2800.obj
 0003:000000f0       ?guid_ConEmuGuiMacroDlg@@3U_GUID@@A 00000001800460f0     ConEmuPlugin2800.obj
 0003:00000100       ?guid_ConEmuWaitEndSynchro@@3U_GUID@@A 0000000180046100     ConEmuPlugin2800.obj
 0003:00000110       ?guid_ConEmuMsg@@3U_GUID@@A 0000000180046110     ConEmuPlugin2800.obj
 0003:00000120       ?guid_ConEmuInput@@3U_GUID@@A 0000000180046120     ConEmuPlugin2800.obj
 0003:00000130       ?guid_ConEmuMenu@@3U_GUID@@A 0000000180046130     ConEmuPlugin2800.obj
 0003:00000160       ?gFarMode@@3UHookModeFar@@A 0000000180046160     ConEmuPluginBase.obj
 0003:00000190       ?gnPluginOpenFrom@@3HA     0000000180046190     ConEmuPluginBase.obj
 0003:00000194       ?gnReqCommand@@3KA         0000000180046194     ConEmuPluginBase.obj
 0003:00000198       ?lastModifiedStateW@@3HA   0000000180046198     ConEmuPluginBase.obj
 0003:000001a0       ?gpPluginMenu@@3PAUPluginAndMenuCommands@@A 00000001800461a0     ConEmuPluginBase.obj
 0003:00000260       ?g_TerminatedThreadIdx@@3JA 0000000180046260     common-kernel64:WThreads.obj
 0003:00000270       __security_cookie_complement 0000000180046270     LIBCMT:gs_cookie.obj
 0003:00000278       __security_cookie          0000000180046278     LIBCMT:gs_cookie.obj
 0003:00000280       _Init_global_epoch         0000000180046280     LIBCMT:thread_safe_statics.obj
 0003:00000284       __scrt_native_dllmain_reason 0000000180046284     LIBCMT:utility.obj
 0003:00000288       __isa_available            0000000180046288     LIBCMT:cpu_disp.obj
 0003:0000028c       __isa_enabled              000000018004628c     LIBCMT:cpu_disp.obj
 0003:00000290       __memcpy_nt_iters          0000000180046290     LIBCMT:cpu_disp.obj
 0003:00000298       __memset_nt_iters          0000000180046298     LIBCMT:cpu_disp.obj
 0003:000002b8       __abort_behavior           00000001800462b8     libucrt:abort.obj
 0003:000002d0       _iob                       00000001800462d0     libucrt:_file.obj
 0003:000003e0       __acrt_initial_locale_data 00000001800463e0     libucrt:nlsdata.obj
 0003:00000538       __acrt_initial_locale_pointers 0000000180046538     libucrt:nlsdata.obj
 0003:00000548       __acrt_wide_c_locale_string 0000000180046548     libucrt:nlsdata.obj
 0003:00000550       _pwctype                   0000000180046550     libucrt:ctype.obj
 0003:00000560       __acrt_initial_multibyte_data 0000000180046560     libucrt:mbctype.obj
 0003:00000aa0       __globallocalestatus       0000000180046aa0     libucrt:glstatus.obj
 0003:00000ab0       __acrt_lconv_c             0000000180046ab0     libucrt:localeconv.obj
 0003:00000b48       __acrt_lconv_static_decimal 0000000180046b48     libucrt:localeconv.obj
 0003:00000b4c       __acrt_lconv_static_W_decimal 0000000180046b4c     libucrt:localeconv.obj
 0003:00000b50       _lookuptrailbytes          0000000180046b50     libucrt:read.obj
 0003:00000c74       _fltused                   0000000180046c74     LIBCMT:fltused.obj
 0003:00000c80       ??_R0?AVbad_alloc@std@@@8  0000000180046c80     ConEmuPlugin2800.obj
 0003:00000ca8       ??_R0?AVexception@std@@@8  0000000180046ca8     ConEmuPlugin2800.obj
 0003:00000cd0       ??_R0?AVbad_alloc@stdext@@@8 0000000180046cd0     common-kernel64:CEStr.obj
 0003:00000cf8       ??_R0?AVexception@stdext@@@8 0000000180046cf8     common-kernel64:CEStr.obj
 0003:00000d20       ??_R0P6AHPEAX@Z@8          0000000180046d20     common-kernel64:WObjects.obj
 0003:00000d40       ??_R0?AV<lambda_217d18733db987cb8fc0adfd68028951>@@@8 0000000180046d40     common-kernel64:MProcess.obj
 0003:00000d80       ??_R0?AVlogic_error@std@@@8 0000000180046d80     libcpmt:xthrow.obj
 0003:00000da8       ??_R0?AVlength_error@std@@@8 0000000180046da8     libcpmt:xthrow.obj
 0003:00000dd0       ??_R0?AVbad_function_call@std@@@8 0000000180046dd0     libcpmt:xthrow.obj
 0003:00000e00       ??_R0?AVtype_info@@@8      0000000180046e00     LIBCMT:std_type_info_static.obj
 0003:00000e20       ??_R0?AVbad_exception@std@@@8 0000000180046e20     libvcruntime:frame.obj
 0003:00000e50       ??_R0?AVCPluginW1900@@@8   0000000180046e50     ConEmuPlugin1900.obj
 0003:00000e78       ??_R0?AVCPluginBase@@@8    0000000180046e78     ConEmuPlugin1900.obj
 0003:00000ea0       ??_R0?AVCPluginW2800@@@8   0000000180046ea0     ConEmuPlugin2800.obj
 0003:00000ec8       ??_R0?AVCPluginW995@@@8    0000000180046ec8     ConEmuPlugin995.obj
 0003:00000ef0       ??_R0?AVCPluginAnsi@@@8    0000000180046ef0     ConEmuPluginA.obj
 0003:00000f18       ??_R0?AV?$_Func_base@XPEAX@std@@@8 0000000180046f18     common-kernel64:WObjects.obj
 0003:00000f50       ??_R0?AV?$_Func_impl_no_alloc@P6AHPEAX@ZXPEAX@std@@@8 0000000180046f50     common-kernel64:WObjects.obj
 0003:00000f90       ??_R0?AVMToolHelpProcess@@@8 0000000180046f90     common-kernel64:MProcess.obj
 0003:00000fc0       ??_R0?AV?$MToolHelp@UtagPROCESSENTRY32W@@$1?Process32FirstW@@YAHPEAXPEAU1@@Z$1?Process32NextW@@YAH01@Z@@@8 0000000180046fc0     common-kernel64:MProcess.obj
 0003:00001040       ??_R0?AV?$_Func_base@_NAEBUtagPROCESSENTRY32W@@@std@@@8 0000000180047040     common-kernel64:MProcess.obj
 0003:00001090       ??_R0?AV?$_Func_impl_no_alloc@V<lambda_217d18733db987cb8fc0adfd68028951>@@_NAEBUtagPROCESSENTRY32W@@@std@@@8 0000000180047090     common-kernel64:MProcess.obj
 0003:00001110       ?ghExtConModule@@3PEAUHINSTANCE__@@EA 0000000180047110     ConEmuInjects.obj
 0003:00001118       ?ghHooksModule@@3PEAUHINSTANCE__@@EA 0000000180047118     ConEmuInjects.obj
 0003:00001120       ?gbHooksModuleLoaded@@3HA  0000000180047120     ConEmuInjects.obj
 0003:00001128       ?SetHookCallbacks@@3P6A_NPEBDPEB_WPEAUHINSTANCE__@@P6AHPEAUHookCallbackArg@@@Z44@ZEA 0000000180047128     ConEmuInjects.obj
 0003:00001130       ?SetLoadLibraryCallback@@3P6AXPEAUHINSTANCE__@@P6AX0@Z1@ZEA 0000000180047130     ConEmuInjects.obj
 0003:00001138       ?SetFarHookMode@@3P6AXPEAUHookModeFar@@@ZEA 0000000180047138     ConEmuInjects.obj
 0003:00001140       ?SetConsoleCallbacks@@3P6A_NPEAUHINSTANCE__@@KPEAP6AHPEAUHookCallbackArg@@@Z@ZEA 0000000180047140     ConEmuInjects.obj
 0003:00001148       ?_OptionsStorage@?1??__local_stdio_printf_options@@9@4_KA 0000000180047148     ConEmuInjects.obj
 0003:00001150       ?InfoW1900@@3PEAUPluginStartupInfo@@EA 0000000180047150     ConEmuPlugin1900.obj
 0003:00001158       ?FSFW1900@@3PEAUFarStandardFunctions@@EA 0000000180047158     ConEmuPlugin1900.obj
 0003:00001160       ?LastColor@?1??Color2FgIndex@Far3Color@@SAXKAEAGPEBK@Z@4KA 0000000180047160     ConEmuPlugin1900.obj
 0003:00001164       ?LastIndex@?1??Color2FgIndex@Far3Color@@SAXKAEAGPEBK@Z@4HA 0000000180047164     ConEmuPlugin1900.obj
 0003:00001168       ?LastColor@?1??Color2BgIndex@Far3Color@@SAXKHAEAGPEBK@Z@4KA 0000000180047168     ConEmuPlugin1900.obj
 0003:0000116c       ?LastIndex@?1??Color2BgIndex@Far3Color@@SAXKHAEAGPEBK@Z@4HA 000000018004716c     ConEmuPlugin1900.obj
 0003:00001428       ?InfoW2800@@3PEAUPluginStartupInfo@@EA 0000000180047428     ConEmuPlugin2800.obj
 0003:00001430       ?FSFW2800@@3PEAUFarStandardFunctions@@EA 0000000180047430     ConEmuPlugin2800.obj
 0003:00001720       ?InfoW995@@3PEAUPluginStartupInfo@@EA 0000000180047720     ConEmuPlugin995.obj
 0003:00001728       ?FSFW995@@3PEAUFarStandardFunctions@@EA 0000000180047728     ConEmuPlugin995.obj
 0003:00001990       ?InfoA@@3PEAUPluginStartupInfo@@EA 0000000180047990     ConEmuPluginA.obj
 0003:00001998       ?FSFA@@3PEAUFarStandardFunctions@@EA 0000000180047998     ConEmuPluginA.obj
 0003:00001cb0       ?gLastMouseReadEvent@@3U_MOUSE_EVENT_RECORD@@A 0000000180047cb0     ConEmuPluginBase.obj
 0003:00001cc0       ?gnDummyMouseEventFromMacro@@3JA 0000000180047cc0     ConEmuPluginBase.obj
 0003:00001cc4       ?gbUngetDummyMouseEvent@@3HA 0000000180047cc4     ConEmuPluginBase.obj
 0003:00001cc8       ?gpPlugin@@3PEAVCPluginBase@@EA 0000000180047cc8     ConEmuPluginBase.obj
 0003:00001cd0       ?gbWasDetached@@3HA        0000000180047cd0     ConEmuPluginBase.obj
 0003:00001cd4       ?gbFarWndVisible@@3HA      0000000180047cd4     ConEmuPluginBase.obj
 0003:00001cd8       ?gsbiDetached@@3U_CONSOLE_SCREEN_BUFFER_INFO@@A 0000000180047cd8     ConEmuPluginBase.obj
 0003:00001cee       ?gbExitFarCalled@@3_NA     0000000180047cee     ConEmuPluginBase.obj
 0003:00001cef       ?gbSynchroProhibited@@3_NA 0000000180047cef     ConEmuPluginBase.obj
 0003:00001cf0       ?gnPeekReadCount@@3KA      0000000180047cf0     ConEmuPluginBase.obj
 0003:00001cf4       ?gnInLongOperation@@3JA    0000000180047cf4     ConEmuPluginBase.obj
 0003:00001cf8       ?gdwPreDetachGuiPID@@3KA   0000000180047cf8     ConEmuPluginBase.obj
 0003:00001cfc       ?gdwServerPID@@3KA         0000000180047cfc     ConEmuPluginBase.obj
 0003:00001d00       ?gnMainThreadIdInitial@@3KA 0000000180047d00     ConEmuPluginBase.obj
 0003:00001d04       ?gnMonitorThreadId@@3KA    0000000180047d04     ConEmuPluginBase.obj
 0003:00001d08       ?ghMonitorThread@@3PEAXEA  0000000180047d08     ConEmuPluginBase.obj
 0003:00001d10       ?ghSetWndSendTabsEvent@@3PEAXEA 0000000180047d10     ConEmuPluginBase.obj
 0003:00001d18       ?gbRequestUpdateTabs@@3HA  0000000180047d18     ConEmuPluginBase.obj
 0003:00001d1c       ?gbClosingModalViewerEditor@@3HA 0000000180047d1c     ConEmuPluginBase.obj
 0003:00001d20       ?gnAllowDummyMouseEvent@@3JA 0000000180047d20     ConEmuPluginBase.obj
 0003:00001d24       ?gnDataSize@@3KA           0000000180047d24     ConEmuPluginBase.obj
 0003:00001d28       ?csData@@3PEAVMSection@@EA 0000000180047d28     ConEmuPluginBase.obj
 0003:00001d30       ?gpData@@3PEAEEA           0000000180047d30     ConEmuPluginBase.obj
 0003:00001d38       ?gpCursor@@3PEAEEA         0000000180047d38     ConEmuPluginBase.obj
 0003:00001d40       ?gpReqCommandData@@3PEAXEA 0000000180047d40     ConEmuPluginBase.obj
 0003:00001d48       ?ghReqCommandEvent@@3PEAXEA 0000000180047d48     ConEmuPluginBase.obj
 0003:00001d50       ?gbReqCommandWaiting@@3HA  0000000180047d50     ConEmuPluginBase.obj
 0003:00001d54       ?gnMsgTabChanged@@3IA      0000000180047d54     ConEmuPluginBase.obj
 0003:00001d58       ?csTabs@@3PEAVMSection@@EA 0000000180047d58     ConEmuPluginBase.obj
 0003:00001d60       ?gbPlugKeyChanged@@3HA     0000000180047d60     ConEmuPluginBase.obj
 0003:00001d64       ?gbNeedPostTabSend@@3HA    0000000180047d64     ConEmuPluginBase.obj
 0003:00001d68       ?ghRegMonitorKey@@3PEAUHKEY__@@EA 0000000180047d68     ConEmuPluginBase.obj
 0003:00001d70       ?ghRegMonitorEvt@@3PEAXEA  0000000180047d70     ConEmuPluginBase.obj
 0003:00001d78       ?ghPluginSemaphore@@3PEAXEA 0000000180047d78     ConEmuPluginBase.obj
 0003:00001d80       ?gsFarLang@@3PA_WA         0000000180047d80     ConEmuPluginBase.obj
 0003:00001e00       ?gbNeedPostEditCheck@@3HA  0000000180047e00     ConEmuPluginBase.obj
 0003:00001e04       ?gbNeedPostReloadFarInfo@@3HA 0000000180047e04     ConEmuPluginBase.obj
 0003:00001e08       ?gbNeedReloadFarDir@@3HA   0000000180047e08     ConEmuPluginBase.obj
 0003:00001e0c       ?gnNeedPostTabSendTick@@3KA 0000000180047e0c     ConEmuPluginBase.obj
 0003:00001e10       ?gpConMap@@3PEAV?$MFileMapping@UCESERVER_CONSOLE_MAPPING_HDR@@@@EA 0000000180047e10     ConEmuPluginBase.obj
 0003:00001e18       ?gbStartedUnderConsole2@@3HA 0000000180047e18     ConEmuPluginBase.obj
 0003:00001e1c       ?gnSelfPID@@3KA            0000000180047e1c     ConEmuPluginBase.obj
 0003:00001e20       ?ghFarInfoMapping@@3PEAXEA 0000000180047e20     ConEmuPluginBase.obj
 0003:00001e28       ?gpFarInfo@@3PEAUCEFAR_INFO_MAPPING@@EA 0000000180047e28     ConEmuPluginBase.obj
 0003:00001e30       ?gpFarInfoMapping@@3PEAUCEFAR_INFO_MAPPING@@EA 0000000180047e30     ConEmuPluginBase.obj
 0003:00001e38       ?ghFarAliveEvent@@3PEAXEA  0000000180047e38     ConEmuPluginBase.obj
 0003:00001e40       ?ghConEmuCtrlPressed@@3PEAXEA 0000000180047e40     ConEmuPluginBase.obj
 0003:00001e48       ?ghConEmuShiftPressed@@3PEAXEA 0000000180047e48     ConEmuPluginBase.obj
 0003:00001e50       ?gbWaitConsoleInputEmpty@@3HA 0000000180047e50     ConEmuPluginBase.obj
 0003:00001e54       ?gbWaitConsoleWrite@@3HA   0000000180047e54     ConEmuPluginBase.obj
 0003:00001e58       ?ghConsoleInputEmpty@@3PEAXEA 0000000180047e58     ConEmuPluginBase.obj
 0003:00001e60       ?ghConsoleWrite@@3PEAXEA   0000000180047e60     ConEmuPluginBase.obj
 0003:00001e68       ?gbInputSynchroPending@@3_NA 0000000180047e68     ConEmuPluginBase.obj
 0003:00001e69       ?gb_DllUniqueWarned@CPluginBase@@1_NA 0000000180047e69     ConEmuPluginBase.obj
 0003:00001e6a       ?gb_DllUniqueChecked@CPluginBase@@1_NA 0000000180047e6a     ConEmuPluginBase.obj
 0003:00001e6b       ?gb_ProtocolWarned@CPluginBase@@1_NA 0000000180047e6b     ConEmuPluginBase.obj
 0003:00001e6c       ?gnMainThreadId@@3KA       0000000180047e6c     ConEmuPluginBase.obj
 0003:00001e70       ?ghPluginModule@@3PEAUHINSTANCE__@@EA 0000000180047e70     ConEmuPluginBase.obj
 0003:00001e78       ?maxTabCount@@3HA          0000000180047e78     ConEmuPluginBase.obj
 0003:00001e7c       ?lastWindowCount@@3HA      0000000180047e7c     ConEmuPluginBase.obj
 0003:00001e80       ?gszDir1@@3PA_WA           0000000180047e80     ConEmuPluginBase.obj
 0003:00002680       ?gszDir2@@3PA_WA           0000000180048680     ConEmuPluginBase.obj
 0003:00002e80       ?gnCurTabCount@@3HA        0000000180048e80     ConEmuPluginBase.obj
 0003:00002e84       ?gbIgnoreUpdateTabs@@3HA   0000000180048e84     ConEmuPluginBase.obj
 0003:00002e88       ?gpCmdRet@@3PEAUCESERVER_REQ@@EA 0000000180048e88     ConEmuPluginBase.obj
 0003:00002e90       ?ghConEmuWndDC@@3PEAUHWND__@@EA 0000000180048e90     ConEmuPluginBase.obj
 0003:00002e98       ?FarHwnd@@3PEAUHWND__@@EA  0000000180048e98     ConEmuPluginBase.obj
 0003:00002ea0       ?gFarVersion@@3UFarVersion@@A 0000000180048ea0     ConEmuPluginBase.obj
 0003:00002eac       ?gbForceSendTabs@@3HA      0000000180048eac     ConEmuPluginBase.obj
 0003:00002eb0       ?gpConMapInfo@@3PEBUCESERVER_CONSOLE_MAPPING_HDR@@EB 0000000180048eb0     ConEmuPluginBase.obj
 0003:00002eb8       ?gpTabs@@3PEAUCESERVER_REQ@@EA 0000000180048eb8     ConEmuPluginBase.obj
 0003:00002ec0       ?gnCurrentWindowType@@3HA  0000000180048ec0     ConEmuPluginBase.obj
 0003:00002ec4       ?gnSynchroCount@@3HA       0000000180048ec4     ConEmuPluginBase.obj
 0003:00002ec8       ?gPanelRegLeft@@3UPanelViewRegInfo@@A 0000000180048ec8     ConEmuPluginBase.obj
 0003:00002ef8       ?gPanelRegRight@@3UPanelViewRegInfo@@A 0000000180048ef8     ConEmuPluginBase.obj
 0003:00002f28       ?TerminalMode@@3HA         0000000180048f28     ConEmuPluginBase.obj
 0003:00002f48       ?csbi@@3U_CONSOLE_SCREEN_BUFFER_INFO@@A 0000000180048f48     LogBrowser.obj
 0003:00002f5e       ?gbShowAttrsOnly@@3_NA     0000000180048f5e     LogBrowser.obj
 0003:00002f60       ?gnPage@@3HA               0000000180048f60     LogBrowser.obj
 0003:00002f68       ?gbBgPluginsAllowed@@3HA   0000000180048f68     PluginBackground.obj
 0003:00002f6c       ?gbNeedBgActivate@@3HA     0000000180048f6c     PluginBackground.obj
 0003:00002f70       ?gpBgPlugin@@3PEAVCPluginBackground@@EA 0000000180048f70     PluginBackground.obj
 0003:00002f80       ?ghServerTerminateEvent@@3PEAXEA 0000000180048f80     PluginSrv.obj
 0003:00002f88       ?gpPlugServer@@3PEAU?$PipeServer@UCESERVER_REQ@@@@EA 0000000180048f88     PluginSrv.obj
 0003:00002f90       ?gszPluginServerPipe@@3PA_WA 0000000180048f90     PluginSrv.obj
 0003:00003198       ?gbForcedServerTermination@@3_NA 0000000180049198     PluginSrv.obj
 0003:000031a0       ?g_LastDeletePtr@@3PEAXEA  00000001800491a0     common-kernel64:Memory.obj
 0003:000031b8       ?gpLocalSecurity@@3PEAU_SECURITY_ATTRIBUTES@@EA 00000001800491b8     common-kernel64:ConEmuCheck.obj
 0003:000031c0       ?ghWorkingModule@@3UHANDLE2@@A 00000001800491c0     common-kernel64:ConEmuCheck.obj
 0003:000031c8       ?gfGetRealConsoleWindow@@3P6APEAUHWND__@@XZEA 00000001800491c8     common-kernel64:ConEmuCheck.obj
 0003:00003210       ?g_ThreadsIdx@@3JA         0000000180049210     common-kernel64:WThreads.obj
 0003:0000ba28       ?gbInCommonShutdown@@3HA   0000000180051a28     common-kernel64:Common.obj
 0003:0000ba30       ?gNullDesc@@3PEAVMNullDesc@@EA 0000000180051a30     common-kernel64:MSecurity.obj
 0003:0000ba38       ?gfnSearchAppPaths@@3P6A_NPEB_WAEAUCEStr@@_NPEAVCEnvRestorer@@@ZEA 0000000180051a38     common-kernel64:WObjects.obj
 0003:0000ba58       ?hkFunc@@3UHkFunc@@A       0000000180051a58     common-kernel64:HkFunc.obj
 0003:0000ba90       ?gsMapHelper@@3UConsoleSectionHelper@@A 0000000180051a90     common-user64:WConsoleEx.obj
 0003:0000baa0       _tls_index                 0000000180051aa0     LIBCMT:tlssup.obj
 0003:0000baf8       __scrt_current_native_startup_state 0000000180051af8     LIBCMT:utility.obj
 0003:0000bb00       __scrt_native_startup_lock 0000000180051b00     LIBCMT:utility.obj
 0003:0000c0b0       __scrt_debugger_hook_flag  00000001800520b0     LIBCMT:utility_desktop.obj
 0003:0000c0b8       __castguard_check_failure_os_handled_fptr 00000001800520b8     LIBCMT:guard_support.obj
 0003:0000c0c0       ?__type_info_root_node@@3U__type_info_node@@A 00000001800520c0     LIBCMT:tncleanup.obj
 0003:0000c0d0       ?_OptionsStorage@?1??__local_stdio_scanf_options@@9@4_KA 00000001800520d0     LIBCMT:default_local_stdio_options.obj
 0003:0000c0d8       __favor                    00000001800520d8     LIBCMT:cpu_disp.obj
 0003:0000c0e0       ?__WinRTOutOfMemoryExceptionCallback@@3P6APEAXXZEA 00000001800520e0     libvcruntime:ehhelpers.obj
 0003:0000c170       __pPurecall                0000000180052170     libvcruntime:purevirt_data.obj
 0003:0000c1a8       ?pArgList@UnDecorator@@0PEAVReplicator@@EA 00000001800521a8     libvcruntime:undname.obj
 0003:0000c1b0       ?pZNameList@UnDecorator@@0PEAVReplicator@@EA 00000001800521b0     libvcruntime:undname.obj
 0003:0000c1b8       ?pTemplateArgList@UnDecorator@@0PEAVReplicator@@EA 00000001800521b8     libvcruntime:undname.obj
 0003:0000c1c0       ?gName@UnDecorator@@0PEBDEB 00000001800521c0     libvcruntime:undname.obj
 0003:0000c1c8       ?name@UnDecorator@@0PEBDEB 00000001800521c8     libvcruntime:undname.obj
 0003:0000c1d0       ?disableFlags@UnDecorator@@0KA 00000001800521d0     libvcruntime:undname.obj
 0003:0000c1d4       ?fExplicitTemplateParams@UnDecorator@@0_NA 00000001800521d4     libvcruntime:undname.obj
 0003:0000c1d5       ?fGetTemplateArgumentList@UnDecorator@@0_NA 00000001800521d5     libvcruntime:undname.obj
 0003:0000c1d8       ?m_pGetParameter@UnDecorator@@0P6APEADJ@ZEA 00000001800521d8     libvcruntime:undname.obj
 0003:0000c1e0       ?m_CHPENameOffset@UnDecorator@@0KA 00000001800521e0     libvcruntime:undname.obj
 0003:0000c1e4       ?m_recursionLevel@UnDecorator@@0KA 00000001800521e4     libvcruntime:undname.obj
 0003:0000c268       ?c_exit_complete@?1???R<lambda_6e4b09c48022b2350581041d5f6b0c4c>@@QEBA@XZ@4_NA 0000000180052268     libucrt:exit.obj
 0003:0000c378       _environ_table             0000000180052378     libucrt:environment_initialization.obj
 0003:0000c380       _wenviron_table            0000000180052380     libucrt:environment_initialization.obj
 0003:0000c388       __dcrt_initial_wide_environment 0000000180052388     libucrt:environment_initialization.obj
 0003:0000c390       __dcrt_initial_narrow_environment 0000000180052390     libucrt:environment_initialization.obj
 0003:0000c398       __acrt_atexit_table        0000000180052398     libucrt:onexit.obj
 0003:0000c3b0       __acrt_at_quick_exit_table 00000001800523b0     libucrt:onexit.obj
 0003:0000c3d0       _nstream                   00000001800523d0     libucrt:_file.obj
 0003:0000c3d8       __piob                     00000001800523d8     libucrt:_file.obj
 0003:0000c3e8       __acrt_stdout_buffer       00000001800523e8     libucrt:_sftbuf.obj
 0003:0000c3f0       __acrt_stderr_buffer       00000001800523f0     libucrt:_sftbuf.obj
 0003:0000c3f8       __acrt_locale_changed_data 00000001800523f8     libucrt:wsetlocale.obj
 0003:0000c400       __acrt_current_locale_data 0000000180052400     libucrt:nlsdata.obj
 0003:0000c410       __pioinfo                  0000000180052410     libucrt:ioinit.obj
 0003:0000c810       _nhandle                   0000000180052810     libucrt:ioinit.obj
 0003:0000ca58       _mbctype                   0000000180052a58     libucrt:mbctype.obj
 0003:0000ca60       _mbcasemap                 0000000180052a60     libucrt:mbctype.obj
 0003:0000ca68       __acrt_current_multibyte_data 0000000180052a68     libucrt:mbctype.obj
 0003:0000ca78       _pgmptr                    0000000180052a78     libucrt:argv_data.obj
 0003:0000ca80       __argc                     0000000180052a80     libucrt:argv_data.obj
 0003:0000ca88       __argv                     0000000180052a88     libucrt:argv_data.obj
 0003:0000ca90       __wargv                    0000000180052a90     libucrt:argv_data.obj
 0003:0000ca98       _acmdln                    0000000180052a98     libucrt:argv_data.obj
 0003:0000caa0       _wcmdln                    0000000180052aa0     libucrt:argv_data.obj
 0003:0000cc60       __acrt_heap                0000000180052c60     libucrt:heap_handle.obj
 0003:0000cc9c       __acrt_lconv_static_null   0000000180052c9c     libucrt:localeconv.obj
 0003:0000cca0       __acrt_lconv_static_W_null 0000000180052ca0     libucrt:localeconv.obj
 0003:0000ccb4       __fma3_is_available        0000000180052cb4     libucrt:fma3_available.obj
 0003:0000ccb8       __use_fma3_lib             0000000180052cb8     libucrt:fma3_available.obj
 0003:0000ccc0       ?g_LastSetConsoleFont@@3UMY_CONSOLE_FONT_INFOEX@@A 0000000180052cc0     common-kernel64:WConsole.obj
 0003:0000cd34       __scrt_ucrt_dll_is_in_use  0000000180052d34     <common>
 0003:0000cd38       __dyn_tls_init_callback    0000000180052d38     <common>

 entry point at        0001:0001cfd8

 Static symbols

 0000:fffa7000       .debug$S                   0000000180000000     ConEmu.x64.exp
 0000:fffa7000       .debug$S                   0000000180000000     advapi32:ADVAPI32.dll
 0000:fffa7000       .debug$S                   0000000180000000     advapi32:ADVAPI32.dll
 0000:fffa7000       .debug$S                   0000000180000000     advapi32:ADVAPI32.dll
 0000:fffa7000       .debug$S                   0000000180000000     advapi32:ADVAPI32.dll
 0000:fffa7000       .debug$S                   0000000180000000     advapi32:ADVAPI32.dll
 0000:fffa7000       .debug$S                   0000000180000000     advapi32:ADVAPI32.dll
 0000:fffa7000       .debug$S                   0000000180000000     advapi32:ADVAPI32.dll
 0000:fffa7000       .debug$S                   0000000180000000     advapi32:ADVAPI32.dll
 0000:fffa7000       .debug$S                   0000000180000000     advapi32:ADVAPI32.dll
 0000:fffa7000       .debug$S                   0000000180000000     advapi32:ADVAPI32.dll
 0000:fffa7000       .debug$S                   0000000180000000     advapi32:ADVAPI32.dll
 0000:fffa7000       .debug$S                   0000000180000000     advapi32:ADVAPI32.dll
 0000:fffa7000       .debug$S                   0000000180000000     advapi32:ADVAPI32.dll
 0000:fffa7000       .debug$S                   0000000180000000     advapi32:ADVAPI32.dll
 0000:fffa7000       .debug$S                   0000000180000000     advapi32:ADVAPI32.dll
 0000:fffa7000       .debug$S                   0000000180000000     gdi32:GDI32.dll
 0000:fffa7000       .debug$S                   0000000180000000     gdi32:GDI32.dll
 0000:fffa7000       .debug$S                   0000000180000000     gdi32:GDI32.dll
 0000:fffa7000       .debug$S                   0000000180000000     gdi32:GDI32.dll
 0000:fffa7000       .debug$S                   0000000180000000     gdi32:GDI32.dll
 0000:fffa7000       .debug$S                   0000000180000000     gdi32:GDI32.dll
 0000:fffa7000       .debug$S                   0000000180000000     gdi32:GDI32.dll
 0000:fffa7000       .debug$S                   0000000180000000     gdi32:GDI32.dll
 0000:fffa7000       .debug$S                   0000000180000000     gdi32:GDI32.dll
 0000:fffa7000       .debug$S                   0000000180000000     gdi32:GDI32.dll
 0000:fffa7000       .debug$S                   0000000180000000     gdi32:GDI32.dll
 0000:fffa7000       .debug$S                   0000000180000000     gdi32:GDI32.dll
 0000:fffa7000       .debug$S                   0000000180000000     gdi32:GDI32.dll
 0000:fffa7000       .debug$S                   0000000180000000     kernel32:KERNEL32.dll
 0000:fffa7000       .debug$S                   0000000180000000     kernel32:KERNEL32.dll
 0000:fffa7000       .debug$S                   0000000180000000     kernel32:KERNEL32.dll
 0000:fffa7000       .debug$S                   0000000180000000     kernel32:KERNEL32.dll
 0000:fffa7000       .debug$S                   0000000180000000     kernel32:KERNEL32.dll
 0000:fffa7000       .debug$S                   0000000180000000     kernel32:KERNEL32.dll
 0000:fffa7000       .debug$S                   0000000180000000     kernel32:KERNEL32.dll
 0000:fffa7000       .debug$S                   0000000180000000     kernel32:KERNEL32.dll
 0000:fffa7000       .debug$S                   0000000180000000     kernel32:KERNEL32.dll
 0000:fffa7000       .debug$S                   0000000180000000     kernel32:KERNEL32.dll
 0000:fffa7000       .debug$S                   0000000180000000     kernel32:KERNEL32.dll
 0000:fffa7000       .debug$S                   0000000180000000     kernel32:KERNEL32.dll
 0000:fffa7000       .debug$S                   0000000180000000     kernel32:KERNEL32.dll
 0000:fffa7000       .debug$S                   0000000180000000     kernel32:KERNEL32.dll
 0000:fffa7000       .debug$S                   0000000180000000     kernel32:KERNEL32.dll
 0000:fffa7000       .debug$S                   0000000180000000     kernel32:KERNEL32.dll
 0000:fffa7000       .debug$S                   0000000180000000     kernel32:KERNEL32.dll
 0000:fffa7000       .debug$S                   0000000180000000     kernel32:KERNEL32.dll
 0000:fffa7000       .debug$S                   0000000180000000     kernel32:KERNEL32.dll
 0000:fffa7000       .debug$S                   0000000180000000     kernel32:KERNEL32.dll
 0000:fffa7000       .debug$S                   0000000180000000     kernel32:KERNEL32.dll
 0000:fffa7000       .debug$S                   0000000180000000     kernel32:KERNEL32.dll
 0000:fffa7000       .debug$S                   0000000180000000     kernel32:KERNEL32.dll
 0000:fffa7000       .debug$S                   0000000180000000     kernel32:KERNEL32.dll
 0000:fffa7000       .debug$S                   0000000180000000     kernel32:KERNEL32.dll
 0000:fffa7000       .debug$S                   0000000180000000     kernel32:KERNEL32.dll
 0000:fffa7000       .debug$S                   0000000180000000     kernel32:KERNEL32.dll
 0000:fffa7000       .debug$S                   0000000180000000     kernel32:KERNEL32.dll
 0000:fffa7000       .debug$S                   0000000180000000     kernel32:KERNEL32.dll
 0000:fffa7000       .debug$S                   0000000180000000     kernel32:KERNEL32.dll
 0000:fffa7000       .debug$S                   0000000180000000     kernel32:KERNEL32.dll
 0000:fffa7000       .debug$S                   0000000180000000     kernel32:KERNEL32.dll
 0000:fffa7000       .debug$S                   0000000180000000     kernel32:KERNEL32.dll
 0000:fffa7000       .debug$S                   0000000180000000     kernel32:KERNEL32.dll
 0000:fffa7000       .debug$S                   0000000180000000     kernel32:KERNEL32.dll
 0000:fffa7000       .debug$S                   0000000180000000     kernel32:KERNEL32.dll
 0000:fffa7000       .debug$S                   0000000180000000     kernel32:KERNEL32.dll
 0000:fffa7000       .debug$S                   0000000180000000     kernel32:KERNEL32.dll
 0000:fffa7000       .debug$S                   0000000180000000     kernel32:KERNEL32.dll
 0000:fffa7000       .debug$S                   0000000180000000     kernel32:KERNEL32.dll
 0000:fffa7000       .debug$S                   0000000180000000     kernel32:KERNEL32.dll
 0000:fffa7000       .debug$S                   0000000180000000     kernel32:KERNEL32.dll
 0000:fffa7000       .debug$S                   0000000180000000     kernel32:KERNEL32.dll
 0000:fffa7000       .debug$S                   0000000180000000     kernel32:KERNEL32.dll
 0000:fffa7000       .debug$S                   0000000180000000     kernel32:KERNEL32.dll
 0000:fffa7000       .debug$S                   0000000180000000     kernel32:KERNEL32.dll
 0000:fffa7000       .debug$S                   0000000180000000     kernel32:KERNEL32.dll
 0000:fffa7000       .debug$S                   0000000180000000     kernel32:KERNEL32.dll
 0000:fffa7000       .debug$S                   0000000180000000     kernel32:KERNEL32.dll
 0000:fffa7000       .debug$S                   0000000180000000     kernel32:KERNEL32.dll
 0000:fffa7000       .debug$S                   0000000180000000     kernel32:KERNEL32.dll
 0000:fffa7000       .debug$S                   0000000180000000     kernel32:KERNEL32.dll
 0000:fffa7000       .debug$S                   0000000180000000     kernel32:KERNEL32.dll
 0000:fffa7000       .debug$S                   0000000180000000     kernel32:KERNEL32.dll
 0000:fffa7000       .debug$S                   0000000180000000     kernel32:KERNEL32.dll
 0000:fffa7000       .debug$S                   0000000180000000     kernel32:KERNEL32.dll
 0000:fffa7000       .debug$S                   0000000180000000     kernel32:KERNEL32.dll
 0000:fffa7000       .debug$S                   0000000180000000     kernel32:KERNEL32.dll
 0000:fffa7000       .debug$S                   0000000180000000     kernel32:KERNEL32.dll
 0000:fffa7000       .debug$S                   0000000180000000     kernel32:KERNEL32.dll
 0000:fffa7000       .debug$S                   0000000180000000     kernel32:KERNEL32.dll
 0000:fffa7000       .debug$S                   0000000180000000     kernel32:KERNEL32.dll
 0000:fffa7000       .debug$S                   0000000180000000     kernel32:KERNEL32.dll
 0000:fffa7000       .debug$S                   0000000180000000     kernel32:KERNEL32.dll
 0000:fffa7000       .debug$S                   0000000180000000     kernel32:KERNEL32.dll
 0000:fffa7000       .debug$S                   0000000180000000     kernel32:KERNEL32.dll
 0000:fffa7000       .debug$S                   0000000180000000     kernel32:KERNEL32.dll
 0000:fffa7000       .debug$S                   0000000180000000     kernel32:KERNEL32.dll
 0000:fffa7000       .debug$S                   0000000180000000     kernel32:KERNEL32.dll
 0000:fffa7000       .debug$S                   0000000180000000     kernel32:KERNEL32.dll
 0000:fffa7000       .debug$S                   0000000180000000     kernel32:KERNEL32.dll
 0000:fffa7000       .debug$S                   0000000180000000     kernel32:KERNEL32.dll
 0000:fffa7000       .debug$S                   0000000180000000     kernel32:KERNEL32.dll
 0000:fffa7000       .debug$S                   0000000180000000     kernel32:KERNEL32.dll
 0000:fffa7000       .debug$S                   0000000180000000     kernel32:KERNEL32.dll
 0000:fffa7000       .debug$S                   0000000180000000     kernel32:KERNEL32.dll
 0000:fffa7000       .debug$S                   0000000180000000     kernel32:KERNEL32.dll
 0000:fffa7000       .debug$S                   0000000180000000     kernel32:KERNEL32.dll
 0000:fffa7000       .debug$S                   0000000180000000     kernel32:KERNEL32.dll
 0000:fffa7000       .debug$S                   0000000180000000     kernel32:KERNEL32.dll
 0000:fffa7000       .debug$S                   0000000180000000     kernel32:KERNEL32.dll
 0000:fffa7000       .debug$S                   0000000180000000     kernel32:KERNEL32.dll
 0000:fffa7000       .debug$S                   0000000180000000     kernel32:KERNEL32.dll
 0000:fffa7000       .debug$S                   0000000180000000     kernel32:KERNEL32.dll
 0000:fffa7000       .debug$S                   0000000180000000     kernel32:KERNEL32.dll
 0000:fffa7000       .debug$S                   0000000180000000     kernel32:KERNEL32.dll
 0000:fffa7000       .debug$S                   0000000180000000     kernel32:KERNEL32.dll
 0000:fffa7000       .debug$S                   0000000180000000     kernel32:KERNEL32.dll
 0000:fffa7000       .debug$S                   0000000180000000     kernel32:KERNEL32.dll
 0000:fffa7000       .debug$S                   0000000180000000     kernel32:KERNEL32.dll
 0000:fffa7000       .debug$S                   0000000180000000     kernel32:KERNEL32.dll
 0000:fffa7000       .debug$S                   0000000180000000     kernel32:KERNEL32.dll
 0000:fffa7000       .debug$S                   0000000180000000     kernel32:KERNEL32.dll
 0000:fffa7000       .debug$S                   0000000180000000     kernel32:KERNEL32.dll
 0000:fffa7000       .debug$S                   0000000180000000     kernel32:KERNEL32.dll
 0000:fffa7000       .debug$S                   0000000180000000     kernel32:KERNEL32.dll
 0000:fffa7000       .debug$S                   0000000180000000     kernel32:KERNEL32.dll
 0000:fffa7000       .debug$S                   0000000180000000     kernel32:KERNEL32.dll
 0000:fffa7000       .debug$S                   0000000180000000     kernel32:KERNEL32.dll
 0000:fffa7000       .debug$S                   0000000180000000     kernel32:KERNEL32.dll
 0000:fffa7000       .debug$S                   0000000180000000     kernel32:KERNEL32.dll
 0000:fffa7000       .debug$S                   0000000180000000     kernel32:KERNEL32.dll
 0000:fffa7000       .debug$S                   0000000180000000     kernel32:KERNEL32.dll
 0000:fffa7000       .debug$S                   0000000180000000     kernel32:KERNEL32.dll
 0000:fffa7000       .debug$S                   0000000180000000     kernel32:KERNEL32.dll
 0000:fffa7000       .debug$S                   0000000180000000     kernel32:KERNEL32.dll
 0000:fffa7000       .debug$S                   0000000180000000     kernel32:KERNEL32.dll
 0000:fffa7000       .debug$S                   0000000180000000     kernel32:KERNEL32.dll
 0000:fffa7000       .debug$S                   0000000180000000     kernel32:KERNEL32.dll
 0000:fffa7000       .debug$S                   0000000180000000     kernel32:KERNEL32.dll
 0000:fffa7000       .debug$S                   0000000180000000     kernel32:KERNEL32.dll
 0000:fffa7000       .debug$S                   0000000180000000     kernel32:KERNEL32.dll
 0000:fffa7000       .debug$S                   0000000180000000     kernel32:KERNEL32.dll
 0000:fffa7000       .debug$S                   0000000180000000     kernel32:KERNEL32.dll
 0000:fffa7000       .debug$S                   0000000180000000     kernel32:KERNEL32.dll
 0000:fffa7000       .debug$S                   0000000180000000     kernel32:KERNEL32.dll
 0000:fffa7000       .debug$S                   0000000180000000     kernel32:KERNEL32.dll
 0000:fffa7000       .debug$S                   0000000180000000     kernel32:KERNEL32.dll
 0000:fffa7000       .debug$S                   0000000180000000     kernel32:KERNEL32.dll
 0000:fffa7000       .debug$S                   0000000180000000     kernel32:KERNEL32.dll
 0000:fffa7000       .debug$S                   0000000180000000     kernel32:KERNEL32.dll
 0000:fffa7000       .debug$S                   0000000180000000     kernel32:KERNEL32.dll
 0000:fffa7000       .debug$S                   0000000180000000     kernel32:KERNEL32.dll
 0000:fffa7000       .debug$S                   0000000180000000     kernel32:KERNEL32.dll
 0000:fffa7000       .debug$S                   0000000180000000     kernel32:KERNEL32.dll
 0000:fffa7000       .debug$S                   0000000180000000     kernel32:KERNEL32.dll
 0000:fffa7000       .debug$S                   0000000180000000     kernel32:KERNEL32.dll
 0000:fffa7000       .debug$S                   0000000180000000     kernel32:KERNEL32.dll
 0000:fffa7000       .debug$S                   0000000180000000     kernel32:KERNEL32.dll
 0000:fffa7000       .debug$S                   0000000180000000     kernel32:KERNEL32.dll
 0000:fffa7000       .debug$S                   0000000180000000     kernel32:KERNEL32.dll
 0000:fffa7000       .debug$S                   0000000180000000     kernel32:KERNEL32.dll
 0000:fffa7000       .debug$S                   0000000180000000     kernel32:KERNEL32.dll
 0000:fffa7000       .debug$S                   0000000180000000     kernel32:KERNEL32.dll
 0000:fffa7000       .debug$S                   0000000180000000     kernel32:KERNEL32.dll
 0000:fffa7000       .debug$S                   0000000180000000     kernel32:KERNEL32.dll
 0000:fffa7000       .debug$S                   0000000180000000     kernel32:KERNEL32.dll
 0000:fffa7000       .debug$S                   0000000180000000     kernel32:KERNEL32.dll
 0000:fffa7000       .debug$S                   0000000180000000     kernel32:KERNEL32.dll
 0000:fffa7000       .debug$S                   0000000180000000     kernel32:KERNEL32.dll
 0000:fffa7000       .debug$S                   0000000180000000     kernel32:KERNEL32.dll
 0000:fffa7000       .debug$S                   0000000180000000     kernel32:KERNEL32.dll
 0000:fffa7000       .debug$S                   0000000180000000     kernel32:KERNEL32.dll
 0000:fffa7000       .debug$S                   0000000180000000     kernel32:KERNEL32.dll
 0000:fffa7000       .debug$S                   0000000180000000     kernel32:KERNEL32.dll
 0000:fffa7000       .debug$S                   0000000180000000     kernel32:KERNEL32.dll
 0000:fffa7000       .debug$S                   0000000180000000     kernel32:KERNEL32.dll
 0000:fffa7000       .debug$S                   0000000180000000     kernel32:KERNEL32.dll
 0000:fffa7000       .debug$S                   0000000180000000     kernel32:KERNEL32.dll
 0000:fffa7000       .debug$S                   0000000180000000     kernel32:KERNEL32.dll
 0000:fffa7000       .debug$S                   0000000180000000     kernel32:KERNEL32.dll
 0000:fffa7000       .debug$S                   0000000180000000     kernel32:KERNEL32.dll
 0000:fffa7000       .debug$S                   0000000180000000     kernel32:KERNEL32.dll
 0000:fffa7000       .debug$S                   0000000180000000     kernel32:KERNEL32.dll
 0000:fffa7000       .debug$S                   0000000180000000     kernel32:KERNEL32.dll
 0000:fffa7000       .debug$S                   0000000180000000     kernel32:KERNEL32.dll
 0000:fffa7000       .debug$S                   0000000180000000     kernel32:KERNEL32.dll
 0000:fffa7000       .debug$S                   0000000180000000     kernel32:KERNEL32.dll
 0000:fffa7000       .debug$S                   0000000180000000     kernel32:KERNEL32.dll
 0000:fffa7000       .debug$S                   0000000180000000     kernel32:KERNEL32.dll
 0000:fffa7000       .debug$S                   0000000180000000     kernel32:KERNEL32.dll
 0000:fffa7000       .debug$S                   0000000180000000     kernel32:KERNEL32.dll
 0000:fffa7000       .debug$S                   0000000180000000     kernel32:KERNEL32.dll
 0000:fffa7000       .debug$S                   0000000180000000     kernel32:KERNEL32.dll
 0000:fffa7000       .debug$S                   0000000180000000     kernel32:KERNEL32.dll
 0000:fffa7000       .debug$S                   0000000180000000     kernel32:KERNEL32.dll
 0000:fffa7000       .debug$S                   0000000180000000     kernel32:KERNEL32.dll
 0000:fffa7000       .debug$S                   0000000180000000     kernel32:KERNEL32.dll
 0000:fffa7000       .debug$S                   0000000180000000     kernel32:KERNEL32.dll
 0000:fffa7000       .debug$S                   0000000180000000     kernel32:KERNEL32.dll
 0000:fffa7000       .debug$S                   0000000180000000     kernel32:KERNEL32.dll
 0000:fffa7000       .debug$S                   0000000180000000     kernel32:KERNEL32.dll
 0000:fffa7000       .debug$S                   0000000180000000     kernel32:KERNEL32.dll
 0000:fffa7000       .debug$S                   0000000180000000     kernel32:KERNEL32.dll
 0000:fffa7000       .debug$S                   0000000180000000     kernel32:KERNEL32.dll
 0000:fffa7000       .debug$S                   0000000180000000     kernel32:KERNEL32.dll
 0000:fffa7000       .debug$S                   0000000180000000     kernel32:KERNEL32.dll
 0000:fffa7000       .debug$S                   0000000180000000     kernel32:KERNEL32.dll
 0000:fffa7000       .debug$S                   0000000180000000     kernel32:KERNEL32.dll
 0000:fffa7000       .debug$S                   0000000180000000     kernel32:KERNEL32.dll
 0000:fffa7000       .debug$S                   0000000180000000     kernel32:KERNEL32.dll
 0000:fffa7000       .debug$S                   0000000180000000     kernel32:KERNEL32.dll
 0000:fffa7000       .debug$S                   0000000180000000     kernel32:KERNEL32.dll
 0000:fffa7000       .debug$S                   0000000180000000     kernel32:KERNEL32.dll
 0000:fffa7000       .debug$S                   0000000180000000     kernel32:KERNEL32.dll
 0000:fffa7000       .debug$S                   0000000180000000     kernel32:KERNEL32.dll
 0000:fffa7000       .debug$S                   0000000180000000     kernel32:KERNEL32.dll
 0000:fffa7000       .debug$S                   0000000180000000     shell32:SHELL32.dll
 0002:fffcd000       .idata$6                   0000000180000000     shell32:SHELL32.dll
 0000:fffa7000       .debug$S                   0000000180000000     user32:USER32.dll
 0000:fffa7000       .debug$S                   0000000180000000     user32:USER32.dll
 0000:fffa7000       .debug$S                   0000000180000000     user32:USER32.dll
 0000:fffa7000       .debug$S                   0000000180000000     user32:USER32.dll
 0000:fffa7000       .debug$S                   0000000180000000     user32:USER32.dll
 0000:fffa7000       .debug$S                   0000000180000000     user32:USER32.dll
 0000:fffa7000       .debug$S                   0000000180000000     user32:USER32.dll
 0000:fffa7000       .debug$S                   0000000180000000     user32:USER32.dll
 0000:fffa7000       .debug$S                   0000000180000000     user32:USER32.dll
 0000:fffa7000       .debug$S                   0000000180000000     user32:USER32.dll
 0000:fffa7000       .debug$S                   0000000180000000     user32:USER32.dll
 0000:fffa7000       .debug$S                   0000000180000000     user32:USER32.dll
 0000:fffa7000       .debug$S                   0000000180000000     user32:USER32.dll
 0000:fffa7000       .debug$S                   0000000180000000     user32:USER32.dll
 0000:fffa7000       .debug$S                   0000000180000000     user32:USER32.dll
 0000:fffa7000       .debug$S                   0000000180000000     user32:USER32.dll
 0000:fffa7000       .debug$S                   0000000180000000     user32:USER32.dll
 0000:fffa7000       .debug$S                   0000000180000000     user32:USER32.dll
 0000:fffa7000       .debug$S                   0000000180000000     user32:USER32.dll
 0000:fffa7000       .debug$S                   0000000180000000     user32:USER32.dll
 0000:fffa7000       .debug$S                   0000000180000000     user32:USER32.dll
 0000:fffa7000       .debug$S                   0000000180000000     user32:USER32.dll
 0000:fffa7000       .debug$S                   0000000180000000     user32:USER32.dll
 0000:fffa7000       .debug$S                   0000000180000000     user32:USER32.dll
 0000:fffa7000       .debug$S                   0000000180000000     user32:USER32.dll
 0000:fffa7000       .debug$S                   0000000180000000     user32:USER32.dll
 0000:fffa7000       .debug$S                   0000000180000000     user32:USER32.dll
 0000:fffa7000       .debug$S                   0000000180000000     user32:USER32.dll
 0000:fffa7000       .debug$S                   0000000180000000     user32:USER32.dll
 0000:fffa7000       .debug$S                   0000000180000000     user32:USER32.dll
 0000:fffa7000       .debug$S                   0000000180000000     user32:USER32.dll
 0000:fffa7000       .debug$S                   0000000180000000     user32:USER32.dll
 0000:fffa7000       .debug$S                   0000000180000000     user32:USER32.dll
 0000:fffa7000       .debug$S                   0000000180000000     user32:USER32.dll
 0000:fffa7000       .debug$S                   0000000180000000     user32:USER32.dll
 0000:fffa7000       .debug$S                   0000000180000000     user32:USER32.dll
 0000:fffa7000       .debug$S                   0000000180000000     user32:USER32.dll
 0000:fffa7000       .debug$S                   0000000180000000     user32:USER32.dll
 0000:fffa7000       .debug$S                   0000000180000000     user32:USER32.dll
 0000:fffa7000       .debug$S                   0000000180000000     user32:USER32.dll
 0000:fffa7000       .debug$S                   0000000180000000     user32:USER32.dll
 0000:fffa7000       .debug$S                   0000000180000000     user32:USER32.dll
 0000:fffa7000       .debug$S                   0000000180000000     version:VERSION.dll
 0000:fffa7000       .debug$S                   0000000180000000     version:VERSION.dll
 0000:fffa7000       .debug$S                   0000000180000000     version:VERSION.dll
 0001:00000000       ??__EgsMapHelper@@YAXXZ    0000000180001000 f   common-user64:WConsoleEx.obj
 0001:000012bc       ?CallGuiMacroDlg@@YA_JPEAXHH0@Z 00000001800022bc f   ConEmuPlugin1900.obj
 0001:000014c4       ?CallGuiMacroProc@@YAXXZ   00000001800024c4 f   ConEmuPlugin1900.obj
 0001:00001ca4       ?GetFarSetting@@YAHPEAX_KPEB_W@Z 0000000180002ca4 f   ConEmuPlugin1900.obj
 0001:00003db4       ?CallGuiMacroDlg@@YA_JPEAX_J10@Z 0000000180004db4 f   ConEmuPlugin2800.obj
 0001:00003fc8       ?CallGuiMacroProc@@YAXXZ   0000000180004fc8 f   ConEmuPlugin2800.obj
 0001:000043f8       ?FreeMacroResult@@YAXPEAXPEAUFarMacroValue@@_K@Z 00000001800053f8 f   ConEmuPlugin2800.obj
 0001:00004578       ?GetFarSetting@@YAHPEAX_KPEB_W@Z 0000000180005578 f   ConEmuPlugin2800.obj
 0001:00006378       ?WExists@@YA_JAEBUWindowInfo@@AEBV?$MArray@UWindowInfo@@@@@Z 0000000180007378 f   ConEmuPlugin2800.obj
 0001:000063dc       ?WLoadWindows@@YA_JAEAV?$MArray@UWindowInfo@@@@H@Z 00000001800073dc f   ConEmuPlugin2800.obj
 0001:00006db0       ?CallGuiMacroDlg@@YA_JPEAXHH_J@Z 0000000180007db0 f   ConEmuPlugin995.obj
 0001:00006f98       ?CallGuiMacroProc@@YAXXZ   0000000180007f98 f   ConEmuPlugin995.obj
 0001:000088a0       ?CallGuiMacroDlg@@YA_JPEAXHH_J@Z 00000001800098a0 f   ConEmuPluginA.obj
 0001:00008b18       ?CallGuiMacroProc@@YAXXZ   0000000180009b18 f   ConEmuPluginA.obj
 0001:0000ca38       ?LoadFarVersion@@YA_NAEAUFarVersion@@AEAY0CAA@_W@Z 000000018000da38 f   ConEmuPluginBase.obj
 0001:0000cbe8       ?LoadModuleVersion@@YA_NPEB_WAEAUtagVS_FIXEDFILEINFO@@PEA_W_K@Z 000000018000dbe8 f   ConEmuPluginBase.obj
 0001:000180a0       ??$ExpandEnvStr@UCEStr@@_W@?A0x00888f7e@@YA?AUCEStr@@PEB_W_WP6AK0PEA_WK@Z@Z 00000001800190a0 f   common-kernel64:EnvVar.obj
 0001:000195d0       initialize_environment     000000018001a5d0 f i libucrt:initialization.obj
 0001:000195d0       initialize_global_state_isolation 000000018001a5d0 f i libucrt:initialization.obj
 0001:000195d0       report_memory_leaks        000000018001a5d0 f i libucrt:initialization.obj
 0001:000195d0       uninitialize_c             000000018001a5d0 f i libucrt:initialization.obj
 0001:000195d0       uninitialize_global_state_isolation 000000018001a5d0 f i libucrt:initialization.obj
 0001:0001c900       $$000000                   000000018001d900     LIBCMT:amdsecgs.obj
 0001:0001c940       $$000000                   000000018001d940     LIBCMT:chkstk.obj
 0001:0001ca50       ?__scrt_initialize_thread_safe_statics@@YAHXZ 000000018001da50 f   LIBCMT:thread_safe_statics.obj
 0001:0001cb20       ?__scrt_uninitialize_thread_safe_statics@@YAXXZ 000000018001db20 f   LIBCMT:thread_safe_statics.obj
 0001:0001ccb8       ?dllmain_crt_dispatch@@YAHQEAUHINSTANCE__@@KQEAX@Z 000000018001dcb8 f   LIBCMT:dll_dllmain.obj
 0001:0001cd08       ?dllmain_crt_process_attach@@YAHQEAUHINSTANCE__@@QEAX@Z 000000018001dd08 f   LIBCMT:dll_dllmain.obj
 0001:0001ce20       ?dllmain_crt_process_detach@@YAH_N@Z 000000018001de20 f   LIBCMT:dll_dllmain.obj
 0001:0001cea4       ?dllmain_dispatch@@YAHQEAUHINSTANCE__@@KQEAX@Z 000000018001dea4 f   LIBCMT:dll_dllmain.obj
 0001:0001d550       capture_current_context    000000018001e550 f   LIBCMT:gs_report.obj
 0001:0001d5c0       capture_previous_context   000000018001e5c0 f   LIBCMT:gs_report.obj
 0001:0001e280       $$000000                   000000018001f280     libvcruntime:memcpy.obj
 0001:0001e920       $$000000                   000000018001f920     libvcruntime:memset.obj
 0001:0001ee60       $$000000                   000000018001fe60     libvcruntime:memcmp.obj
 0001:0001f674       ??$BuildCatchObjectHelperInternal@V__FrameHandler4@@@@YAHPEAUEHExceptionRecord@@PEAXPEAUHandlerType4@FH4@@PEBU_s_CatchableType@@@Z 0000000180020674 f   libvcruntime:frame.obj
 0001:0001f878       ??$BuildCatchObjectInternal@V__FrameHandler4@@@@YAXPEAUEHExceptionRecord@@PEAXPEAUHandlerType4@FH4@@PEBU_s_CatchableType@@@Z 0000000180020878 f   libvcruntime:frame.obj
 0001:0001f93c       ??$CatchIt@V__FrameHandler4@@@@YAXPEAUEHExceptionRecord@@PEA_KPEAU_CONTEXT@@PEAU_xDISPATCHER_CONTEXT@@PEAUFuncInfo4@FH4@@PEAUHandlerType4@4@PEBU_s_CatchableType@@PEAUTryBlockMapEntry4@4@H1EE@Z 000000018002093c f   libvcruntime:frame.obj
 0001:0001fa10       ??$FindHandler@V__FrameHandler4@@@@YAXPEAUEHExceptionRecord@@PEA_KPEAU_CONTEXT@@PEAU_xDISPATCHER_CONTEXT@@PEAUFuncInfo4@FH4@@EH1@Z 0000000180020a10 f   libvcruntime:frame.obj
 0001:0001ff3c       ??$FindHandlerForForeignException@V__FrameHandler4@@@@YAXPEAUEHExceptionRecord@@PEA_KPEAU_CONTEXT@@PEAU_xDISPATCHER_CONTEXT@@PEAUFuncInfo4@FH4@@HH1@Z 0000000180020f3c f   libvcruntime:frame.obj
 0001:00020ce4       ?ExFilterRethrow@@YAHPEAU_EXCEPTION_POINTERS@@PEAUEHExceptionRecord@@PEAH@Z 0000000180021ce4 f   libvcruntime:frame.obj
 0001:00020d6c       ?ExFilterRethrowFH4@@YAHPEAU_EXCEPTION_POINTERS@@PEAUEHExceptionRecord@@HPEAH@Z 0000000180021d6c f   libvcruntime:frame.obj
 0001:00021084       ?IsInExceptionSpec@@YAEPEAUEHExceptionRecord@@PEBU_s_ESTypeList@@@Z 0000000180022084 f   libvcruntime:frame.obj
 0001:00021174       ?Is_bad_exception_allowed@@YAEPEBU_s_ESTypeList@@@Z 0000000180022174 f   libvcruntime:frame.obj
 0001:00021450       $$000000                   0000000180022450     libvcruntime:notify.obj
 0001:00021538       ?try_get_function@@YAPEAXW4function_id@?A0x84e3c32f@@QEBDQEBW4module_id@2@2@Z 0000000180022538 f   libvcruntime:winapi_downlevel.obj
 0001:00021820       $$000000                   0000000180022820     libvcruntime:handlers.obj
 0001:00021928       ??$common_vsprintf@Vstandard_base@__crt_stdio_output@@D@@YAH_KQEAD0QEBDQEAU__crt_locale_pointers@@1@Z 0000000180022928 f   libucrt:output.obj
 0001:00021af4       ??$common_vsprintf@Vstandard_base@__crt_stdio_output@@_W@@YAH_KQEA_W0QEB_WQEAU__crt_locale_pointers@@QEAD@Z 0000000180022af4 f   libucrt:output.obj
 0001:000232b8       $LN17                      00000001800242b8     libucrt:output.obj
 0001:0002512c       ??$?RV<lambda_d80eeec6fff315bfe5c115232f3240e3>@@AEAV<lambda_6e4b09c48022b2350581041d5f6b0c4c>@@V<lambda_2358e3775559c9db80273638284d5e45>@@@?$__crt_seh_guarded_call@X@@QEAAX$$QEAV<lambda_d80eeec6fff315bfe5c115232f3240e3>@@AEAV<lambda_6e4b09c48022b2350581041d5f6b0c4c>@@$$QEAV<lambda_2358e3775559c9db80273638284d5e45>@@@Z 000000018002612c f   libucrt:exit.obj
 0001:00025164       ??R<lambda_6e4b09c48022b2350581041d5f6b0c4c>@@QEBA@XZ 0000000180026164 f   libucrt:exit.obj
 0001:00025228       ?atexit_exception_filter@@YAHK@Z 0000000180026228 f   libucrt:exit.obj
 0001:00025234       ?common_exit@@YAXHW4_crt_exit_cleanup_mode@@W4_crt_exit_return_mode@@@Z 0000000180026234 f   libucrt:exit.obj
 0001:000252f0       ?exit_or_terminate_process@@YAXI@Z 00000001800262f0 f   libucrt:exit.obj
 0001:0002533c       ?try_cor_exit_process@@YAXI@Z 000000018002633c f   libucrt:exit.obj
 0001:000253c4       ??$parse_command_line@D@@YAXPEADPEAPEAD0PEA_K2@Z 00000001800263c4 f   libucrt:argv_parsing.obj
 0001:0002576c       ??$common_initialize_environment_nolock@D@@YAHXZ 000000018002676c f   libucrt:environment_initialization.obj
 0001:000257d8       ??$create_environment@D@@YAQEAPEADQEAD@Z 00000001800267d8 f   libucrt:environment_initialization.obj
 0001:000258e0       ??$free_environment@D@@YAXQEAPEAD@Z 00000001800268e0 f   libucrt:environment_initialization.obj
 0001:000258e0       ??$free_environment@_W@@YAXQEAPEA_W@Z 00000001800268e0 f   libucrt:environment_initialization.obj
 0001:00025924       ??$uninitialize_environment_internal@D@@YAXAEAPEAPEAD@Z 0000000180026924 f   libucrt:environment_initialization.obj
 0001:00025940       ??$uninitialize_environment_internal@_W@@YAXAEAPEAPEA_W@Z 0000000180026940 f   libucrt:environment_initialization.obj
 0001:0002599c       ??$?RV<lambda_638799b9deba96c50f710eeac98168cd>@@AEAV<lambda_22ebabd17bc4fa466a2aca6d8deb888d>@@V<lambda_a6f7d7db0129f75315ebf26d50c089f1>@@@?$__crt_seh_guarded_call@H@@QEAAH$$QEAV<lambda_638799b9deba96c50f710eeac98168cd>@@AEAV<lambda_22ebabd17bc4fa466a2aca6d8deb888d>@@$$QEAV<lambda_a6f7d7db0129f75315ebf26d50c089f1>@@@Z 000000018002699c f   libucrt:onexit.obj
 0001:000259d8       ??$?RV<lambda_7777bce6b2f8c936911f934f8298dc43>@@AEAV<lambda_f03950bc5685219e0bcd2087efbe011e>@@V<lambda_3883c3dff614d5e0c5f61bb1ac94921c>@@@?$__crt_seh_guarded_call@H@@QEAAH$$QEAV<lambda_7777bce6b2f8c936911f934f8298dc43>@@AEAV<lambda_f03950bc5685219e0bcd2087efbe011e>@@$$QEAV<lambda_3883c3dff614d5e0c5f61bb1ac94921c>@@@Z 00000001800269d8 f   libucrt:onexit.obj
 0001:00025a14       ??R<lambda_22ebabd17bc4fa466a2aca6d8deb888d>@@QEBAHXZ 0000000180026a14 f   libucrt:onexit.obj
 0001:00025bc4       ??R<lambda_f03950bc5685219e0bcd2087efbe011e>@@QEBAHXZ 0000000180026bc4 f   libucrt:onexit.obj
 0001:00025d98       initialize_global_variables 0000000180026d98 f   libucrt:initialization.obj
 0001:00025dac       initialize_c               0000000180026dac f   libucrt:initialization.obj
 0001:00025dd0       uninitialize_environment   0000000180026dd0 f   libucrt:initialization.obj
 0001:00025de0       initialize_pointers        0000000180026de0 f   libucrt:initialization.obj
 0001:00025e20       uninitialize_vcruntime     0000000180026e20 f   libucrt:initialization.obj
 0001:00025e28       uninitialize_allocated_memory 0000000180026e28 f   libucrt:initialization.obj
 0001:00025e68       uninitialize_allocated_io_buffers 0000000180026e68 f   libucrt:initialization.obj
 0001:00026040       $$000000                   0000000180027040     libucrt:strncmp.obj
 0001:000267bc       ??$?RV<lambda_0ae27a3a962d80f24befdcbee591983d>@@AEAV<lambda_8d0ee55de4b1038c4002e0adecdf1839>@@V<lambda_dc504788e8f1664fe9b84e20bfb512f2>@@@?$__crt_seh_guarded_call@X@@QEAAX$$QEAV<lambda_0ae27a3a962d80f24befdcbee591983d>@@AEAV<lambda_8d0ee55de4b1038c4002e0adecdf1839>@@$$QEAV<lambda_dc504788e8f1664fe9b84e20bfb512f2>@@@Z 00000001800277bc f   libucrt:per_thread_data.obj
 0001:000267fc       ??$?RV<lambda_2d41944a1d46af3157314b8a01080d33>@@AEAV<lambda_8f455de75cd7d7f24b4096f044d8b9e6>@@V<lambda_aa500f224e6afead328df44964fe2772>@@@?$__crt_seh_guarded_call@X@@QEAAX$$QEAV<lambda_2d41944a1d46af3157314b8a01080d33>@@AEAV<lambda_8f455de75cd7d7f24b4096f044d8b9e6>@@$$QEAV<lambda_aa500f224e6afead328df44964fe2772>@@@Z 00000001800277fc f   libucrt:per_thread_data.obj
 0001:0002683c       ??$?RV<lambda_aa87e3671a710a21b5dc78c0bdf72e11>@@AEAV<lambda_92619d2358a28f41a33ba319515a20b9>@@V<lambda_6992ecaafeb10aed2b74cb1fae11a551>@@@?$__crt_seh_guarded_call@X@@QEAAX$$QEAV<lambda_aa87e3671a710a21b5dc78c0bdf72e11>@@AEAV<lambda_92619d2358a28f41a33ba319515a20b9>@@$$QEAV<lambda_6992ecaafeb10aed2b74cb1fae11a551>@@@Z 000000018002783c f   libucrt:per_thread_data.obj
 0001:00026884       ??$?RV<lambda_f2e299630e499de9f9a165e60fcd3db5>@@AEAV<lambda_2ae9d31cdba2644fcbeaf08da7c24588>@@V<lambda_40d01ff24d0e7b3814fdbdcee8eab3c7>@@@?$__crt_seh_guarded_call@X@@QEAAX$$QEAV<lambda_f2e299630e499de9f9a165e60fcd3db5>@@AEAV<lambda_2ae9d31cdba2644fcbeaf08da7c24588>@@$$QEAV<lambda_40d01ff24d0e7b3814fdbdcee8eab3c7>@@@Z 0000000180027884 f   libucrt:per_thread_data.obj
 0001:000268e4       ?construct_ptd_array@@YAXQEAU__acrt_ptd@@@Z 00000001800278e4 f   libucrt:per_thread_data.obj
 0001:000269b4       ?destroy_fls@@YAXPEAX@Z    00000001800279b4 f   libucrt:per_thread_data.obj
 0001:000269d4       ?destroy_ptd_array@@YAXQEAU__acrt_ptd@@@Z 00000001800279d4 f   libucrt:per_thread_data.obj
 0001:00026acc       ?replace_current_thread_locale_nolock@@YAXQEAU__acrt_ptd@@QEAU__crt_locale_data@@@Z 0000000180027acc f   libucrt:per_thread_data.obj
 0001:00026e88       ?fp_format_a@@YAHQEBNPEAD_KQEAD2H_NIQEAU__crt_locale_pointers@@W4__acrt_rounding_mode@@@Z 0000000180027e88 f   libucrt:cvt.obj
 0001:00027208       ?fp_format_e@@YAHQEBNQEAD_K12H_NIQEAU__crt_locale_pointers@@W4__acrt_rounding_mode@@@Z 0000000180028208 f   libucrt:cvt.obj
 0001:000272f8       ?fp_format_e_internal@@YAHQEAD_KH_NIQEAU_strflt@@2QEAU__crt_locale_pointers@@@Z 00000001800282f8 f   libucrt:cvt.obj
 0001:000274cc       ?fp_format_f_internal@@YAHQEAD_KHQEAU_strflt@@_NQEAU__crt_locale_pointers@@@Z 00000001800284cc f   libucrt:cvt.obj
 0001:00027634       ?fp_format_g@@YAHQEBNQEAD_K12H_NIW4__acrt_rounding_mode@@QEAU__crt_locale_pointers@@@Z 0000000180028634 f   libucrt:cvt.obj
 0001:0002777c       ?should_round_up@@YA_NQEBN_KFW4__acrt_rounding_mode@@@Z 000000018002877c f   libucrt:cvt.obj
 0001:00027da0       ??$?RV<lambda_410d79af7f07d98d83a3f525b3859a53>@@AEAV<lambda_3e16ef9562a7dcce91392c22ab16ea36>@@V<lambda_38119f0e861e05405d8a144b9b982f0a>@@@?$__crt_seh_guarded_call@X@@QEAAX$$QEAV<lambda_410d79af7f07d98d83a3f525b3859a53>@@AEAV<lambda_3e16ef9562a7dcce91392c22ab16ea36>@@$$QEAV<lambda_38119f0e861e05405d8a144b9b982f0a>@@@Z 0000000180028da0 f   libucrt:wsetlocale.obj
 0001:00027e4c       ?initialize_inherited_file_handles_nolock@@YAXXZ 0000000180028e4c f   libucrt:ioinit.obj
 0001:00027f3c       ?initialize_stdio_handles_nolock@@YAXXZ 0000000180028f3c f   libucrt:ioinit.obj
 0001:000283d4       ?<lambda_invoker_cdecl>@<lambda_a1ce4c8ae42411fd470c77163914f50e>@@CAHPEBX0@Z 00000001800293d4 f   libucrt:argv_wildcards.obj
 0001:000286ec       ??$common_expand_argv_wildcards@D@@YAHQEAPEADQEAPEAPEAD@Z 00000001800296ec f   libucrt:argv_wildcards.obj
 0001:000288f8       ??$copy_and_add_argument_to_buffer@D@@YAHQEBD0_KAEAV?$argument_list@D@?A0x5f5c8891@@@Z 00000001800298f8 f   libucrt:argv_wildcards.obj
 0001:00028a80       ??$expand_argument_wildcards@D@@YAHQEAD0AEAV?$argument_list@D@?A0x5f5c8891@@@Z 0000000180029a80 f   libucrt:argv_wildcards.obj
 0001:00028fcc       ??$?RV<lambda_efdfa57d1f175319df784efa44bb7b81>@@AEAV<lambda_5f0a4c1567f8adc6734073e5d1e1b35c>@@V<lambda_2e8a7d3640ea6ccb4c2413664c2db6fd>@@@?$__crt_seh_guarded_call@X@@QEAAX$$QEAV<lambda_efdfa57d1f175319df784efa44bb7b81>@@AEAV<lambda_5f0a4c1567f8adc6734073e5d1e1b35c>@@$$QEAV<lambda_2e8a7d3640ea6ccb4c2413664c2db6fd>@@@Z 0000000180029fcc f   libucrt:mbctype.obj
 0001:00029188       ?getSystemCP@@YAHH@Z       000000018002a188 f   libucrt:mbctype.obj
 0001:00029208       ?setSBCS@@YAXPEAU__crt_multibyte_data@@@Z 000000018002a208 f   libucrt:mbctype.obj
 0001:00029298       ?setSBUpLow@@YAXPEAU__crt_multibyte_data@@@Z 000000018002a298 f   libucrt:mbctype.obj
 0001:0002947c       ?setmbcp_internal@@YAHH_NQEAU__acrt_ptd@@QEAPEAU__crt_multibyte_data@@@Z 000000018002a47c f   libucrt:mbctype.obj
 0001:0002963c       ?update_thread_multibyte_data_internal@@YAPEAU__crt_multibyte_data@@QEAU__acrt_ptd@@QEAPEAU1@@Z 000000018002a63c f   libucrt:mbctype.obj
 0001:00029a2c       ?x_ismbbtype_l@@YAHPEAU__crt_locale_pointers@@IHH@Z 000000018002aa2c f   libucrt:ismbbyte.obj
 0001:00029d88       ?try_get_function@@YAPEAXW4function_id@?A0x391cf84c@@QEBDQEBW4module_id@2@2@Z 000000018002ad88 f   libucrt:winapi_thunks.obj
 0001:0002a470       ??$?RV<lambda_450d765d439847d4c735a33c368b5fc0>@@AEAV<lambda_44731a7d0e6d81c3e6aa82d741081786>@@V<lambda_601a2a7da3b7a96e9554ac7215c4b07c>@@@?$__crt_seh_guarded_call@P6AXH@Z@@QEAAP6AXH@Z$$QEAV<lambda_450d765d439847d4c735a33c368b5fc0>@@AEAV<lambda_44731a7d0e6d81c3e6aa82d741081786>@@$$QEAV<lambda_601a2a7da3b7a96e9554ac7215c4b07c>@@@Z 000000018002b470 f   libucrt:signal.obj
 0001:0002a7cc       ??$?RV<lambda_842d9ff0dc9ef11c61343bbaebe7f885>@@AEAV<lambda_c5860995281e5c4ce005b3de8f5874ee>@@V<lambda_d90129c13df834fdcbf8d2b88dafcf2d>@@@?$__crt_seh_guarded_call@X@@QEAAX$$QEAV<lambda_842d9ff0dc9ef11c61343bbaebe7f885>@@AEAV<lambda_c5860995281e5c4ce005b3de8f5874ee>@@$$QEAV<lambda_d90129c13df834fdcbf8d2b88dafcf2d>@@@Z 000000018002b7cc f   libucrt:fflush.obj
 0001:0002a868       ??$?RV<lambda_886d6c58226a84441f68b9f2b8217b83>@@AEAV<lambda_ab61a845afdef5b7c387490eaf3616ee>@@V<lambda_f7f22ab5edc0698d5f6905b0d3f44752>@@@?$__crt_seh_guarded_call@X@@QEAAX$$QEAV<lambda_886d6c58226a84441f68b9f2b8217b83>@@AEAV<lambda_ab61a845afdef5b7c387490eaf3616ee>@@$$QEAV<lambda_f7f22ab5edc0698d5f6905b0d3f44752>@@@Z 000000018002b868 f   libucrt:fflush.obj
 0001:0002a948       ?common_flush_all@@YAH_N@Z 000000018002b948 f   libucrt:fflush.obj
 0001:0002c910       memcpy_s                   000000018002d910 f   libucrt:cfout.obj
 0001:0002cc78       ?free_crt_array_internal@@YAXQEAPEBX_K@Z 000000018002dc78 f   libucrt:inittime.obj
 0001:0002d714       fallbackMethod             000000018002e714 f   libucrt:strpbrk.obj
 0001:0002dacc       $LN78                      000000018002eacc     libucrt:strpbrk.obj
 0001:0002db08       $LN77                      000000018002eb08     libucrt:strpbrk.obj
 0001:0002db48       $LN76                      000000018002eb48     libucrt:strpbrk.obj
 0001:0002dc24       ?__acrt_LCMapStringA_stat@@YAHPEAU__crt_locale_pointers@@PEB_WKPEBDHPEADHHH@Z 000000018002ec24 f   libucrt:lcmapstringa.obj
 0001:0002dfd4       ?initialize_multibyte@@YAHXZ 000000018002efd4 f   libucrt:multibyte_initializer.obj
 0001:0002e154       ??$?RV<lambda_a37b2b86f63e897a80ea819b0eb08c01>@@AEAV<lambda_38ce7e780aa69e748d6df282ebc68efe>@@V<lambda_99fb1378e971ab6e7edea83e3a7a83a2>@@@?$__crt_seh_guarded_call@H@@QEAAH$$QEAV<lambda_a37b2b86f63e897a80ea819b0eb08c01>@@AEAV<lambda_38ce7e780aa69e748d6df282ebc68efe>@@$$QEAV<lambda_99fb1378e971ab6e7edea83e3a7a83a2>@@@Z 000000018002f154 f   libucrt:commit.obj
 0001:0002e274       ?write_double_translated_ansi_nolock@@YA?AUwrite_result@?A0x17268360@@HQEBDI@Z 000000018002f274 f   libucrt:write.obj
 0001:0002e760       ?write_text_ansi_nolock@@YA?AUwrite_result@?A0x17268360@@HQEBDI@Z 000000018002f760 f   libucrt:write.obj
 0001:0002e864       ?write_text_utf16le_nolock@@YA?AUwrite_result@?A0x17268360@@HQEBDI@Z 000000018002f864 f   libucrt:write.obj
 0001:0002e980       ?write_text_utf8_nolock@@YA?AUwrite_result@?A0x17268360@@HQEBDI@Z 000000018002f980 f   libucrt:write.obj
 0001:0002f280       $$000000                   0000000180030280     libucrt:log10.obj
 0001:0002fb4c       ??$common_lseek_nolock@_J@@YA_JH_JH@Z 0000000180030b4c f   libucrt:lseek.obj
 0001:0002fdf8       common_control87           0000000180030df8 f   libucrt:ieee.obj
 0001:000300b8       _call_matherr              00000001800310b8 f   libucrt:libm_error.obj
 0001:00030120       _exception_enabled         0000000180031120 f   libucrt:libm_error.obj
 0001:000303b0       _log_special_common        00000001800313b0 f   libucrt:log_special.obj
 0001:00030448       ??$?RV<lambda_751a882b2c74d4b022dec766aa51a29a>@@AEAV<lambda_628dfdc04ba53c8bfc02c9951375f3f5>@@V<lambda_f6c7be5f7998530c34de24c7437d6b54>@@@?$__crt_seh_guarded_call@H@@QEAAH$$QEAV<lambda_751a882b2c74d4b022dec766aa51a29a>@@AEAV<lambda_628dfdc04ba53c8bfc02c9951375f3f5>@@$$QEAV<lambda_f6c7be5f7998530c34de24c7437d6b54>@@@Z 0000000180031448 f   libucrt:close.obj
 0001:00030770       $$000000                   0000000180031770     libucrt:fpsr.obj
 0001:000310b0       $$000000                   00000001800320b0     LIBCMT:guard_dispatch.obj
 0001:000310d0       $$000000                   00000001800320d0     LIBCMT:guard_xfg_dispatch.obj
 0001:000310f0       ?dtor$0@?0??RegisterBackground@@YAHPEAURegisterBackgroundArg@@@Z@4HA 00000001800320f0 f   ConEmuPlugin.obj
 0001:0003110d       ?catch$0@?0???$_Emplace_reallocate@AEBUWindowInfo@@@?$vector@UWindowInfo@@V?$MArrayAllocator@UWindowInfo@@@@@std@@QEAAPEAUWindowInfo@@QEAU2@AEBU2@@Z@4HA 000000018003210d f   ConEmuPlugin2800.obj
 0001:0003111a       __catch$??$_Emplace_reallocate@AEBUWindowInfo@@@?$vector@UWindowInfo@@V?$MArrayAllocator@UWindowInfo@@@@@std@@QEAAPEAUWindowInfo@@QEAU2@AEBU2@@Z$0 000000018003211a f   ConEmuPlugin2800.obj
 0001:0003113e       ?dtor$1@?0??Open@CPluginW2800@@UEAAPEAXPEBX@Z@4HA 000000018003213e f   ConEmuPlugin2800.obj
 0001:0003114a       ?dtor$0@?0??SetWindow@CPluginW2800@@UEAAXH@Z@4HA 000000018003214a f   ConEmuPlugin2800.obj
 0001:00031156       ?dtor$0@?0??UpdateConEmuTabsApi@CPluginW2800@@UEAA_NH@Z@4HA 0000000180032156 f   ConEmuPlugin2800.obj
 0001:00031176       ?dtor$1@?0??UpdateConEmuTabsApi@CPluginW2800@@UEAA_NH@Z@4HA 0000000180032176 f   ConEmuPlugin2800.obj
 0001:00031182       ?catch$0@?0??insert@?$vector@UWindowInfo@@V?$MArrayAllocator@UWindowInfo@@@@@std@@QEAA?AV?$_Vector_iterator@V?$_Vector_val@U?$_Simple_types@UWindowInfo@@@std@@@std@@@2@V?$_Vector_const_iterator@V?$_Vector_val@U?$_Simple_types@UWindowInfo@@@std@@@std@@@2@_KAEBUWindowInfo@@@Z@4HA 0000000180032182 f   ConEmuPlugin2800.obj
 0001:0003118f       __catch$?insert@?$vector@UWindowInfo@@V?$MArrayAllocator@UWindowInfo@@@@@std@@QEAA?AV?$_Vector_iterator@V?$_Vector_val@U?$_Simple_types@UWindowInfo@@@std@@@std@@@2@V?$_Vector_const_iterator@V?$_Vector_val@U?$_Simple_types@UWindowInfo@@@std@@@std@@@2@_KAEBUWindowInfo@@@Z$0 000000018003218f f   ConEmuPlugin2800.obj
 0001:000311b8       ?dtor$0@?0???0CPluginW995@@QEAA@XZ@4HA 00000001800321b8 f   ConEmuPlugin995.obj
 0001:000311b8       ?dtor$0@?0???0CPluginAnsi@@QEAA@XZ@4HA 00000001800321b8 f   ConEmuPluginA.obj
 0001:000311c4       ?dtor$0@?0??CheckConEmuDetached@CPluginBase@@SAXXZ@4HA 00000001800321c4 f   ConEmuPluginBase.obj
 0001:000311d0       ?dtor$0@?0??CreateTabs@CPluginBase@@SA_NH@Z@4HA 00000001800321d0 f   ConEmuPluginBase.obj
 0001:000311d0       ?dtor$0@?0??IsCurrentTabModal@CPluginBase@@QEAA_NXZ@4HA 00000001800321d0 f   ConEmuPluginBase.obj
 0001:000311d0       ?dtor$0@?0??SendTabs@CPluginBase@@SAXH_N@Z@4HA 00000001800321d0 f   ConEmuPluginBase.obj
 0001:000311dc       ?dtor$0@?0??DllCheckUnique@CPluginBase@@KA_N_N@Z@4HA 00000001800321dc f   ConEmuPluginBase.obj
 0001:000311dc       ?dtor$0@?0??ShowProtocolWarning@CPluginBase@@KAXXZ@4HA 00000001800321dc f   ConEmuPluginBase.obj
 0001:000311e8       ?dtor$1@?0??DllCheckUnique@CPluginBase@@KA_N_N@Z@4HA 00000001800321e8 f   ConEmuPluginBase.obj
 0001:000311f4       ?dtor$0@?0??DllMain_ProcessAttach@CPluginBase@@KAXPEAUHINSTANCE__@@@Z@4HA 00000001800321f4 f   ConEmuPluginBase.obj
 0001:000311f4       ?dtor$1@?0??DllMain_ProcessAttach@CPluginBase@@KAXPEAUHINSTANCE__@@@Z@4HA 00000001800321f4 f   ConEmuPluginBase.obj
 0001:000311f4       ?dtor$0@?0???0CPluginBackground@@QEAA@XZ@4HA 00000001800321f4 f   PluginBackground.obj
 0001:00031211       ?dtor$0@?0??MonitorThreadProcW@CPluginBase@@SAKPEAX@Z@4HA 0000000180032211 f   ConEmuPluginBase.obj
 0001:00031211       ?dtor$0@?0??RegisterSubplugin@CPluginBackground@@QEAAHPEAURegisterBackgroundArg@@@Z@4HA 0000000180032211 f   PluginBackground.obj
 0001:0003121d       ?dtor$0@?0??Plugin@@YAPEAVCPluginBase@@XZ@4HA 000000018003221d f   ConEmuPluginBase.obj
 0001:0003123a       ?dtor$1@?0??Plugin@@YAPEAVCPluginBase@@XZ@4HA 000000018003223a f   ConEmuPluginBase.obj
 0001:0003123a       ?dtor$2@?0??Plugin@@YAPEAVCPluginBase@@XZ@4HA 000000018003223a f   ConEmuPluginBase.obj
 0001:0003123a       ?dtor$3@?0??Plugin@@YAPEAVCPluginBase@@XZ@4HA 000000018003223a f   ConEmuPluginBase.obj
 0001:00031257       ?dtor$0@?0??ProcessCommand@CPluginBase@@QEAA_NKHPEAXPEAPEAUCESERVER_REQ@@_N@Z@4HA 0000000180032257 f   ConEmuPluginBase.obj
 0001:00031263       ?dtor$0@?0??RunExternalProgram@CPluginBase@@QEAA_NPEA_W@Z@4HA 0000000180032263 f   ConEmuPluginBase.obj
 0001:00031263       ?dtor$0@?0??UpdateComspec@@YAXPEAUConEmuComspec@@_N@Z@4HA 0000000180032263 f   common-user64:WUser.obj
 0001:0003126f       ?dtor$1@?0??RunExternalProgram@CPluginBase@@QEAA_NPEA_W@Z@4HA 000000018003226f f   ConEmuPluginBase.obj
 0001:0003127b       ?dtor$2@?0??RunExternalProgram@CPluginBase@@QEAA_NPEA_W@Z@4HA 000000018003227b f   ConEmuPluginBase.obj
 0001:00031287       ?dtor$0@?0??RunExternalProgramW@CPluginBase@@SA_NPEA_W0_N@Z@4HA 0000000180032287 f   ConEmuPluginBase.obj
 0001:00031293       ?dtor$1@?0??RunExternalProgramW@CPluginBase@@SA_NPEA_W0_N@Z@4HA 0000000180032293 f   ConEmuPluginBase.obj
 0001:0003129f       ?dtor$0@?0??UpdateConEmuTabs@CPluginBase@@QEAA_N_N@Z@4HA 000000018003229f f   ConEmuPluginBase.obj
 0001:000312ab       ?dtor$0@?0??cmd_OpenEditorLine@CPluginBase@@QEAA_NPEAUCESERVER_REQ_FAREDITOR@@@Z@4HA 00000001800322ab f   ConEmuPluginBase.obj
 0001:000312b7       ?filt$0@?0??GetTo@?$MFileMapping@UPanelViewSetMapping@@@@QEAA_NPEAUPanelViewSetMapping@@H@Z@4HA 00000001800322b7 f   PluginBackground.obj
 0001:000312da       ?dtor$0@?0??LoadThSet@CPluginBackground@@IEAAHH@Z@4HA 00000001800322da f   PluginBackground.obj
 0001:000312e6       ?dtor$0@?0??UpdateBackground@CPluginBackground@@IEAAXXZ@4HA 00000001800322e6 f   PluginBackground.obj
 0001:000312f2       ?dtor$0@?0??PlugServerCommand@@YAHPEAXPEAUCESERVER_REQ@@AEAPEAU1@AEAK3_J@Z@4HA 00000001800322f2 f   PluginSrv.obj
 0001:000312fe       ?dtor$1@?0??PlugServerCommand@@YAHPEAXPEAUCESERVER_REQ@@AEAPEAU1@AEAK3_J@Z@4HA 00000001800322fe f   PluginSrv.obj
 0001:0003130a       ?dtor$0@?0??FindConEmuBaseDir@@YAHAEAY0BAF@_W0PEAUHINSTANCE__@@@Z@4HA 000000018003230a f   common-user64:ConEmuCheckEx.obj
 0001:00031316       ?dtor$1@?0??FindConEmuBaseDir@@YAHAEAY0BAF@_W0PEAUHINSTANCE__@@@Z@4HA 0000000180032316 f   common-user64:ConEmuCheckEx.obj
 0001:00031322       ?dtor$0@?0??SearchAppPaths@@YA_NPEB_WAEAUCEStr@@_NPEAVCEnvRestorer@@@Z@4HA 0000000180032322 f   common-user64:WFiles.obj
 0001:0003132e       ?dtor$1@?0??SearchAppPaths@@YA_NPEB_WAEAUCEStr@@_NPEAVCEnvRestorer@@@Z@4HA 000000018003232e f   common-user64:WFiles.obj
 0001:0003133a       ?dtor$3@?0??SearchAppPaths@@YA_NPEB_WAEAUCEStr@@_NPEAVCEnvRestorer@@@Z@4HA 000000018003233a f   common-user64:WFiles.obj
 0001:0003133a       ?dtor$3@?0??UpdateComspec@@YAXPEAUConEmuComspec@@_N@Z@4HA 000000018003233a f   common-user64:WUser.obj
 0001:00031346       ?dtor$4@?0??SearchAppPaths@@YA_NPEB_WAEAUCEStr@@_NPEAVCEnvRestorer@@@Z@4HA 0000000180032346 f   common-user64:WFiles.obj
 0001:00031346       ?dtor$2@?0??UpdateComspec@@YAXPEAUConEmuComspec@@_N@Z@4HA 0000000180032346 f   common-user64:WUser.obj
 0001:00031352       ?dtor$5@?0??SearchAppPaths@@YA_NPEB_WAEAUCEStr@@_NPEAVCEnvRestorer@@@Z@4HA 0000000180032352 f   common-user64:WFiles.obj
 0001:0003135e       ?dtor$1@?0??UpdateComspec@@YAXPEAUConEmuComspec@@_N@Z@4HA 000000018003235e f   common-user64:WUser.obj
 0001:0003136a       ?fin$0@?0??dllmain_crt_process_attach@@YAHQEAUHINSTANCE__@@QEAX@Z@4HA 000000018003236a f   LIBCMT:dll_dllmain.obj
 0001:00031381       ?fin$0@?0??dllmain_crt_process_detach@@YAH_N@Z@4HA 0000000180032381 f   LIBCMT:dll_dllmain.obj
 0001:0003139a       ?fin$1@?0??dllmain_crt_process_detach@@YAH_N@Z@4HA 000000018003239a f   LIBCMT:dll_dllmain.obj
 0001:000313ae       ?filt$0@?0??dllmain_dispatch@@YAHQEAUHINSTANCE__@@KQEAX@Z@4HA 00000001800323ae f   LIBCMT:dll_dllmain.obj
 0001:000313e4       __scrt_is_nonwritable_in_current_image$filt$0 00000001800323e4 f   LIBCMT:utility.obj
 0001:000313fc       ?filt$0@?0???$_CallSETranslator@V__FrameHandler4@@@@YAHPEAUEHExceptionRecord@@PEA_KPEAU_CONTEXT@@PEAU_xDISPATCHER_CONTEXT@@PEAUFuncInfo4@FH4@@K1H@Z@4HA 00000001800323fc f   libvcruntime:risctrnsctrl.obj
 0001:0003149b       __DestructExceptionObject$filt$0 000000018003249b f   libvcruntime:ehhelpers.obj
 0001:00031531       ?filt$0@?0??CxxCallCatchBlock@__FrameHandler4@@SAPEAXPEAU_EXCEPTION_RECORD@@@Z@4HA 0000000180032531 f   libvcruntime:frame.obj
 0001:00031560       ?fin$1@?0??CxxCallCatchBlock@__FrameHandler4@@SAPEAXPEAU_EXCEPTION_RECORD@@@Z@4HA 0000000180032560 f   libvcruntime:frame.obj
 0001:000315e3       ?filt$0@?0??FrameUnwindToState@__FrameHandler4@@SAXPEA_KPEAU_xDISPATCHER_CONTEXT@@PEAUFuncInfo4@FH4@@H@Z@4HA 00000001800325e3 f   libvcruntime:frame.obj
 0001:000315f9       ?fin$1@?0??FrameUnwindToState@__FrameHandler4@@SAXPEA_KPEAU_xDISPATCHER_CONTEXT@@PEAUFuncInfo4@FH4@@H@Z@4HA 00000001800325f9 f   libvcruntime:frame.obj
 0001:0003161c       ?fin$0@?0???$?RV<lambda_0ae27a3a962d80f24befdcbee591983d>@@AEAV<lambda_8d0ee55de4b1038c4002e0adecdf1839>@@V<lambda_dc504788e8f1664fe9b84e20bfb512f2>@@@?$__crt_seh_guarded_call@X@@QEAAX$$QEAV<lambda_0ae27a3a962d80f24befdcbee591983d>@@AEAV<lambda_8d0ee55de4b1038c4002e0adecdf1839>@@$$QEAV<lambda_dc504788e8f1664fe9b84e20bfb512f2>@@@Z@4HA 000000018003261c f   libucrt:per_thread_data.obj
 0001:0003161c       ?fin$0@?0???$?RV<lambda_2d41944a1d46af3157314b8a01080d33>@@AEAV<lambda_8f455de75cd7d7f24b4096f044d8b9e6>@@V<lambda_aa500f224e6afead328df44964fe2772>@@@?$__crt_seh_guarded_call@X@@QEAAX$$QEAV<lambda_2d41944a1d46af3157314b8a01080d33>@@AEAV<lambda_8f455de75cd7d7f24b4096f044d8b9e6>@@$$QEAV<lambda_aa500f224e6afead328df44964fe2772>@@@Z@4HA 000000018003261c f   libucrt:per_thread_data.obj
 0001:0003161c       ?fin$0@?0???$?RV<lambda_aa87e3671a710a21b5dc78c0bdf72e11>@@AEAV<lambda_92619d2358a28f41a33ba319515a20b9>@@V<lambda_6992ecaafeb10aed2b74cb1fae11a551>@@@?$__crt_seh_guarded_call@X@@QEAAX$$QEAV<lambda_aa87e3671a710a21b5dc78c0bdf72e11>@@AEAV<lambda_92619d2358a28f41a33ba319515a20b9>@@$$QEAV<lambda_6992ecaafeb10aed2b74cb1fae11a551>@@@Z@4HA 000000018003261c f   libucrt:per_thread_data.obj
 0001:0003161c       ?fin$0@?0???$?RV<lambda_f2e299630e499de9f9a165e60fcd3db5>@@AEAV<lambda_2ae9d31cdba2644fcbeaf08da7c24588>@@V<lambda_40d01ff24d0e7b3814fdbdcee8eab3c7>@@@?$__crt_seh_guarded_call@X@@QEAAX$$QEAV<lambda_f2e299630e499de9f9a165e60fcd3db5>@@AEAV<lambda_2ae9d31cdba2644fcbeaf08da7c24588>@@$$QEAV<lambda_40d01ff24d0e7b3814fdbdcee8eab3c7>@@@Z@4HA 000000018003261c f   libucrt:per_thread_data.obj
 0001:0003161c       ?fin$0@?0???$?RV<lambda_efdfa57d1f175319df784efa44bb7b81>@@AEAV<lambda_5f0a4c1567f8adc6734073e5d1e1b35c>@@V<lambda_2e8a7d3640ea6ccb4c2413664c2db6fd>@@@?$__crt_seh_guarded_call@X@@QEAAX$$QEAV<lambda_efdfa57d1f175319df784efa44bb7b81>@@AEAV<lambda_5f0a4c1567f8adc6734073e5d1e1b35c>@@$$QEAV<lambda_2e8a7d3640ea6ccb4c2413664c2db6fd>@@@Z@4HA 000000018003261c f   libucrt:mbctype.obj
 0001:0003161c       ?fin$0@?0???$?RV<lambda_450d765d439847d4c735a33c368b5fc0>@@AEAV<lambda_44731a7d0e6d81c3e6aa82d741081786>@@V<lambda_601a2a7da3b7a96e9554ac7215c4b07c>@@@?$__crt_seh_guarded_call@P6AXH@Z@@QEAAP6AXH@Z$$QEAV<lambda_450d765d439847d4c735a33c368b5fc0>@@AEAV<lambda_44731a7d0e6d81c3e6aa82d741081786>@@$$QEAV<lambda_601a2a7da3b7a96e9554ac7215c4b07c>@@@Z@4HA 000000018003261c f   libucrt:signal.obj
 0001:0003161c       ?fin$0@?0???$?RV<lambda_d80eeec6fff315bfe5c115232f3240e3>@@AEAV<lambda_6e4b09c48022b2350581041d5f6b0c4c>@@V<lambda_2358e3775559c9db80273638284d5e45>@@@?$__crt_seh_guarded_call@X@@QEAAX$$QEAV<lambda_d80eeec6fff315bfe5c115232f3240e3>@@AEAV<lambda_6e4b09c48022b2350581041d5f6b0c4c>@@$$QEAV<lambda_2358e3775559c9db80273638284d5e45>@@@Z@4HA 000000018003261c f   libucrt:exit.obj
 0001:0003161c       ?fin$0@?0???$?RV<lambda_638799b9deba96c50f710eeac98168cd>@@AEAV<lambda_22ebabd17bc4fa466a2aca6d8deb888d>@@V<lambda_a6f7d7db0129f75315ebf26d50c089f1>@@@?$__crt_seh_guarded_call@H@@QEAAH$$QEAV<lambda_638799b9deba96c50f710eeac98168cd>@@AEAV<lambda_22ebabd17bc4fa466a2aca6d8deb888d>@@$$QEAV<lambda_a6f7d7db0129f75315ebf26d50c089f1>@@@Z@4HA 000000018003261c f   libucrt:onexit.obj
 0001:0003161c       ?fin$0@?0???$?RV<lambda_7777bce6b2f8c936911f934f8298dc43>@@AEAV<lambda_f03950bc5685219e0bcd2087efbe011e>@@V<lambda_3883c3dff614d5e0c5f61bb1ac94921c>@@@?$__crt_seh_guarded_call@H@@QEAAH$$QEAV<lambda_7777bce6b2f8c936911f934f8298dc43>@@AEAV<lambda_f03950bc5685219e0bcd2087efbe011e>@@$$QEAV<lambda_3883c3dff614d5e0c5f61bb1ac94921c>@@@Z@4HA 000000018003261c f   libucrt:onexit.obj
 0001:00031636       ?filt$0@?0???R<lambda_6e4b09c48022b2350581041d5f6b0c4c>@@QEBA@XZ@4HA 0000000180032636 f   libucrt:exit.obj
 0001:00031651       ?fin$0@?0???$?RV<lambda_410d79af7f07d98d83a3f525b3859a53>@@AEAV<lambda_3e16ef9562a7dcce91392c22ab16ea36>@@V<lambda_38119f0e861e05405d8a144b9b982f0a>@@@?$__crt_seh_guarded_call@X@@QEAAX$$QEAV<lambda_410d79af7f07d98d83a3f525b3859a53>@@AEAV<lambda_3e16ef9562a7dcce91392c22ab16ea36>@@$$QEAV<lambda_38119f0e861e05405d8a144b9b982f0a>@@@Z@4HA 0000000180032651 f   libucrt:wsetlocale.obj
 0001:0003166b       __acrt_initialize_lowio$fin$0 000000018003266b f   libucrt:ioinit.obj
 0001:0003166b       __acrt_lowio_ensure_fh_exists$fin$0 000000018003266b f   libucrt:osfinfo.obj
 0001:00031684       ?fin$0@?0??update_thread_multibyte_data_internal@@YAPEAU__crt_multibyte_data@@QEAU__acrt_ptd@@QEAPEAU1@@Z@4HA 0000000180032684 f   libucrt:mbctype.obj
 0001:0003169d       _query_new_handler$fin$0   000000018003269d f   libucrt:new_handler.obj
 0001:000316b3       raise$fin$0                00000001800326b3 f   libucrt:signal.obj
 0001:000316d4       ?fin$0@?0???$?RV<lambda_842d9ff0dc9ef11c61343bbaebe7f885>@@AEAV<lambda_c5860995281e5c4ce005b3de8f5874ee>@@V<lambda_d90129c13df834fdcbf8d2b88dafcf2d>@@@?$__crt_seh_guarded_call@X@@QEAAX$$QEAV<lambda_842d9ff0dc9ef11c61343bbaebe7f885>@@AEAV<lambda_c5860995281e5c4ce005b3de8f5874ee>@@$$QEAV<lambda_d90129c13df834fdcbf8d2b88dafcf2d>@@@Z@4HA 00000001800326d4 f   libucrt:fflush.obj
 0001:000316ef       ?fin$0@?0???$?RV<lambda_886d6c58226a84441f68b9f2b8217b83>@@AEAV<lambda_ab61a845afdef5b7c387490eaf3616ee>@@V<lambda_f7f22ab5edc0698d5f6905b0d3f44752>@@@?$__crt_seh_guarded_call@X@@QEAAX$$QEAV<lambda_886d6c58226a84441f68b9f2b8217b83>@@AEAV<lambda_ab61a845afdef5b7c387490eaf3616ee>@@$$QEAV<lambda_f7f22ab5edc0698d5f6905b0d3f44752>@@@Z@4HA 00000001800326ef f   libucrt:fflush.obj
 0001:0003170c       __acrt_update_thread_locale_data$fin$0 000000018003270c f   libucrt:locale_refcounting.obj
 0001:00031725       _fcloseall$fin$0           0000000180032725 f   libucrt:closeall.obj
 0001:0003173e       ?fin$0@?0???$?RV<lambda_751a882b2c74d4b022dec766aa51a29a>@@AEAV<lambda_628dfdc04ba53c8bfc02c9951375f3f5>@@V<lambda_f6c7be5f7998530c34de24c7437d6b54>@@@?$__crt_seh_guarded_call@H@@QEAAH$$QEAV<lambda_751a882b2c74d4b022dec766aa51a29a>@@AEAV<lambda_628dfdc04ba53c8bfc02c9951375f3f5>@@$$QEAV<lambda_f6c7be5f7998530c34de24c7437d6b54>@@@Z@4HA 000000018003273e f   libucrt:close.obj
 0001:0003173e       ?fin$0@?0???$?RV<lambda_a37b2b86f63e897a80ea819b0eb08c01>@@AEAV<lambda_38ce7e780aa69e748d6df282ebc68efe>@@V<lambda_99fb1378e971ab6e7edea83e3a7a83a2>@@@?$__crt_seh_guarded_call@H@@QEAAH$$QEAV<lambda_a37b2b86f63e897a80ea819b0eb08c01>@@AEAV<lambda_38ce7e780aa69e748d6df282ebc68efe>@@$$QEAV<lambda_99fb1378e971ab6e7edea83e3a7a83a2>@@@Z@4HA 000000018003273e f   libucrt:commit.obj
 0001:00031758       _write$fin$0               0000000180032758 f   libucrt:write.obj
 0001:0003176f       fclose$fin$0               000000018003276f f   libucrt:fclose.obj
 0001:00031787       _ctrlfp$filt$0             0000000180032787 f   libucrt:fpctrl.obj
 0001:00031787       common_control87$filt$0    0000000180032787 f   libucrt:ieee.obj
 0001:000317c0       _IsNonwritableInCurrentImage$filt$0 00000001800327c0 f   LIBCMT:pesect.obj
 0001:000317e0       ??__FgsMapHelper@@YAXXZ    00000001800327e0 f   common-user64:WConsoleEx.obj
 0002:00000690       ?gsMapHelper$initializer$@@3P6AXXZEA 0000000180033690     common-user64:WConsoleEx.obj
 0002:000006a8       ?__scrt_initialize_tss_var@@3P6AHXZEA 00000001800336a8     LIBCMT:thread_safe_statics.obj
 0002:00003e50       ?ILLEGAL_CHARACTERS@?A0x002384b0@@3QB_WB 0000000180036e50     common-kernel64:CmdLine.obj
 0002:00003e60       ?SPECIAL_CMD_CHARACTERS@?A0x002384b0@@3QB_WB 0000000180036e60     common-kernel64:CmdLine.obj
 0002:00003e70       ?CMD_INTERNAL_COMMANDS@?A0x002384b0@@3QBQEB_WB 0000000180036e70     common-kernel64:CmdLine.obj
 0002:000048a2       ?ignore@std@@3U_Ignore@1@B 00000001800378a2     common-kernel64:WObjects.obj
 0002:00004db6       ?ignore@std@@3U_Ignore@1@B 0000000180037db6     common-user64:WRegistry.obj
 0002:00004ed0       GS_ExceptionPointers       0000000180037ed0     LIBCMT:gs_report.obj
 0002:00004f00       ?ExceptionTemplate@?1??UnwindNestedFrames@__FrameHandler4@@SAXPEA_KPEAUEHExceptionRecord@@PEAU_CONTEXT@@0PEAXPEAUFuncInfo4@FH4@@HHPEAUHandlerType4@6@PEAU_xDISPATCHER_CONTEXT@@E@Z@4U_EXCEPTION_RECORD@@B 0000000180037f00     libvcruntime:risctrnsctrl.obj
 0002:00004fd0       ?tokenTable@@3QBUStringLiteral@@B 0000000180037fd0     libvcruntime:undname.obj
 0002:000050d0       ?nameTable@@3QBUStringLiteral@@B 00000001800380d0     libvcruntime:undname.obj
 0002:00005600       ?rttiTable@@3QBUStringLiteral@@B 0000000180038600     libvcruntime:undname.obj
 0002:00005650       ?IndirectionName@@3QBUStringLiteral@@B 0000000180038650     libvcruntime:undname.obj
 0002:000056b0       ?PrefixName@@3QBUStringLiteral@@B 00000001800386b0     libvcruntime:undname.obj
 0002:00005d88       ?module_names@?A0x84e3c32f@@3QBQEB_WB 0000000180038d88     libvcruntime:winapi_downlevel.obj
 0002:00005e48       ?candidate_modules@?1??try_get_FlsAlloc@@YAP6AKP6AXPEAX@Z@ZXZ@4QBW4module_id@?A0x84e3c32f@@B 0000000180038e48     libvcruntime:winapi_downlevel.obj
 0002:00005e60       ?candidate_modules@?1??try_get_FlsFree@@YAP6AHK@ZXZ@4QBW4module_id@?A0x84e3c32f@@B 0000000180038e60     libvcruntime:winapi_downlevel.obj
 0002:00005e70       ?candidate_modules@?1??try_get_FlsGetValue@@YAP6APEAXK@ZXZ@4QBW4module_id@?A0x84e3c32f@@B 0000000180038e70     libvcruntime:winapi_downlevel.obj
 0002:00005e88       ?candidate_modules@?1??try_get_FlsSetValue@@YAP6AHKPEAX@ZXZ@4QBW4module_id@?A0x84e3c32f@@B 0000000180038e88     libvcruntime:winapi_downlevel.obj
 0002:00005ea0       ?candidate_modules@?1??try_get_InitializeCriticalSectionEx@@YAP6AHPEAU_RTL_CRITICAL_SECTION@@KK@ZXZ@4QBW4module_id@?A0x84e3c32f@@B 0000000180038ea0     libvcruntime:winapi_downlevel.obj
 0002:000062f0       ?errtable@@3QBUerrentry@?A0x31fdb9ec@@B 00000001800392f0     libucrt:errno.obj
 0002:00006560       __acrt_initializers        0000000180039560     libucrt:initialization.obj
 0002:00006660       ?strings@?1??fp_format_nan_or_infinity@@YAHW4__acrt_fp_class@@_NPEAD_K1@Z@4QAY03QEBDA 0000000180039660     libucrt:cvt.obj
 0002:000075c8       ?_mb_locale_names@@3QBQEB_WB 000000018003a5c8     libucrt:mbctype.obj
 0002:00007630       ?module_names@?A0x391cf84c@@3QBQEB_WB 000000018003a630     libucrt:winapi_thunks.obj
 0002:00007b38       ?candidate_modules@?1??try_get_AreFileApisANSI@@YAP6AHXZXZ@4QBW4module_id@?A0x391cf84c@@B 000000018003ab38     libucrt:winapi_thunks.obj
 0002:00007b50       ?candidate_modules@?1??try_get_FlsAlloc@@YAP6AKP6AXPEAX@Z@ZXZ@4QBW4module_id@?A0x391cf84c@@B 000000018003ab50     libucrt:winapi_thunks.obj
 0002:00007b58       ?candidate_modules@?1??try_get_FlsFree@@YAP6AHK@ZXZ@4QBW4module_id@?A0x391cf84c@@B 000000018003ab58     libucrt:winapi_thunks.obj
 0002:00007b60       ?candidate_modules@?1??try_get_FlsGetValue@@YAP6APEAXK@ZXZ@4QBW4module_id@?A0x391cf84c@@B 000000018003ab60     libucrt:winapi_thunks.obj
 0002:00007b68       ?candidate_modules@?1??try_get_FlsSetValue@@YAP6AHKPEAX@ZXZ@4QBW4module_id@?A0x391cf84c@@B 000000018003ab68     libucrt:winapi_thunks.obj
 0002:00007b70       ?candidate_modules@?1??try_get_InitializeCriticalSectionEx@@YAP6AHPEAU_RTL_CRITICAL_SECTION@@KK@ZXZ@4QBW4module_id@?A0x391cf84c@@B 000000018003ab70     libucrt:winapi_thunks.obj
 0002:00007b78       ?candidate_modules@?1??try_get_LCMapStringEx@@YAP6AHPEB_WK0HPEA_WHPEAU_nlsversioninfo@@PEAX_J@ZXZ@4QBW4module_id@?A0x391cf84c@@B 000000018003ab78     libucrt:winapi_thunks.obj
 0002:00007b90       ?candidate_modules@?1??try_get_LocaleNameToLCID@@YAP6AKPEB_WK@ZXZ@4QBW4module_id@?A0x391cf84c@@B 000000018003ab90     libucrt:winapi_thunks.obj
 0002:00007bac       ?candidate_modules@?1??try_get_AppPolicyGetProcessTerminationMethod@@YAP6AJPEAXPEAW4AppPolicyProcessTerminationMethod@@@ZXZ@4QBW4module_id@?A0x391cf84c@@B 000000018003abac     libucrt:winapi_thunks.obj
 0002:000085e0       ?LcidToLocaleNameTable@?A0x881e4c05@@3QBULcidToLocaleName@1@B 000000018003b5e0     libucrt:lcidtoname_downlevel.obj
 0002:0000a030       ?LocaleNameToIndexTable@?A0x881e4c05@@3QBULocaleNameIndex@1@B 000000018003d030     libucrt:lcidtoname_downlevel.obj
 0002:0000b8d0       __real_ninf                000000018003e8d0     libucrt:log10.obj
 0002:0000b8e0       __real_inf                 000000018003e8e0     libucrt:log10.obj
 0002:0000b8f0       __real_neg_qnan            000000018003e8f0     libucrt:log10.obj
 0002:0000b900       __real_qnanbit             000000018003e900     libucrt:log10.obj
 0002:0000b910       __int_1023                 000000018003e910     libucrt:log10.obj
 0002:0000b920       __mask_001                 000000018003e920     libucrt:log10.obj
 0002:0000b930       __mask_mant                000000018003e930     libucrt:log10.obj
 0002:0000b940       __mask_mant_top8           000000018003e940     libucrt:log10.obj
 0002:0000b950       __mask_mant9               000000018003e950     libucrt:log10.obj
 0002:0000b960       __real_log10_e             000000018003e960     libucrt:log10.obj
 0002:0000b970       __real_log10_e_lead        000000018003e970     libucrt:log10.obj
 0002:0000b980       __real_log10_e_tail        000000018003e980     libucrt:log10.obj
 0002:0000b990       __real_log10_2_lead        000000018003e990     libucrt:log10.obj
 0002:0000b9a0       __real_log10_2_tail        000000018003e9a0     libucrt:log10.obj
 0002:0000b9b0       __real_two                 000000018003e9b0     libucrt:log10.obj
 0002:0000b9c0       __real_one                 000000018003e9c0     libucrt:log10.obj
 0002:0000b9d0       __real_half                000000018003e9d0     libucrt:log10.obj
 0002:0000b9e0       __mask_100                 000000018003e9e0     libucrt:log10.obj
 0002:0000b9f0       __real_1_over_512          000000018003e9f0     libucrt:log10.obj
 0002:0000ba00       __real_1_over_2            000000018003ea00     libucrt:log10.obj
 0002:0000ba10       __real_1_over_3            000000018003ea10     libucrt:log10.obj
 0002:0000ba20       __real_1_over_4            000000018003ea20     libucrt:log10.obj
 0002:0000ba30       __real_1_over_5            000000018003ea30     libucrt:log10.obj
 0002:0000ba40       __real_1_over_6            000000018003ea40     libucrt:log10.obj
 0002:0000ba50       __real_neg_1023            000000018003ea50     libucrt:log10.obj
 0002:0000ba60       __mask_2045                000000018003ea60     libucrt:log10.obj
 0002:0000ba70       __real_threshold           000000018003ea70     libucrt:log10.obj
 0002:0000ba80       __real_near_one_lt         000000018003ea80     libucrt:log10.obj
 0002:0000ba90       __real_near_one_gt         000000018003ea90     libucrt:log10.obj
 0002:0000baa0       __real_min_norm            000000018003eaa0     libucrt:log10.obj
 0002:0000bab0       __real_notsign             000000018003eab0     libucrt:log10.obj
 0002:0000bac0       __real_ca1                 000000018003eac0     libucrt:log10.obj
 0002:0000bad0       __real_ca2                 000000018003ead0     libucrt:log10.obj
 0002:0000bae0       __real_ca3                 000000018003eae0     libucrt:log10.obj
 0002:0000baf0       __real_ca4                 000000018003eaf0     libucrt:log10.obj
 0002:0000bb00       __mask_lower               000000018003eb00     libucrt:log10.obj
 0002:0000bb10       __flag_x_zero              000000018003eb10     libucrt:log10.obj
 0002:0000bb14       __flag_x_neg               000000018003eb14     libucrt:log10.obj
 0002:0000bb18       __flag_x_nan               000000018003eb18     libucrt:log10.obj
 0002:0000d370       __real@433fffffffffffff    0000000180040370     libucrt:fpsr.obj
 0002:0000d378       __real@c33fffffffffffff    0000000180040378     libucrt:fpsr.obj
 0002:0000e360       $unwind$?StringCchVPrintfW@@YAJPEA_W_KPEB_WPEAD@Z 0000000180041360     ConEmuInjects.obj
 0002:0000e360       $unwind$?WaitOverlapped@?$PipeServer@UCESERVER_REQ@@@@IEAAHPEAUPipeInst@1@PEAK@Z 0000000180041360     PluginSrv.obj
 0002:0000e360       $unwind$??$create_environment@D@@YAQEAPEADQEAD@Z 0000000180041360     libucrt:environment_initialization.obj
 0002:0000e378       $unwind$?StartupHooks@@YA_NPEAUHINSTANCE__@@@Z 0000000180041378     ConEmuInjects.obj
 0002:0000e394       $unwind$?StartupConsoleHooks@@YAXXZ 0000000180041394     ConEmuInjects.obj
 0002:0000e394       $unwind$?ExitFAR@@YAXXZ    0000000180041394     ConEmuPlugin.obj
 0002:0000e394       $unwind$?ExitFARW3@@YAXPEAX@Z 0000000180041394     ConEmuPlugin.obj
 0002:0000e394       $unwind$ExitFARW           0000000180041394     ConEmuPlugin.obj
 0002:0000e394       $unwind$?ShowMessage@CPluginW995@@UEAAHPEB_WH_N@Z 0000000180041394     ConEmuPlugin995.obj
 0002:0000e394       $unwind$strtol             0000000180041394     libucrt:strtox.obj
 0002:0000e394       $unwind$wcstol             0000000180041394     libucrt:strtox.obj
 0002:0000e394       $unwind$_invalid_parameter_noinfo 0000000180041394     libucrt:invalid_parameter.obj
 0002:0000e394       $unwind$_log10_special     0000000180041394     libucrt:log_special.obj
 0002:0000e394       $unwind$?_Doraise@bad_alloc@stdext@@MEBAXXZ 0000000180041394     common-kernel64:CEStr.obj
 0002:0000e39c       $unwind$?ShutdownHooks@@YAXXZ 000000018004139c     ConEmuInjects.obj
 0002:0000e39c       $unwind$?OnMainThreadActivated@CPluginBase@@QEAAXXZ 000000018004139c     ConEmuPluginBase.obj
 0002:0000e39c       $unwind$?UpdateBackground_Exec@CPluginBackground@@KAXPEAURegisterBackgroundArg@@PEAUPaintBackgroundArg@@@Z 000000018004139c     PluginBackground.obj
 0002:0000e3a8       $unwind$??$swprintf_c@$0EA@@@YAHAEAY0EA@_WPEB_WZZ 00000001800413a8     ConEmuInjects.obj
 0002:0000e3a8       $unwind$??$swprintf_c@$0IA@@@YAHAEAY0IA@_WPEB_WZZ 00000001800413a8     ConEmuInjects.obj
 0002:0000e3a8       $unwind$??$swprintf_c@$0PP@@@YAHAEAY0PP@_WPEB_WZZ 00000001800413a8     ConEmuInjects.obj
 0002:0000e3a8       $unwind$??$swprintf_c@$0BAE@@@YAHAEAY0BAE@_WPEB_WZZ 00000001800413a8     ConEmuPluginBase.obj
 0002:0000e3a8       $unwind$??$swprintf_c@$0DAM@@@YAHAEAY0DAM@_WPEB_WZZ 00000001800413a8     ConEmuPluginBase.obj
 0002:0000e3a8       $unwind$??$swprintf_c@$0EAA@@@YAHAEAY0EAA@_WPEB_WZZ 00000001800413a8     ConEmuPluginBase.obj
 0002:0000e3a8       $unwind$??$swprintf_c@$0MI@@@YAHAEAY0MI@_WPEB_WZZ 00000001800413a8     ConEmuPluginBase.obj
 0002:0000e3a8       $unwind$??$swprintf_c@$09@@YAHAEAY09_WPEB_WZZ 00000001800413a8     PluginSrv.obj
 0002:0000e3a8       $unwind$??$sprintf_c@$0CI@@@YAHAEAY0CI@DPEBDZZ 00000001800413a8     common-kernel64:WThreads.obj
 0002:0000e3a8       $unwind$??$swprintf_c@$0FA@@@YAHAEAY0FA@_WPEB_WZZ 00000001800413a8     common-user64:EmergencyShow.obj
 0002:0000e3b0       $unwind$?OpenPlugin@@YAPEAXH_J@Z 00000001800413b0     ConEmuPlugin.obj
 0002:0000e3b0       $unwind$OpenPluginW        00000001800413b0     ConEmuPlugin.obj
 0002:0000e3b0       $unwind$ProcessSynchroEventW 00000001800413b0     ConEmuPlugin.obj
 0002:0000e3b0       $unwind$??_GCPluginW1900@@UEAAPEAXI@Z 00000001800413b0     ConEmuPlugin1900.obj
 0002:0000e3b0       $unwind$?Open@CPluginW1900@@UEAAPEAXPEBX@Z 00000001800413b0     ConEmuPlugin1900.obj
 0002:0000e3b0       $unwind$??_GCPluginW2800@@UEAAPEAXI@Z 00000001800413b0     ConEmuPlugin2800.obj
 0002:0000e3b0       $unwind$??_Gbad_alloc@std@@UEAAPEAXI@Z 00000001800413b0     ConEmuPlugin2800.obj
 0002:0000e3b0       $unwind$??_Gexception@std@@UEAAPEAXI@Z 00000001800413b0     ConEmuPlugin2800.obj
 0002:0000e3b0       $unwind$??_GCPluginW995@@UEAAPEAXI@Z 00000001800413b0     ConEmuPlugin995.obj
 0002:0000e3b0       $unwind$?LoadFarSettings@CPluginW995@@UEAAXPEAUCEFarInterfaceSettings@@PEAUCEFarPanelSettings@@@Z 00000001800413b0     ConEmuPlugin995.obj
 0002:0000e3b0       $unwind$??_GCPluginAnsi@@UEAAPEAXI@Z 00000001800413b0     ConEmuPluginA.obj
 0002:0000e3b0       $unwind$?GetPluginInfoPtr@CPluginAnsi@@UEAAXPEAX@Z 00000001800413b0     ConEmuPluginA.obj
 0002:0000e3b0       $unwind$?LoadFarSettings@CPluginAnsi@@UEAAXPEAUCEFarInterfaceSettings@@PEAUCEFarPanelSettings@@@Z 00000001800413b0     ConEmuPluginA.obj
 0002:0000e3b0       $unwind$?OutDataAlloc@CPluginBase@@SA_NK@Z 00000001800413b0     ConEmuPluginBase.obj
 0002:0000e3b0       $unwind$?ProcessCommandLine@CPluginBase@@QEAA_NPEA_W@Z 00000001800413b0     ConEmuPluginBase.obj
 0002:0000e3b0       $unwind$?ProcessSynchroEvent@CPluginBase@@QEAAHHPEAX@Z 00000001800413b0     ConEmuPluginBase.obj
 0002:0000e3b0       $unwind$?StopThread@CPluginBase@@QEAAX_N@Z 00000001800413b0     ConEmuPluginBase.obj
 0002:0000e3b0       $unwind$?cmd_GuiChanged@CPluginBase@@QEAAXPEAX@Z 00000001800413b0     ConEmuPluginBase.obj
 0002:0000e3b0       $unwind$?IsParmChanged@CPluginBackground@@IEAA_NPEAUPaintBackgroundArg@@0@Z 00000001800413b0     PluginBackground.obj
 0002:0000e3b0       $unwind$?_PipeServerThread@?$PipeServer@UCESERVER_REQ@@@@KAKPEAX@Z 00000001800413b0     PluginSrv.obj
 0002:0000e3b0       $unwind$_RTC_Initialize    00000001800413b0     LIBCMT:initsect.obj
 0002:0000e3b0       $unwind$_RTC_Terminate     00000001800413b0     LIBCMT:initsect.obj
 0002:0000e3b0       $unwind$?__scrt_initialize_thread_safe_statics@@YAHXZ 00000001800413b0     LIBCMT:thread_safe_statics.obj
 0002:0000e3b0       $unwind$??_Gbad_function_call@std@@UEAAPEAXI@Z 00000001800413b0     libcpmt:xthrow.obj
 0002:0000e3b0       $unwind$??_Glength_error@std@@UEAAPEAXI@Z 00000001800413b0     libcpmt:xthrow.obj
 0002:0000e3b0       $unwind$??_Glogic_error@std@@UEAAPEAXI@Z 00000001800413b0     libcpmt:xthrow.obj
 0002:0000e3b0       $unwind$__FrameUnwindFilter 00000001800413b0     libvcruntime:ehhelpers.obj
 0002:0000e3b0       $unwind$??_Gbad_exception@std@@UEAAPEAXI@Z 00000001800413b0     libvcruntime:frame.obj
 0002:0000e3b0       $unwind$?ExFilterRethrowFH4@@YAHPEAU_EXCEPTION_POINTERS@@PEAUEHExceptionRecord@@HPEAH@Z 00000001800413b0     libvcruntime:frame.obj
 0002:0000e3b0       $unwind$_FindAndUnlinkFrame 00000001800413b0     libvcruntime:risctrnsctrl.obj
 0002:0000e3b0       $unwind$__vcrt_FlsSetValue 00000001800413b0     libvcruntime:winapi_downlevel.obj
 0002:0000e3b0       $unwind$??$common_initialize_environment_nolock@D@@YAHXZ 00000001800413b0     libucrt:environment_initialization.obj
 0002:0000e3b0       $unwind$_realloc_base      00000001800413b0     libucrt:realloc_base.obj
 0002:0000e3b0       $unwind$?replace_current_thread_locale_nolock@@YAXQEAU__acrt_ptd@@QEAU__crt_locale_data@@@Z 00000001800413b0     libucrt:per_thread_data.obj
 0002:0000e3b0       $unwind$__acrt_execute_uninitializers 00000001800413b0     libucrt:shared_initialization.obj
 0002:0000e3b0       $unwind$__acrt_FlsSetValue 00000001800413b0     libucrt:winapi_thunks.obj
 0002:0000e3b0       $unwind$__acrt_LocaleNameToLCID 00000001800413b0     libucrt:winapi_thunks.obj
 0002:0000e3b0       $unwind$_updatetlocinfoEx_nolock 00000001800413b0     libucrt:locale_refcounting.obj
 0002:0000e3b0       $unwind$_close_nolock      00000001800413b0     libucrt:close.obj
 0002:0000e3b0       $unwind$__acrt_uninitialize_lowio 00000001800413b0     libucrt:ioinit.obj
 0002:0000e3b0       $unwind$__acrt_errno_map_os_error 00000001800413b0     libucrt:errno.obj
 0002:0000e3b0       $unwind$_initterm_e        00000001800413b0     libucrt:initterm.obj
 0002:0000e3b0       $unwind$_fclose_nolock     00000001800413b0     libucrt:fclose.obj
 0002:0000e3b0       $unwind$?type_case_n@?$output_processor@DV?$string_output_adapter@D@__crt_stdio_output@@V?$standard_base@DV?$string_output_adapter@D@__crt_stdio_output@@@2@@__crt_stdio_output@@AEAA_NXZ 00000001800413b0     libucrt:output.obj
 0002:0000e3b0       $unwind$?type_case_n@?$output_processor@_WV?$string_output_adapter@_W@__crt_stdio_output@@V?$standard_base@_WV?$string_output_adapter@_W@__crt_stdio_output@@@2@@__crt_stdio_output@@AEAA_NXZ 00000001800413b0     libucrt:output.obj
 0002:0000e3b0       $unwind$strncpy_s          00000001800413b0     libucrt:strncpy_s.obj
 0002:0000e3b0       $unwind$??4CEStr@@QEAAAEAU0@$$QEAU0@@Z 00000001800413b0     common-kernel64:CEStr.obj
 0002:0000e3b0       $unwind$?PointToName@@YAPEB_WPEB_W@Z 00000001800413b0     common-kernel64:CmdLine.obj
 0002:0000e3b0       $unwind$?isConsoleClass@@YA_NPEB_W@Z 00000001800413b0     common-kernel64:ConEmuCheck.obj
 0002:0000e3b0       $unwind$?myGetConsoleWindow@@YAPEAUHWND__@@XZ 00000001800413b0     common-kernel64:ConEmuCheck.obj
 0002:0000e3b0       $unwind$??0?$MToolHelp@UtagPROCESSENTRY32W@@$1?Process32FirstW@@YAHPEAXPEAU1@@Z$1?Process32NextW@@YAH01@Z@@QEAA@KK@Z 00000001800413b0     common-kernel64:MProcess.obj
 0002:0000e3b0       $unwind$??_G?$MToolHelp@UtagPROCESSENTRY32W@@$1?Process32FirstW@@YAHPEAXPEAU1@@Z$1?Process32NextW@@YAH01@Z@@UEAAPEAXI@Z 00000001800413b0     common-kernel64:MProcess.obj
 0002:0000e3b0       $unwind$??_GMToolHelpProcess@@UEAAPEAXI@Z 00000001800413b0     common-kernel64:MProcess.obj
 0002:0000e3b0       $unwind$?Next@?$MToolHelp@UtagPROCESSENTRY32W@@$1?Process32FirstW@@YAHPEAXPEAU1@@Z$1?Process32NextW@@YAH01@Z@@QEAA_NAEAUtagPROCESSENTRY32W@@@Z 00000001800413b0     common-kernel64:MProcess.obj
 0002:0000e3b0       $unwind$?Open@?$MToolHelp@UtagPROCESSENTRY32W@@$1?Process32FirstW@@YAHPEAXPEAU1@@Z$1?Process32NextW@@YAH01@Z@@QEAA_NXZ 00000001800413b0     common-kernel64:MProcess.obj
 0002:0000e3b0       $unwind$?getNext@?$MToolHelp@UtagPROCESSENTRY32W@@$1?Process32FirstW@@YAHPEAXPEAU1@@Z$1?Process32NextW@@YAH01@Z@@IEAA_NXZ 00000001800413b0     common-kernel64:MProcess.obj
 0002:0000e3b0       $unwind$??0MSection@@QEAA@XZ 00000001800413b0     common-kernel64:MSection.obj
 0002:0000e3b0       $unwind$??1MSection@@QEAA@XZ 00000001800413b0     common-kernel64:MSection.obj
 0002:0000e3b0       $unwind$?Unlock@MSection@@IEAAXH@Z 00000001800413b0     common-kernel64:MSection.obj
 0002:0000e3b0       $unwind$??_GMNullDesc@@QEAAPEAXI@Z 00000001800413b0     common-kernel64:MSecurity.obj
 0002:0000e3b0       $unwind$??4?$function@$$A6AXPEAX@Z@std@@QEAAAEAV01@$$QEAV01@@Z 00000001800413b0     common-kernel64:WObjects.obj
 0002:0000e3bc       $unwind$?GetFarHWND2@@YAPEAUHWND__@@H@Z 00000001800413bc     ConEmuPlugin.obj
 0002:0000e3bc       $unwind$?GetPluginInfo@@YAXPEAX@Z 00000001800413bc     ConEmuPlugin.obj
 0002:0000e3bc       $unwind$?GetPluginInfoW@@YAXPEAX@Z 00000001800413bc     ConEmuPlugin.obj
 0002:0000e3bc       $unwind$?IsConsoleActive@@YAHXZ 00000001800413bc     ConEmuPlugin.obj
 0002:0000e3bc       $unwind$?OpenW@@YAPEAXPEBX@Z 00000001800413bc     ConEmuPlugin.obj
 0002:0000e3bc       $unwind$?ProcessEditorEvent@@YAHHPEAX@Z 00000001800413bc     ConEmuPlugin.obj
 0002:0000e3bc       $unwind$?ProcessEditorEventW3@@YA_JPEAX@Z 00000001800413bc     ConEmuPlugin.obj
 0002:0000e3bc       $unwind$?ProcessEditorInput@@YAHPEBU_INPUT_RECORD@@@Z 00000001800413bc     ConEmuPlugin.obj
 0002:0000e3bc       $unwind$?ProcessSynchroEventW3@@YA_JPEAX@Z 00000001800413bc     ConEmuPlugin.obj
 0002:0000e3bc       $unwind$?ProcessViewerEvent@@YAHHPEAX@Z 00000001800413bc     ConEmuPlugin.obj
 0002:0000e3bc       $unwind$?ProcessViewerEventW3@@YA_JPEAX@Z 00000001800413bc     ConEmuPlugin.obj
 0002:0000e3bc       $unwind$?SetStartupInfo@@YAXPEAX@Z 00000001800413bc     ConEmuPlugin.obj
 0002:0000e3bc       $unwind$ProcessEditorEventW 00000001800413bc     ConEmuPlugin.obj
 0002:0000e3bc       $unwind$ProcessEditorInputW 00000001800413bc     ConEmuPlugin.obj
 0002:0000e3bc       $unwind$ProcessViewerEventW 00000001800413bc     ConEmuPlugin.obj
 0002:0000e3bc       $unwind$SetStartupInfoW    00000001800413bc     ConEmuPlugin.obj
 0002:0000e3bc       $unwind$?GetFarRect@CPluginW1900@@UEAA_NAEAU_SMALL_RECT@@@Z 00000001800413bc     ConEmuPlugin1900.obj
 0002:0000e3bc       $unwind$?GetPluginInfoPtr@CPluginW1900@@UEAAXPEAX@Z 00000001800413bc     ConEmuPlugin1900.obj
 0002:0000e3bc       $unwind$?ProcessSynchroEventPtr@CPluginW1900@@UEAAHPEAX@Z 00000001800413bc     ConEmuPlugin1900.obj
 0002:0000e3bc       $unwind$??0bad_alloc@std@@QEAA@AEBV01@@Z 00000001800413bc     ConEmuPlugin2800.obj
 0002:0000e3bc       $unwind$??0exception@std@@QEAA@AEBV01@@Z 00000001800413bc     ConEmuPlugin2800.obj
 0002:0000e3bc       $unwind$?GetFarRect@CPluginW2800@@UEAA_NAEAU_SMALL_RECT@@@Z 00000001800413bc     ConEmuPlugin2800.obj
 0002:0000e3bc       $unwind$?GetPluginInfoPtr@CPluginW2800@@UEAAXPEAX@Z 00000001800413bc     ConEmuPlugin2800.obj
 0002:0000e3bc       $unwind$?ProcessSynchroEventPtr@CPluginW2800@@UEAAHPEAX@Z 00000001800413bc     ConEmuPlugin2800.obj
 0002:0000e3bc       $unwind$?push_back@?$MArray@UWindowInfo@@@@QEAA_JAEBUWindowInfo@@@Z 00000001800413bc     ConEmuPlugin2800.obj
 0002:0000e3bc       $unwind$?GetFarRect@CPluginW995@@UEAA_NAEAU_SMALL_RECT@@@Z 00000001800413bc     ConEmuPlugin995.obj
 0002:0000e3bc       $unwind$?GetPluginInfoPtr@CPluginW995@@UEAAXPEAX@Z 00000001800413bc     ConEmuPlugin995.obj
 0002:0000e3bc       $unwind$?PanelControlApi@CPluginW995@@UEAA_JPEAXH_J0@Z 00000001800413bc     ConEmuPlugin995.obj
 0002:0000e3bc       $unwind$??_GCPluginBase@@UEAAPEAXI@Z 00000001800413bc     ConEmuPluginBase.obj
 0002:0000e3bc       $unwind$?BackgroundMacroError@CPluginBase@@SAKPEAX@Z 00000001800413bc     ConEmuPluginBase.obj
 0002:0000e3bc       $unwind$?CheckBufferEnabled@CPluginBase@@QEAA_NXZ 00000001800413bc     ConEmuPluginBase.obj
 0002:0000e3bc       $unwind$?CloseMap@?$MFileMapping@UCESERVER_CONSOLE_MAPPING_HDR@@@@QEAAXXZ 00000001800413bc     ConEmuPluginBase.obj
 0002:0000e3bc       $unwind$?DllMain_ProcessDetach@CPluginBase@@KAXXZ 00000001800413bc     ConEmuPluginBase.obj
 0002:0000e3bc       $unwind$?ExecuteSynchro@CPluginBase@@QEAAXXZ 00000001800413bc     ConEmuPluginBase.obj
 0002:0000e3bc       $unwind$?ExitFarCommon@CPluginBase@@QEAAX_N@Z 00000001800413bc     ConEmuPluginBase.obj
 0002:0000e3bc       $unwind$?OnConsolePeekInput@CPluginBase@@SAHPEAUHookCallbackArg@@@Z 00000001800413bc     ConEmuPluginBase.obj
 0002:0000e3bc       $unwind$?OnConsoleReadInputWork@CPluginBase@@SAHPEAUHookCallbackArg@@@Z 00000001800413bc     ConEmuPluginBase.obj
 0002:0000e3bc       $unwind$?OnShellExecuteExW_Except@CPluginBase@@SAHPEAUHookCallbackArg@@@Z 00000001800413bc     ConEmuPluginBase.obj
 0002:0000e3bc       $unwind$?ReloadFarInfoApi@CPluginBase@@IEAA_NXZ 00000001800413bc     ConEmuPluginBase.obj
 0002:0000e3bc       $unwind$?SwitchTabCommand@CPluginBase@@QEAAXW4PluginMenuCommands@@@Z 00000001800413bc     ConEmuPluginBase.obj
 0002:0000e3bc       $unwind$?isMacroActive@CPluginBase@@QEAA_NAEAH@Z 00000001800413bc     ConEmuPluginBase.obj
 0002:0000e3bc       $unwind$?pcc_Disabled@CPluginBase@@SA_NW4PluginMenuCommands@@@Z 00000001800413bc     ConEmuPluginBase.obj
 0002:0000e3bc       $unwind$?pcc_Selected@CPluginBase@@SA_NW4PluginMenuCommands@@@Z 00000001800413bc     ConEmuPluginBase.obj
 0002:0000e3bc       $unwind$?CloseMap@?$MFileMapping@UPanelViewSetMapping@@@@QEAAXXZ 00000001800413bc     PluginBackground.obj
 0002:0000e3bc       $unwind$?MonitorBackground@CPluginBackground@@QEAAXXZ 00000001800413bc     PluginBackground.obj
 0002:0000e3bc       $unwind$?OnMainThreadActivated@CPluginBackground@@QEAAXHH@Z 00000001800413bc     PluginBackground.obj
 0002:0000e3bc       $unwind$?PlugServerStop@@YAX_N@Z 00000001800413bc     PluginSrv.obj
 0002:0000e3bc       $unwind$__raise_securityfailure 00000001800413bc     LIBCMT:gs_report.obj
 0002:0000e3bc       $unwind$??_Gtype_info@@UEAAPEAXI@Z 00000001800413bc     LIBCMT:std_type_info_static.obj
 0002:0000e3bc       $unwind$_Init_thread_footer 00000001800413bc     LIBCMT:thread_safe_statics.obj
 0002:0000e3bc       $unwind$_Init_thread_header 00000001800413bc     LIBCMT:thread_safe_statics.obj
 0002:0000e3bc       $unwind$_Init_thread_wait  00000001800413bc     LIBCMT:thread_safe_statics.obj
 0002:0000e3bc       $unwind$__scrt_initialize_crt 00000001800413bc     LIBCMT:utility.obj
 0002:0000e3bc       $unwind$__scrt_initialize_onexit_tables 00000001800413bc     LIBCMT:utility.obj
 0002:0000e3bc       $unwind$__scrt_release_startup_lock 00000001800413bc     LIBCMT:utility.obj
 0002:0000e3bc       $unwind$__scrt_uninitialize_crt 00000001800413bc     LIBCMT:utility.obj
 0002:0000e3bc       $unwind$_onexit            00000001800413bc     LIBCMT:utility.obj
 0002:0000e3bc       $unwind$??0bad_function_call@std@@QEAA@AEBV01@@Z 00000001800413bc     libcpmt:xthrow.obj
 0002:0000e3bc       $unwind$??0length_error@std@@QEAA@AEBV01@@Z 00000001800413bc     libcpmt:xthrow.obj
 0002:0000e3bc       $unwind$??0logic_error@std@@QEAA@AEBV01@@Z 00000001800413bc     libcpmt:xthrow.obj
 0002:0000e3bc       $unwind$_IsExceptionObjectToBeDestroyed 00000001800413bc     libvcruntime:ehhelpers.obj
 0002:0000e3bc       $unwind$??0HandlerMap4@FH4@@QEAA@PEBUTryBlockMapEntry4@1@_KH@Z 00000001800413bc     libvcruntime:frame.obj
 0002:0000e3bc       $unwind$??0bad_exception@std@@QEAA@AEBV01@@Z 00000001800413bc     libvcruntime:frame.obj
 0002:0000e3bc       $unwind$?ExFilterRethrow@@YAHPEAU_EXCEPTION_POINTERS@@PEAUEHExceptionRecord@@PEAH@Z 00000001800413bc     libvcruntime:frame.obj
 0002:0000e3bc       $unwind$__vcrt_uninitialize_locks 00000001800413bc     libvcruntime:locks.obj
 0002:0000e3bc       $unwind$__vcrt_freeptd     00000001800413bc     libvcruntime:per_thread_data.obj
 0002:0000e3bc       $unwind$_CreateFrameInfo   00000001800413bc     libvcruntime:risctrnsctrl.obj
 0002:0000e3bc       $unwind$_SetImageBase      00000001800413bc     libvcruntime:risctrnsctrl.obj
 0002:0000e3bc       $unwind$_SetThrowImageBase 00000001800413bc     libvcruntime:risctrnsctrl.obj
 0002:0000e3bc       $unwind$__std_exception_destroy 00000001800413bc     libvcruntime:std_exception.obj
 0002:0000e3bc       $unwind$__std_type_info_destroy_list 00000001800413bc     libvcruntime:std_type_info.obj
 0002:0000e3bc       $unwind$__vcrt_FlsAlloc    00000001800413bc     libvcruntime:winapi_downlevel.obj
 0002:0000e3bc       $unwind$__vcrt_FlsFree     00000001800413bc     libvcruntime:winapi_downlevel.obj
 0002:0000e3bc       $unwind$__vcrt_FlsGetValue 00000001800413bc     libvcruntime:winapi_downlevel.obj
 0002:0000e3bc       $unwind$_calloc_base       00000001800413bc     libucrt:calloc_base.obj
 0002:0000e3bc       $unwind$_malloc_base       00000001800413bc     libucrt:malloc_base.obj
 0002:0000e3bc       $unwind$_callnewh          00000001800413bc     libucrt:new_handler.obj
 0002:0000e3bc       $unwind$initialize_pointers 00000001800413bc     libucrt:initialization.obj
 0002:0000e3bc       $unwind$uninitialize_allocated_memory 00000001800413bc     libucrt:initialization.obj
 0002:0000e3bc       $unwind$__acrt_initialize_locks 00000001800413bc     libucrt:locks.obj
 0002:0000e3bc       $unwind$__acrt_uninitialize_locks 00000001800413bc     libucrt:locks.obj
 0002:0000e3bc       $unwind$__acrt_freeptd     00000001800413bc     libucrt:per_thread_data.obj
 0002:0000e3bc       $unwind$__acrt_getptd_head 00000001800413bc     libucrt:per_thread_data.obj
 0002:0000e3bc       $unwind$__acrt_get_process_end_policy 00000001800413bc     libucrt:win_policies.obj
 0002:0000e3bc       $unwind$__acrt_AppPolicyGetProcessTerminationMethodInternal 00000001800413bc     libucrt:winapi_thunks.obj
 0002:0000e3bc       $unwind$__acrt_FlsAlloc    00000001800413bc     libucrt:winapi_thunks.obj
 0002:0000e3bc       $unwind$__acrt_FlsFree     00000001800413bc     libucrt:winapi_thunks.obj
 0002:0000e3bc       $unwind$__acrt_FlsGetValue 00000001800413bc     libucrt:winapi_thunks.obj
 0002:0000e3bc       $unwind$__acrt_uninitialize_winapi_thunks 00000001800413bc     libucrt:winapi_thunks.obj
 0002:0000e3bc       $unwind$__acrt_update_locale_info 00000001800413bc     libucrt:locale_update.obj
 0002:0000e3bc       $unwind$__acrt_update_multibyte_info 00000001800413bc     libucrt:locale_update.obj
 0002:0000e3bc       $unwind$__acrt_allocate_buffer_for_argv 00000001800413bc     libucrt:argv_parsing.obj
 0002:0000e3bc       $unwind$?exit_or_terminate_process@@YAXI@Z 00000001800413bc     libucrt:exit.obj
 0002:0000e3bc       $unwind$?try_cor_exit_process@@YAXI@Z 00000001800413bc     libucrt:exit.obj
 0002:0000e3bc       $unwind$__acrt_uninitialize_stdio 00000001800413bc     libucrt:_file.obj
 0002:0000e3bc       $unwind$__acrt_stdio_free_buffer_nolock 00000001800413bc     libucrt:_freebuf.obj
 0002:0000e3bc       $unwind$_fflush_nolock     00000001800413bc     libucrt:fflush.obj
 0002:0000e3bc       $unwind$?state_case_normal@?$output_processor@DV?$string_output_adapter@D@__crt_stdio_output@@V?$standard_base@DV?$string_output_adapter@D@__crt_stdio_output@@@2@@__crt_stdio_output@@AEAA_NXZ 00000001800413bc     libucrt:output.obj
 0002:0000e3bc       $unwind$?type_case_s@?$output_processor@DV?$string_output_adapter@D@__crt_stdio_output@@V?$standard_base@DV?$string_output_adapter@D@__crt_stdio_output@@@2@@__crt_stdio_output@@AEAA_NXZ 00000001800413bc     libucrt:output.obj
 0002:0000e3bc       $unwind$strcpy_s           00000001800413bc     libucrt:strcpy_s.obj
 0002:0000e3bc       $unwind$_clrfp             00000001800413bc     libucrt:fpctrl.obj
 0002:0000e3bc       $unwind$_set_statfp        00000001800413bc     libucrt:fpctrl.obj
 0002:0000e3bc       $unwind$_clearfp           00000001800413bc     libucrt:ieee.obj
 0002:0000e3bc       $unwind$_controlfp_s       00000001800413bc     libucrt:contrlfp.obj
 0002:0000e3bc       $unwind$fegetenv           00000001800413bc     libucrt:fegetenv.obj
 0002:0000e3bc       $unwind$feholdexcept       00000001800413bc     libucrt:feholdexcept.obj
 0002:0000e3bc       $unwind$fesetenv           00000001800413bc     libucrt:fesetenv.obj
 0002:0000e3bc       $unwind$??0CEStr@@QEAA@$$QEAPEA_W@Z 00000001800413bc     common-kernel64:CEStr.obj
 0002:0000e3bc       $unwind$??4CEStr@@QEAAAEAU0@PEB_W@Z 00000001800413bc     common-kernel64:CEStr.obj
 0002:0000e3bc       $unwind$??_Gbad_alloc@stdext@@UEAAPEAXI@Z 00000001800413bc     common-kernel64:CEStr.obj
 0002:0000e3bc       $unwind$??_Gexception@stdext@@UEAAPEAXI@Z 00000001800413bc     common-kernel64:CEStr.obj
 0002:0000e3bc       $unwind$?GetMaxCount@CEStr@@QEAA_JXZ 00000001800413bc     common-kernel64:CEStr.obj
 0002:0000e3bc       $unwind$?IsEnvBlockVariableValid@@YA_NPEB_W@Z 00000001800413bc     common-kernel64:Common.obj
 0002:0000e3bc       $unwind$?CloseMap@?$MFileMapping@UConEmuGuiMapping@@@@QEAAXXZ 00000001800413bc     common-kernel64:ConEmuCheck.obj
 0002:0000e3bc       $unwind$??1CEnvStrings@@QEAA@XZ 00000001800413bc     common-kernel64:EnvVar.obj
 0002:0000e3bc       $unwind$?Clear@CEnvRestorer@@QEAAXXZ 00000001800413bc     common-kernel64:EnvVar.obj
 0002:0000e3bc       $unwind$?ExpandEnvStr@@YA?AUCEStr@@PEB_W@Z 00000001800413bc     common-kernel64:EnvVar.obj
 0002:0000e3bc       $unwind$?SavePathVar@CEnvRestorer@@QEAAXPEB_W@Z 00000001800413bc     common-kernel64:EnvVar.obj
 0002:0000e3bc       $unwind$?Free@MModule@@QEAAXXZ 00000001800413bc     common-kernel64:MModule.obj
 0002:0000e3bc       $unwind$??0MSectionThread@@QEAA@PEAVMSection@@@Z 00000001800413bc     common-kernel64:MSection.obj
 0002:0000e3bc       $unwind$??1MSectionLock@@QEAA@XZ 00000001800413bc     common-kernel64:MSection.obj
 0002:0000e3bc       $unwind$?Lock@MSectionLock@@QEAAHPEAVMSection@@HK@Z 00000001800413bc     common-kernel64:MSection.obj
 0002:0000e3bc       $unwind$?Unlock@MSectionLock@@QEAAXXZ 00000001800413bc     common-kernel64:MSection.obj
 0002:0000e3bc       $unwind$??0MSectionSimple@@QEAA@_N@Z 00000001800413bc     common-kernel64:MSectionSimple.obj
 0002:0000e3bc       $unwind$??1MSectionSimple@@QEAA@XZ 00000001800413bc     common-kernel64:MSectionSimple.obj
 0002:0000e3bc       $unwind$?Close@MSectionSimple@@QEAAXXZ 00000001800413bc     common-kernel64:MSectionSimple.obj
 0002:0000e3bc       $unwind$?Init@MSectionSimple@@QEAAXXZ 00000001800413bc     common-kernel64:MSectionSimple.obj
 0002:0000e3bc       $unwind$?TryEnter@MSectionSimple@@QEAA_NXZ 00000001800413bc     common-kernel64:MSectionSimple.obj
 0002:0000e3bc       $unwind$?LoadAdvApi@MNullDesc@@IEAAHXZ 00000001800413bc     common-kernel64:MSecurity.obj
 0002:0000e3bc       $unwind$?GetAllMonitorsWorkspace@@YA?AUtagRECT@@XZ 00000001800413bc     common-user64:Monitors.obj
 0002:0000e3bc       $unwind$?SetConEmuEnvVarChild@@YAXPEAUHWND__@@0@Z 00000001800413bc     common-user64:SetEnvVar.obj
 0002:0000e3c4       $unwind$?RegisterPanelView@@YAHPEAUPanelViewInit@@@Z 00000001800413c4     ConEmuPlugin.obj
 0002:0000e3e0       $unwind$?RegisterBackground@@YAHPEAURegisterBackgroundArg@@@Z 00000001800413e0     ConEmuPlugin.obj
 0002:0000e3f0       $cppxdata$?RegisterBackground@@YAHPEAURegisterBackgroundArg@@@Z 00000001800413f0     ConEmuPlugin.obj
 0002:0000e3f9       $stateUnwindMap$?RegisterBackground@@YAHPEAURegisterBackgroundArg@@@Z 00000001800413f9     ConEmuPlugin.obj
 0002:0000e3ff       $ip2state$?RegisterBackground@@YAHPEAURegisterBackgroundArg@@@Z 00000001800413ff     ConEmuPlugin.obj
 0002:0000e404       $unwind$?dtor$0@?0??RegisterBackground@@YAHPEAURegisterBackgroundArg@@@Z@4HA 0000000180041404     ConEmuPlugin.obj
 0002:0000e404       $unwind$?dtor$0@?0??UpdateConEmuTabsApi@CPluginW2800@@UEAA_NH@Z@4HA 0000000180041404     ConEmuPlugin2800.obj
 0002:0000e404       $unwind$?dtor$0@?0??DllMain_ProcessAttach@CPluginBase@@KAXPEAUHINSTANCE__@@@Z@4HA 0000000180041404     ConEmuPluginBase.obj
 0002:0000e404       $unwind$?dtor$0@?0??Plugin@@YAPEAVCPluginBase@@XZ@4HA 0000000180041404     ConEmuPluginBase.obj
 0002:0000e404       $unwind$?dtor$1@?0??DllMain_ProcessAttach@CPluginBase@@KAXPEAUHINSTANCE__@@@Z@4HA 0000000180041404     ConEmuPluginBase.obj
 0002:0000e404       $unwind$?dtor$1@?0??Plugin@@YAPEAVCPluginBase@@XZ@4HA 0000000180041404     ConEmuPluginBase.obj
 0002:0000e404       $unwind$?dtor$2@?0??Plugin@@YAPEAVCPluginBase@@XZ@4HA 0000000180041404     ConEmuPluginBase.obj
 0002:0000e404       $unwind$?dtor$3@?0??Plugin@@YAPEAVCPluginBase@@XZ@4HA 0000000180041404     ConEmuPluginBase.obj
 0002:0000e404       $unwind$?dtor$0@?0???0CPluginBackground@@QEAA@XZ@4HA 0000000180041404     PluginBackground.obj
 0002:0000e404       $unwind$?filt$0@?0??GetTo@?$MFileMapping@UPanelViewSetMapping@@@@QEAA_NPEAUPanelViewSetMapping@@H@Z@4HA 0000000180041404     PluginBackground.obj
 0002:0000e404       $unwind$?fin$0@?0??dllmain_crt_process_attach@@YAHQEAUHINSTANCE__@@QEAX@Z@4HA 0000000180041404     LIBCMT:dll_dllmain.obj
 0002:0000e404       $unwind$?fin$0@?0??dllmain_crt_process_detach@@YAH_N@Z@4HA 0000000180041404     LIBCMT:dll_dllmain.obj
 0002:0000e404       $unwind$?fin$1@?0??dllmain_crt_process_detach@@YAH_N@Z@4HA 0000000180041404     LIBCMT:dll_dllmain.obj
 0002:0000e404       $unwind$_IsNonwritableInCurrentImage$filt$0 0000000180041404     LIBCMT:pesect.obj
 0002:0000e404       $unwind$?filt$0@?0??CxxCallCatchBlock@__FrameHandler4@@SAPEAXPEAU_EXCEPTION_RECORD@@@Z@4HA 0000000180041404     libvcruntime:frame.obj
 0002:0000e404       $unwind$_query_new_handler$fin$0 0000000180041404     libucrt:new_handler.obj
 0002:0000e404       $unwind$?fin$0@?0???$?RV<lambda_0ae27a3a962d80f24befdcbee591983d>@@AEAV<lambda_8d0ee55de4b1038c4002e0adecdf1839>@@V<lambda_dc504788e8f1664fe9b84e20bfb512f2>@@@?$__crt_seh_guarded_call@X@@QEAAX$$QEAV<lambda_0ae27a3a962d80f24befdcbee591983d>@@AEAV<lambda_8d0ee55de4b1038c4002e0adecdf1839>@@$$QEAV<lambda_dc504788e8f1664fe9b84e20bfb512f2>@@@Z@4HA 0000000180041404     libucrt:per_thread_data.obj
 0002:0000e404       $unwind$?fin$0@?0???$?RV<lambda_2d41944a1d46af3157314b8a01080d33>@@AEAV<lambda_8f455de75cd7d7f24b4096f044d8b9e6>@@V<lambda_aa500f224e6afead328df44964fe2772>@@@?$__crt_seh_guarded_call@X@@QEAAX$$QEAV<lambda_2d41944a1d46af3157314b8a01080d33>@@AEAV<lambda_8f455de75cd7d7f24b4096f044d8b9e6>@@$$QEAV<lambda_aa500f224e6afead328df44964fe2772>@@@Z@4HA 0000000180041404     libucrt:per_thread_data.obj
 0002:0000e404       $unwind$?fin$0@?0???$?RV<lambda_aa87e3671a710a21b5dc78c0bdf72e11>@@AEAV<lambda_92619d2358a28f41a33ba319515a20b9>@@V<lambda_6992ecaafeb10aed2b74cb1fae11a551>@@@?$__crt_seh_guarded_call@X@@QEAAX$$QEAV<lambda_aa87e3671a710a21b5dc78c0bdf72e11>@@AEAV<lambda_92619d2358a28f41a33ba319515a20b9>@@$$QEAV<lambda_6992ecaafeb10aed2b74cb1fae11a551>@@@Z@4HA 0000000180041404     libucrt:per_thread_data.obj
 0002:0000e404       $unwind$?fin$0@?0???$?RV<lambda_f2e299630e499de9f9a165e60fcd3db5>@@AEAV<lambda_2ae9d31cdba2644fcbeaf08da7c24588>@@V<lambda_40d01ff24d0e7b3814fdbdcee8eab3c7>@@@?$__crt_seh_guarded_call@X@@QEAAX$$QEAV<lambda_f2e299630e499de9f9a165e60fcd3db5>@@AEAV<lambda_2ae9d31cdba2644fcbeaf08da7c24588>@@$$QEAV<lambda_40d01ff24d0e7b3814fdbdcee8eab3c7>@@@Z@4HA 0000000180041404     libucrt:per_thread_data.obj
 0002:0000e404       $unwind$__acrt_update_thread_locale_data$fin$0 0000000180041404     libucrt:locale_refcounting.obj
 0002:0000e404       $unwind$?fin$0@?0???$?RV<lambda_410d79af7f07d98d83a3f525b3859a53>@@AEAV<lambda_3e16ef9562a7dcce91392c22ab16ea36>@@V<lambda_38119f0e861e05405d8a144b9b982f0a>@@@?$__crt_seh_guarded_call@X@@QEAAX$$QEAV<lambda_410d79af7f07d98d83a3f525b3859a53>@@AEAV<lambda_3e16ef9562a7dcce91392c22ab16ea36>@@$$QEAV<lambda_38119f0e861e05405d8a144b9b982f0a>@@@Z@4HA 0000000180041404     libucrt:wsetlocale.obj
 0002:0000e404       $unwind$?fin$0@?0???$?RV<lambda_751a882b2c74d4b022dec766aa51a29a>@@AEAV<lambda_628dfdc04ba53c8bfc02c9951375f3f5>@@V<lambda_f6c7be5f7998530c34de24c7437d6b54>@@@?$__crt_seh_guarded_call@H@@QEAAH$$QEAV<lambda_751a882b2c74d4b022dec766aa51a29a>@@AEAV<lambda_628dfdc04ba53c8bfc02c9951375f3f5>@@$$QEAV<lambda_f6c7be5f7998530c34de24c7437d6b54>@@@Z@4HA 0000000180041404     libucrt:close.obj
 0002:0000e404       $unwind$?fin$0@?0???$?RV<lambda_a37b2b86f63e897a80ea819b0eb08c01>@@AEAV<lambda_38ce7e780aa69e748d6df282ebc68efe>@@V<lambda_99fb1378e971ab6e7edea83e3a7a83a2>@@@?$__crt_seh_guarded_call@H@@QEAAH$$QEAV<lambda_a37b2b86f63e897a80ea819b0eb08c01>@@AEAV<lambda_38ce7e780aa69e748d6df282ebc68efe>@@$$QEAV<lambda_99fb1378e971ab6e7edea83e3a7a83a2>@@@Z@4HA 0000000180041404     libucrt:commit.obj
 0002:0000e404       $unwind$__acrt_initialize_lowio$fin$0 0000000180041404     libucrt:ioinit.obj
 0002:0000e404       $unwind$__acrt_lowio_ensure_fh_exists$fin$0 0000000180041404     libucrt:osfinfo.obj
 0002:0000e404       $unwind$_write$fin$0       0000000180041404     libucrt:write.obj
 0002:0000e404       $unwind$?fin$0@?0???$?RV<lambda_efdfa57d1f175319df784efa44bb7b81>@@AEAV<lambda_5f0a4c1567f8adc6734073e5d1e1b35c>@@V<lambda_2e8a7d3640ea6ccb4c2413664c2db6fd>@@@?$__crt_seh_guarded_call@X@@QEAAX$$QEAV<lambda_efdfa57d1f175319df784efa44bb7b81>@@AEAV<lambda_5f0a4c1567f8adc6734073e5d1e1b35c>@@$$QEAV<lambda_2e8a7d3640ea6ccb4c2413664c2db6fd>@@@Z@4HA 0000000180041404     libucrt:mbctype.obj
 0002:0000e404       $unwind$?fin$0@?0??update_thread_multibyte_data_internal@@YAPEAU__crt_multibyte_data@@QEAU__acrt_ptd@@QEAPEAU1@@Z@4HA 0000000180041404     libucrt:mbctype.obj
 0002:0000e404       $unwind$?fin$0@?0???$?RV<lambda_450d765d439847d4c735a33c368b5fc0>@@AEAV<lambda_44731a7d0e6d81c3e6aa82d741081786>@@V<lambda_601a2a7da3b7a96e9554ac7215c4b07c>@@@?$__crt_seh_guarded_call@P6AXH@Z@@QEAAP6AXH@Z$$QEAV<lambda_450d765d439847d4c735a33c368b5fc0>@@AEAV<lambda_44731a7d0e6d81c3e6aa82d741081786>@@$$QEAV<lambda_601a2a7da3b7a96e9554ac7215c4b07c>@@@Z@4HA 0000000180041404     libucrt:signal.obj
 0002:0000e404       $unwind$raise$fin$0        0000000180041404     libucrt:signal.obj
 0002:0000e404       $unwind$?filt$0@?0???R<lambda_6e4b09c48022b2350581041d5f6b0c4c>@@QEBA@XZ@4HA 0000000180041404     libucrt:exit.obj
 0002:0000e404       $unwind$?fin$0@?0???$?RV<lambda_d80eeec6fff315bfe5c115232f3240e3>@@AEAV<lambda_6e4b09c48022b2350581041d5f6b0c4c>@@V<lambda_2358e3775559c9db80273638284d5e45>@@@?$__crt_seh_guarded_call@X@@QEAAX$$QEAV<lambda_d80eeec6fff315bfe5c115232f3240e3>@@AEAV<lambda_6e4b09c48022b2350581041d5f6b0c4c>@@$$QEAV<lambda_2358e3775559c9db80273638284d5e45>@@@Z@4HA 0000000180041404     libucrt:exit.obj
 0002:0000e404       $unwind$?fin$0@?0???$?RV<lambda_638799b9deba96c50f710eeac98168cd>@@AEAV<lambda_22ebabd17bc4fa466a2aca6d8deb888d>@@V<lambda_a6f7d7db0129f75315ebf26d50c089f1>@@@?$__crt_seh_guarded_call@H@@QEAAH$$QEAV<lambda_638799b9deba96c50f710eeac98168cd>@@AEAV<lambda_22ebabd17bc4fa466a2aca6d8deb888d>@@$$QEAV<lambda_a6f7d7db0129f75315ebf26d50c089f1>@@@Z@4HA 0000000180041404     libucrt:onexit.obj
 0002:0000e404       $unwind$?fin$0@?0???$?RV<lambda_7777bce6b2f8c936911f934f8298dc43>@@AEAV<lambda_f03950bc5685219e0bcd2087efbe011e>@@V<lambda_3883c3dff614d5e0c5f61bb1ac94921c>@@@?$__crt_seh_guarded_call@H@@QEAAH$$QEAV<lambda_7777bce6b2f8c936911f934f8298dc43>@@AEAV<lambda_f03950bc5685219e0bcd2087efbe011e>@@$$QEAV<lambda_3883c3dff614d5e0c5f61bb1ac94921c>@@@Z@4HA 0000000180041404     libucrt:onexit.obj
 0002:0000e404       $unwind$_fcloseall$fin$0   0000000180041404     libucrt:closeall.obj
 0002:0000e404       $unwind$fclose$fin$0       0000000180041404     libucrt:fclose.obj
 0002:0000e404       $unwind$?fin$0@?0???$?RV<lambda_842d9ff0dc9ef11c61343bbaebe7f885>@@AEAV<lambda_c5860995281e5c4ce005b3de8f5874ee>@@V<lambda_d90129c13df834fdcbf8d2b88dafcf2d>@@@?$__crt_seh_guarded_call@X@@QEAAX$$QEAV<lambda_842d9ff0dc9ef11c61343bbaebe7f885>@@AEAV<lambda_c5860995281e5c4ce005b3de8f5874ee>@@$$QEAV<lambda_d90129c13df834fdcbf8d2b88dafcf2d>@@@Z@4HA 0000000180041404     libucrt:fflush.obj
 0002:0000e404       $unwind$?fin$0@?0???$?RV<lambda_886d6c58226a84441f68b9f2b8217b83>@@AEAV<lambda_ab61a845afdef5b7c387490eaf3616ee>@@V<lambda_f7f22ab5edc0698d5f6905b0d3f44752>@@@?$__crt_seh_guarded_call@X@@QEAAX$$QEAV<lambda_886d6c58226a84441f68b9f2b8217b83>@@AEAV<lambda_ab61a845afdef5b7c387490eaf3616ee>@@$$QEAV<lambda_f7f22ab5edc0698d5f6905b0d3f44752>@@@Z@4HA 0000000180041404     libucrt:fflush.obj
 0002:0000e404       $unwind$_ctrlfp$filt$0     0000000180041404     libucrt:fpctrl.obj
 0002:0000e404       $unwind$common_control87$filt$0 0000000180041404     libucrt:ieee.obj
 0002:0000e40c       $unwind$?SyncExecute@@YAHPEAUHINSTANCE__@@P6AX_J@Z1@Z 000000018004140c     ConEmuPlugin.obj
 0002:0000e414       $unwind$?ActivateConsole@@YAHXZ 0000000180041414     ConEmuPlugin.obj
 0002:0000e428       $unwind$?GetMinFarVersion@@YAHXZ 0000000180041428     ConEmuPlugin.obj
 0002:0000e428       $unwind$DllMain            0000000180041428     ConEmuPlugin.obj
 0002:0000e428       $unwind$?CheckPanelExist@CPluginW1900@@UEAA_NXZ 0000000180041428     ConEmuPlugin1900.obj
 0002:0000e428       $unwind$?ExecuteSynchroApi@CPluginW1900@@UEAA_NXZ 0000000180041428     ConEmuPlugin1900.obj
 0002:0000e428       $unwind$?GetActiveWindowType@CPluginW1900@@UEAAHXZ 0000000180041428     ConEmuPlugin1900.obj
 0002:0000e428       $unwind$?IsMacroActive@CPluginW1900@@UEAA_NXZ 0000000180041428     ConEmuPlugin1900.obj
 0002:0000e428       $unwind$?ProcessEditorInputPtr@CPluginW1900@@UEAAHPEBX@Z 0000000180041428     ConEmuPlugin1900.obj
 0002:0000e428       $unwind$?RedrawAll@CPluginW1900@@UEAAXXZ 0000000180041428     ConEmuPlugin1900.obj
 0002:0000e428       $unwind$?SetWindow@CPluginW1900@@UEAAXH@Z 0000000180041428     ConEmuPlugin1900.obj
 0002:0000e428       $unwind$?ShowUserScreen@CPluginW1900@@UEAAX_N@Z 0000000180041428     ConEmuPlugin1900.obj
 0002:0000e428       $unwind$?CheckPanelExist@CPluginW2800@@UEAA_NXZ 0000000180041428     ConEmuPlugin2800.obj
 0002:0000e428       $unwind$?ExecuteSynchroApi@CPluginW2800@@UEAA_NXZ 0000000180041428     ConEmuPlugin2800.obj
 0002:0000e428       $unwind$?GetActiveWindowType@CPluginW2800@@UEAAHXZ 0000000180041428     ConEmuPlugin2800.obj
 0002:0000e428       $unwind$?IsMacroActive@CPluginW2800@@UEAA_NXZ 0000000180041428     ConEmuPlugin2800.obj
 0002:0000e428       $unwind$?ProcessEditorInputPtr@CPluginW2800@@UEAAHPEBX@Z 0000000180041428     ConEmuPlugin2800.obj
 0002:0000e428       $unwind$?RedrawAll@CPluginW2800@@UEAAXXZ 0000000180041428     ConEmuPlugin2800.obj
 0002:0000e428       $unwind$?ShowUserScreen@CPluginW2800@@UEAAX_N@Z 0000000180041428     ConEmuPlugin2800.obj
 0002:0000e428       $unwind$?_Xlength@?$vector@UWindowInfo@@V?$MArrayAllocator@UWindowInfo@@@@@std@@CAXXZ 0000000180041428     ConEmuPlugin2800.obj
 0002:0000e428       $unwind$?deallocate@?$MArrayAllocator@UWindowInfo@@@@QEAAXPEAUWindowInfo@@_K@Z 0000000180041428     ConEmuPlugin2800.obj
 0002:0000e428       $unwind$?CheckPanelExist@CPluginW995@@UEAA_NXZ 0000000180041428     ConEmuPlugin995.obj
 0002:0000e428       $unwind$?ExecuteSynchroApi@CPluginW995@@UEAA_NXZ 0000000180041428     ConEmuPlugin995.obj
 0002:0000e428       $unwind$?ProcessEditorInputPtr@CPluginW995@@UEAAHPEBX@Z 0000000180041428     ConEmuPlugin995.obj
 0002:0000e428       $unwind$?RedrawAll@CPluginW995@@UEAAXXZ 0000000180041428     ConEmuPlugin995.obj
 0002:0000e428       $unwind$?SetWindow@CPluginW995@@UEAAXH@Z 0000000180041428     ConEmuPlugin995.obj
 0002:0000e428       $unwind$?ShowUserScreen@CPluginW995@@UEAAX_N@Z 0000000180041428     ConEmuPlugin995.obj
 0002:0000e428       $unwind$?StopWaitEndSynchro@CPluginW995@@UEAAXXZ 0000000180041428     ConEmuPlugin995.obj
 0002:0000e428       $unwind$?CheckPanelExist@CPluginAnsi@@UEAA_NXZ 0000000180041428     ConEmuPluginA.obj
 0002:0000e428       $unwind$?ExitFar@CPluginAnsi@@UEAAXXZ 0000000180041428     ConEmuPluginA.obj
 0002:0000e428       $unwind$?PanelControlApi@CPluginAnsi@@UEAA_JPEAXH_J0@Z 0000000180041428     ConEmuPluginA.obj
 0002:0000e428       $unwind$?RedrawAll@CPluginAnsi@@UEAAXXZ 0000000180041428     ConEmuPluginA.obj
 0002:0000e428       $unwind$?SetWindow@CPluginAnsi@@UEAAXH@Z 0000000180041428     ConEmuPluginA.obj
 0002:0000e428       $unwind$?ShowUserScreen@CPluginAnsi@@UEAAX_N@Z 0000000180041428     ConEmuPluginA.obj
 0002:0000e428       $unwind$??1?$MFileMapping@UCESERVER_CONSOLE_MAPPING_HDR@@@@QEAA@XZ 0000000180041428     ConEmuPluginBase.obj
 0002:0000e428       $unwind$?CloseMapHeader@CPluginBase@@SAXXZ 0000000180041428     ConEmuPluginBase.obj
 0002:0000e428       $unwind$?EmergencyShow@CPluginBase@@KAXXZ 0000000180041428     ConEmuPluginBase.obj
 0002:0000e428       $unwind$?OnConsolePeekInputPost@CPluginBase@@SAHPEAUHookCallbackArg@@@Z 0000000180041428     ConEmuPluginBase.obj
 0002:0000e428       $unwind$?OnConsoleWasAttached@CPluginBase@@SAHPEAUHookCallbackArg@@@Z 0000000180041428     ConEmuPluginBase.obj
 0002:0000e428       $unwind$?OnCurDirChanged@CPluginBase@@SAXXZ 0000000180041428     ConEmuPluginBase.obj
 0002:0000e428       $unwind$?OnGetNumberOfConsoleInputEventsPost@CPluginBase@@SAHPEAUHookCallbackArg@@@Z 0000000180041428     ConEmuPluginBase.obj
 0002:0000e428       $unwind$?TouchReadPeekConsoleInputs@CPluginBase@@SAXH@Z 0000000180041428     ConEmuPluginBase.obj
 0002:0000e428       $unwind$??1?$MFileMapping@UPanelViewSetMapping@@@@QEAA@XZ 0000000180041428     PluginBackground.obj
 0002:0000e428       $unwind$?cmd_FarSetChanged@@YAXPEAUFAR_REQ_FARSETCHANGED@@@Z 0000000180041428     PluginSrv.obj
 0002:0000e428       $unwind$__scrt_initialize_default_local_stdio_options 0000000180041428     LIBCMT:default_local_stdio_options.obj
 0002:0000e428       $unwind$?dllmain_crt_dispatch@@YAHQEAUHINSTANCE__@@KQEAX@Z 0000000180041428     LIBCMT:dll_dllmain.obj
 0002:0000e428       $unwind$__report_rangecheckfailure 0000000180041428     LIBCMT:gs_report.obj
 0002:0000e428       $unwind$__GSHandlerCheck   0000000180041428     LIBCMT:gshandler.obj
 0002:0000e428       $unwind$?__scrt_uninitialize_thread_safe_statics@@YAXXZ 0000000180041428     LIBCMT:thread_safe_statics.obj
 0002:0000e428       $unwind$_Init_thread_notify 0000000180041428     LIBCMT:thread_safe_statics.obj
 0002:0000e428       $unwind$__scrt_acquire_startup_lock 0000000180041428     LIBCMT:utility.obj
 0002:0000e428       $unwind$__scrt_dllmain_after_initialize_c 0000000180041428     LIBCMT:utility.obj
 0002:0000e428       $unwind$__scrt_dllmain_before_initialize_c 0000000180041428     LIBCMT:utility.obj
 0002:0000e428       $unwind$__scrt_dllmain_crt_thread_attach 0000000180041428     LIBCMT:utility.obj
 0002:0000e428       $unwind$__scrt_dllmain_crt_thread_detach 0000000180041428     LIBCMT:utility.obj
 0002:0000e428       $unwind$__scrt_dllmain_uninitialize_c 0000000180041428     LIBCMT:utility.obj
 0002:0000e428       $unwind$__scrt_dllmain_uninitialize_critical 0000000180041428     LIBCMT:utility.obj
 0002:0000e428       $unwind$atexit             0000000180041428     LIBCMT:utility.obj
 0002:0000e428       $unwind$__std_terminate    0000000180041428     libvcruntime:ehhelpers.obj
 0002:0000e428       $unwind$__vcrt_initialize  0000000180041428     libvcruntime:initialization.obj
 0002:0000e428       $unwind$__vcrt_thread_attach 0000000180041428     libvcruntime:initialization.obj
 0002:0000e428       $unwind$__vcrt_thread_detach 0000000180041428     libvcruntime:initialization.obj
 0002:0000e428       $unwind$__vcrt_uninitialize 0000000180041428     libvcruntime:initialization.obj
 0002:0000e428       $unwind$__vcrt_uninitialize_critical 0000000180041428     libvcruntime:initialization.obj
 0002:0000e428       $unwind$__vcrt_initialize_locks 0000000180041428     libvcruntime:locks.obj
 0002:0000e428       $unwind$__vcrt_freefls     0000000180041428     libvcruntime:per_thread_data.obj
 0002:0000e428       $unwind$__vcrt_getptd      0000000180041428     libvcruntime:per_thread_data.obj
 0002:0000e428       $unwind$__vcrt_initialize_ptd 0000000180041428     libvcruntime:per_thread_data.obj
 0002:0000e428       $unwind$__vcrt_uninitialize_ptd 0000000180041428     libvcruntime:per_thread_data.obj
 0002:0000e428       $unwind$_purecall          0000000180041428     libvcruntime:purevirt.obj
 0002:0000e428       $unwind$?FrameUnwindToEmptyState@__FrameHandler4@@SAXPEA_KPEAU_xDISPATCHER_CONTEXT@@PEAUFuncInfo4@FH4@@@Z 0000000180041428     libvcruntime:risctrnsctrl.obj
 0002:0000e428       $unwind$_GetImageBase      0000000180041428     libvcruntime:risctrnsctrl.obj
 0002:0000e428       $unwind$_GetThrowImageBase 0000000180041428     libvcruntime:risctrnsctrl.obj
 0002:0000e428       $unwind$__dcrt_terminate_console_output 0000000180041428     libucrt:initcon.obj
 0002:0000e428       $unwind$??$uninitialize_environment_internal@D@@YAXAEAPEAPEAD@Z 0000000180041428     libucrt:environment_initialization.obj
 0002:0000e428       $unwind$??$uninitialize_environment_internal@_W@@YAXAEAPEAPEA_W@Z 0000000180041428     libucrt:environment_initialization.obj
 0002:0000e428       $unwind$__dcrt_uninitialize_environments_nolock 0000000180041428     libucrt:environment_initialization.obj
 0002:0000e428       $unwind$?__c32rtomb_utf8@__crt_mbstring@@YA_KPEAD_UPEAU_Mbstatet@@@Z 0000000180041428     libucrt:c32rtomb.obj
 0002:0000e428       $unwind$__acrt_initialize_heap 0000000180041428     libucrt:heap_handle.obj
 0002:0000e428       $unwind$_msize_base        0000000180041428     libucrt:msize.obj
 0002:0000e428       $unwind$?initialize_multibyte@@YAHXZ 0000000180041428     libucrt:multibyte_initializer.obj
 0002:0000e428       $unwind$__acrt_thread_attach 0000000180041428     libucrt:initialization.obj
 0002:0000e428       $unwind$__acrt_thread_detach 0000000180041428     libucrt:initialization.obj
 0002:0000e428       $unwind$__acrt_uninitialize 0000000180041428     libucrt:initialization.obj
 0002:0000e428       $unwind$__acrt_uninitialize_critical 0000000180041428     libucrt:initialization.obj
 0002:0000e428       $unwind$initialize_c       0000000180041428     libucrt:initialization.obj
 0002:0000e428       $unwind$uninitialize_allocated_io_buffers 0000000180041428     libucrt:initialization.obj
 0002:0000e428       $unwind$uninitialize_environment 0000000180041428     libucrt:initialization.obj
 0002:0000e428       $unwind$__acrt_initialize_ptd 0000000180041428     libucrt:per_thread_data.obj
 0002:0000e428       $unwind$__acrt_uninitialize_ptd 0000000180041428     libucrt:per_thread_data.obj
 0002:0000e428       $unwind$__acrt_AreFileApisANSI 0000000180041428     libucrt:winapi_thunks.obj
 0002:0000e428       $unwind$__pctype_func      0000000180041428     libucrt:ctype.obj
 0002:0000e428       $unwind$__acrt_release_locale_ref 0000000180041428     libucrt:locale_refcounting.obj
 0002:0000e428       $unwind$_isatty            0000000180041428     libucrt:isatty.obj
 0002:0000e428       $unwind$_get_osfhandle     0000000180041428     libucrt:osfinfo.obj
 0002:0000e428       $unwind$__acrt_initialize_multibyte 0000000180041428     libucrt:mbctype.obj
 0002:0000e428       $unwind$__acrt_update_thread_multibyte_data 0000000180041428     libucrt:mbctype.obj
 0002:0000e428       $unwind$__doserrno         0000000180041428     libucrt:errno.obj
 0002:0000e428       $unwind$_errno             0000000180041428     libucrt:errno.obj
 0002:0000e428       $unwind$_invoke_watson     0000000180041428     libucrt:invalid_parameter.obj
 0002:0000e428       $unwind$abort              0000000180041428     libucrt:abort.obj
 0002:0000e428       $unwind$__acrt_initialize_command_line 0000000180041428     libucrt:argv_data.obj
 0002:0000e428       $unwind$_fileno            0000000180041428     libucrt:fileno.obj
 0002:0000e428       $unwind$?state_case_normal_tchar@?$output_processor@DV?$string_output_adapter@D@__crt_stdio_output@@V?$standard_base@DV?$string_output_adapter@D@__crt_stdio_output@@@2@@__crt_stdio_output@@AEAA_ND@Z 0000000180041428     libucrt:output.obj
 0002:0000e428       $unwind$?state_case_size@?$output_processor@DV?$string_output_adapter@D@__crt_stdio_output@@V?$standard_base@DV?$string_output_adapter@D@__crt_stdio_output@@@2@@__crt_stdio_output@@AEAA_NXZ 0000000180041428     libucrt:output.obj
 0002:0000e428       $unwind$?state_case_size@?$output_processor@_WV?$string_output_adapter@_W@__crt_stdio_output@@V?$standard_base@_WV?$string_output_adapter@_W@__crt_stdio_output@@@2@@__crt_stdio_output@@AEAA_NXZ 0000000180041428     libucrt:output.obj
 0002:0000e428       $unwind$_statfp            0000000180041428     libucrt:fpctrl.obj
 0002:0000e428       $unwind$fegetround         0000000180041428     libucrt:fegetround.obj
 0002:0000e428       $unwind$_set_errno_from_matherr 0000000180041428     libucrt:fpexcept.obj
 0002:0000e428       $unwind$?Clear@CEStr@@QEAAXXZ 0000000180041428     common-kernel64:CEStr.obj
 0002:0000e428       $unwind$?Release@CEStr@@QEAAXXZ 0000000180041428     common-kernel64:CEStr.obj
 0002:0000e428       $unwind$?PointToExt@@YAPEB_WPEB_W@Z 0000000180041428     common-kernel64:CmdLine.obj
 0002:0000e428       $unwind$?ExecuteFreeResult@@YAXAEAPEAUCESERVER_REQ@@@Z 0000000180041428     common-kernel64:ConEmuCheck.obj
 0002:0000e428       $unwind$?_Delete_this@?$_Func_impl_no_alloc@V<lambda_217d18733db987cb8fc0adfd68028951>@@_NAEBUtagPROCESSENTRY32W@@@std@@EEAAX_N@Z 0000000180041428     common-kernel64:MProcess.obj
 0002:0000e428       $unwind$?_Xlength@?$vector@UtagPROCESSENTRY32W@@V?$MArrayAllocator@UtagPROCESSENTRY32W@@@@@std@@CAXXZ 0000000180041428     common-kernel64:MProcess.obj
 0002:0000e428       $unwind$?LocalSecurity@@YAPEAU_SECURITY_ATTRIBUTES@@XZ 0000000180041428     common-kernel64:MSecurity.obj
 0002:0000e428       $unwind$?ShutdownSecurity@@YAXXZ 0000000180041428     common-kernel64:MSecurity.obj
 0002:0000e428       $unwind$??2@YAPEAX_K@Z     0000000180041428     common-kernel64:Memory.obj
 0002:0000e428       $unwind$?HeapDeinitialize@@YAXXZ 0000000180041428     common-kernel64:Memory.obj
 0002:0000e428       $unwind$?HeapInitialize@@YA_NXZ 0000000180041428     common-kernel64:Memory.obj
 0002:0000e428       $unwind$?xf_calloc@@YAPEAX_K0@Z 0000000180041428     common-kernel64:Memory.obj
 0002:0000e428       $unwind$?xf_free@@YAXPEAX@Z 0000000180041428     common-kernel64:Memory.obj
 0002:0000e428       $unwind$?xf_malloc@@YAPEAX_K@Z 0000000180041428     common-kernel64:Memory.obj
 0002:0000e428       $unwind$?IsWin6@@YA_NXZ    0000000180041428     common-kernel64:WObjects.obj
 0002:0000e428       $unwind$?IsWin7@@YA_NXZ    0000000180041428     common-kernel64:WObjects.obj
 0002:0000e428       $unwind$?_Delete_this@?$_Func_impl_no_alloc@P6AHPEAX@ZXPEAX@std@@EEAAX_N@Z 0000000180041428     common-kernel64:WObjects.obj
 0002:0000e428       $unwind$??1?$MFileMapping@UConEmuGuiMapping@@@@QEAA@XZ 0000000180041428     common-user64:ConEmuCheckEx.obj
 0002:0000e428       $unwind$??__FgsMapHelper@@YAXXZ 0000000180041428     common-user64:WConsoleEx.obj
 0002:0000e428       $unwind$?apiShowWindow@@YA_NPEAUHWND__@@H@Z 0000000180041428     common-user64:WUser.obj
 0002:0000e428       $unwind$?apiShowWindowAsync@@YA_NPEAUHWND__@@H@Z 0000000180041428     common-user64:WUser.obj
 0002:0000e430       $unwind$?SetupExportsFar3@@YAXXZ 0000000180041430     ConEmuPlugin.obj
 0002:0000e430       $unwind$?StopPipeServer@?$PipeServer@UCESERVER_REQ@@@@QEAAX_NAEA_N@Z 0000000180041430     PluginSrv.obj
 0002:0000e44c       $unwind$?Color2FgIndex@Far3Color@@SAXKAEAGPEBK@Z 000000018004144c     ConEmuPlugin1900.obj
 0002:0000e44c       $unwind$?StringCchCatW@@YAJPEA_W_KPEB_W@Z 000000018004144c     ConEmuPluginBase.obj
 0002:0000e44c       $unwind$??$type_case_integer_parse_into_buffer@I@?$output_processor@DV?$string_output_adapter@D@__crt_stdio_output@@V?$standard_base@DV?$string_output_adapter@D@__crt_stdio_output@@@2@@__crt_stdio_output@@AEAAXII_N@Z 000000018004144c     libucrt:output.obj
 0002:0000e44c       $unwind$??$type_case_integer_parse_into_buffer@I@?$output_processor@_WV?$string_output_adapter@_W@__crt_stdio_output@@V?$standard_base@_WV?$string_output_adapter@_W@__crt_stdio_output@@@2@@__crt_stdio_output@@AEAAXII_N@Z 000000018004144c     libucrt:output.obj
 0002:0000e44c       $unwind$??$type_case_integer_parse_into_buffer@_K@?$output_processor@DV?$string_output_adapter@D@__crt_stdio_output@@V?$standard_base@DV?$string_output_adapter@D@__crt_stdio_output@@@2@@__crt_stdio_output@@AEAAX_KI_N@Z 000000018004144c     libucrt:output.obj
 0002:0000e44c       $unwind$??$type_case_integer_parse_into_buffer@_K@?$output_processor@_WV?$string_output_adapter@_W@__crt_stdio_output@@V?$standard_base@_WV?$string_output_adapter@_W@__crt_stdio_output@@@2@@__crt_stdio_output@@AEAAX_KI_N@Z 000000018004144c     libucrt:output.obj
 0002:0000e454       $unwind$?Color2BgIndex@Far3Color@@SAXKHAEAGPEBK@Z 0000000180041454     ConEmuPlugin1900.obj
 0002:0000e454       $unwind$?SetDcPanelRect@CPluginBackground@@IEAAXPEAUtagRECT@@PEAUBkPanelInfo@@PEAUPaintBackgroundArg@@@Z 0000000180041454     PluginBackground.obj
 0002:0000e460       $unwind$?FarColor_3_2@@YAEAEBUFarColor@@_N@Z 0000000180041460     ConEmuPlugin1900.obj
 0002:0000e474       $unwind$??0CPluginW1900@@QEAA@XZ 0000000180041474     ConEmuPlugin1900.obj
 0002:0000e474       $unwind$??0CPluginW2800@@QEAA@XZ 0000000180041474     ConEmuPlugin2800.obj
 0002:0000e484       $unwind$?ExitFar@CPluginW1900@@UEAAXXZ 0000000180041484     ConEmuPlugin1900.obj
 0002:0000e484       $unwind$?ExitFar@CPluginW2800@@UEAAXXZ 0000000180041484     ConEmuPlugin2800.obj
 0002:0000e484       $unwind$?ExitFar@CPluginW995@@UEAAXXZ 0000000180041484     ConEmuPlugin995.obj
 0002:0000e484       $unwind$??0length_error@std@@QEAA@PEBD@Z 0000000180041484     libcpmt:xthrow.obj
 0002:0000e484       $unwind$?__mbrtowc_utf8@__crt_mbstring@@YA_KPEA_WPEBD_KPEAU_Mbstatet@@@Z 0000000180041484     libucrt:mbrtowc.obj
 0002:0000e484       $unwind$?type_case_c_tchar@?$output_processor@DV?$string_output_adapter@D@__crt_stdio_output@@V?$standard_base@DV?$string_output_adapter@D@__crt_stdio_output@@@2@@__crt_stdio_output@@AEAA_ND@Z 0000000180041484     libucrt:output.obj
 0002:0000e48c       $unwind$?GetEditorModifiedState@CPluginW1900@@UEAAKXZ 000000018004148c     ConEmuPlugin1900.obj
 0002:0000e48c       $unwind$?GetEditorModifiedState@CPluginAnsi@@UEAAKXZ 000000018004148c     ConEmuPluginA.obj
 0002:0000e49c       $unwind$?GetMsg@CPluginW1900@@UEAAPEB_WHPEA_W_K@Z 000000018004149c     ConEmuPlugin1900.obj
 0002:0000e49c       $unwind$?LoadFarColors@CPluginW1900@@UEAAXAEAY0BAA@E@Z 000000018004149c     ConEmuPlugin1900.obj
 0002:0000e49c       $unwind$?GetMsg@CPluginW2800@@UEAAPEB_WHPEA_W_K@Z 000000018004149c     ConEmuPlugin2800.obj
 0002:0000e49c       $unwind$?LoadFarColors@CPluginW2800@@UEAAXAEAY0BAA@E@Z 000000018004149c     ConEmuPlugin2800.obj
 0002:0000e49c       $unwind$?GetMsg@CPluginW995@@UEAAPEB_WHPEA_W_K@Z 000000018004149c     ConEmuPlugin995.obj
 0002:0000e49c       $unwind$??0MWow64Disable@@QEAA@XZ 000000018004149c     ConEmuPluginBase.obj
 0002:0000e49c       $unwind$?FillLoadedParm@CPluginBase@@SAXPEAUConEmuLoadedArg@@PEAUHINSTANCE__@@H@Z 000000018004149c     ConEmuPluginBase.obj
 0002:0000e49c       $unwind$?OutDataRealloc@CPluginBase@@SA_NK@Z 000000018004149c     ConEmuPluginBase.obj
 0002:0000e49c       $unwind$?OutDataWrite@CPluginBase@@SA_NPEAXK@Z 000000018004149c     ConEmuPluginBase.obj
 0002:0000e49c       $unwind$?ProcessEditorViewerEvent@CPluginBase@@QEAAHHH@Z 000000018004149c     ConEmuPluginBase.obj
 0002:0000e49c       $unwind$?SetRootRegKey@CPluginBase@@IEAAXPEA_W@Z 000000018004149c     ConEmuPluginBase.obj
 0002:0000e49c       $unwind$?ToOem@CPluginBase@@SAPEADPEB_W@Z 000000018004149c     ConEmuPluginBase.obj
 0002:0000e49c       $unwind$?cmd_SetWindow@CPluginBase@@QEAA_NPEAX_N@Z 000000018004149c     ConEmuPluginBase.obj
 0002:0000e49c       $unwind$?CheckPanelFolders@CPluginBackground@@IEAAXH@Z 000000018004149c     PluginBackground.obj
 0002:0000e49c       $unwind$?ReallocItems@CPluginBackground@@IEAAXH@Z 000000018004149c     PluginBackground.obj
 0002:0000e49c       $unwind$_DllMainCRTStartup 000000018004149c     LIBCMT:dll_dllmain.obj
 0002:0000e49c       $unwind$__vcrt_getptd_noexit 000000018004149c     libvcruntime:per_thread_data.obj
 0002:0000e49c       $unwind$__vcrt_InitializeCriticalSectionEx 000000018004149c     libvcruntime:winapi_downlevel.obj
 0002:0000e49c       $unwind$memcpy_s           000000018004149c     libucrt:cfout.obj
 0002:0000e49c       $unwind$__acrt_getptd      000000018004149c     libucrt:per_thread_data.obj
 0002:0000e49c       $unwind$__acrt_getptd_noexit 000000018004149c     libucrt:per_thread_data.obj
 0002:0000e49c       $unwind$__acrt_execute_initializers 000000018004149c     libucrt:shared_initialization.obj
 0002:0000e49c       $unwind$__acrt_InitializeCriticalSectionEx 000000018004149c     libucrt:winapi_thunks.obj
 0002:0000e49c       $unwind$?free_crt_array_internal@@YAXQEAPEBX_K@Z 000000018004149c     libucrt:inittime.obj
 0002:0000e49c       $unwind$??$common_lseek_nolock@_J@@YA_JH_JH@Z 000000018004149c     libucrt:lseek.obj
 0002:0000e49c       $unwind$__acrt_stdio_flush_nolock 000000018004149c     libucrt:fflush.obj
 0002:0000e49c       $unwind$??0_LocaleUpdate@@QEAA@QEAU__crt_locale_pointers@@@Z 000000018004149c     libucrt:output.obj
 0002:0000e49c       $unwind$?type_case_Z@?$output_processor@_WV?$string_output_adapter@_W@__crt_stdio_output@@V?$standard_base@_WV?$string_output_adapter@_W@__crt_stdio_output@@@2@@__crt_stdio_output@@AEAA_NXZ 000000018004149c     libucrt:output.obj
 0002:0000e49c       $unwind$?type_case_s@?$output_processor@_WV?$string_output_adapter@_W@__crt_stdio_output@@V?$standard_base@_WV?$string_output_adapter@_W@__crt_stdio_output@@@2@@__crt_stdio_output@@AEAA_NXZ 000000018004149c     libucrt:output.obj
 0002:0000e49c       $unwind$_exception_enabled 000000018004149c     libucrt:libm_error.obj
 0002:0000e49c       $unwind$?AttachInt@CEStr@@AEAAPEB_WAEAPEA_W@Z 000000018004149c     common-kernel64:CEStr.obj
 0002:0000e49c       $unwind$?Unquote@@YAPEB_WPEA_W_N@Z 000000018004149c     common-kernel64:CmdLine.obj
 0002:0000e49c       $unwind$?IsEnvBlockVariableValid@@YA_NPEB_WAEAPEB_W@Z 000000018004149c     common-kernel64:Common.obj
 0002:0000e49c       $unwind$?apiGetCurrentConsoleFontEx@@YAHPEAXHPEAUMY_CONSOLE_FONT_INFOEX@@@Z 000000018004149c     common-kernel64:WConsole.obj
 0002:0000e49c       $unwind$?apiSetCurrentConsoleFontEx@@YAHPEAXHPEAUMY_CONSOLE_FONT_INFOEX@@@Z 000000018004149c     common-kernel64:WConsole.obj
 0002:0000e49c       $unwind$??0MHandle@@QEAA@PEAXV?$function@$$A6AXPEAX@Z@std@@@Z 000000018004149c     common-kernel64:WObjects.obj
 0002:0000e49c       $unwind$?SetHandle@MHandle@@QEAA_NPEAXV?$function@$$A6AXPEAX@Z@std@@@Z 000000018004149c     common-kernel64:WObjects.obj
 0002:0000e4ac       $unwind$?GetPanelInfo@CPluginW1900@@UEAA_NKPEAUCEPanelInfo@@@Z 00000001800414ac     ConEmuPlugin1900.obj
 0002:0000e4ac       $unwind$?GetPanelInfo@CPluginW2800@@UEAA_NKPEAUCEPanelInfo@@@Z 00000001800414ac     ConEmuPlugin2800.obj
 0002:0000e4cc       $unwind$?GetPanelItemInfo@CPluginW1900@@UEAA_NAEBUCEPanelInfo@@_N_JAEAU_WIN32_FIND_DATAW@@PEAPEA_W@Z 00000001800414cc     ConEmuPlugin1900.obj
 0002:0000e4e0       $unwind$?GetPanelDir@CPluginW1900@@UEAAPEA_WKPEA_WH@Z 00000001800414e0     ConEmuPlugin1900.obj
 0002:0000e4e0       $unwind$?GetPanelDir@CPluginW2800@@UEAAPEA_WKPEA_WH@Z 00000001800414e0     ConEmuPlugin2800.obj
 0002:0000e500       $unwind$?InputBox@CPluginW1900@@UEAA_NPEB_W000AEAPEA_W@Z 0000000180041500     ConEmuPlugin1900.obj
 0002:0000e500       $unwind$?InputBox@CPluginW2800@@UEAA_NPEB_W000AEAPEA_W@Z 0000000180041500     ConEmuPlugin2800.obj
 0002:0000e500       $unwind$?IsWinVerOrHigher@@YA_NG@Z 0000000180041500     common-kernel64:WObjects.obj
 0002:0000e514       $unwind$?LoadFarSettings@CPluginW1900@@UEAAXPEAUCEFarInterfaceSettings@@PEAUCEFarPanelSettings@@@Z 0000000180041514     ConEmuPlugin1900.obj
 0002:0000e514       $unwind$?LoadFarSettings@CPluginW2800@@UEAAXPEAUCEFarInterfaceSettings@@PEAUCEFarPanelSettings@@@Z 0000000180041514     ConEmuPlugin2800.obj
 0002:0000e528       $unwind$?OpenEditor@CPluginW1900@@UEAA_NPEB_W_N11HH@Z 0000000180041528     ConEmuPlugin1900.obj
 0002:0000e528       $unwind$?OpenEditor@CPluginW2800@@UEAA_NPEB_W_N11HH@Z 0000000180041528     ConEmuPlugin2800.obj
 0002:0000e528       $unwind$?OpenEditor@CPluginW995@@UEAA_NPEB_W_N11HH@Z 0000000180041528     ConEmuPlugin995.obj
 0002:0000e538       $unwind$?PanelControlApi@CPluginW1900@@UEAA_JPEAXH_J0@Z 0000000180041538     ConEmuPlugin1900.obj
 0002:0000e538       $unwind$?PanelControlApi@CPluginW2800@@UEAA_JPEAXH_J0@Z 0000000180041538     ConEmuPlugin2800.obj
 0002:0000e538       $unwind$__GSHandlerCheckCommon 0000000180041538     LIBCMT:gshandler.obj
 0002:0000e540       $unwind$?PostMacroApi@CPluginW1900@@UEAAXPEB_WPEAU_INPUT_RECORD@@_N@Z 0000000180041540     ConEmuPlugin1900.obj
 0002:0000e564       $unwind$?SetStartupInfoPtr@CPluginW1900@@UEAAXPEAX@Z 0000000180041564     ConEmuPlugin1900.obj
 0002:0000e564       $unwind$?SetStartupInfoPtr@CPluginW2800@@UEAAXPEAX@Z 0000000180041564     ConEmuPlugin2800.obj
 0002:0000e580       $unwind$?ShowMessage@CPluginW1900@@UEAAHPEB_WH_N@Z 0000000180041580     ConEmuPlugin1900.obj
 0002:0000e580       $unwind$?ShowMessage@CPluginW2800@@UEAAHPEB_WH_N@Z 0000000180041580     ConEmuPlugin2800.obj
 0002:0000e580       $unwind$?ToOem@CPluginBase@@SAXPEB_WPEAD_J@Z 0000000180041580     ConEmuPluginBase.obj
 0002:0000e580       $unwind$?_Xbad_function_call@std@@YAXXZ 0000000180041580     libcpmt:xthrow.obj
 0002:0000e580       $unwind$?_Xlength_error@std@@YAXPEBD@Z 0000000180041580     libcpmt:xthrow.obj
 0002:0000e580       $unwind$_raise_exc         0000000180041580     libucrt:fpexcept.obj
 0002:0000e588       $unwind$?ShowPluginMenu@CPluginW1900@@UEAAHPEAUConEmuPluginMenuItem@@HH@Z 0000000180041588     ConEmuPlugin1900.obj
 0002:0000e588       $unwind$?ShowPluginMenu@CPluginW2800@@UEAAHPEAUConEmuPluginMenuItem@@HH@Z 0000000180041588     ConEmuPlugin2800.obj
 0002:0000e5a0       $unwind$?UpdateConEmuTabsApi@CPluginW1900@@UEAA_NH@Z 00000001800415a0     ConEmuPlugin1900.obj
 0002:0000e5c8       $unwind$?GetFarSetting@@YAHPEAX_KPEB_W@Z 00000001800415c8     ConEmuPlugin1900.obj
 0002:0000e5c8       $unwind$?GetFarSetting@@YAHPEAX_KPEB_W@Z 00000001800415c8     ConEmuPlugin2800.obj
 0002:0000e5c8       $unwind$_call_matherr      00000001800415c8     libucrt:libm_error.obj
 0002:0000e5d0       $unwind$?CallGuiMacroDlg@@YA_JPEAXHH0@Z 00000001800415d0     ConEmuPlugin1900.obj
 0002:0000e5f0       $unwind$?CallGuiMacroProc@@YAXXZ 00000001800415f0     ConEmuPlugin1900.obj
 0002:0000e60c       $unwind$GetGlobalInfoW     000000018004160c     ConEmuPlugin2800.obj
 0002:0000e614       $unwind$?GetEditorModifiedState@CPluginW2800@@UEAAKXZ 0000000180041614     ConEmuPlugin2800.obj
 0002:0000e624       $unwind$?GetPanelItemInfo@CPluginW2800@@UEAA_NAEBUCEPanelInfo@@_N_JAEAU_WIN32_FIND_DATAW@@PEAPEA_W@Z 0000000180041624     ConEmuPlugin2800.obj
 0002:0000e63c       $unwind$?Open@CPluginW2800@@UEAAPEAXPEBX@Z 000000018004163c     ConEmuPlugin2800.obj
 0002:0000e654       $cppxdata$?Open@CPluginW2800@@UEAAPEAXPEBX@Z 0000000180041654     ConEmuPlugin2800.obj
 0002:0000e65d       $stateUnwindMap$?Open@CPluginW2800@@UEAAPEAXPEBX@Z 000000018004165d     ConEmuPlugin2800.obj
 0002:0000e664       $ip2state$?Open@CPluginW2800@@UEAAPEAXPEBX@Z 0000000180041664     ConEmuPlugin2800.obj
 0002:0000e670       $unwind$?PostMacroApi@CPluginW2800@@UEAAXPEB_WPEAU_INPUT_RECORD@@_N@Z 0000000180041670     ConEmuPlugin2800.obj
 0002:0000e694       $unwind$?SetWindow@CPluginW2800@@UEAAXH@Z 0000000180041694     ConEmuPlugin2800.obj
 0002:0000e6ac       $cppxdata$?SetWindow@CPluginW2800@@UEAAXH@Z 00000001800416ac     ConEmuPlugin2800.obj
 0002:0000e6b5       $stateUnwindMap$?SetWindow@CPluginW2800@@UEAAXH@Z 00000001800416b5     ConEmuPlugin2800.obj
 0002:0000e6c1       $ip2state$?SetWindow@CPluginW2800@@UEAAXH@Z 00000001800416c1     ConEmuPlugin2800.obj
 0002:0000e6cc       $unwind$?UpdateConEmuTabsApi@CPluginW2800@@UEAA_NH@Z 00000001800416cc     ConEmuPlugin2800.obj
 0002:0000e71c       $cppxdata$?UpdateConEmuTabsApi@CPluginW2800@@UEAA_NH@Z 000000018004171c     ConEmuPlugin2800.obj
 0002:0000e725       $stateUnwindMap$?UpdateConEmuTabsApi@CPluginW2800@@UEAA_NH@Z 0000000180041725     ConEmuPlugin2800.obj
 0002:0000e737       $ip2state$?UpdateConEmuTabsApi@CPluginW2800@@UEAA_NH@Z 0000000180041737     ConEmuPlugin2800.obj
 0002:0000e748       $unwind$?insert@?$vector@UWindowInfo@@V?$MArrayAllocator@UWindowInfo@@@@@std@@QEAA?AV?$_Vector_iterator@V?$_Vector_val@U?$_Simple_types@UWindowInfo@@@std@@@std@@@2@V?$_Vector_const_iterator@V?$_Vector_val@U?$_Simple_types@UWindowInfo@@@std@@@std@@@2@_KAEBUWindowInfo@@@Z 0000000180041748     ConEmuPlugin2800.obj
 0002:0000e768       $cppxdata$?insert@?$vector@UWindowInfo@@V?$MArrayAllocator@UWindowInfo@@@@@std@@QEAA?AV?$_Vector_iterator@V?$_Vector_val@U?$_Simple_types@UWindowInfo@@@std@@@std@@@2@V?$_Vector_const_iterator@V?$_Vector_val@U?$_Simple_types@UWindowInfo@@@std@@@std@@@2@_KAEBUWindowInfo@@@Z 0000000180041768     ConEmuPlugin2800.obj
 0002:0000e775       $stateUnwindMap$??$_Emplace_reallocate@AEBUWindowInfo@@@?$vector@UWindowInfo@@V?$MArrayAllocator@UWindowInfo@@@@@std@@QEAAPEAUWindowInfo@@QEAU2@AEBU2@@Z 0000000180041775     ConEmuPlugin2800.obj
 0002:0000e775       $stateUnwindMap$?insert@?$vector@UWindowInfo@@V?$MArrayAllocator@UWindowInfo@@@@@std@@QEAA?AV?$_Vector_iterator@V?$_Vector_val@U?$_Simple_types@UWindowInfo@@@std@@@std@@@2@V?$_Vector_const_iterator@V?$_Vector_val@U?$_Simple_types@UWindowInfo@@@std@@@std@@@2@_KAEBUWindowInfo@@@Z 0000000180041775     ConEmuPlugin2800.obj
 0002:0000e778       $tryMap$?insert@?$vector@UWindowInfo@@V?$MArrayAllocator@UWindowInfo@@@@@std@@QEAA?AV?$_Vector_iterator@V?$_Vector_val@U?$_Simple_types@UWindowInfo@@@std@@@std@@@2@V?$_Vector_const_iterator@V?$_Vector_val@U?$_Simple_types@UWindowInfo@@@std@@@std@@@2@_KAEBUWindowInfo@@@Z 0000000180041778     ConEmuPlugin2800.obj
 0002:0000e780       $handlerMap$?insert@?$vector@UWindowInfo@@V?$MArrayAllocator@UWindowInfo@@@@@std@@QEAA?AV?$_Vector_iterator@V?$_Vector_val@U?$_Simple_types@UWindowInfo@@@std@@@std@@@2@V?$_Vector_const_iterator@V?$_Vector_val@U?$_Simple_types@UWindowInfo@@@std@@@std@@@2@_KAEBUWindowInfo@@@Z 0000000180041780     ConEmuPlugin2800.obj
 0002:0000e787       $ip2state$?insert@?$vector@UWindowInfo@@V?$MArrayAllocator@UWindowInfo@@@@@std@@QEAA?AV?$_Vector_iterator@V?$_Vector_val@U?$_Simple_types@UWindowInfo@@@std@@@std@@@2@V?$_Vector_const_iterator@V?$_Vector_val@U?$_Simple_types@UWindowInfo@@@std@@@std@@@2@_KAEBUWindowInfo@@@Z 0000000180041787     ConEmuPlugin2800.obj
 0002:0000e78c       $unwind$?catch$0@?0???$_Emplace_reallocate@AEBUWindowInfo@@@?$vector@UWindowInfo@@V?$MArrayAllocator@UWindowInfo@@@@@std@@QEAAPEAUWindowInfo@@QEAU2@AEBU2@@Z@4HA 000000018004178c     ConEmuPlugin2800.obj
 0002:0000e78c       $unwind$?catch$0@?0??insert@?$vector@UWindowInfo@@V?$MArrayAllocator@UWindowInfo@@@@@std@@QEAA?AV?$_Vector_iterator@V?$_Vector_val@U?$_Simple_types@UWindowInfo@@@std@@@std@@@2@V?$_Vector_const_iterator@V?$_Vector_val@U?$_Simple_types@UWindowInfo@@@std@@@std@@@2@_KAEBUWindowInfo@@@Z@4HA 000000018004178c     ConEmuPlugin2800.obj
 0002:0000e794       $unwind$?insert@?$MArray@UWindowInfo@@@@QEAA_J_JAEBUWindowInfo@@0@Z 0000000180041794     ConEmuPlugin2800.obj
 0002:0000e794       $unwind$_mbsdec_l          0000000180041794     libucrt:mbsdec.obj
 0002:0000e7a0       $unwind$?erase@?$MArray@UWindowInfo@@@@QEAAX_J0@Z 00000001800417a0     ConEmuPlugin2800.obj
 0002:0000e7b0       $unwind$??1?$MArray@UWindowInfo@@@@QEAA@XZ 00000001800417b0     ConEmuPlugin2800.obj
 0002:0000e7c0       $cppxdata$??1?$MArray@UWindowInfo@@@@QEAA@XZ 00000001800417c0     ConEmuPlugin2800.obj
 0002:0000e7c9       $stateUnwindMap$??1?$MArray@UWindowInfo@@@@QEAA@XZ 00000001800417c9     ConEmuPlugin2800.obj
 0002:0000e7cf       $ip2state$??1?$MArray@UWindowInfo@@@@QEAA@XZ 00000001800417cf     ConEmuPlugin2800.obj
 0002:0000e7d4       $unwind$?WLoadWindows@@YA_JAEAV?$MArray@UWindowInfo@@@@H@Z 00000001800417d4     ConEmuPlugin2800.obj
 0002:0000e7ec       $unwind$?CallGuiMacroDlg@@YA_JPEAX_J10@Z 00000001800417ec     ConEmuPlugin2800.obj
 0002:0000e80c       $unwind$?CallGuiMacroProc@@YAXXZ 000000018004180c     ConEmuPlugin2800.obj
 0002:0000e830       $unwind$??$_Emplace_reallocate@AEBUWindowInfo@@@?$vector@UWindowInfo@@V?$MArrayAllocator@UWindowInfo@@@@@std@@QEAAPEAUWindowInfo@@QEAU2@AEBU2@@Z 0000000180041830     ConEmuPlugin2800.obj
 0002:0000e84c       $cppxdata$??$_Emplace_reallocate@AEBUWindowInfo@@@?$vector@UWindowInfo@@V?$MArrayAllocator@UWindowInfo@@@@@std@@QEAAPEAUWindowInfo@@QEAU2@AEBU2@@Z 000000018004184c     ConEmuPlugin2800.obj
 0002:0000e859       $tryMap$??$_Emplace_reallocate@AEBUWindowInfo@@@?$vector@UWindowInfo@@V?$MArrayAllocator@UWindowInfo@@@@@std@@QEAAPEAUWindowInfo@@QEAU2@AEBU2@@Z 0000000180041859     ConEmuPlugin2800.obj
 0002:0000e861       $handlerMap$??$_Emplace_reallocate@AEBUWindowInfo@@@?$vector@UWindowInfo@@V?$MArrayAllocator@UWindowInfo@@@@@std@@QEAAPEAUWindowInfo@@QEAU2@AEBU2@@Z 0000000180041861     ConEmuPlugin2800.obj
 0002:0000e868       $ip2state$??$_Emplace_reallocate@AEBUWindowInfo@@@?$vector@UWindowInfo@@V?$MArrayAllocator@UWindowInfo@@@@@std@@QEAAPEAUWindowInfo@@QEAU2@AEBU2@@Z 0000000180041868     ConEmuPlugin2800.obj
 0002:0000e86c       $unwind$??0CPluginW995@@QEAA@XZ 000000018004186c     ConEmuPlugin995.obj
 0002:0000e888       $cppxdata$??0CPluginW995@@QEAA@XZ 0000000180041888     ConEmuPlugin995.obj
 0002:0000e891       $stateUnwindMap$??0CPluginW995@@QEAA@XZ 0000000180041891     ConEmuPlugin995.obj
 0002:0000e891       $stateUnwindMap$??0CPluginAnsi@@QEAA@XZ 0000000180041891     ConEmuPluginA.obj
 0002:0000e898       $ip2state$??0CPluginW995@@QEAA@XZ 0000000180041898     ConEmuPlugin995.obj
 0002:0000e8a0       $unwind$?GetActiveWindowType@CPluginW995@@UEAAHXZ 00000001800418a0     ConEmuPlugin995.obj
 0002:0000e8a0       $unwind$?GetMacroArea@CPluginW995@@UEAAHXZ 00000001800418a0     ConEmuPlugin995.obj
 0002:0000e8a0       $unwind$?IsMacroActive@CPluginW995@@UEAA_NXZ 00000001800418a0     ConEmuPlugin995.obj
 0002:0000e8a0       $unwind$?PostMacroApi@CPluginW995@@UEAAXPEB_WPEAU_INPUT_RECORD@@_N@Z 00000001800418a0     ConEmuPlugin995.obj
 0002:0000e8a0       $unwind$?IsMacroActive@CPluginAnsi@@UEAA_NXZ 00000001800418a0     ConEmuPluginA.obj
 0002:0000e8a0       $unwind$fallbackMethod     00000001800418a0     libucrt:strpbrk.obj
 0002:0000e8b0       $unwind$?GetEditorModifiedState@CPluginW995@@UEAAKXZ 00000001800418b0     ConEmuPlugin995.obj
 0002:0000e8c0       $unwind$?GetPanelInfo@CPluginW995@@UEAA_NKPEAUCEPanelInfo@@@Z 00000001800418c0     ConEmuPlugin995.obj
 0002:0000e8dc       $unwind$?GetPanelItemInfo@CPluginW995@@UEAA_NAEBUCEPanelInfo@@_N_JAEAU_WIN32_FIND_DATAW@@PEAPEA_W@Z 00000001800418dc     ConEmuPlugin995.obj
 0002:0000e8f0       $unwind$?GetPanelDir@CPluginW995@@UEAAPEA_WKPEA_WH@Z 00000001800418f0     ConEmuPlugin995.obj
 0002:0000e90c       $unwind$?InputBox@CPluginW995@@UEAA_NPEB_W000AEAPEA_W@Z 000000018004190c     ConEmuPlugin995.obj
 0002:0000e924       $unwind$?LoadFarColors@CPluginW995@@UEAAXAEAY0BAA@E@Z 0000000180041924     ConEmuPlugin995.obj
 0002:0000e924       $unwind$?LoadFarColors@CPluginAnsi@@UEAAXAEAY0BAA@E@Z 0000000180041924     ConEmuPluginA.obj
 0002:0000e93c       $unwind$?SetStartupInfoPtr@CPluginW995@@UEAAXPEAX@Z 000000018004193c     ConEmuPlugin995.obj
 0002:0000e93c       $unwind$?SetStartupInfoPtr@CPluginAnsi@@UEAAXPEAX@Z 000000018004193c     ConEmuPluginA.obj
 0002:0000e950       $unwind$?ShowPluginMenu@CPluginW995@@UEAAHPEAUConEmuPluginMenuItem@@HH@Z 0000000180041950     ConEmuPlugin995.obj
 0002:0000e968       $unwind$?UpdateConEmuTabsApi@CPluginW995@@UEAA_NH@Z 0000000180041968     ConEmuPlugin995.obj
 0002:0000e98c       $unwind$?WaitEndSynchro@CPluginW995@@UEAAXXZ 000000018004198c     ConEmuPlugin995.obj
 0002:0000e9a4       $unwind$?CallGuiMacroDlg@@YA_JPEAXHH_J@Z 00000001800419a4     ConEmuPlugin995.obj
 0002:0000e9c0       $unwind$?CallGuiMacroProc@@YAXXZ 00000001800419c0     ConEmuPlugin995.obj
 0002:0000e9dc       $unwind$??0CPluginAnsi@@QEAA@XZ 00000001800419dc     ConEmuPluginA.obj
 0002:0000e9ec       $cppxdata$??0CPluginAnsi@@QEAA@XZ 00000001800419ec     ConEmuPluginA.obj
 0002:0000e9f5       $ip2state$??0CPluginAnsi@@QEAA@XZ 00000001800419f5     ConEmuPluginA.obj
 0002:0000e9fc       $unwind$?GetActiveWindowType@CPluginAnsi@@UEAAHXZ 00000001800419fc     ConEmuPluginA.obj
 0002:0000ea10       $unwind$?GetMsg@CPluginAnsi@@UEAAPEB_WHPEA_W_K@Z 0000000180041a10     ConEmuPluginA.obj
 0002:0000ea10       $unwind$?GetPanelItemInfo@CPluginAnsi@@UEAA_NAEBUCEPanelInfo@@_N_JAEAU_WIN32_FIND_DATAW@@PEAPEA_W@Z 0000000180041a10     ConEmuPluginA.obj
 0002:0000ea10       $unwind$?ToUnicode@CPluginBase@@SAPEA_WPEBD@Z 0000000180041a10     ConEmuPluginBase.obj
 0002:0000ea10       $unwind$?getStateFromIterators@UWMap4@FH4@@SAHAEBViterator@12@H0H0@Z 0000000180041a10     libvcruntime:frame.obj
 0002:0000ea10       $unwind$?_VerifyVersionInfo@@YA_NPEAU_OSVERSIONINFOEXW@@K_K@Z 0000000180041a10     common-kernel64:WObjects.obj
 0002:0000ea20       $unwind$?GetPanelDir@CPluginAnsi@@UEAAPEA_WKPEA_WH@Z 0000000180041a20     ConEmuPluginA.obj
 0002:0000ea3c       $unwind$?GetPanelInfo@CPluginAnsi@@UEAA_NKPEAUCEPanelInfo@@@Z 0000000180041a3c     ConEmuPluginA.obj
 0002:0000ea60       $unwind$?InputBox@CPluginAnsi@@UEAA_NPEB_W000AEAPEA_W@Z 0000000180041a60     ConEmuPluginA.obj
 0002:0000ea84       $unwind$?OpenEditor@CPluginAnsi@@UEAA_NPEB_W_N11HH@Z 0000000180041a84     ConEmuPluginA.obj
 0002:0000eaa0       $unwind$?PostMacroApi@CPluginAnsi@@UEAAXPEB_WPEAU_INPUT_RECORD@@_N@Z 0000000180041aa0     ConEmuPluginA.obj
 0002:0000eab4       $unwind$?ShowMessage@CPluginAnsi@@UEAAHPEB_WH_N@Z 0000000180041ab4     ConEmuPluginA.obj
 0002:0000eab4       $unwind$?ActivatePlugin@CPluginBase@@QEAA_NKPEAXK@Z 0000000180041ab4     ConEmuPluginBase.obj
 0002:0000eab4       $unwind$?OnWriteConsoleOutput@CPluginBase@@SAHPEAUHookCallbackArg@@@Z 0000000180041ab4     ConEmuPluginBase.obj
 0002:0000eab4       $unwind$?PanelControl@CPluginBase@@QEAA_JPEAXH_J0@Z 0000000180041ab4     ConEmuPluginBase.obj
 0002:0000eab4       $unwind$??$__acrt_mbs_to_wcs_cp@U__crt_win32_buffer_internal_dynamic_resizing@@@@YAHQEBDAEAV?$__crt_win32_buffer@_WU__crt_win32_buffer_internal_dynamic_resizing@@@@I@Z 0000000180041ab4     libucrt:argv_wildcards.obj
 0002:0000eab4       $unwind$?StringCchVPrintfA@@YAJPEAD_KPEBD0@Z 0000000180041ab4     common-kernel64:MStrSafe.obj
 0002:0000eab4       $unwind$?apiCreateThread@@YAPEAXP6AKPEAX@Z0PEAKPEBDH@Z 0000000180041ab4     common-kernel64:WThreads.obj
 0002:0000eab4       $unwind$?IsConEmuExeExist@@YAHPEB_WAEAY0BAF@_W@Z 0000000180041ab4     common-user64:ConEmuCheckEx.obj
 0002:0000eacc       $unwind$?ShowPluginMenu@CPluginAnsi@@UEAAHPEAUConEmuPluginMenuItem@@HH@Z 0000000180041acc     ConEmuPluginA.obj
 0002:0000eae8       $unwind$?UpdateConEmuTabsApi@CPluginAnsi@@UEAA_NH@Z 0000000180041ae8     ConEmuPluginA.obj
 0002:0000eb10       $unwind$?CallGuiMacroDlg@@YA_JPEAXHH_J@Z 0000000180041b10     ConEmuPluginA.obj
 0002:0000eb2c       $unwind$?CallGuiMacroProc@@YAXXZ 0000000180041b2c     ConEmuPluginA.obj
 0002:0000eb4c       $unwind$?InitRootRegKey@CPluginBase@@IEAAXXZ 0000000180041b4c     ConEmuPluginBase.obj
 0002:0000eb68       $unwind$?DllMain_ProcessAttach@CPluginBase@@KAXPEAUHINSTANCE__@@@Z 0000000180041b68     ConEmuPluginBase.obj
 0002:0000eb78       $cppxdata$?DllMain_ProcessAttach@CPluginBase@@KAXPEAUHINSTANCE__@@@Z 0000000180041b78     ConEmuPluginBase.obj
 0002:0000eb81       $stateUnwindMap$?DllMain_ProcessAttach@CPluginBase@@KAXPEAUHINSTANCE__@@@Z 0000000180041b81     ConEmuPluginBase.obj
 0002:0000eb8c       $ip2state$?DllMain_ProcessAttach@CPluginBase@@KAXPEAUHINSTANCE__@@@Z 0000000180041b8c     ConEmuPluginBase.obj
 0002:0000eb98       $unwind$?DllCheckUnique@CPluginBase@@KA_N_N@Z 0000000180041b98     ConEmuPluginBase.obj
 0002:0000ebc4       $cppxdata$?DllCheckUnique@CPluginBase@@KA_N_N@Z 0000000180041bc4     ConEmuPluginBase.obj
 0002:0000ebcd       $stateUnwindMap$?DllCheckUnique@CPluginBase@@KA_N_N@Z 0000000180041bcd     ConEmuPluginBase.obj
 0002:0000ebda       $ip2state$?DllCheckUnique@CPluginBase@@KA_N_N@Z 0000000180041bda     ConEmuPluginBase.obj
 0002:0000ebe8       $unwind$?ShowProtocolWarning@CPluginBase@@KAXXZ 0000000180041be8     ConEmuPluginBase.obj
 0002:0000ec00       $cppxdata$?ShowProtocolWarning@CPluginBase@@KAXXZ 0000000180041c00     ConEmuPluginBase.obj
 0002:0000ec09       $stateUnwindMap$?ShowProtocolWarning@CPluginBase@@KAXXZ 0000000180041c09     ConEmuPluginBase.obj
 0002:0000ec10       $ip2state$?ShowProtocolWarning@CPluginBase@@KAXXZ 0000000180041c10     ConEmuPluginBase.obj
 0002:0000ec18       $unwind$?ShowMessageBox@CPluginBase@@KAHPEB_WI@Z 0000000180041c18     ConEmuPluginBase.obj
 0002:0000ec34       $unwind$?ShowMessageGui@CPluginBase@@QEAAHHH@Z 0000000180041c34     ConEmuPluginBase.obj
 0002:0000ec4c       $unwind$?UpdatePanelDirs@CPluginBase@@QEAAXXZ 0000000180041c4c     ConEmuPluginBase.obj
 0002:0000ec6c       $unwind$?StorePanelDirs@CPluginBase@@QEAA_NPEB_W0@Z 0000000180041c6c     ConEmuPluginBase.obj
 0002:0000ec6c       $unwind$?try_get_function@@YAPEAXW4function_id@?A0x84e3c32f@@QEBDQEBW4module_id@2@2@Z 0000000180041c6c     libvcruntime:winapi_downlevel.obj
 0002:0000ec6c       $unwind$?try_get_function@@YAPEAXW4function_id@?A0x391cf84c@@QEBDQEBW4module_id@2@2@Z 0000000180041c6c     libucrt:winapi_thunks.obj
 0002:0000ec88       $unwind$?RunExternalProgram@CPluginBase@@QEAA_NPEA_W@Z 0000000180041c88     ConEmuPluginBase.obj
 0002:0000eca8       $cppxdata$?RunExternalProgram@CPluginBase@@QEAA_NPEA_W@Z 0000000180041ca8     ConEmuPluginBase.obj
 0002:0000ecb1       $stateUnwindMap$?RunExternalProgram@CPluginBase@@QEAA_NPEA_W@Z 0000000180041cb1     ConEmuPluginBase.obj
 0002:0000ecc4       $ip2state$?RunExternalProgram@CPluginBase@@QEAA_NPEA_W@Z 0000000180041cc4     ConEmuPluginBase.obj
 0002:0000ecd0       $unwind$?ShowPluginMenu@CPluginBase@@QEAAXW4PluginCallCommands@@@Z 0000000180041cd0     ConEmuPluginBase.obj
 0002:0000ecf0       $unwind$?ShowConsoleInfo@CPluginBase@@QEAAXXZ 0000000180041cf0     ConEmuPluginBase.obj
 0002:0000ed18       $unwind$?StartDebugger@CPluginBase@@QEAA_NXZ 0000000180041d18     ConEmuPluginBase.obj
 0002:0000ed3c       $unwind$?Attach2Gui@CPluginBase@@QEAA_N_N@Z 0000000180041d3c     ConEmuPluginBase.obj
 0002:0000ed60       $unwind$?FindServerCmd@CPluginBase@@QEAA_NKAEAK_N@Z 0000000180041d60     ConEmuPluginBase.obj
 0002:0000ed7c       $unwind$?ShowMessage@CPluginBase@@QEAAHHH@Z 0000000180041d7c     ConEmuPluginBase.obj
 0002:0000ed94       $unwind$?UpdateConEmuTabs@CPluginBase@@QEAA_N_N@Z 0000000180041d94     ConEmuPluginBase.obj
 0002:0000edb8       $cppxdata$?UpdateConEmuTabs@CPluginBase@@QEAA_N_N@Z 0000000180041db8     ConEmuPluginBase.obj
 0002:0000edc1       $stateUnwindMap$?UpdateConEmuTabs@CPluginBase@@QEAA_N_N@Z 0000000180041dc1     ConEmuPluginBase.obj
 0002:0000edc8       $ip2state$?UpdateConEmuTabs@CPluginBase@@QEAA_N_N@Z 0000000180041dc8     ConEmuPluginBase.obj
 0002:0000edd0       $unwind$?CheckResources@CPluginBase@@QEAAX_N@Z 0000000180041dd0     ConEmuPluginBase.obj
 0002:0000edec       $unwind$?InitResources@CPluginBase@@QEAAXXZ 0000000180041dec     ConEmuPluginBase.obj
 0002:0000ee10       $unwind$?OpenPluginCommon@CPluginBase@@QEAAPEAXH_J_N@Z 0000000180041e10     ConEmuPluginBase.obj
 0002:0000ee28       $unwind$?ProcessSetWindowCommand@CPluginBase@@QEAAXXZ 0000000180041e28     ConEmuPluginBase.obj
 0002:0000ee3c       $unwind$?CommonPluginStartup@CPluginBase@@QEAAXXZ 0000000180041e3c     ConEmuPluginBase.obj
 0002:0000ee50       $unwind$?ProcessCommand@CPluginBase@@QEAA_NKHPEAXPEAPEAUCESERVER_REQ@@_N@Z 0000000180041e50     ConEmuPluginBase.obj
 0002:0000ee74       $cppxdata$?ProcessCommand@CPluginBase@@QEAA_NKHPEAXPEAPEAUCESERVER_REQ@@_N@Z 0000000180041e74     ConEmuPluginBase.obj
 0002:0000ee7d       $stateUnwindMap$?ProcessCommand@CPluginBase@@QEAA_NKHPEAXPEAPEAUCESERVER_REQ@@_N@Z 0000000180041e7d     ConEmuPluginBase.obj
 0002:0000ee84       $ip2state$?ProcessCommand@CPluginBase@@QEAA_NKHPEAXPEAPEAUCESERVER_REQ@@_N@Z 0000000180041e84     ConEmuPluginBase.obj
 0002:0000ee90       $unwind$?FarSetConsoleSize@CPluginBase@@SA_NFF@Z 0000000180041e90     ConEmuPluginBase.obj
 0002:0000eeac       $unwind$?ReloadFarInfo@CPluginBase@@QEAA_N_N@Z 0000000180041eac     ConEmuPluginBase.obj
 0002:0000eecc       $unwind$?FillUpdateBackground@CPluginBase@@QEAAXPEAUPaintBackgroundArg@@@Z 0000000180041ecc     ConEmuPluginBase.obj
 0002:0000eee4       $unwind$?GetPanelInfo@CPluginBase@@QEAA_NKPEAUBkPanelInfo@@@Z 0000000180041ee4     ConEmuPluginBase.obj
 0002:0000eefc       $unwind$?ProcessDragFrom@CPluginBase@@QEAAXXZ 0000000180041efc     ConEmuPluginBase.obj
 0002:0000ef24       $unwind$?ProcessDragTo@CPluginBase@@QEAAXXZ 0000000180041f24     ConEmuPluginBase.obj
 0002:0000ef48       $unwind$?IsCurrentTabModal@CPluginBase@@QEAA_NXZ 0000000180041f48     ConEmuPluginBase.obj
 0002:0000ef58       $cppxdata$?IsCurrentTabModal@CPluginBase@@QEAA_NXZ 0000000180041f58     ConEmuPluginBase.obj
 0002:0000ef61       $stateUnwindMap$?CreateTabs@CPluginBase@@SA_NH@Z 0000000180041f61     ConEmuPluginBase.obj
 0002:0000ef61       $stateUnwindMap$?IsCurrentTabModal@CPluginBase@@QEAA_NXZ 0000000180041f61     ConEmuPluginBase.obj
 0002:0000ef61       $stateUnwindMap$?SendTabs@CPluginBase@@SAXH_N@Z 0000000180041f61     ConEmuPluginBase.obj
 0002:0000ef68       $ip2state$?IsCurrentTabModal@CPluginBase@@QEAA_NXZ 0000000180041f68     ConEmuPluginBase.obj
 0002:0000ef70       $unwind$?ShowTabsList@CPluginBase@@QEAAXXZ 0000000180041f70     ConEmuPluginBase.obj
 0002:0000ef84       $unwind$?ShowPanelsList@CPluginBase@@QEAAXXZ 0000000180041f84     ConEmuPluginBase.obj
 0002:0000ef9c       $unwind$?EditViewConsoleOutput@CPluginBase@@QEAAX_N@Z 0000000180041f9c     ConEmuPluginBase.obj
 0002:0000ef9c       $unwind$?x_ismbbtype_l@@YAHPEAU__crt_locale_pointers@@IHH@Z 0000000180041f9c     libucrt:ismbbyte.obj
 0002:0000efac       $unwind$?PrintText@CPluginBase@@QEAA_NPEB_W@Z 0000000180041fac     ConEmuPluginBase.obj
 0002:0000efc4       $unwind$?cmd_OpenEditorLine@CPluginBase@@QEAA_NPEAUCESERVER_REQ_FAREDITOR@@@Z 0000000180041fc4     ConEmuPluginBase.obj
 0002:0000efe0       $cppxdata$?cmd_OpenEditorLine@CPluginBase@@QEAA_NPEAUCESERVER_REQ_FAREDITOR@@@Z 0000000180041fe0     ConEmuPluginBase.obj
 0002:0000efe9       $stateUnwindMap$?cmd_OpenEditorLine@CPluginBase@@QEAA_NPEAUCESERVER_REQ_FAREDITOR@@@Z 0000000180041fe9     ConEmuPluginBase.obj
 0002:0000eff0       $ip2state$?cmd_OpenEditorLine@CPluginBase@@QEAA_NPEAUCESERVER_REQ_FAREDITOR@@@Z 0000000180041ff0     ConEmuPluginBase.obj
 0002:0000eff8       $unwind$?cmd_RedrawFarCall@CPluginBase@@QEAA_NAEAPEAUCESERVER_REQ@@PEAPEAU2@@Z 0000000180041ff8     ConEmuPluginBase.obj
 0002:0000eff8       $unwind$_invalid_parameter 0000000180041ff8     libucrt:invalid_parameter.obj
 0002:0000f00c       $unwind$?cmd_LeftClickSync@CPluginBase@@QEAAXPEAX@Z 000000018004200c     ConEmuPluginBase.obj
 0002:0000f020       $unwind$?cmd_EMenu@CPluginBase@@QEAAXPEAX@Z 0000000180042020     ConEmuPluginBase.obj
 0002:0000f03c       $unwind$?cmd_ExternalCallback@CPluginBase@@QEAA_NPEAX@Z 000000018004203c     ConEmuPluginBase.obj
 0002:0000f04c       $unwind$?cmd_ConSetFont@CPluginBase@@QEAAXPEAX@Z 000000018004204c     ConEmuPluginBase.obj
 0002:0000f05c       $unwind$?OnPanelViewCallbacks@CPluginBase@@SA_NPEAUHookCallbackArg@@P6AHPEAXPEAU_INPUT_RECORD@@KPEAKPEAH@Z5@Z 000000018004205c     ConEmuPluginBase.obj
 0002:0000f074       $unwind$?OnConsoleReadInputPost@CPluginBase@@SAHPEAUHookCallbackArg@@@Z 0000000180042074     ConEmuPluginBase.obj
 0002:0000f094       $unwind$?OnConsoleDetaching@CPluginBase@@SAHPEAUHookCallbackArg@@@Z 0000000180042094     ConEmuPluginBase.obj
 0002:0000f0a4       $unwind$?OnLibraryLoaded@CPluginBase@@SAXPEAUHINSTANCE__@@@Z 00000001800420a4     ConEmuPluginBase.obj
 0002:0000f0b4       $unwind$?NotifyConEmuUnloaded@CPluginBase@@SAXXZ 00000001800420b4     ConEmuPluginBase.obj
 0002:0000f0d0       $unwind$?LoadFarVersion@CPluginBase@@SA_NXZ 00000001800420d0     ConEmuPluginBase.obj
 0002:0000f0e8       $unwind$?UngetDummyMouseEvent@CPluginBase@@SA_N_NPEAUHookCallbackArg@@@Z 00000001800420e8     ConEmuPluginBase.obj
 0002:0000f0fc       $unwind$?OnConsolePeekReadInput@CPluginBase@@SAX_N@Z 00000001800420fc     ConEmuPluginBase.obj
 0002:0000f114       $unwind$?WaitPluginActivation@CPluginBase@@SAKKPEAPEAXHK@Z 0000000180042114     ConEmuPluginBase.obj
 0002:0000f130       $unwind$?MonitorThreadProcW@CPluginBase@@SAKPEAX@Z 0000000180042130     ConEmuPluginBase.obj
 0002:0000f158       $cppxdata$?MonitorThreadProcW@CPluginBase@@SAKPEAX@Z 0000000180042158     ConEmuPluginBase.obj
 0002:0000f161       $stateUnwindMap$?MonitorThreadProcW@CPluginBase@@SAKPEAX@Z 0000000180042161     ConEmuPluginBase.obj
 0002:0000f161       $stateUnwindMap$?RegisterSubplugin@CPluginBackground@@QEAAHPEAURegisterBackgroundArg@@@Z 0000000180042161     PluginBackground.obj
 0002:0000f168       $ip2state$?MonitorThreadProcW@CPluginBase@@SAKPEAX@Z 0000000180042168     ConEmuPluginBase.obj
 0002:0000f174       $unwind$?CheckConEmuDetached@CPluginBase@@SAXXZ 0000000180042174     ConEmuPluginBase.obj
 0002:0000f194       $cppxdata$?CheckConEmuDetached@CPluginBase@@SAXXZ 0000000180042194     ConEmuPluginBase.obj
 0002:0000f19d       $stateUnwindMap$?CheckConEmuDetached@CPluginBase@@SAXXZ 000000018004219d     ConEmuPluginBase.obj
 0002:0000f1a4       $ip2state$?CheckConEmuDetached@CPluginBase@@SAXXZ 00000001800421a4     ConEmuPluginBase.obj
 0002:0000f1ac       $unwind$?OpenMapHeader@CPluginBase@@SAHXZ 00000001800421ac     ConEmuPluginBase.obj
 0002:0000f1ac       $unwind$?write_stored_string_tchar@?$output_processor@_WV?$string_output_adapter@_W@__crt_stdio_output@@V?$standard_base@_WV?$string_output_adapter@_W@__crt_stdio_output@@@2@@__crt_stdio_output@@AEAA_N_W@Z 00000001800421ac     libucrt:output.obj
 0002:0000f1c0       $unwind$?InitHWND@CPluginBase@@SAXXZ 00000001800421c0     ConEmuPluginBase.obj
 0002:0000f1d4       $unwind$?GetMainThreadId@CPluginBase@@SAKXZ 00000001800421d4     ConEmuPluginBase.obj
 0002:0000f1ec       $unwind$?RunExternalProgramW@CPluginBase@@SA_NPEA_W0_N@Z 00000001800421ec     ConEmuPluginBase.obj
 0002:0000f20c       $cppxdata$?RunExternalProgramW@CPluginBase@@SA_NPEA_W0_N@Z 000000018004220c     ConEmuPluginBase.obj
 0002:0000f215       $stateUnwindMap$?RunExternalProgramW@CPluginBase@@SA_NPEA_W0_N@Z 0000000180042215     ConEmuPluginBase.obj
 0002:0000f227       $ip2state$?RunExternalProgramW@CPluginBase@@SA_NPEA_W0_N@Z 0000000180042227     ConEmuPluginBase.obj
 0002:0000f238       $unwind$?CreateTabs@CPluginBase@@SA_NH@Z 0000000180042238     ConEmuPluginBase.obj
 0002:0000f248       $cppxdata$?CreateTabs@CPluginBase@@SA_NH@Z 0000000180042248     ConEmuPluginBase.obj
 0002:0000f251       $ip2state$?CreateTabs@CPluginBase@@SA_NH@Z 0000000180042251     ConEmuPluginBase.obj
 0002:0000f258       $unwind$?AddTab@CPluginBase@@QEAA_NAEAHH_N1HPEB_W2HHHH@Z 0000000180042258     ConEmuPluginBase.obj
 0002:0000f27c       $unwind$?SendTabs@CPluginBase@@SAXH_N@Z 000000018004227c     ConEmuPluginBase.obj
 0002:0000f290       $cppxdata$?SendTabs@CPluginBase@@SAXH_N@Z 0000000180042290     ConEmuPluginBase.obj
 0002:0000f299       $ip2state$?SendTabs@CPluginBase@@SAXH_N@Z 0000000180042299     ConEmuPluginBase.obj
 0002:0000f2a4       $unwind$?CloseTabs@CPluginBase@@SAXXZ 00000001800422a4     ConEmuPluginBase.obj
 0002:0000f2b4       $unwind$?LoadPanelTabsFromRegistry@CPluginBase@@IEAAXXZ 00000001800422b4     ConEmuPluginBase.obj
 0002:0000f2c0       $unwind$?Plugin@@YAPEAVCPluginBase@@XZ 00000001800422c0     ConEmuPluginBase.obj
 0002:0000f2d0       $cppxdata$?Plugin@@YAPEAVCPluginBase@@XZ 00000001800422d0     ConEmuPluginBase.obj
 0002:0000f2d9       $stateUnwindMap$?Plugin@@YAPEAVCPluginBase@@XZ 00000001800422d9     ConEmuPluginBase.obj
 0002:0000f2ee       $ip2state$?Plugin@@YAPEAVCPluginBase@@XZ 00000001800422ee     ConEmuPluginBase.obj
 0002:0000f304       $unwind$?LoadModuleVersion@@YA_NPEB_WAEAUtagVS_FIXEDFILEINFO@@PEA_W_K@Z 0000000180042304     ConEmuPluginBase.obj
 0002:0000f324       $unwind$?LoadFarVersion@@YA_NAEAUFarVersion@@AEAY0CAA@_W@Z 0000000180042324     ConEmuPluginBase.obj
 0002:0000f340       $unwind$??1MWow64Disable@@QEAA@XZ 0000000180042340     ConEmuPluginBase.obj
 0002:0000f350       $cppxdata$??1MWow64Disable@@QEAA@XZ 0000000180042350     ConEmuPluginBase.obj
 0002:0000f355       $ip2state$??1MWow64Disable@@QEAA@XZ 0000000180042355     ConEmuPluginBase.obj
 0002:0000f358       $unwind$?InternalOpenCreate@?$MFileMapping@UCESERVER_CONSOLE_MAPPING_HDR@@@@IEAAPEAUCESERVER_CONSOLE_MAPPING_HDR@@_N0H@Z 0000000180042358     ConEmuPluginBase.obj
 0002:0000f358       $unwind$?InternalOpenCreate@?$MFileMapping@UPanelViewSetMapping@@@@IEAAPEAUPanelViewSetMapping@@_N0H@Z 0000000180042358     PluginBackground.obj
 0002:0000f358       $unwind$__C_specific_handler 0000000180042358     libvcruntime:riscchandler.obj
 0002:0000f358       $unwind$?InternalOpenCreate@?$MFileMapping@UConEmuGuiMapping@@@@IEAAPEAUConEmuGuiMapping@@_N0H@Z 0000000180042358     common-kernel64:ConEmuCheck.obj
 0002:0000f374       $unwind$?LoadThSet@CPluginBackground@@IEAAHH@Z 0000000180042374     PluginBackground.obj
 0002:0000f3a0       $cppxdata$?LoadThSet@CPluginBackground@@IEAAHH@Z 00000001800423a0     PluginBackground.obj
 0002:0000f3a9       $stateUnwindMap$?LoadThSet@CPluginBackground@@IEAAHH@Z 00000001800423a9     PluginBackground.obj
 0002:0000f3b0       $ip2state$?LoadThSet@CPluginBackground@@IEAAHH@Z 00000001800423b0     PluginBackground.obj
 0002:0000f3b8       $unwind$?UpdateBackground@CPluginBackground@@IEAAXXZ 00000001800423b8     PluginBackground.obj
 0002:0000f3e4       $cppxdata$?UpdateBackground@CPluginBackground@@IEAAXXZ 00000001800423e4     PluginBackground.obj
 0002:0000f3ed       $stateUnwindMap$?UpdateBackground@CPluginBackground@@IEAAXXZ 00000001800423ed     PluginBackground.obj
 0002:0000f3f4       $ip2state$?UpdateBackground@CPluginBackground@@IEAAXXZ 00000001800423f4     PluginBackground.obj
 0002:0000f400       $unwind$??0CPluginBackground@@QEAA@XZ 0000000180042400     PluginBackground.obj
 0002:0000f41c       $cppxdata$??0CPluginBackground@@QEAA@XZ 000000018004241c     PluginBackground.obj
 0002:0000f425       $stateUnwindMap$??0CPluginBackground@@QEAA@XZ 0000000180042425     PluginBackground.obj
 0002:0000f42b       $ip2state$??0CPluginBackground@@QEAA@XZ 000000018004242b     PluginBackground.obj
 0002:0000f434       $unwind$??1CPluginBackground@@QEAA@XZ 0000000180042434     PluginBackground.obj
 0002:0000f44c       $cppxdata$??1CPluginBackground@@QEAA@XZ 000000018004244c     PluginBackground.obj
 0002:0000f451       $ip2state$??1CPluginBackground@@QEAA@XZ 0000000180042451     PluginBackground.obj
 0002:0000f454       $unwind$?RegisterSubplugin@CPluginBackground@@QEAAHPEAURegisterBackgroundArg@@@Z 0000000180042454     PluginBackground.obj
 0002:0000f470       $cppxdata$?RegisterSubplugin@CPluginBackground@@QEAAHPEAURegisterBackgroundArg@@@Z 0000000180042470     PluginBackground.obj
 0002:0000f479       $ip2state$?RegisterSubplugin@CPluginBackground@@QEAAHPEAURegisterBackgroundArg@@@Z 0000000180042479     PluginBackground.obj
 0002:0000f484       $unwind$?GetTo@?$MFileMapping@UPanelViewSetMapping@@@@QEAA_NPEAUPanelViewSetMapping@@H@Z 0000000180042484     PluginBackground.obj
 0002:0000f4a4       $unwind$?PlugServerStart@@YA_NXZ 00000001800424a4     PluginSrv.obj
 0002:0000f4ac       $unwind$?PlugServerCommand@@YAHPEAXPEAUCESERVER_REQ@@AEAPEAU1@AEAK3_J@Z 00000001800424ac     PluginSrv.obj
 0002:0000f4d0       $cppxdata$?PlugServerCommand@@YAHPEAXPEAUCESERVER_REQ@@AEAPEAU1@AEAK3_J@Z 00000001800424d0     PluginSrv.obj
 0002:0000f4d9       $stateUnwindMap$?PlugServerCommand@@YAHPEAXPEAUCESERVER_REQ@@AEAPEAU1@AEAK3_J@Z 00000001800424d9     PluginSrv.obj
 0002:0000f4e6       $ip2state$?PlugServerCommand@@YAHPEAXPEAUCESERVER_REQ@@AEAPEAU1@AEAK3_J@Z 00000001800424e6     PluginSrv.obj
 0002:0000f4f8       $unwind$?PlugServerFree@@YAXPEAUCESERVER_REQ@@_J@Z 00000001800424f8     PluginSrv.obj
 0002:0000f4f8       $unwind$_putwch_nolock     00000001800424f8     libucrt:putwch.obj
 0002:0000f500       $unwind$?DumpError@?$PipeServer@UCESERVER_REQ@@@@IEAAXPEAUPipeInst@1@PEB_WH@Z 0000000180042500     PluginSrv.obj
 0002:0000f51c       $unwind$?PipeServerRead@?$PipeServer@UCESERVER_REQ@@@@IEAAHPEAUPipeInst@1@@Z 000000018004251c     PluginSrv.obj
 0002:0000f540       $unwind$?PipeServerWrite@?$PipeServer@UCESERVER_REQ@@@@IEAAHPEAUPipeInst@1@PEBXKPEAKH@Z 0000000180042540     PluginSrv.obj
 0002:0000f55c       $unwind$?WaitForClient@?$PipeServer@UCESERVER_REQ@@@@IEAA_NPEAUPipeInst@1@AEAH1@Z 000000018004255c     PluginSrv.obj
 0002:0000f578       $unwind$?WriteDummyAnswer@?$PipeServer@UCESERVER_REQ@@@@IEAAHPEAUPipeInst@1@@Z 0000000180042578     PluginSrv.obj
 0002:0000f58c       $unwind$?PipeServerThread@?$PipeServer@UCESERVER_REQ@@@@IEAAKPEAUPipeInst@1@@Z 000000018004258c     PluginSrv.obj
 0002:0000f5a4       $unwind$?StartPipeInstance@?$PipeServer@UCESERVER_REQ@@@@IEAA_NPEAUPipeInst@1@@Z 00000001800425a4     PluginSrv.obj
 0002:0000f5bc       $unwind$?StartPipeServer@?$PipeServer@UCESERVER_REQ@@@@QEAA_N_NPEB_W_JPEAU_SECURITY_ATTRIBUTES@@P6AHPEAXPEAUCESERVER_REQ@@AEAPEAU3@AEAK72@ZP6AX52@ZP6AH42@ZP6AH42@ZP6AH42@Z@Z 00000001800425bc     PluginSrv.obj
 0002:0000f5bc       $unwind$__GSHandlerCheck_EH4 00000001800425bc     LIBCMT:gshandlereh4.obj
 0002:0000f5bc       $unwind$__GSHandlerCheck_SEH 00000001800425bc     LIBCMT:gshandlerseh.obj
 0002:0000f5bc       $unwind$??$TypeMatchHelper@V__FrameHandler3@@@@YAHPEBU_s_HandlerType@@PEBU_s_CatchableType@@PEBU_s_ThrowInfo@@@Z 00000001800425bc     libvcruntime:frame.obj
 0002:0000f5bc       $unwind$??$TypeMatchHelper@V__FrameHandler4@@@@YAHPEAUHandlerType4@FH4@@PEBU_s_CatchableType@@PEBU_s_ThrowInfo@@@Z 00000001800425bc     libvcruntime:frame.obj
 0002:0000f5bc       $unwind$?initialize_stdio_handles_nolock@@YAXXZ 00000001800425bc     libucrt:ioinit.obj
 0002:0000f5bc       $unwind$__acrt_initialize_stdio 00000001800425bc     libucrt:_file.obj
 0002:0000f5bc       $unwind$?process@?$output_processor@_WV?$string_output_adapter@_W@__crt_stdio_output@@V?$standard_base@_WV?$string_output_adapter@_W@__crt_stdio_output@@@2@@__crt_stdio_output@@QEAAHXZ 00000001800425bc     libucrt:output.obj
 0002:0000f5bc       $unwind$?type_case_integer@?$output_processor@DV?$string_output_adapter@D@__crt_stdio_output@@V?$standard_base@DV?$string_output_adapter@D@__crt_stdio_output@@@2@@__crt_stdio_output@@AEAA_NI_N@Z 00000001800425bc     libucrt:output.obj
 0002:0000f5bc       $unwind$?type_case_integer@?$output_processor@_WV?$string_output_adapter@_W@__crt_stdio_output@@V?$standard_base@_WV?$string_output_adapter@_W@__crt_stdio_output@@@2@@__crt_stdio_output@@AEAA_NI_N@Z 00000001800425bc     libucrt:output.obj
 0002:0000f5bc       $unwind$?ExecuteNewCmd@@YA_NAEAPEAUCESERVER_REQ@@AEAKK_K@Z 00000001800425bc     common-kernel64:ConEmuCheck.obj
 0002:0000f5bc       $unwind$?WaitUnlocked@MSection@@IEAAXKK@Z 00000001800425bc     common-kernel64:MSection.obj
 0002:0000f5d4       $unwind$?GetConEmuHWND@@YAPEAUHWND__@@H@Z 00000001800425d4     common-kernel64:ConEmuCheck.obj
 0002:0000f5f0       $unwind$?isConsoleWindow@@YA_NPEAUHWND__@@@Z 00000001800425f0     common-kernel64:ConEmuCheck.obj
 0002:0000f608       $unwind$?GuiMessageBox@@YAHPEAUHWND__@@PEB_W1H@Z 0000000180042608     common-kernel64:ConEmuCheck.obj
 0002:0000f628       $unwind$?ExecuteOpenPipe@@YAPEAXPEB_WAEAY0CAI@_W0KKHPEAXH@Z 0000000180042628     common-kernel64:ConEmuCheck.obj
 0002:0000f640       $unwind$__scrt_dllmain_exception_filter 0000000180042640     LIBCMT:utility.obj
 0002:0000f640       $unwind$?Is_bad_exception_allowed@@YAEPEBU_s_ESTypeList@@@Z 0000000180042640     libvcruntime:frame.obj
 0002:0000f640       $unwind$_ischartype_l      0000000180042640     libucrt:strtox.obj
 0002:0000f640       $unwind$_recalloc_base     0000000180042640     libucrt:recalloc.obj
 0002:0000f640       $unwind$__acrt_free_locale 0000000180042640     libucrt:locale_refcounting.obj
 0002:0000f640       $unwind$__acrt_lowio_create_handle_array 0000000180042640     libucrt:osfinfo.obj
 0002:0000f640       $unwind$?setSBCS@@YAXPEAU__crt_multibyte_data@@@Z 0000000180042640     libucrt:mbctype.obj
 0002:0000f640       $unwind$_seh_filter_exe    0000000180042640     libucrt:exception_filter.obj
 0002:0000f640       $unwind$_initterm          0000000180042640     libucrt:initterm.obj
 0002:0000f640       $unwind$??$ensure_buffer_is_big_enough@D@formatting_buffer@__crt_stdio_output@@QEAA_N_K@Z 0000000180042640     libucrt:output.obj
 0002:0000f640       $unwind$??$ensure_buffer_is_big_enough@_W@formatting_buffer@__crt_stdio_output@@QEAA_N_K@Z 0000000180042640     libucrt:output.obj
 0002:0000f640       $unwind$?Set@CEStr@@QEAAPEB_WPEB_W_J@Z 0000000180042640     common-kernel64:CEStr.obj
 0002:0000f640       $unwind$?SetAt@CEStr@@QEAA_W_J_W@Z 0000000180042640     common-kernel64:CEStr.obj
 0002:0000f640       $unwind$?ExecuteNewCmd@@YAPEAUCESERVER_REQ@@K_K@Z 0000000180042640     common-kernel64:ConEmuCheck.obj
 0002:0000f640       $unwind$?Init@HkFunc@@QEAA_NPEB_WPEAUHINSTANCE__@@@Z 0000000180042640     common-kernel64:HkFunc.obj
 0002:0000f640       $unwind$?AddRef@MSection@@IEAAXK@Z 0000000180042640     common-kernel64:MSection.obj
 0002:0000f640       $unwind$?Lock@MSection@@IEAAHHK@Z 0000000180042640     common-kernel64:MSection.obj
 0002:0000f640       $unwind$?ReleaseRef@MSection@@IEAAHK@Z 0000000180042640     common-kernel64:MSection.obj
 0002:0000f640       $unwind$?lstrdup@@YAPEA_WPEB_W_K@Z 0000000180042640     common-kernel64:MStrDup.obj
 0002:0000f640       $unwind$?IsModuleValid@@YA_NPEAUHINSTANCE__@@H@Z 0000000180042640     common-kernel64:WModuleCheck.obj
 0002:0000f654       $unwind$??$free_environment@D@@YAXQEAPEAD@Z 0000000180042654     libucrt:environment_initialization.obj
 0002:0000f654       $unwind$??$free_environment@_W@@YAXQEAPEA_W@Z 0000000180042654     libucrt:environment_initialization.obj
 0002:0000f654       $unwind$?SetCommand@CESERVER_REQ_NEWCMD@@QEAAXPEB_W@Z 0000000180042654     common-kernel64:Common.obj
 0002:0000f654       $unwind$?ExecutePrepareCmd@@YAXPEAUCESERVER_REQ@@K_K@Z 0000000180042654     common-kernel64:ConEmuCheck.obj
 0002:0000f654       $unwind$?ExecutePrepareCmd@@YAXPEAUCESERVER_REQ_HDR@@K_K@Z 0000000180042654     common-kernel64:ConEmuCheck.obj
 0002:0000f660       $unwind$?ExecuteGuiCmd@@YAPEAUCESERVER_REQ@@PEAUHWND__@@PEAU1@0H@Z 0000000180042660     common-kernel64:ConEmuCheck.obj
 0002:0000f680       $unwind$?ExecuteSrvCmd@@YAPEAUCESERVER_REQ@@KPEAU1@PEAUHWND__@@HKH@Z 0000000180042680     common-kernel64:ConEmuCheck.obj
 0002:0000f6a4       $unwind$?ExecuteCmd@@YAPEAUCESERVER_REQ@@PEB_WPEAU1@KPEAUHWND__@@HKH@Z 00000001800426a4     common-kernel64:ConEmuCheck.obj
 0002:0000f6c8       $unwind$?LoadSrvMapping@@YAHPEAUHWND__@@AEAUCESERVER_CONSOLE_MAPPING_HDR@@@Z 00000001800426c8     common-kernel64:ConEmuCheck.obj
 0002:0000f6e8       $unwind$?ModuleName@@YAPEB_WPEB_W@Z 00000001800426e8     common-kernel64:ConEmuCheck.obj
 0002:0000f6fc       $unwind$?sprintf_c@@YAHPEAD_JPEBDZZ 00000001800426fc     common-kernel64:MStrSafe.obj
 0002:0000f6fc       $unwind$?swprintf_c@@YAHPEA_W_JPEB_WZZ 00000001800426fc     common-kernel64:MStrSafe.obj
 0002:0000f708       $unwind$?msprintf@@YAPEB_WPEA_W_KPEB_WZZ 0000000180042708     common-kernel64:MStrSafe.obj
 0002:0000f710       $unwind$?mvsprintf@@YAPEB_WPEA_W_KPEB_WPEAD@Z 0000000180042710     common-kernel64:MStrSafe.obj
 0002:0000f730       $unwind$?lstrcmpni@@YAHPEB_W0H@Z 0000000180042730     common-kernel64:MStrSafe.obj
 0002:0000f74c       $unwind$?IsFilePath@@YA_NPEB_W_N@Z 000000018004274c     common-kernel64:CmdLine.obj
 0002:0000f764       $unwind$?apiTerminateThreadEx@@YAHPEAXKPEBDH@Z 0000000180042764     common-kernel64:WThreads.obj
 0002:0000f780       $unwind$?SetThreadName@@YAXKPEAD@Z 0000000180042780     common-kernel64:WThreads.obj
 0002:0000f7a0       $unwind$?apiThreadHelper@@YAKPEAX@Z 00000001800427a0     common-kernel64:WThreads.obj
 0002:0000f7b4       $unwind$?lstrmerge@@YAPEA_WPEB_W00000000@Z 00000001800427b4     common-kernel64:MStrDup.obj
 0002:0000f7d4       $unwind$?lstrmerge@@YA_NPEAPEA_WPEB_W1111111@Z 00000001800427d4     common-kernel64:MStrDup.obj
 0002:0000f7e0       $unwind$__std_exception_copy 00000001800427e0     libvcruntime:std_exception.obj
 0002:0000f7e0       $unwind$_free_osfhnd       00000001800427e0     libucrt:osfinfo.obj
 0002:0000f7e0       $unwind$?GetBuffer@CEStr@@QEAAPEA_W_J@Z 00000001800427e0     common-kernel64:CEStr.obj
 0002:0000f7f4       $unwind$?type_case_a@?$output_processor@DV?$string_output_adapter@D@__crt_stdio_output@@V?$standard_base@DV?$string_output_adapter@D@__crt_stdio_output@@@2@@__crt_stdio_output@@AEAA_NXZ 00000001800427f4     libucrt:output.obj
 0002:0000f7f4       $unwind$??0CEStr@@QEAA@PEB_W00000000@Z 00000001800427f4     common-kernel64:CEStr.obj
 0002:0000f800       $unwind$?GetEnvVar@@YA?AUCEStr@@PEB_W@Z 0000000180042800     common-kernel64:EnvVar.obj
 0002:0000f818       $unwind$??$ExpandEnvStr@UCEStr@@_W@?A0x00888f7e@@YA?AUCEStr@@PEB_W_WP6AK0PEA_WK@Z@Z 0000000180042818     common-kernel64:EnvVar.obj
 0002:0000f834       $unwind$?SetEnvStrings@CESERVER_REQ_NEWCMD@@QEAAXPEB_WK@Z 0000000180042834     common-kernel64:Common.obj
 0002:0000f850       $unwind$?LocalSecurity@MNullDesc@@QEAAPEAU_SECURITY_ATTRIBUTES@@XZ 0000000180042850     common-kernel64:MSecurity.obj
 0002:0000f86c       $unwind$iswctype           000000018004286c     libucrt:iswctype.obj
 0002:0000f86c       $unwind$?Close@MHandle@@QEAAXXZ 000000018004286c     common-kernel64:WObjects.obj
 0002:0000f878       $unwind$?FileExists@@YA_NPEB_WPEA_K@Z 0000000180042878     common-kernel64:WObjects.obj
 0002:0000f89c       $unwind$?isTerminalMode@@YA_NXZ 000000018004289c     common-kernel64:MProcess.obj
 0002:0000f8b4       $unwind$__dcrt_lowio_ensure_console_output_initialized 00000001800428b4     libucrt:initcon.obj
 0002:0000f8b4       $unwind$_isleadbyte_l      00000001800428b4     libucrt:_wctype.obj
 0002:0000f8b4       $unwind$?getSystemCP@@YAHH@Z 00000001800428b4     libucrt:mbctype.obj
 0002:0000f8b4       $unwind$?Close@?$MToolHelp@UtagPROCESSENTRY32W@@$1?Process32FirstW@@YAHPEAXPEAU1@@Z$1?Process32NextW@@YAH01@Z@@QEAAXXZ 00000001800428b4     common-kernel64:MProcess.obj
 0002:0000f8bc       $unwind$?Find@?$MToolHelp@UtagPROCESSENTRY32W@@$1?Process32FirstW@@YAHPEAXPEAU1@@Z$1?Process32NextW@@YAH01@Z@@QEAA_NAEBV?$function@$$A6A_NAEBUtagPROCESSENTRY32W@@@Z@std@@AEAUtagPROCESSENTRY32W@@@Z 00000001800428bc     common-kernel64:MProcess.obj
 0002:0000f8d4       $unwind$?Find@MToolHelpProcess@@QEAA_NKAEAUtagPROCESSENTRY32W@@@Z 00000001800428d4     common-kernel64:MProcess.obj
 0002:0000f8e4       $unwind$??$_Emplace_reallocate@AEBUtagPROCESSENTRY32W@@@?$vector@UtagPROCESSENTRY32W@@V?$MArrayAllocator@UtagPROCESSENTRY32W@@@@@std@@QEAAPEAUtagPROCESSENTRY32W@@QEAU2@AEBU2@@Z 00000001800428e4     common-kernel64:MProcess.obj
 0002:0000f900       $unwind$?should_round_up@@YA_NQEBN_KFW4__acrt_rounding_mode@@@Z 0000000180042900     libucrt:cvt.obj
 0002:0000f900       $unwind$??$parse_command_line@D@@YAXPEADPEAPEAD0PEA_K2@Z 0000000180042900     libucrt:argv_parsing.obj
 0002:0000f900       $unwind$?MyEnterCriticalSection@MSection@@IEAA_NK@Z 0000000180042900     common-kernel64:MSection.obj
 0002:0000f900       $unwind$?CheckCallbackPtr@@YA_NPEAUHINSTANCE__@@_KPEAP6A_JXZHHH@Z 0000000180042900     common-kernel64:WModuleCheck.obj
 0002:0000f91c       $unwind$?RecreateAndLock@MSectionSimple@@QEAA_NXZ 000000018004291c     common-kernel64:MSectionSimple.obj
 0002:0000f924       $unwind$?SetConEmuEnvVar@@YAXPEAUHWND__@@@Z 0000000180042924     common-user64:SetEnvVar.obj
 0002:0000f934       $unwind$?SetConEmuEnvHWND@@YAXPEB_WPEAUHWND__@@@Z 0000000180042934     common-user64:SetEnvVar.obj
 0002:0000f944       $unwind$?FindConEmuBaseDir@@YAHAEAY0BAF@_W0PEAUHINSTANCE__@@@Z 0000000180042944     common-user64:ConEmuCheckEx.obj
 0002:0000f96c       $cppxdata$?FindConEmuBaseDir@@YAHAEAY0BAF@_W0PEAUHINSTANCE__@@@Z 000000018004296c     common-user64:ConEmuCheckEx.obj
 0002:0000f975       $stateUnwindMap$?FindConEmuBaseDir@@YAHAEAY0BAF@_W0PEAUHINSTANCE__@@@Z 0000000180042975     common-user64:ConEmuCheckEx.obj
 0002:0000f983       $ip2state$?FindConEmuBaseDir@@YAHAEAY0BAF@_W0PEAUHINSTANCE__@@@Z 0000000180042983     common-user64:ConEmuCheckEx.obj
 0002:0000f990       $unwind$?EvaluateDefaultFontWidth@@YAHHPEB_W@Z 0000000180042990     common-user64:EmergencyShow.obj
 0002:0000f9ac       $unwind$?SetUserFriendlyFont@@YAXPEAUHWND__@@HH@Z 00000001800429ac     common-user64:EmergencyShow.obj
 0002:0000f9d0       $unwind$?CorrectConsolePos@@YAXPEAUHWND__@@@Z 00000001800429d0     common-user64:EmergencyShow.obj
 0002:0000f9e8       $unwind$?EmergencyShow@@YAXPEAUHWND__@@HH@Z 00000001800429e8     common-user64:EmergencyShow.obj
 0002:0000fa04       $unwind$?SearchAppPaths@@YA_NPEB_WAEAUCEStr@@_NPEAVCEnvRestorer@@@Z 0000000180042a04     common-user64:WFiles.obj
 0002:0000fa2c       $cppxdata$?SearchAppPaths@@YA_NPEB_WAEAUCEStr@@_NPEAVCEnvRestorer@@@Z 0000000180042a2c     common-user64:WFiles.obj
 0002:0000fa35       $stateUnwindMap$?SearchAppPaths@@YA_NPEB_WAEAUCEStr@@_NPEAVCEnvRestorer@@@Z 0000000180042a35     common-user64:WFiles.obj
 0002:0000fa58       $ip2state$?SearchAppPaths@@YA_NPEB_WAEAUCEStr@@_NPEAVCEnvRestorer@@@Z 0000000180042a58     common-user64:WFiles.obj
 0002:0000fa70       $unwind$?SetConsoleInfo@@YAHPEAUHWND__@@PEAUCONSOLE_INFO@@@Z 0000000180042a70     common-user64:WConsoleEx.obj
 0002:0000fa8c       $unwind$?GetConsoleSizeInfo@@YAXPEAUCONSOLE_INFO@@@Z 0000000180042a8c     common-user64:WConsoleEx.obj
 0002:0000fa9c       $unwind$?SetConsoleFontSizeTo@@YAXPEAUHWND__@@HHPEB_WGG@Z 0000000180042a9c     common-user64:WConsoleEx.obj
 0002:0000fabc       $unwind$?UpdateComspec@@YAXPEAUConEmuComspec@@_N@Z 0000000180042abc     common-user64:WUser.obj
 0002:0000fae4       $cppxdata$?UpdateComspec@@YAXPEAUConEmuComspec@@_N@Z 0000000180042ae4     common-user64:WUser.obj
 0002:0000faed       $stateUnwindMap$?UpdateComspec@@YAXPEAUConEmuComspec@@_N@Z 0000000180042aed     common-user64:WUser.obj
 0002:0000fb07       $ip2state$?UpdateComspec@@YAXPEAUConEmuComspec@@_N@Z 0000000180042b07     common-user64:WUser.obj
 0002:0000fb18       $unwind$?write_string@?$string_output_adapter@D@__crt_stdio_output@@QEBAXQEBDHQEAHAEAV__crt_deferred_errno_cache@@@Z 0000000180042b18     libucrt:output.obj
 0002:0000fb18       $unwind$?SetEnvVarExpanded@@YAXPEB_W0@Z 0000000180042b18     common-user64:WUser.obj
 0002:0000fb30       $unwind$?RegGetStringValue@@YAHPEAUHKEY__@@PEB_W1AEAUCEStr@@K@Z 0000000180042b30     common-user64:WRegistry.obj
 0002:0000fb48       $xdatasym                  0000000180042b48     LIBCMT:amdsecgs.obj
 0002:0000fb50       $xdatasym                  0000000180042b50     LIBCMT:chkstk.obj
 0002:0000fb58       $unwind$?dllmain_crt_process_attach@@YAHQEAUHINSTANCE__@@QEAX@Z 0000000180042b58     LIBCMT:dll_dllmain.obj
 0002:0000fb94       $unwind$?dllmain_crt_process_detach@@YAH_N@Z 0000000180042b94     LIBCMT:dll_dllmain.obj
 0002:0000fbe8       $unwind$?dllmain_dispatch@@YAHQEAUHINSTANCE__@@KQEAX@Z 0000000180042be8     LIBCMT:dll_dllmain.obj
 0002:0000fc10       $unwind$?filt$0@?0??dllmain_dispatch@@YAHQEAUHINSTANCE__@@KQEAX@Z@4HA 0000000180042c10     LIBCMT:dll_dllmain.obj
 0002:0000fc10       $unwind$?filt$0@?0??FrameUnwindToState@__FrameHandler4@@SAXPEA_KPEAU_xDISPATCHER_CONTEXT@@PEAUFuncInfo4@FH4@@H@Z@4HA 0000000180042c10     libvcruntime:frame.obj
 0002:0000fc10       $unwind$?fin$1@?0??FrameUnwindToState@__FrameHandler4@@SAXPEA_KPEAU_xDISPATCHER_CONTEXT@@PEAUFuncInfo4@FH4@@H@Z@4HA 0000000180042c10     libvcruntime:frame.obj
 0002:0000fc18       $unwind$__scrt_is_nonwritable_in_current_image 0000000180042c18     LIBCMT:utility.obj
 0002:0000fc38       $unwind$__scrt_is_nonwritable_in_current_image$filt$0 0000000180042c38     LIBCMT:utility.obj
 0002:0000fc40       $unwind$__report_securityfailure 0000000180042c40     LIBCMT:gs_report.obj
 0002:0000fc48       $unwind$__report_gsfailure 0000000180042c48     LIBCMT:gs_report.obj
 0002:0000fc50       $unwind$capture_current_context 0000000180042c50     LIBCMT:gs_report.obj
 0002:0000fc5c       $unwind$capture_previous_context 0000000180042c5c     LIBCMT:gs_report.obj
 0002:0000fc68       $unwind$__scrt_fastfail    0000000180042c68     LIBCMT:utility_desktop.obj
 0002:0000fc78       $unwind$__security_init_cookie 0000000180042c78     LIBCMT:gs_support.obj
 0002:0000fc84       $unwind$__isa_available_init 0000000180042c84     LIBCMT:cpu_disp.obj
 0002:0000fc98       $xdatasym                  0000000180042c98     LIBCMT:guard_dispatch.obj
 0002:0000fca0       $xdatasym                  0000000180042ca0     LIBCMT:guard_xfg_dispatch.obj
 0002:0000fca4       $unwind$?DecompFuncInfo@FH4@@YA_JPEAEAEAUFuncInfo4@1@_KH_N@Z 0000000180042ca4     libvcruntime:risctrnsctrl.obj
 0002:0000fcbc       $unwind$?UnwindNestedFrames@__FrameHandler4@@SAXPEA_KPEAUEHExceptionRecord@@PEAU_CONTEXT@@0PEAXPEAUFuncInfo4@FH4@@HHPEAUHandlerType4@5@PEAU_xDISPATCHER_CONTEXT@@E@Z 0000000180042cbc     libvcruntime:risctrnsctrl.obj
 0002:0000fcd0       $unwind$?GetRangeOfTrysToCheck@__FrameHandler4@@SA?AU?$pair@Viterator@TryBlockMap4@FH4@@V123@@std@@AEAVTryBlockMap4@FH4@@HPEAU_xDISPATCHER_CONTEXT@@PEAUFuncInfo4@5@H@Z 0000000180042cd0     libvcruntime:risctrnsctrl.obj
 0002:0000fcec       $unwind$__CxxFrameHandler4 0000000180042cec     libvcruntime:risctrnsctrl.obj
 0002:0000fd00       $unwind$??$_CallSETranslator@V__FrameHandler4@@@@YAHPEAUEHExceptionRecord@@PEA_KPEAU_CONTEXT@@PEAU_xDISPATCHER_CONTEXT@@PEAUFuncInfo4@FH4@@K1H@Z 0000000180042d00     libvcruntime:risctrnsctrl.obj
 0002:0000fd20       $unwind$?filt$0@?0???$_CallSETranslator@V__FrameHandler4@@@@YAHPEAUEHExceptionRecord@@PEA_KPEAU_CONTEXT@@PEAU_xDISPATCHER_CONTEXT@@PEAUFuncInfo4@FH4@@K1H@Z@4HA 0000000180042d20     libvcruntime:risctrnsctrl.obj
 0002:0000fd30       $xdatasym                  0000000180042d30     libvcruntime:memcpy.obj
 0002:0000fd40       $unwind$wcsstr             0000000180042d40     libvcruntime:wcsstr.obj
 0002:0000fd50       $xdatasym                  0000000180042d50     libvcruntime:memset.obj
 0002:0000fd60       $unwind$__DestructExceptionObject 0000000180042d60     libvcruntime:ehhelpers.obj
 0002:0000fd80       $unwind$__DestructExceptionObject$filt$0 0000000180042d80     libvcruntime:ehhelpers.obj
 0002:0000fd80       $unwind$?fin$1@?0??CxxCallCatchBlock@__FrameHandler4@@SAPEAXPEAU_EXCEPTION_RECORD@@@Z@4HA 0000000180042d80     libvcruntime:frame.obj
 0002:0000fd8c       $unwind$_CxxThrowException 0000000180042d8c     libvcruntime:throw.obj
 0002:0000fda0       $xdatasym                  0000000180042da0     libvcruntime:memcmp.obj
 0002:0000fda4       $unwind$?StateFromIp@__FrameHandler4@@SAHPEAUFuncInfo4@FH4@@PEAU_xDISPATCHER_CONTEXT@@_K@Z 0000000180042da4     libvcruntime:ehstate.obj
 0002:0000fdb8       $unwind$?getStartStop@UWMap4@FH4@@QEAAXHHAEAViterator@12@0@Z 0000000180042db8     libvcruntime:frame.obj
 0002:0000fdd0       $unwind$?FrameUnwindToState@__FrameHandler4@@SAXPEA_KPEAU_xDISPATCHER_CONTEXT@@PEAUFuncInfo4@FH4@@H@Z 0000000180042dd0     libvcruntime:frame.obj
 0002:0000fe18       $unwind$?CxxCallCatchBlock@__FrameHandler4@@SAPEAXPEAU_EXCEPTION_RECORD@@@Z 0000000180042e18     libvcruntime:frame.obj
 0002:0000fe74       $unwind$?IsInExceptionSpec@@YAEPEAUEHExceptionRecord@@PEBU_s_ESTypeList@@@Z 0000000180042e74     libvcruntime:frame.obj
 0002:0000fe90       $unwind$??$__InternalCxxFrameHandler@V__FrameHandler4@@@@YA?AW4_EXCEPTION_DISPOSITION@@PEAUEHExceptionRecord@@PEA_KPEAU_CONTEXT@@PEAU_xDISPATCHER_CONTEXT@@PEAUFuncInfo4@FH4@@H1E@Z 0000000180042e90     libvcruntime:frame.obj
 0002:0000fea8       $unwind$??$BuildCatchObjectHelperInternal@V__FrameHandler4@@@@YAHPEAUEHExceptionRecord@@PEAXPEAUHandlerType4@FH4@@PEBU_s_CatchableType@@@Z 0000000180042ea8     libvcruntime:frame.obj
 0002:0000fee8       $unwind$??$BuildCatchObjectInternal@V__FrameHandler4@@@@YAXPEAUEHExceptionRecord@@PEAXPEAUHandlerType4@FH4@@PEBU_s_CatchableType@@@Z 0000000180042ee8     libvcruntime:frame.obj
 0002:0000ff14       $unwind$??$FindHandler@V__FrameHandler4@@@@YAXPEAUEHExceptionRecord@@PEA_KPEAU_CONTEXT@@PEAU_xDISPATCHER_CONTEXT@@PEAUFuncInfo4@FH4@@EH1@Z 0000000180042f14     libvcruntime:frame.obj
 0002:0000ff34       $unwind$??$CatchIt@V__FrameHandler4@@@@YAXPEAUEHExceptionRecord@@PEA_KPEAU_CONTEXT@@PEAU_xDISPATCHER_CONTEXT@@PEAUFuncInfo4@FH4@@PEAUHandlerType4@4@PEBU_s_CatchableType@@PEAUTryBlockMapEntry4@4@H1EE@Z 0000000180042f34     libvcruntime:frame.obj
 0002:0000ff4c       $unwind$??$FindHandlerForForeignException@V__FrameHandler4@@@@YAXPEAUEHExceptionRecord@@PEA_KPEAU_CONTEXT@@PEAU_xDISPATCHER_CONTEXT@@PEAUFuncInfo4@FH4@@HH1@Z 0000000180042f4c     libvcruntime:frame.obj
 0002:0000ff70       $xdatasym                  0000000180042f70     libvcruntime:notify.obj
 0002:0000ff80       $xdatasym                  0000000180042f80     libvcruntime:handlers.obj
 0002:0000ffa0       $unwind$??$common_vsprintf@Vstandard_base@__crt_stdio_output@@D@@YAH_KQEAD0QEBDQEAU__crt_locale_pointers@@1@Z 0000000180042fa0     libucrt:output.obj
 0002:0000ffa0       $unwind$??$common_vsprintf@Vstandard_base@__crt_stdio_output@@_W@@YAH_KQEA_W0QEB_WQEAU__crt_locale_pointers@@QEAD@Z 0000000180042fa0     libucrt:output.obj
 0002:0000ffc0       $unwind$?process@?$output_processor@DV?$string_output_adapter@D@__crt_stdio_output@@V?$standard_base@DV?$string_output_adapter@D@__crt_stdio_output@@@2@@__crt_stdio_output@@QEAAHXZ 0000000180042fc0     libucrt:output.obj
 0002:0000ffd0       $unwind$?parse_int_from_format_string@?$output_processor@DV?$string_output_adapter@D@__crt_stdio_output@@V?$standard_base@DV?$string_output_adapter@D@__crt_stdio_output@@@2@@__crt_stdio_output@@AEAA_NQEAH@Z 0000000180042fd0     libucrt:output.obj
 0002:0000ffe4       $unwind$?state_case_type@?$output_processor@DV?$string_output_adapter@D@__crt_stdio_output@@V?$standard_base@DV?$string_output_adapter@D@__crt_stdio_output@@@2@@__crt_stdio_output@@AEAA_NXZ 0000000180042fe4     libucrt:output.obj
 0002:0000fffc       $unwind$?write_stored_string_tchar@?$output_processor@DV?$string_output_adapter@D@__crt_stdio_output@@V?$standard_base@DV?$string_output_adapter@D@__crt_stdio_output@@@2@@__crt_stdio_output@@AEAA_ND@Z 0000000180042ffc     libucrt:output.obj
 0002:00010014       $unwind$?write_string@?$string_output_adapter@_W@__crt_stdio_output@@QEBAXQEB_WHQEAHAEAV__crt_deferred_errno_cache@@@Z 0000000180043014     libucrt:output.obj
 0002:0001002c       $unwind$?parse_int_from_format_string@?$output_processor@_WV?$string_output_adapter@_W@__crt_stdio_output@@V?$standard_base@_WV?$string_output_adapter@_W@__crt_stdio_output@@@2@@__crt_stdio_output@@AEAA_NQEAH@Z 000000018004302c     libucrt:output.obj
 0002:00010040       $unwind$?state_case_type@?$output_processor@_WV?$string_output_adapter@_W@__crt_stdio_output@@V?$standard_base@_WV?$string_output_adapter@_W@__crt_stdio_output@@@2@@__crt_stdio_output@@AEAA_NXZ 0000000180043040     libucrt:output.obj
 0002:00010064       $unwind$?type_case_c_tchar@?$output_processor@_WV?$string_output_adapter@_W@__crt_stdio_output@@V?$standard_base@_WV?$string_output_adapter@_W@__crt_stdio_output@@@2@@__crt_stdio_output@@AEAA_N_W@Z 0000000180043064     libucrt:output.obj
 0002:00010074       $unwind$?type_case_a@?$output_processor@_WV?$string_output_adapter@_W@__crt_stdio_output@@V?$standard_base@_WV?$string_output_adapter@_W@__crt_stdio_output@@@2@@__crt_stdio_output@@AEAA_NXZ 0000000180043074     libucrt:output.obj
 0002:00010084       $unwind$??$write_multiple_characters@V?$string_output_adapter@D@__crt_stdio_output@@D@__crt_stdio_output@@YAXAEBV?$string_output_adapter@D@0@DHQEAH@Z 0000000180043084     libucrt:output.obj
 0002:00010084       $unwind$??$write_multiple_characters@V?$string_output_adapter@_W@__crt_stdio_output@@D@__crt_stdio_output@@YAXAEBV?$string_output_adapter@_W@0@DHQEAH@Z 0000000180043084     libucrt:output.obj
 0002:00010090       $unwind$??$parse_integer@KV?$c_string_character_source@D@__crt_strtox@@@__crt_strtox@@YAKQEAU__crt_locale_pointers@@V?$c_string_character_source@D@0@H_N@Z 0000000180043090     libucrt:strtox.obj
 0002:000100ac       $unwind$??$parse_integer@KV?$c_string_character_source@_W@__crt_strtox@@@__crt_strtox@@YAKQEAU__crt_locale_pointers@@V?$c_string_character_source@_W@0@H_N@Z 00000001800430ac     libucrt:strtox.obj
 0002:000100c4       $unwind$__acrt_call_reportfault 00000001800430c4     libucrt:invalid_parameter.obj
 0002:000100e4       $unwind$?common_exit@@YAXHW4_crt_exit_cleanup_mode@@W4_crt_exit_return_mode@@@Z 00000001800430e4     libucrt:exit.obj
 0002:000100f0       $unwind$??R<lambda_6e4b09c48022b2350581041d5f6b0c4c>@@QEBA@XZ 00000001800430f0     libucrt:exit.obj
 0002:00010110       $unwind$??$?RV<lambda_d80eeec6fff315bfe5c115232f3240e3>@@AEAV<lambda_6e4b09c48022b2350581041d5f6b0c4c>@@V<lambda_2358e3775559c9db80273638284d5e45>@@@?$__crt_seh_guarded_call@X@@QEAAX$$QEAV<lambda_d80eeec6fff315bfe5c115232f3240e3>@@AEAV<lambda_6e4b09c48022b2350581041d5f6b0c4c>@@$$QEAV<lambda_2358e3775559c9db80273638284d5e45>@@@Z 0000000180043110     libucrt:exit.obj
 0002:00010134       $unwind$_configure_narrow_argv 0000000180043134     libucrt:argv_parsing.obj
 0002:00010148       $unwind$_register_onexit_function 0000000180043148     libucrt:onexit.obj
 0002:00010150       $unwind$_execute_onexit_table 0000000180043150     libucrt:onexit.obj
 0002:00010158       $unwind$??R<lambda_22ebabd17bc4fa466a2aca6d8deb888d>@@QEBAHXZ 0000000180043158     libucrt:onexit.obj
 0002:00010170       $unwind$__acrt_fp_strflt_to_string 0000000180043170     libucrt:_fptostr.obj
 0002:00010170       $unwind$__acrt_DownlevelLocaleNameToLCID 0000000180043170     libucrt:lcidtoname_downlevel.obj
 0002:00010170       $unwind$??R<lambda_f03950bc5685219e0bcd2087efbe011e>@@QEBAHXZ 0000000180043170     libucrt:onexit.obj
 0002:00010188       $unwind$??$?RV<lambda_638799b9deba96c50f710eeac98168cd>@@AEAV<lambda_22ebabd17bc4fa466a2aca6d8deb888d>@@V<lambda_a6f7d7db0129f75315ebf26d50c089f1>@@@?$__crt_seh_guarded_call@H@@QEAAH$$QEAV<lambda_638799b9deba96c50f710eeac98168cd>@@AEAV<lambda_22ebabd17bc4fa466a2aca6d8deb888d>@@$$QEAV<lambda_a6f7d7db0129f75315ebf26d50c089f1>@@@Z 0000000180043188     libucrt:onexit.obj
 0002:000101ac       $unwind$??$?RV<lambda_7777bce6b2f8c936911f934f8298dc43>@@AEAV<lambda_f03950bc5685219e0bcd2087efbe011e>@@V<lambda_3883c3dff614d5e0c5f61bb1ac94921c>@@@?$__crt_seh_guarded_call@H@@QEAAH$$QEAV<lambda_7777bce6b2f8c936911f934f8298dc43>@@AEAV<lambda_f03950bc5685219e0bcd2087efbe011e>@@$$QEAV<lambda_3883c3dff614d5e0c5f61bb1ac94921c>@@@Z 00000001800431ac     libucrt:onexit.obj
 0002:000101d0       $unwind$terminate          00000001800431d0     libucrt:terminate.obj
 0002:000101f0       $xdatasym                  00000001800431f0     libucrt:strncmp.obj
 0002:000101f4       $unwind$_free_base         00000001800431f4     libucrt:free_base.obj
 0002:000101f4       $unwind$?destroy_fls@@YAXPEAX@Z 00000001800431f4     libucrt:per_thread_data.obj
 0002:000101f4       $unwind$__acrt_locale_free_numeric 00000001800431f4     libucrt:initnum.obj
 0002:000101f4       $unwind$__acrt_locale_free_lc_time_if_unreferenced 00000001800431f4     libucrt:locale_refcounting.obj
 0002:000101fc       $unwind$?fp_format_e@@YAHQEBNQEAD_K12H_NIQEAU__crt_locale_pointers@@W4__acrt_rounding_mode@@@Z 00000001800431fc     libucrt:cvt.obj
 0002:000101fc       $unwind$_mbtowc_l          00000001800431fc     libucrt:mbtowc.obj
 0002:000101fc       $unwind$__acrt_LCMapStringEx 00000001800431fc     libucrt:winapi_thunks.obj
 0002:00010210       $unwind$_wctomb_s_l        0000000180043210     libucrt:wctomb.obj
 0002:00010220       $unwind$?construct_ptd_array@@YAXQEAU__acrt_ptd@@@Z 0000000180043220     libucrt:per_thread_data.obj
 0002:00010228       $unwind$?destroy_ptd_array@@YAXQEAU__acrt_ptd@@@Z 0000000180043228     libucrt:per_thread_data.obj
 0002:00010230       $unwind$??$?RV<lambda_0ae27a3a962d80f24befdcbee591983d>@@AEAV<lambda_8d0ee55de4b1038c4002e0adecdf1839>@@V<lambda_dc504788e8f1664fe9b84e20bfb512f2>@@@?$__crt_seh_guarded_call@X@@QEAAX$$QEAV<lambda_0ae27a3a962d80f24befdcbee591983d>@@AEAV<lambda_8d0ee55de4b1038c4002e0adecdf1839>@@$$QEAV<lambda_dc504788e8f1664fe9b84e20bfb512f2>@@@Z 0000000180043230     libucrt:per_thread_data.obj
 0002:00010254       $unwind$??$?RV<lambda_aa87e3671a710a21b5dc78c0bdf72e11>@@AEAV<lambda_92619d2358a28f41a33ba319515a20b9>@@V<lambda_6992ecaafeb10aed2b74cb1fae11a551>@@@?$__crt_seh_guarded_call@X@@QEAAX$$QEAV<lambda_aa87e3671a710a21b5dc78c0bdf72e11>@@AEAV<lambda_92619d2358a28f41a33ba319515a20b9>@@$$QEAV<lambda_6992ecaafeb10aed2b74cb1fae11a551>@@@Z 0000000180043254     libucrt:per_thread_data.obj
 0002:00010278       $unwind$??$?RV<lambda_f2e299630e499de9f9a165e60fcd3db5>@@AEAV<lambda_2ae9d31cdba2644fcbeaf08da7c24588>@@V<lambda_40d01ff24d0e7b3814fdbdcee8eab3c7>@@@?$__crt_seh_guarded_call@X@@QEAAX$$QEAV<lambda_f2e299630e499de9f9a165e60fcd3db5>@@AEAV<lambda_2ae9d31cdba2644fcbeaf08da7c24588>@@$$QEAV<lambda_40d01ff24d0e7b3814fdbdcee8eab3c7>@@@Z 0000000180043278     libucrt:per_thread_data.obj
 0002:0001029c       $unwind$??$?RV<lambda_2d41944a1d46af3157314b8a01080d33>@@AEAV<lambda_8f455de75cd7d7f24b4096f044d8b9e6>@@V<lambda_aa500f224e6afead328df44964fe2772>@@@?$__crt_seh_guarded_call@X@@QEAAX$$QEAV<lambda_2d41944a1d46af3157314b8a01080d33>@@AEAV<lambda_8f455de75cd7d7f24b4096f044d8b9e6>@@$$QEAV<lambda_aa500f224e6afead328df44964fe2772>@@@Z 000000018004329c     libucrt:per_thread_data.obj
 0002:000102c0       $unwind$__acrt_fp_format   00000001800432c0     libucrt:cvt.obj
 0002:000102d8       $unwind$?fp_format_e_internal@@YAHQEAD_KH_NIQEAU_strflt@@2QEAU__crt_locale_pointers@@@Z 00000001800432d8     libucrt:cvt.obj
 0002:000102f0       $unwind$?fp_format_a@@YAHQEBNPEAD_KQEAD2H_NIQEAU__crt_locale_pointers@@W4__acrt_rounding_mode@@@Z 00000001800432f0     libucrt:cvt.obj
 0002:0001030c       $unwind$__dcrt_get_narrow_environment_from_os 000000018004330c     libucrt:get_environment_from_os.obj
 0002:0001030c       $unwind$?fp_format_f_internal@@YAHQEAD_KHQEAU_strflt@@_NQEAU__crt_locale_pointers@@@Z 000000018004330c     libucrt:cvt.obj
 0002:0001030c       $unwind$??$__acrt_wcs_to_mbs_cp@U__crt_win32_buffer_internal_dynamic_resizing@@@@YAHQEB_WAEAV?$__crt_win32_buffer@DU__crt_win32_buffer_internal_dynamic_resizing@@@@I@Z 000000018004330c     libucrt:argv_wildcards.obj
 0002:00010324       $unwind$?fp_format_g@@YAHQEBNQEAD_K12H_NIW4__acrt_rounding_mode@@QEAU__crt_locale_pointers@@@Z 0000000180043324     libucrt:cvt.obj
 0002:00010338       $unwind$__acrt_uninitialize_locale 0000000180043338     libucrt:wsetlocale.obj
 0002:00010338       $unwind$__acrt_get_sigabrt_handler 0000000180043338     libucrt:signal.obj
 0002:00010340       $unwind$??$?RV<lambda_410d79af7f07d98d83a3f525b3859a53>@@AEAV<lambda_3e16ef9562a7dcce91392c22ab16ea36>@@V<lambda_38119f0e861e05405d8a144b9b982f0a>@@@?$__crt_seh_guarded_call@X@@QEAAX$$QEAV<lambda_410d79af7f07d98d83a3f525b3859a53>@@AEAV<lambda_3e16ef9562a7dcce91392c22ab16ea36>@@$$QEAV<lambda_38119f0e861e05405d8a144b9b982f0a>@@@Z 0000000180043340     libucrt:wsetlocale.obj
 0002:00010368       $unwind$__acrt_initialize_lowio 0000000180043368     libucrt:ioinit.obj
 0002:00010388       $unwind$?initialize_inherited_file_handles_nolock@@YAXXZ 0000000180043388     libucrt:ioinit.obj
 0002:000103a4       $unwind$_isctype_l         00000001800433a4     libucrt:isctype.obj
 0002:000103c0       $unwind$??$common_expand_argv_wildcards@D@@YAHQEAPEADQEAPEAPEAD@Z 00000001800433c0     libucrt:argv_wildcards.obj
 0002:000103d8       $unwind$??$copy_and_add_argument_to_buffer@D@@YAHQEBD0_KAEAV?$argument_list@D@?A0x5f5c8891@@@Z 00000001800433d8     libucrt:argv_wildcards.obj
 0002:000103f4       $unwind$??$expand_argument_wildcards@D@@YAHQEAD0AEAV?$argument_list@D@?A0x5f5c8891@@@Z 00000001800433f4     libucrt:argv_wildcards.obj
 0002:00010418       $unwind$__acrt_GetModuleFileNameA 0000000180043418     libucrt:getmodulefilenamea.obj
 0002:00010434       $unwind$__dcrt_write_console 0000000180043434     libucrt:initcon.obj
 0002:00010434       $unwind$??$__acrt_wcs_to_mbs_cp@U__crt_win32_buffer_no_resizing@@@@YAHQEB_WAEAV?$__crt_win32_buffer@DU__crt_win32_buffer_no_resizing@@@@I@Z 0000000180043434     libucrt:getmodulefilenamea.obj
 0002:00010448       $unwind$_setmbcp_nolock    0000000180043448     libucrt:mbctype.obj
 0002:00010468       $unwind$?update_thread_multibyte_data_internal@@YAPEAU__crt_multibyte_data@@QEAU__acrt_ptd@@QEAPEAU1@@Z 0000000180043468     libucrt:mbctype.obj
 0002:00010490       $unwind$?setmbcp_internal@@YAHH_NQEAU__acrt_ptd@@QEAPEAU__crt_multibyte_data@@@Z 0000000180043490     libucrt:mbctype.obj
 0002:000104a0       $unwind$?setSBUpLow@@YAXPEAU__crt_multibyte_data@@@Z 00000001800434a0     libucrt:mbctype.obj
 0002:000104bc       $unwind$??$?RV<lambda_efdfa57d1f175319df784efa44bb7b81>@@AEAV<lambda_5f0a4c1567f8adc6734073e5d1e1b35c>@@V<lambda_2e8a7d3640ea6ccb4c2413664c2db6fd>@@@?$__crt_seh_guarded_call@X@@QEAAX$$QEAV<lambda_efdfa57d1f175319df784efa44bb7b81>@@AEAV<lambda_5f0a4c1567f8adc6734073e5d1e1b35c>@@$$QEAV<lambda_2e8a7d3640ea6ccb4c2413664c2db6fd>@@@Z 00000001800434bc     libucrt:mbctype.obj
 0002:000104e0       $unwind$__acrt_WideCharToMultiByte 00000001800434e0     libucrt:widechartomultibyte.obj
 0002:000104ec       $unwind$__acrt_initialize_winapi_thunks 00000001800434ec     libucrt:winapi_thunks.obj
 0002:000104f4       $unwind$_query_new_handler 00000001800434f4     libucrt:new_handler.obj
 0002:00010514       $unwind$raise              0000000180043514     libucrt:signal.obj
 0002:00010550       $unwind$??$?RV<lambda_450d765d439847d4c735a33c368b5fc0>@@AEAV<lambda_44731a7d0e6d81c3e6aa82d741081786>@@V<lambda_601a2a7da3b7a96e9554ac7215c4b07c>@@@?$__crt_seh_guarded_call@P6AXH@Z@@QEAAP6AXH@Z$$QEAV<lambda_450d765d439847d4c735a33c368b5fc0>@@AEAV<lambda_44731a7d0e6d81c3e6aa82d741081786>@@$$QEAV<lambda_601a2a7da3b7a96e9554ac7215c4b07c>@@@Z 0000000180043550     libucrt:signal.obj
 0002:00010574       $unwind$?common_flush_all@@YAH_N@Z 0000000180043574     libucrt:fflush.obj
 0002:0001057c       $unwind$??$?RV<lambda_842d9ff0dc9ef11c61343bbaebe7f885>@@AEAV<lambda_c5860995281e5c4ce005b3de8f5874ee>@@V<lambda_d90129c13df834fdcbf8d2b88dafcf2d>@@@?$__crt_seh_guarded_call@X@@QEAAX$$QEAV<lambda_842d9ff0dc9ef11c61343bbaebe7f885>@@AEAV<lambda_c5860995281e5c4ce005b3de8f5874ee>@@$$QEAV<lambda_d90129c13df834fdcbf8d2b88dafcf2d>@@@Z 000000018004357c     libucrt:fflush.obj
 0002:000105a0       $unwind$??$?RV<lambda_886d6c58226a84441f68b9f2b8217b83>@@AEAV<lambda_ab61a845afdef5b7c387490eaf3616ee>@@V<lambda_f7f22ab5edc0698d5f6905b0d3f44752>@@@?$__crt_seh_guarded_call@X@@QEAAX$$QEAV<lambda_886d6c58226a84441f68b9f2b8217b83>@@AEAV<lambda_ab61a845afdef5b7c387490eaf3616ee>@@$$QEAV<lambda_f7f22ab5edc0698d5f6905b0d3f44752>@@@Z 00000001800435a0     libucrt:fflush.obj
 0002:000105c8       $unwind$?__mbsrtowcs_utf8@__crt_mbstring@@YA_KPEA_WPEAPEBD_KPEAU_Mbstatet@@@Z 00000001800435c8     libucrt:mbrtowc.obj
 0002:000105e0       $unwind$__acrt_update_thread_locale_data 00000001800435e0     libucrt:locale_refcounting.obj
 0002:00010604       $unwind$__acrt_fltout      0000000180043604     libucrt:cfout.obj
 0002:00010624       $unwind$?divide@__crt_strtox@@YA_KAEAUbig_integer@1@AEBU21@@Z 0000000180043624     libucrt:cfout.obj
 0002:0001063c       $chain$0$?divide@__crt_strtox@@YA_KAEAUbig_integer@1@AEBU21@@Z 000000018004363c     libucrt:cfout.obj
 0002:00010650       $chain$1$?divide@__crt_strtox@@YA_KAEAUbig_integer@1@AEBU21@@Z 0000000180043650     libucrt:cfout.obj
 0002:00010660       $unwind$_fcloseall         0000000180043660     libucrt:closeall.obj
 0002:00010684       $unwind$__acrt_locale_free_monetary 0000000180043684     libucrt:initmon.obj
 0002:0001068c       $unwind$__acrt_locale_free_time 000000018004368c     libucrt:inittime.obj
 0002:0001069c       $unwind$__acrt_GetStringTypeA 000000018004369c     libucrt:getstringtypea.obj
 0002:000106c4       $unwind$__acrt_lowio_destroy_handle_array 00000001800436c4     libucrt:osfinfo.obj
 0002:000106d4       $unwind$__acrt_lowio_ensure_fh_exists 00000001800436d4     libucrt:osfinfo.obj
 0002:00010700       $unwind$qsort              0000000180043700     libucrt:qsort.obj
 0002:00010718       $chain$4$qsort             0000000180043718     libucrt:qsort.obj
 0002:0001073c       $chain$5$qsort             000000018004373c     libucrt:qsort.obj
 0002:0001074c       $unwind$strpbrk            000000018004374c     libucrt:strpbrk.obj
 0002:0001075c       $unwind$__acrt_LCMapStringA 000000018004375c     libucrt:lcmapstringa.obj
 0002:0001076c       $unwind$?__acrt_LCMapStringA_stat@@YAHPEAU__crt_locale_pointers@@PEB_WKPEBDHPEADHHH@Z 000000018004376c     libucrt:lcmapstringa.obj
 0002:00010794       $unwind$_close             0000000180043794     libucrt:close.obj
 0002:00010794       $unwind$_commit            0000000180043794     libucrt:commit.obj
 0002:0001079c       $unwind$??$?RV<lambda_a37b2b86f63e897a80ea819b0eb08c01>@@AEAV<lambda_38ce7e780aa69e748d6df282ebc68efe>@@V<lambda_99fb1378e971ab6e7edea83e3a7a83a2>@@@?$__crt_seh_guarded_call@H@@QEAAH$$QEAV<lambda_a37b2b86f63e897a80ea819b0eb08c01>@@AEAV<lambda_38ce7e780aa69e748d6df282ebc68efe>@@$$QEAV<lambda_99fb1378e971ab6e7edea83e3a7a83a2>@@@Z 000000018004379c     libucrt:commit.obj
 0002:000107c0       $unwind$_write             00000001800437c0     libucrt:write.obj
 0002:000107f0       $unwind$_write_nolock      00000001800437f0     libucrt:write.obj
 0002:00010808       $unwind$?write_double_translated_ansi_nolock@@YA?AUwrite_result@?A0x17268360@@HQEBDI@Z 0000000180043808     libucrt:write.obj
 0002:0001082c       $unwind$?write_text_ansi_nolock@@YA?AUwrite_result@?A0x17268360@@HQEBDI@Z 000000018004382c     libucrt:write.obj
 0002:0001082c       $unwind$?write_text_utf16le_nolock@@YA?AUwrite_result@?A0x17268360@@HQEBDI@Z 000000018004382c     libucrt:write.obj
 0002:0001084c       $unwind$?write_text_utf8_nolock@@YA?AUwrite_result@?A0x17268360@@HQEBDI@Z 000000018004384c     libucrt:write.obj
 0002:00010870       $unwind$?__mbrtoc32_utf8@__crt_mbstring@@YA_KPEA_UPEBD_KPEAU_Mbstatet@@@Z 0000000180043870     libucrt:mbrtoc32.obj
 0002:00010890       $xdatasym                  0000000180043890     libucrt:log10.obj
 0002:0001089c       $unwind$__acrt_fenv_set_control 000000018004389c     libucrt:_fenvutils.obj
 0002:000108ac       $unwind$fclose             00000001800438ac     libucrt:fclose.obj
 0002:000108d0       $unwind$common_control87   00000001800438d0     libucrt:ieee.obj
 0002:000108fc       $unwind$_handle_error      00000001800438fc     libucrt:libm_error.obj
 0002:0001091c       $unwind$__acrt_initialize_fma3 000000018004391c     libucrt:fma3_available.obj
 0002:00010924       $unwind$_log_special_common 0000000180043924     libucrt:log_special.obj
 0002:00010930       $unwind$??$?RV<lambda_751a882b2c74d4b022dec766aa51a29a>@@AEAV<lambda_628dfdc04ba53c8bfc02c9951375f3f5>@@V<lambda_f6c7be5f7998530c34de24c7437d6b54>@@@?$__crt_seh_guarded_call@H@@QEAAH$$QEAV<lambda_751a882b2c74d4b022dec766aa51a29a>@@AEAV<lambda_628dfdc04ba53c8bfc02c9951375f3f5>@@$$QEAV<lambda_f6c7be5f7998530c34de24c7437d6b54>@@@Z 0000000180043930     libucrt:close.obj
 0002:00010958       $xdatasym                  0000000180043958     libucrt:fpsr.obj
 0002:00010960       $unwind$_raise_exc_ex      0000000180043960     libucrt:fpexcept.obj
 0002:00010974       $unwind$_ctrlfp            0000000180043974     libucrt:fpctrl.obj
 0002:0001099c       $unwind$?apiGetConsoleFontSize@@YAHPEAXAEAH1AEAY0CA@_W@Z 000000018004399c     common-kernel64:WConsole.obj
 0002:000109b8       $unwind$?apiSetConsoleFontSize@@YAHPEAXHHPEB_W@Z 00000001800439b8     common-kernel64:WConsole.obj
 0002:000109d4       $unwind$_IsNonwritableInCurrentImage 00000001800439d4     LIBCMT:pesect.obj
 0002:00010c60       .edata                     0000000180043c60     ConEmu.x64.exp
 0002:00010c88       rgpv                       0000000180043c88     ConEmu.x64.exp
 0002:00010cf4       rgszName                   0000000180043cf4     ConEmu.x64.exp
 0002:00010d60       rgwOrd                     0000000180043d60     ConEmu.x64.exp
 0002:00010d96       szName                     0000000180043d96     ConEmu.x64.exp
 0002:00010da5       $N00001                    0000000180043da5     ConEmu.x64.exp
 0002:00010db5       $N00002                    0000000180043db5     ConEmu.x64.exp
 0002:00010dbd       $N00003                    0000000180043dbd     ConEmu.x64.exp
 0002:00010dc9       $N00004                    0000000180043dc9     ConEmu.x64.exp
 0002:00010dd4       $N00005                    0000000180043dd4     ConEmu.x64.exp
 0002:00010de2       $N00006                    0000000180043de2     ConEmu.x64.exp
 0002:00010df3       $N00007                    0000000180043df3     ConEmu.x64.exp
 0002:00010e01       $N00008                    0000000180043e01     ConEmu.x64.exp
 0002:00010e10       $N00009                    0000000180043e10     ConEmu.x64.exp
 0002:00010e20       $N00010                    0000000180043e20     ConEmu.x64.exp
 0002:00010e2b       $N00011                    0000000180043e2b     ConEmu.x64.exp
 0002:00010e31       $N00012                    0000000180043e31     ConEmu.x64.exp
 0002:00010e44       $N00013                    0000000180043e44     ConEmu.x64.exp
 0002:00010e57       $N00014                    0000000180043e57     ConEmu.x64.exp
 0002:00010e6a       $N00015                    0000000180043e6a     ConEmu.x64.exp
 0002:00010e7d       $N00016                    0000000180043e7d     ConEmu.x64.exp
 0002:00010e8f       $N00017                    0000000180043e8f     ConEmu.x64.exp
 0002:00010e9e       $N00018                    0000000180043e9e     ConEmu.x64.exp
 0002:00010eaa       $N00019                    0000000180043eaa     ConEmu.x64.exp
 0002:00010eb3       $N00020                    0000000180043eb3     ConEmu.x64.exp
 0002:00010ec2       $N00021                    0000000180043ec2     ConEmu.x64.exp
 0002:00010ed4       $N00022                    0000000180043ed4     ConEmu.x64.exp
 0002:00010ee0       $N00023                    0000000180043ee0     ConEmu.x64.exp
 0002:00010ef4       $N00024                    0000000180043ef4     ConEmu.x64.exp
 0002:00010f08       $N00025                    0000000180043f08     ConEmu.x64.exp
 0002:00010f1d       $N00026                    0000000180043f1d     ConEmu.x64.exp
 0002:00010f31       $N00027                    0000000180043f31     ConEmu.x64.exp
 0002:00011662       .idata$6                   0000000180044662     version:VERSION.dll
 0002:00011b9c       .idata$6                   0000000180044b9c     kernel32:KERNEL32.dll
 0002:00011caa       .idata$6                   0000000180044caa     user32:USER32.dll
 0002:00011d4a       .idata$6                   0000000180044d4a     gdi32:GDI32.dll
 0002:00011d86       .idata$6                   0000000180044d86     advapi32:ADVAPI32.dll
 0003:00000140       ?val@?CE@??Open@CPluginW2800@@UEAAPEAXPEBX@Z@4UFarMacroValue@@A 0000000180046140     ConEmuPlugin2800.obj
 0003:000002a0       ?__vcrt_flsindex@@3KA      00000001800462a0     libvcruntime:per_thread_data.obj
 0003:000002b0       ?errno_no_memory@@3HA      00000001800462b0     libucrt:errno.obj
 0003:000002b4       ?doserrno_no_memory@@3KA   00000001800462b4     libucrt:errno.obj
 0003:000002c0       ?__acrt_flsindex@@3KA      00000001800462c0     libucrt:per_thread_data.obj
 0003:00000790       _mbctypes                  0000000180046790     libucrt:mbctype.obj
 0003:000008a0       _mbcasemaps                00000001800468a0     libucrt:mbctype.obj
 0003:000009a0       ?__rgctypeflag@@3PADA      00000001800469a0     libucrt:mbctype.obj
 0003:000009b0       ?__rgcode_page_info@@3PAUcode_page_info@@A 00000001800469b0     libucrt:mbctype.obj
 0003:00000c50       ?dazSupported@?1??common_control87@@9@9 0000000180046c50     libucrt:ieee.obj
 0003:00000c60       ?__dcrt_lowio_console_output_handle@@3PEAXEA 0000000180046c60     libucrt:initcon.obj
 0003:00000c70       ?dazSupported@?1??_ctrlfp@@9@9 0000000180046c70     libucrt:fpctrl.obj
 0003:00001170       ?store@?M@??GetPanelInfo@CPluginW1900@@UEAA_NKPEAUCEPanelInfo@@@Z@4UPanelInfo@@A 0000000180047170     ConEmuPlugin1900.obj
 0003:000011e0       ?szMenu@?1??GetPluginInfoPtr@CPluginW1900@@UEAAXPEAX@Z@4PAPEA_WA 00000001800471e0     ConEmuPlugin1900.obj
 0003:000011f0       ?szMenu1@?1??GetPluginInfoPtr@CPluginW1900@@UEAAXPEAX@Z@4PA_WA 00000001800471f0     ConEmuPlugin1900.obj
 0003:000013f0       ?WLastActive@?1??UpdateConEmuTabsApi@CPluginW1900@@UEAA_NH@Z@4UWindowInfo@@A 00000001800473f0     ConEmuPlugin1900.obj
 0003:00001438       ?pwList@@3PEAV?$MArray@UWindowInfo@@@@EA 0000000180047438     ConEmuPlugin2800.obj
 0003:00001440       ?store@?M@??GetPanelInfo@CPluginW2800@@UEAA_NKPEAUCEPanelInfo@@@Z@4UPanelInfo@@A 0000000180047440     ConEmuPlugin2800.obj
 0003:000014a8       ?szMenu@?1??GetPluginInfoPtr@CPluginW2800@@UEAAXPEAX@Z@4PAPEA_WA 00000001800474a8     ConEmuPlugin2800.obj
 0003:000014b0       ?szMenu1@?1??GetPluginInfoPtr@CPluginW2800@@UEAAXPEAX@Z@4PA_WA 00000001800474b0     ConEmuPlugin2800.obj
 0003:000016b0       ?WLastActive@?1??UpdateConEmuTabsApi@CPluginW2800@@UEAA_NH@Z@4UWindowInfo@@A 00000001800476b0     ConEmuPlugin2800.obj
 0003:000016f8       ?rc@?CE@??Open@CPluginW2800@@UEAAPEAXPEBX@Z@4UFarMacroCall@@A 00000001800476f8     ConEmuPlugin2800.obj
 0003:00001730       ?ghSyncDlg@@3PEAXEA        0000000180047730     ConEmuPlugin995.obj
 0003:00001740       ?store@?M@??GetPanelInfo@CPluginW995@@UEAA_NKPEAUCEPanelInfo@@@Z@4UPanelInfo@@A 0000000180047740     ConEmuPlugin995.obj
 0003:00001788       ?szMenu@?1??GetPluginInfoPtr@CPluginW995@@UEAAXPEAX@Z@4PAPEA_WA 0000000180047788     ConEmuPlugin995.obj
 0003:00001790       ?szMenu1@?1??GetPluginInfoPtr@CPluginW995@@UEAAXPEAX@Z@4PA_WA 0000000180047790     ConEmuPlugin995.obj
 0003:000019a0       ?store@?M@??GetPanelInfo@CPluginAnsi@@UEAA_NKPEAUCEPanelInfo@@@Z@4UPanelInfo@@A 00000001800479a0     ConEmuPluginA.obj
 0003:00001ba0       ?szMenu@?1??GetPluginInfoPtr@CPluginAnsi@@UEAAXPEAX@Z@4PAPEADA 0000000180047ba0     ConEmuPluginA.obj
 0003:00001bb0       ?szMenu1@?1??GetPluginInfoPtr@CPluginAnsi@@UEAAXPEAX@Z@4PADA 0000000180047bb0     ConEmuPluginA.obj
 0003:00002f2c       ?gbTryOpenMapHeader@@3HA   0000000180048f2c     ConEmuPluginBase.obj
 0003:00002f30       ?gbStartupHooksAfterMap@@3HA 0000000180048f30     ConEmuPluginBase.obj
 0003:00002f34       ?siEnabled@?1??CheckBufferEnabled@CPluginBase@@QEAA_NXZ@4HA 0000000180048f34     ConEmuPluginBase.obj
