 ConEmu.x64

 Timestamp is 60d4f4dd (Thu Jun 24 23:10:53 2021)

 Preferred load address is 0000000180000000

 Start         Length     Name                   Class
 0001:00000000 00000010H .text$di                CODE
 0001:00000010 000311a0H .text$mn                CODE
 0001:000311b0 00000040H .text$mn$00             CODE
 0001:000311f0 000006e0H .text$x                 CODE
 0001:000318d0 0000003dH .text$yd                CODE
 0002:00000000 00000660H .idata$5                DATA
 0002:00000660 00000028H .00cfg                  DATA
 0002:00000688 00000008H .CRT$XCA                DATA
 0002:00000690 00000008H .CRT$XCU                DATA
 0002:00000698 00000008H .CRT$XCZ                DATA
 0002:000006a0 00000008H .CRT$XIA                DATA
 0002:000006a8 00000020H .CRT$XIC                DATA
 0002:000006c8 00000008H .CRT$XIZ                DATA
 0002:000006d0 00000008H .CRT$XLA                DATA
 0002:000006d8 00000008H .CRT$XLZ                DATA
 0002:000006e0 00000008H .CRT$XPA                DATA
 0002:000006e8 00000010H .CRT$XPX                DATA
 0002:000006f8 00000008H .CRT$XPXA               DATA
 0002:00000700 00000008H .CRT$XPZ                DATA
 0002:00000708 00000008H .CRT$XTA                DATA
 0002:00000710 00000010H .CRT$XTZ                DATA
 0002:00000718 00000000H .gehcont$y              DATA
 0002:00000718 00000000H .gfids$y                DATA
 0002:00000720 0000ce60H .rdata                  DATA
 0002:0000d580 00000000H .rdata$CastGuardVftablesA DATA
 0002:0000d580 00000000H .rdata$CastGuardVftablesC DATA
 0002:0000d580 00000028H .rdata$T                DATA
 0002:0000d5a8 0000097cH .rdata$r                DATA
 0002:0000df24 0000016cH .rdata$voltmd           DATA
 0002:0000e090 00000410H .rdata$zzzdbg           DATA
 0002:0000e4a0 00000008H .rtc$IAA                DATA
 0002:0000e4a8 00000008H .rtc$IZZ                DATA
 0002:0000e4b0 00000008H .rtc$TAA                DATA
 0002:0000e4b8 00000008H .rtc$TZZ                DATA
 0002:0000e4c0 00000004H .tls                    DATA
 0002:0000e4c4 00000004H .tls$                   DATA
 0002:0000e4c8 00000008H .tls$ZZZ                DATA
 0002:0000e4d0 00002698H .xdata                  DATA
 0002:00010b68 00000268H .xdata$x                DATA
 0002:00010dd0 000002e4H .edata                  DATA
 0002:000110b4 00000064H .idata$2                DATA
 0002:00011118 00000018H .idata$3                DATA
 0002:00011130 00000660H .idata$4                DATA
 0002:00011790 00000e82H .idata$6                DATA
 0003:00000000 00000c80H .data                   DATA
 0003:00000c80 000001b0H .data$r                 DATA
 0003:00000e30 000002e0H .data$rs                DATA
 0003:00001110 0000bc30H .bss                    DATA
 0004:00000000 00002898H .pdata                  DATA
 0005:00000000 000000f4H _RDATA                  DATA
 0006:00000000 000000a0H .rsrc$01                DATA
 0006:000000a0 00000490H .rsrc$02                DATA

  Address         Publics by Value              Rva+Base               Lib:Object

 0000:00000000       ___safe_se_handler_table   0000000000000000     <absolute>
 0000:00000000       __arm64x_redirection_metadata 0000000000000000     <absolute>
 0000:00000000       __guard_iat_table          0000000000000000     <absolute>
 0000:00000000       __guard_longjmp_table      0000000000000000     <absolute>
 0000:00000000       __x64_code_ranges_to_entry_points 0000000000000000     <absolute>
 0000:00000000       __guard_iat_count          0000000000000000     <absolute>
 0000:00000000       __guard_longjmp_count      0000000000000000     <absolute>
 0000:00000000       __guard_fids_count         0000000000000000     <absolute>
 0000:00000000       __dynamic_value_reloc_table 0000000000000000     <absolute>
 0000:00000000       __x64_code_ranges_to_entry_points_count 0000000000000000     <absolute>
 0000:00000000       __arm64x_extra_rfe_table   0000000000000000     <absolute>
 0000:00000000       __hybrid_auxiliary_iat     0000000000000000     <absolute>
 0000:00000000       __hybrid_auxiliary_iat_copy 0000000000000000     <absolute>
 0000:00000000       __hybrid_code_map          0000000000000000     <absolute>
 0000:00000000       __arm64x_extra_rfe_table_size 0000000000000000     <absolute>
 0000:00000000       ___safe_se_handler_count   0000000000000000     <absolute>
 0000:00000000       __AbsoluteZero             0000000000000000     <absolute>
 0000:00000000       __guard_check_icall_a64n_fptr 0000000000000000     <absolute>
 0000:00000000       __guard_fids_table         0000000000000000     <absolute>
 0000:00000000       __guard_eh_cont_count      0000000000000000     <absolute>
 0000:00000000       __arm64x_redirection_metadata_count 0000000000000000     <absolute>
 0000:00000000       __enclave_config           0000000000000000     <absolute>
 0000:00000000       __guard_eh_cont_table      0000000000000000     <absolute>
 0000:00000000       __arm64x_native_entrypoint 0000000000000000     <absolute>
 0000:00000000       __hybrid_code_map_count    0000000000000000     <absolute>
 0000:00000100       __guard_flags              0000000000000100     <absolute>
 0000:00000000       __ImageBase                0000000180000000     <linker-defined>
 0001:00000010       ??$swprintf_c@$0EA@@@YAHAEAY0EA@_WPEB_WZZ 0000000180001010 f i ConEmuInjects.obj
 0001:0000003c       ??$swprintf_c@$0IA@@@YAHAEAY0IA@_WPEB_WZZ 000000018000103c f i ConEmuInjects.obj
 0001:00000068       ??$swprintf_c@$0PP@@@YAHAEAY0PP@_WPEB_WZZ 0000000180001068 f i ConEmuInjects.obj
 0001:00000094       ?ShutdownHooks@@YAXXZ      0000000180001094 f   ConEmuInjects.obj
 0001:00000284       ?StartupConsoleHooks@@YAXXZ 0000000180001284 f   ConEmuInjects.obj
 0001:00000310       ?StartupHooks@@YA_NPEAUHINSTANCE__@@@Z 0000000180001310 f   ConEmuInjects.obj
 0001:000006f8       ?StringCchVPrintfW@@YAJPEA_W_KPEB_WPEAD@Z 00000001800016f8 f i ConEmuInjects.obj
 0001:0000079c       __local_stdio_printf_options 000000018000179c f i ConEmuInjects.obj
 0001:000007a4       ?ProcessSynchroEventW3@@YA_JPEAX@Z 00000001800017a4 f   ConEmuPlugin.obj
 0001:000007cc       ?ProcessEditorEventW3@@YA_JPEAX@Z 00000001800017cc f   ConEmuPlugin.obj
 0001:000007f4       ?ProcessViewerEventW3@@YA_JPEAX@Z 00000001800017f4 f   ConEmuPlugin.obj
 0001:0000081c       ?ExitFARW3@@YAXPEAX@Z      000000018000181c f   ConEmuPlugin.obj
 0001:00000874       ExitFARW                   0000000180001874 f   ConEmuPlugin.obj
 0001:000008cc       ?ProcessEditorEvent@@YAHHPEAX@Z 00000001800018cc f   ConEmuPlugin.obj
 0001:000008cc       ProcessEditorEventW        00000001800018cc f   ConEmuPlugin.obj
 0001:000008ec       ProcessSynchroEventW       00000001800018ec f   ConEmuPlugin.obj
 0001:00000918       ?ProcessViewerEvent@@YAHHPEAX@Z 0000000180001918 f   ConEmuPlugin.obj
 0001:00000918       ProcessViewerEventW        0000000180001918 f   ConEmuPlugin.obj
 0001:00000938       ?ActivateConsole@@YAHXZ    0000000180001938 f   ConEmuPlugin.obj
 0001:000009c8       ?ExitFAR@@YAXXZ            00000001800019c8 f   ConEmuPlugin.obj
 0001:00000a20       ?GetFarHWND2@@YAPEAUHWND__@@H@Z 0000000180001a20 f   ConEmuPlugin.obj
 0001:00000a8c       ?GetFarHWND@@YAPEAUHWND__@@XZ 0000000180001a8c f   ConEmuPlugin.obj
 0001:00000a94       ?GetFarVersion@@YAXPEAUFarVersion@@@Z 0000000180001a94 f   ConEmuPlugin.obj
 0001:00000ab0       ?GetMinFarVersion@@YAHXZ   0000000180001ab0 f   ConEmuPlugin.obj
 0001:00000ad8       ?GetPluginInfo@@YAXPEAX@Z  0000000180001ad8 f   ConEmuPlugin.obj
 0001:00000b24       ?GetPluginInfoW@@YAXPEAX@Z 0000000180001b24 f   ConEmuPlugin.obj
 0001:00000b44       ?IsConsoleActive@@YAHXZ    0000000180001b44 f   ConEmuPlugin.obj
 0001:00000b9c       ?IsTerminalMode@@YAHXZ     0000000180001b9c f   ConEmuPlugin.obj
 0001:00000ba4       ?OpenPlugin@@YAPEAXH_J@Z   0000000180001ba4 f   ConEmuPlugin.obj
 0001:00000bd4       ?OpenW@@YAPEAXPEBX@Z       0000000180001bd4 f   ConEmuPlugin.obj
 0001:00000bf8       ?ProcessEditorInput@@YAHPEBU_INPUT_RECORD@@@Z 0000000180001bf8 f   ConEmuPlugin.obj
 0001:00000c1c       ?RegisterBackground@@YAHPEAURegisterBackgroundArg@@@Z 0000000180001c1c f   ConEmuPlugin.obj
 0001:00000c98       ?RegisterPanelView@@YAHPEAUPanelViewInit@@@Z 0000000180001c98 f   ConEmuPlugin.obj
 0001:00000e00       ?SetStartupInfo@@YAXPEAX@Z 0000000180001e00 f   ConEmuPlugin.obj
 0001:00000e5c       ?SetupExportsFar3@@YAXXZ   0000000180001e5c f   ConEmuPlugin.obj
 0001:00000fcc       ?SyncExecute@@YAHPEAUHINSTANCE__@@P6AX_J@Z1@Z 0000000180001fcc f   ConEmuPlugin.obj
 0001:00001018       DllMain                    0000000180002018 f   ConEmuPlugin.obj
 0001:0000103c       GetMinFarVersionW          000000018000203c f   ConEmuPlugin.obj
 0001:00001044       OpenPluginW                0000000180002044 f   ConEmuPlugin.obj
 0001:00001084       ProcessEditorInputW        0000000180002084 f   ConEmuPlugin.obj
 0001:000010a8       SetStartupInfoW            00000001800020a8 f   ConEmuPlugin.obj
 0001:000010d8       ??0CPluginW1900@@QEAA@XZ   00000001800020d8 f   ConEmuPlugin1900.obj
 0001:0000127c       ??_GCPluginW1900@@UEAAPEAXI@Z 000000018000227c f i ConEmuPlugin1900.obj
 0001:0000127c       ??_ECPluginW1900@@UEAAPEAXI@Z 000000018000227c f i ConEmuPlugin1900.obj
 0001:00001784       ?CheckPanelExist@CPluginW1900@@UEAA_NXZ 0000000180002784 f   ConEmuPlugin1900.obj
 0001:000017c0       ?Color2BgIndex@Far3Color@@SAXKHAEAGPEBK@Z 00000001800027c0 f i ConEmuPlugin1900.obj
 0001:000018d4       ?Color2FgIndex@Far3Color@@SAXKAEAGPEBK@Z 00000001800028d4 f i ConEmuPlugin1900.obj
 0001:000019c4       ?ExecuteSynchroApi@CPluginW1900@@UEAA_NXZ 00000001800029c4 f   ConEmuPlugin1900.obj
 0001:000019f8       ?ExitFar@CPluginW1900@@UEAAXXZ 00000001800029f8 f   ConEmuPlugin1900.obj
 0001:00001a80       ?FarColor_3_2@@YAEAEBUFarColor@@_N@Z 0000000180002a80 f i ConEmuPlugin1900.obj
 0001:00001b40       ?GetActiveWindowType@CPluginW1900@@UEAAHXZ 0000000180002b40 f   ConEmuPlugin1900.obj
 0001:00001c0c       ?GetEditorModifiedState@CPluginW1900@@UEAAKXZ 0000000180002c0c f   ConEmuPlugin1900.obj
 0001:00001c68       ?GetFarRect@CPluginW1900@@UEAA_NAEAU_SMALL_RECT@@@Z 0000000180002c68 f   ConEmuPlugin1900.obj
 0001:00001d14       ?GetMacroArea@CPluginW1900@@UEAAHXZ 0000000180002d14 f   ConEmuPlugin1900.obj
 0001:00001d34       ?GetMsg@CPluginW1900@@UEAAPEB_WHPEA_W_K@Z 0000000180002d34 f   ConEmuPlugin1900.obj
 0001:00001da8       ?GetPanelDir@CPluginW1900@@UEAAPEA_WKPEA_WH@Z 0000000180002da8 f   ConEmuPlugin1900.obj
 0001:00001f04       ?GetPanelInfo@CPluginW1900@@UEAA_NKPEAUCEPanelInfo@@@Z 0000000180002f04 f   ConEmuPlugin1900.obj
 0001:000021a4       ?GetPanelItemInfo@CPluginW1900@@UEAA_NAEBUCEPanelInfo@@_N_JAEAU_WIN32_FIND_DATAW@@PEAPEA_W@Z 00000001800031a4 f   ConEmuPlugin1900.obj
 0001:00002354       ?GetPluginInfoPtr@CPluginW1900@@UEAAXPEAX@Z 0000000180003354 f   ConEmuPlugin1900.obj
 0001:000023b0       ?GetWindowCount@CPluginW1900@@UEAAHXZ 00000001800033b0 f   ConEmuPlugin1900.obj
 0001:000023e0       ?GetWindowTypeName@CPluginW1900@@UEAAPEB_WH@Z 00000001800033e0 f   ConEmuPlugin1900.obj
 0001:000023e0       ?GetWindowTypeName@CPluginAnsi@@UEAAPEB_WH@Z 00000001800033e0 f   ConEmuPluginA.obj
 0001:000023e0       ?GetWindowTypeName@CPluginW995@@UEAAPEB_WH@Z 00000001800033e0 f   ConEmuPlugin995.obj
 0001:000023e0       ?GetWindowTypeName@CPluginW2800@@UEAAPEB_WH@Z 00000001800033e0 f   ConEmuPlugin2800.obj
 0001:00002438       ?GuiMacroDlg@CPluginW1900@@UEAAXXZ 0000000180003438 f   ConEmuPlugin1900.obj
 0001:00002440       ?InputBox@CPluginW1900@@UEAA_NPEB_W000AEAPEA_W@Z 0000000180003440 f   ConEmuPlugin1900.obj
 0001:000024f0       ?IsMacroActive@CPluginW1900@@UEAA_NXZ 00000001800034f0 f   ConEmuPlugin1900.obj
 0001:00002534       ?LoadFarColors@CPluginW1900@@UEAAXAEAY0BAA@E@Z 0000000180003534 f   ConEmuPlugin1900.obj
 0001:000026c8       ?LoadFarSettings@CPluginW1900@@UEAAXPEAUCEFarInterfaceSettings@@PEAUCEFarPanelSettings@@@Z 00000001800036c8 f   ConEmuPlugin1900.obj
 0001:00002808       ?Open@CPluginW1900@@UEAAPEAXPEBX@Z 0000000180003808 f   ConEmuPlugin1900.obj
 0001:000028e4       ?OpenEditor@CPluginW1900@@UEAA_NPEB_W_N11HH@Z 00000001800038e4 f   ConEmuPlugin1900.obj
 0001:000029f8       ?PanelControlApi@CPluginW1900@@UEAA_JPEAXH_J0@Z 00000001800039f8 f   ConEmuPlugin1900.obj
 0001:00002a30       ?PostMacroApi@CPluginW1900@@UEAAXPEB_WPEAU_INPUT_RECORD@@_N@Z 0000000180003a30 f   ConEmuPlugin1900.obj
 0001:00002ff0       ?ProcessEditorEventPtr@CPluginW1900@@UEAAHPEAX@Z 0000000180003ff0 f   ConEmuPlugin1900.obj
 0001:00002ff0       ?ProcessEditorEventPtr@CPluginW2800@@UEAAHPEAX@Z 0000000180003ff0 f   ConEmuPlugin2800.obj
 0001:00002ffc       ?ProcessEditorInputPtr@CPluginW1900@@UEAAHPEBX@Z 0000000180003ffc f   ConEmuPlugin1900.obj
 0001:0000301c       ?ProcessSynchroEventPtr@CPluginW1900@@UEAAHPEAX@Z 000000018000401c f   ConEmuPlugin1900.obj
 0001:0000301c       ?ProcessSynchroEventPtr@CPluginW2800@@UEAAHPEAX@Z 000000018000401c f   ConEmuPlugin2800.obj
 0001:00003040       ?ProcessViewerEventPtr@CPluginW1900@@UEAAHPEAX@Z 0000000180004040 f   ConEmuPlugin1900.obj
 0001:00003040       ?ProcessViewerEventPtr@CPluginW2800@@UEAAHPEAX@Z 0000000180004040 f   ConEmuPlugin2800.obj
 0001:0000304c       ?RedrawAll@CPluginW1900@@UEAAXXZ 000000018000404c f   ConEmuPlugin1900.obj
 0001:00003084       ?SetStartupInfoPtr@CPluginW1900@@UEAAXPEAX@Z 0000000180004084 f   ConEmuPlugin1900.obj
 0001:000031d8       ?SetWindow@CPluginW1900@@UEAAXH@Z 00000001800041d8 f   ConEmuPlugin1900.obj
 0001:00003230       ?ShowMessage@CPluginW1900@@UEAAHPEB_WH_N@Z 0000000180004230 f   ConEmuPlugin1900.obj
 0001:00003298       ?ShowPluginMenu@CPluginW1900@@UEAAHPEAUConEmuPluginMenuItem@@HH@Z 0000000180004298 f   ConEmuPlugin1900.obj
 0001:000033e8       ?ShowUserScreen@CPluginW1900@@UEAAX_N@Z 00000001800043e8 f   ConEmuPlugin1900.obj
 0001:00003414       ?WaitEndSynchro@CPluginAnsi@@UEAAXXZ 0000000180004414 f   ConEmuPluginA.obj
 0001:00003414       ?ShutdownPluginStep@CPluginBase@@SAXPEB_WHHHH@Z 0000000180004414 f   ConEmuPluginBase.obj
 0001:00003414       ?StopWaitEndSynchro@CPluginAnsi@@UEAAXXZ 0000000180004414 f   ConEmuPluginA.obj
 0001:00003414       ?WaitEndSynchro@CPluginW1900@@UEAAXXZ 0000000180004414 f   ConEmuPlugin1900.obj
 0001:00003414       ?PlugServerInit@@YAXXZ     0000000180004414 f   PluginSrv.obj
 0001:00003414       ?_Doraise@exception@stdext@@MEBAXXZ 0000000180004414 f   common-kernel64:CEStr.obj
 0001:00003414       ?StopWaitEndSynchro@CPluginW2800@@UEAAXXZ 0000000180004414 f   ConEmuPlugin2800.obj
 0001:00003414       _guard_check_icall_nop     0000000180004414 f   LIBCMT:guard_support.obj
 0001:00003414       ?WaitEndSynchro@CPluginW2800@@UEAAXXZ 0000000180004414 f   ConEmuPlugin2800.obj
 0001:00003414       ?StopWaitEndSynchro@CPluginW1900@@UEAAXXZ 0000000180004414 f   ConEmuPlugin1900.obj
 0001:00003418       ?UpdateConEmuTabsApi@CPluginW1900@@UEAA_NH@Z 0000000180004418 f   ConEmuPlugin1900.obj
 0001:000038e8       ??$_Emplace_reallocate@AEBUWindowInfo@@@?$vector@UWindowInfo@@V?$MArrayAllocator@UWindowInfo@@@@@std@@QEAAPEAUWindowInfo@@QEAU2@AEBU2@@Z 00000001800048e8 f i ConEmuPlugin2800.obj
 0001:00003a8c       ??0CPluginW2800@@QEAA@XZ   0000000180004a8c f   ConEmuPlugin2800.obj
 0001:00003c30       ??0bad_alloc@std@@QEAA@AEBV01@@Z 0000000180004c30 f i ConEmuPlugin2800.obj
 0001:00003c6c       ??0bad_alloc@std@@QEAA@XZ  0000000180004c6c f i ConEmuPlugin2800.obj
 0001:00003c8c       ??0exception@std@@QEAA@AEBV01@@Z 0000000180004c8c f i ConEmuPlugin2800.obj
 0001:00003cc0       ??1?$MArray@UWindowInfo@@@@QEAA@XZ 0000000180004cc0 f i ConEmuPlugin2800.obj
 0001:00003cec       ??1bad_function_call@std@@UEAA@XZ 0000000180004cec f i libcpmt:xthrow.obj
 0001:00003cec       ??1length_error@std@@UEAA@XZ 0000000180004cec f i libcpmt:xthrow.obj
 0001:00003cec       ??1bad_exception@std@@UEAA@XZ 0000000180004cec f i libvcruntime:frame.obj
 0001:00003cec       ??1bad_alloc@std@@UEAA@XZ  0000000180004cec f i ConEmuPlugin2800.obj
 0001:00003d00       ??_GCPluginW2800@@UEAAPEAXI@Z 0000000180004d00 f i ConEmuPlugin2800.obj
 0001:00003d00       ??_ECPluginW2800@@UEAAPEAXI@Z 0000000180004d00 f i ConEmuPlugin2800.obj
 0001:00003d40       ??_Ebad_exception@std@@UEAAPEAXI@Z 0000000180004d40 f i libvcruntime:frame.obj
 0001:00003d40       ??_Ebad_alloc@std@@UEAAPEAXI@Z 0000000180004d40 f i ConEmuPlugin2800.obj
 0001:00003d40       ??_Glogic_error@std@@UEAAPEAXI@Z 0000000180004d40 f i libcpmt:xthrow.obj
 0001:00003d40       ??_Elength_error@std@@UEAAPEAXI@Z 0000000180004d40 f i libcpmt:xthrow.obj
 0001:00003d40       ??_Ebad_function_call@std@@UEAAPEAXI@Z 0000000180004d40 f i libcpmt:xthrow.obj
 0001:00003d40       ??_Gexception@std@@UEAAPEAXI@Z 0000000180004d40 f i ConEmuPlugin2800.obj
 0001:00003d40       ??_Gbad_exception@std@@UEAAPEAXI@Z 0000000180004d40 f i libvcruntime:frame.obj
 0001:00003d40       ??_Eexception@std@@UEAAPEAXI@Z 0000000180004d40 f i ConEmuPlugin2800.obj
 0001:00003d40       ??_Elogic_error@std@@UEAAPEAXI@Z 0000000180004d40 f i libcpmt:xthrow.obj
 0001:00003d40       ??_Gbad_function_call@std@@UEAAPEAXI@Z 0000000180004d40 f i libcpmt:xthrow.obj
 0001:00003d40       ??_Gbad_alloc@std@@UEAAPEAXI@Z 0000000180004d40 f i ConEmuPlugin2800.obj
 0001:00003d40       ??_Glength_error@std@@UEAAPEAXI@Z 0000000180004d40 f i libcpmt:xthrow.obj
 0001:000042d0       ?CheckPanelExist@CPluginW2800@@UEAA_NXZ 00000001800052d0 f   ConEmuPlugin2800.obj
 0001:0000430c       ?ExecuteSynchroApi@CPluginW2800@@UEAA_NXZ 000000018000530c f   ConEmuPlugin2800.obj
 0001:00004340       ?ExitFar@CPluginW2800@@UEAAXXZ 0000000180005340 f   ConEmuPlugin2800.obj
 0001:000043d4       ?GetActiveWindowType@CPluginW2800@@UEAAHXZ 00000001800053d4 f   ConEmuPlugin2800.obj
 0001:000044a8       ?GetEditorModifiedState@CPluginW2800@@UEAAKXZ 00000001800054a8 f   ConEmuPlugin2800.obj
 0001:00004508       ?GetFarRect@CPluginW2800@@UEAA_NAEAU_SMALL_RECT@@@Z 0000000180005508 f   ConEmuPlugin2800.obj
 0001:000045bc       ?GetMacroArea@CPluginW2800@@UEAAHXZ 00000001800055bc f   ConEmuPlugin2800.obj
 0001:000045dc       ?GetMsg@CPluginW2800@@UEAAPEB_WHPEA_W_K@Z 00000001800055dc f   ConEmuPlugin2800.obj
 0001:00004654       ?GetPanelDir@CPluginW2800@@UEAAPEA_WKPEA_WH@Z 0000000180005654 f   ConEmuPlugin2800.obj
 0001:000047b0       ?GetPanelInfo@CPluginW2800@@UEAA_NKPEAUCEPanelInfo@@@Z 00000001800057b0 f   ConEmuPlugin2800.obj
 0001:00004a50       ?GetPanelItemInfo@CPluginW2800@@UEAA_NAEBUCEPanelInfo@@_N_JAEAU_WIN32_FIND_DATAW@@PEAPEA_W@Z 0000000180005a50 f   ConEmuPlugin2800.obj
 0001:00004c18       ?GetPluginInfoPtr@CPluginW2800@@UEAAXPEAX@Z 0000000180005c18 f   ConEmuPlugin2800.obj
 0001:00004c74       ?GetWindowCount@CPluginW2800@@UEAAHXZ 0000000180005c74 f   ConEmuPlugin2800.obj
 0001:00004ca4       ?GuiMacroDlg@CPluginW2800@@UEAAXXZ 0000000180005ca4 f   ConEmuPlugin2800.obj
 0001:00004cac       ?InputBox@CPluginW2800@@UEAA_NPEB_W000AEAPEA_W@Z 0000000180005cac f   ConEmuPlugin2800.obj
 0001:00004d5c       ?IsMacroActive@CPluginW2800@@UEAA_NXZ 0000000180005d5c f   ConEmuPlugin2800.obj
 0001:00004da0       ?LoadFarColors@CPluginW2800@@UEAAXAEAY0BAA@E@Z 0000000180005da0 f   ConEmuPlugin2800.obj
 0001:00004f34       ?LoadFarSettings@CPluginW2800@@UEAAXPEAUCEFarInterfaceSettings@@PEAUCEFarPanelSettings@@@Z 0000000180005f34 f   ConEmuPlugin2800.obj
 0001:00005074       ?Open@CPluginW2800@@UEAAPEAXPEBX@Z 0000000180006074 f   ConEmuPlugin2800.obj
 0001:000051ec       ?OpenEditor@CPluginW2800@@UEAA_NPEB_W_N11HH@Z 00000001800061ec f   ConEmuPlugin2800.obj
 0001:00005310       ?PanelControlApi@CPluginW2800@@UEAA_JPEAXH_J0@Z 0000000180006310 f   ConEmuPlugin2800.obj
 0001:00005348       ?PostMacroApi@CPluginW2800@@UEAAXPEB_WPEAU_INPUT_RECORD@@_N@Z 0000000180006348 f   ConEmuPlugin2800.obj
 0001:000056c0       ?ProcessEditorInputPtr@CPluginW2800@@UEAAHPEBX@Z 00000001800066c0 f   ConEmuPlugin2800.obj
 0001:000056e0       ?RedrawAll@CPluginW2800@@UEAAXXZ 00000001800066e0 f   ConEmuPlugin2800.obj
 0001:00005718       ?SetStartupInfoPtr@CPluginW2800@@UEAAXPEAX@Z 0000000180006718 f   ConEmuPlugin2800.obj
 0001:0000586c       ?SetWindow@CPluginW2800@@UEAAXH@Z 000000018000686c f   ConEmuPlugin2800.obj
 0001:000059a4       ?ShowMessage@CPluginW2800@@UEAAHPEB_WH_N@Z 00000001800069a4 f   ConEmuPlugin2800.obj
 0001:00005a0c       ?ShowPluginMenu@CPluginW2800@@UEAAHPEAUConEmuPluginMenuItem@@HH@Z 0000000180006a0c f   ConEmuPlugin2800.obj
 0001:00005b60       ?ShowUserScreen@CPluginW2800@@UEAAX_N@Z 0000000180006b60 f   ConEmuPlugin2800.obj
 0001:00005b8c       ?UpdateConEmuTabsApi@CPluginW2800@@UEAA_NH@Z 0000000180006b8c f   ConEmuPlugin2800.obj
 0001:00006504       ?_Getal@?$vector@UWindowInfo@@V?$MArrayAllocator@UWindowInfo@@@@@std@@AEAAAEAV?$MArrayAllocator@UWindowInfo@@@@XZ 0000000180007504 f i ConEmuPlugin2800.obj
 0001:00006508       ?_Xlength@?$vector@UWindowInfo@@V?$MArrayAllocator@UWindowInfo@@@@@std@@CAXXZ 0000000180007508 f i ConEmuPlugin2800.obj
 0001:00006508       ?_Xlength@?$vector@UtagPROCESSENTRY32W@@V?$MArrayAllocator@UtagPROCESSENTRY32W@@@@@std@@CAXXZ 0000000180007508 f i common-kernel64:MProcess.obj
 0001:0000651c       ?deallocate@?$MArrayAllocator@UWindowInfo@@@@QEAAXPEAUWindowInfo@@_K@Z 000000018000751c f i ConEmuPlugin2800.obj
 0001:00006534       ?erase@?$MArray@UWindowInfo@@@@QEAAX_J0@Z 0000000180007534 f i ConEmuPlugin2800.obj
 0001:000065c4       ?insert@?$MArray@UWindowInfo@@@@QEAA_J_JAEBUWindowInfo@@0@Z 00000001800075c4 f i ConEmuPlugin2800.obj
 0001:00006660       ?insert@?$vector@UWindowInfo@@V?$MArrayAllocator@UWindowInfo@@@@@std@@QEAA?AV?$_Vector_iterator@V?$_Vector_val@U?$_Simple_types@UWindowInfo@@@std@@@std@@@2@V?$_Vector_const_iterator@V?$_Vector_val@U?$_Simple_types@UWindowInfo@@@std@@@std@@@2@_KAEBUWindowInfo@@@Z 0000000180007660 f i ConEmuPlugin2800.obj
 0001:00006ab4       ?push_back@?$MArray@UWindowInfo@@@@QEAA_JAEBUWindowInfo@@@Z 0000000180007ab4 f i ConEmuPlugin2800.obj
 0001:00006b38       ?what@exception@std@@UEBAPEBDXZ 0000000180007b38 f i ConEmuPlugin2800.obj
 0001:00006b4c       GetGlobalInfoW             0000000180007b4c f   ConEmuPlugin2800.obj
 0001:00006be4       ??0CPluginW995@@QEAA@XZ    0000000180007be4 f   ConEmuPlugin995.obj
 0001:00006d7c       ??_ECPluginW995@@UEAAPEAXI@Z 0000000180007d7c f i ConEmuPlugin995.obj
 0001:00006d7c       ??_GCPluginW995@@UEAAPEAXI@Z 0000000180007d7c f i ConEmuPlugin995.obj
 0001:000071fc       ?CheckPanelExist@CPluginW995@@UEAA_NXZ 00000001800081fc f   ConEmuPlugin995.obj
 0001:00007234       ?ExecuteSynchroApi@CPluginW995@@UEAA_NXZ 0000000180008234 f   ConEmuPlugin995.obj
 0001:00007264       ?ExitFar@CPluginW995@@UEAAXXZ 0000000180008264 f   ConEmuPlugin995.obj
 0001:000072ec       ?GetActiveWindowType@CPluginW995@@UEAAHXZ 00000001800082ec f   ConEmuPlugin995.obj
 0001:000073e4       ?GetEditorModifiedState@CPluginW995@@UEAAKXZ 00000001800083e4 f   ConEmuPlugin995.obj
 0001:0000743c       ?GetFarRect@CPluginW995@@UEAA_NAEAU_SMALL_RECT@@@Z 000000018000843c f   ConEmuPlugin995.obj
 0001:00007494       ?GetMacroArea@CPluginW995@@UEAAHXZ 0000000180008494 f   ConEmuPlugin995.obj
 0001:000074ec       ?GetMsg@CPluginW995@@UEAAPEB_WHPEA_W_K@Z 00000001800084ec f   ConEmuPlugin995.obj
 0001:0000755c       ?GetPanelDir@CPluginW995@@UEAAPEA_WKPEA_WH@Z 000000018000855c f   ConEmuPlugin995.obj
 0001:00007680       ?GetPanelInfo@CPluginW995@@UEAA_NKPEAUCEPanelInfo@@@Z 0000000180008680 f   ConEmuPlugin995.obj
 0001:000078c0       ?GetPanelItemInfo@CPluginW995@@UEAA_NAEBUCEPanelInfo@@_N_JAEAU_WIN32_FIND_DATAW@@PEAPEA_W@Z 00000001800088c0 f   ConEmuPlugin995.obj
 0001:00007a58       ?GetPluginInfoPtr@CPluginW995@@UEAAXPEAX@Z 0000000180008a58 f   ConEmuPlugin995.obj
 0001:00007ac4       ?GetWindowCount@CPluginW995@@UEAAHXZ 0000000180008ac4 f   ConEmuPlugin995.obj
 0001:00007af0       ?GuiMacroDlg@CPluginW995@@UEAAXXZ 0000000180008af0 f   ConEmuPlugin995.obj
 0001:00007af8       ?InputBox@CPluginW995@@UEAA_NPEB_W000AEAPEA_W@Z 0000000180008af8 f   ConEmuPlugin995.obj
 0001:00007ba8       ?IsMacroActive@CPluginW995@@UEAA_NXZ 0000000180008ba8 f   ConEmuPlugin995.obj
 0001:00007c18       ?LoadFarColors@CPluginW995@@UEAAXAEAY0BAA@E@Z 0000000180008c18 f   ConEmuPlugin995.obj
 0001:00007cd4       ?LoadFarSettings@CPluginW995@@UEAAXPEAUCEFarInterfaceSettings@@PEAUCEFarPanelSettings@@@Z 0000000180008cd4 f   ConEmuPlugin995.obj
 0001:00007d30       ?Open@CPluginAnsi@@UEAAPEAXPEBX@Z 0000000180008d30 f i ConEmuPluginA.obj
 0001:00007d30       ?Open@CPluginW995@@UEAAPEAXPEBX@Z 0000000180008d30 f i ConEmuPlugin995.obj
 0001:00007d38       ?OpenEditor@CPluginW995@@UEAA_NPEB_W_N11HH@Z 0000000180008d38 f   ConEmuPlugin995.obj
 0001:00007e40       ?PanelControlApi@CPluginW995@@UEAA_JPEAXH_J0@Z 0000000180008e40 f   ConEmuPlugin995.obj
 0001:00007e84       ?PostMacroApi@CPluginW995@@UEAAXPEB_WPEAU_INPUT_RECORD@@_N@Z 0000000180008e84 f   ConEmuPlugin995.obj
 0001:00007f2c       ?ProcessViewerEventPtr@CPluginW995@@UEAAHPEAX@Z 0000000180008f2c f i ConEmuPlugin995.obj
 0001:00007f2c       ?ProcessSynchroEventPtr@CPluginAnsi@@UEAAHPEAX@Z 0000000180008f2c f i ConEmuPluginA.obj
 0001:00007f2c       ?ProcessViewerEventPtr@CPluginAnsi@@UEAAHPEAX@Z 0000000180008f2c f i ConEmuPluginA.obj
 0001:00007f2c       ?ProcessSynchroEventPtr@CPluginW995@@UEAAHPEAX@Z 0000000180008f2c f i ConEmuPlugin995.obj
 0001:00007f2c       ?ProcessEditorInputPtr@CPluginAnsi@@UEAAHPEBX@Z 0000000180008f2c f i ConEmuPluginA.obj
 0001:00007f2c       ?ProcessEditorEventPtr@CPluginAnsi@@UEAAHPEAX@Z 0000000180008f2c f i ConEmuPluginA.obj
 0001:00007f2c       ?ProcessEditorEventPtr@CPluginW995@@UEAAHPEAX@Z 0000000180008f2c f i ConEmuPlugin995.obj
 0001:00007f30       ?ProcessEditorInputPtr@CPluginW995@@UEAAHPEBX@Z 0000000180008f30 f   ConEmuPlugin995.obj
 0001:00007f4c       ?RedrawAll@CPluginW995@@UEAAXXZ 0000000180008f4c f   ConEmuPlugin995.obj
 0001:00007f7c       ?SetStartupInfoPtr@CPluginW995@@UEAAXPEAX@Z 0000000180008f7c f   ConEmuPlugin995.obj
 0001:000080bc       ?SetWindow@CPluginW995@@UEAAXH@Z 00000001800090bc f   ConEmuPlugin995.obj
 0001:00008108       ?ShowMessage@CPluginW995@@UEAAHPEB_WH_N@Z 0000000180009108 f   ConEmuPlugin995.obj
 0001:00008168       ?ShowPluginMenu@CPluginW995@@UEAAHPEAUConEmuPluginMenuItem@@HH@Z 0000000180009168 f   ConEmuPlugin995.obj
 0001:000082a4       ?ShowUserScreen@CPluginW995@@UEAAX_N@Z 00000001800092a4 f   ConEmuPlugin995.obj
 0001:000082d0       ?StopWaitEndSynchro@CPluginW995@@UEAAXXZ 00000001800092d0 f   ConEmuPlugin995.obj
 0001:00008300       ?UpdateConEmuTabsApi@CPluginW995@@UEAA_NH@Z 0000000180009300 f   ConEmuPlugin995.obj
 0001:00008578       ?WaitEndSynchro@CPluginW995@@UEAAXXZ 0000000180009578 f   ConEmuPlugin995.obj
 0001:00008710       ??0CPluginAnsi@@QEAA@XZ    0000000180009710 f   ConEmuPluginA.obj
 0001:00008874       ??_ECPluginAnsi@@UEAAPEAXI@Z 0000000180009874 f i ConEmuPluginA.obj
 0001:00008874       ??_GCPluginAnsi@@UEAAPEAXI@Z 0000000180009874 f i ConEmuPluginA.obj
 0001:00008e2c       ?CheckPanelExist@CPluginAnsi@@UEAA_NXZ 0000000180009e2c f   ConEmuPluginA.obj
 0001:00008e64       ?GetFarRect@CPluginAnsi@@UEAA_NAEAU_SMALL_RECT@@@Z 0000000180009e64 f i ConEmuPluginA.obj
 0001:00008e64       ?ExecuteSynchroApi@CPluginAnsi@@UEAA_NXZ 0000000180009e64 f i ConEmuPluginA.obj
 0001:00008e68       ?ExitFar@CPluginAnsi@@UEAAXXZ 0000000180009e68 f   ConEmuPluginA.obj
 0001:00008eac       ?GetActiveWindowType@CPluginAnsi@@UEAAHXZ 0000000180009eac f   ConEmuPluginA.obj
 0001:00008f30       ?GetEditorModifiedState@CPluginAnsi@@UEAAKXZ 0000000180009f30 f   ConEmuPluginA.obj
 0001:00008f88       ?GetMacroArea@CPluginAnsi@@UEAAHXZ 0000000180009f88 f   ConEmuPluginA.obj
 0001:00008f88       _get_startup_argv_mode     0000000180009f88 f   LIBCMT:argv_mode.obj
 0001:00008f90       ?GetMsg@CPluginAnsi@@UEAAPEB_WHPEA_W_K@Z 0000000180009f90 f   ConEmuPluginA.obj
 0001:00009030       ?GetPanelDir@CPluginAnsi@@UEAAPEA_WKPEA_WH@Z 000000018000a030 f   ConEmuPluginA.obj
 0001:00009128       ?GetPanelInfo@CPluginAnsi@@UEAA_NKPEAUCEPanelInfo@@@Z 000000018000a128 f   ConEmuPluginA.obj
 0001:00009380       ?GetPanelItemInfo@CPluginAnsi@@UEAA_NAEBUCEPanelInfo@@_N_JAEAU_WIN32_FIND_DATAW@@PEAPEA_W@Z 000000018000a380 f   ConEmuPluginA.obj
 0001:000094a0       ?GetPluginInfoPtr@CPluginAnsi@@UEAAXPEAX@Z 000000018000a4a0 f   ConEmuPluginA.obj
 0001:0000952c       ?GetWindowCount@CPluginAnsi@@UEAAHXZ 000000018000a52c f   ConEmuPluginA.obj
 0001:00009558       ?GuiMacroDlg@CPluginAnsi@@UEAAXXZ 000000018000a558 f   ConEmuPluginA.obj
 0001:00009560       ?InputBox@CPluginAnsi@@UEAA_NPEB_W000AEAPEA_W@Z 000000018000a560 f   ConEmuPluginA.obj
 0001:000096c0       ?IsMacroActive@CPluginAnsi@@UEAA_NXZ 000000018000a6c0 f   ConEmuPluginA.obj
 0001:00009734       ?LoadFarColors@CPluginAnsi@@UEAAXAEAY0BAA@E@Z 000000018000a734 f   ConEmuPluginA.obj
 0001:000097f4       ?LoadFarSettings@CPluginAnsi@@UEAAXPEAUCEFarInterfaceSettings@@PEAUCEFarPanelSettings@@@Z 000000018000a7f4 f   ConEmuPluginA.obj
 0001:00009854       ?OpenEditor@CPluginAnsi@@UEAA_NPEB_W_N11HH@Z 000000018000a854 f   ConEmuPluginA.obj
 0001:00009990       ?PanelControlApi@CPluginAnsi@@UEAA_JPEAXH_J0@Z 000000018000a990 f   ConEmuPluginA.obj
 0001:000099cc       ?PostMacroApi@CPluginAnsi@@UEAAXPEB_WPEAU_INPUT_RECORD@@_N@Z 000000018000a9cc f   ConEmuPluginA.obj
 0001:00009a90       ?RedrawAll@CPluginAnsi@@UEAAXXZ 000000018000aa90 f   ConEmuPluginA.obj
 0001:00009ac4       ?SetStartupInfoPtr@CPluginAnsi@@UEAAXPEAX@Z 000000018000aac4 f   ConEmuPluginA.obj
 0001:00009c08       ?SetWindow@CPluginAnsi@@UEAAXH@Z 000000018000ac08 f   ConEmuPluginA.obj
 0001:00009c5c       ?ShowMessage@CPluginAnsi@@UEAAHPEB_WH_N@Z 000000018000ac5c f   ConEmuPluginA.obj
 0001:00009d38       ?ShowPluginMenu@CPluginAnsi@@UEAAHPEAUConEmuPluginMenuItem@@HH@Z 000000018000ad38 f   ConEmuPluginA.obj
 0001:00009ed4       ?ShowUserScreen@CPluginAnsi@@UEAAX_N@Z 000000018000aed4 f   ConEmuPluginA.obj
 0001:00009f00       ?UpdateConEmuTabsApi@CPluginAnsi@@UEAA_NH@Z 000000018000af00 f   ConEmuPluginA.obj
 0001:0000a1bc       ??$swprintf_c@$0BAE@@@YAHAEAY0BAE@_WPEB_WZZ 000000018000b1bc f i ConEmuPluginBase.obj
 0001:0000a1e8       ??$swprintf_c@$0DAM@@@YAHAEAY0DAM@_WPEB_WZZ 000000018000b1e8 f i ConEmuPluginBase.obj
 0001:0000a214       ??$swprintf_c@$0EAA@@@YAHAEAY0EAA@_WPEB_WZZ 000000018000b214 f i ConEmuPluginBase.obj
 0001:0000a240       ??$swprintf_c@$0MI@@@YAHAEAY0MI@_WPEB_WZZ 000000018000b240 f i ConEmuPluginBase.obj
 0001:0000a26c       ??$wcscpy_c@$0BBE@@@YAHAEAY0BBE@_WPEB_W@Z 000000018000b26c f i ConEmuPluginBase.obj
 0001:0000a2b8       ??$wcscpy_c@$0CAI@@@YAHAEAY0CAI@_WPEB_W@Z 000000018000b2b8 f i ConEmuPluginBase.obj
 0001:0000a304       ??0CPluginBase@@QEAA@XZ    000000018000b304 f   ConEmuPluginBase.obj
 0001:0000a420       ??0MWow64Disable@@QEAA@XZ  000000018000b420 f i ConEmuPluginBase.obj
 0001:0000a494       ??1?$MFileMapping@UCESERVER_CONSOLE_MAPPING_HDR@@@@QEAA@XZ 000000018000b494 f i ConEmuPluginBase.obj
 0001:0000a494       ??1?$MFileMapping@UPanelViewSetMapping@@@@QEAA@XZ 000000018000b494 f i PluginBackground.obj
 0001:0000a494       ??1?$MFileMapping@UConEmuGuiMapping@@@@QEAA@XZ 000000018000b494 f i common-user64:ConEmuCheckEx.obj
 0001:0000a4a8       ??1CPluginBase@@UEAA@XZ    000000018000b4a8 f   ConEmuPluginBase.obj
 0001:0000a4b4       ??1MWow64Disable@@QEAA@XZ  000000018000b4b4 f i ConEmuPluginBase.obj
 0001:0000a4d8       ??_GCPluginBase@@UEAAPEAXI@Z 000000018000b4d8 f i ConEmuPluginBase.obj
 0001:0000a4d8       ??_ECPluginBase@@UEAAPEAXI@Z 000000018000b4d8 f i ConEmuPluginBase.obj
 0001:0000a504       ?ActivatePlugin@CPluginBase@@QEAA_NKPEAXK@Z 000000018000b504 f   ConEmuPluginBase.obj
 0001:0000a6c0       ?AddTab@CPluginBase@@QEAA_NAEAHH_N1HPEB_W2HHHH@Z 000000018000b6c0 f   ConEmuPluginBase.obj
 0001:0000aa24       ?AddTabFinish@CPluginBase@@QEAAXH@Z 000000018000ba24 f   ConEmuPluginBase.obj
 0001:0000aa30       ?Attach2Gui@CPluginBase@@QEAA_N_N@Z 000000018000ba30 f   ConEmuPluginBase.obj
 0001:0000ae58       ?BackgroundMacroError@CPluginBase@@SAKPEAX@Z 000000018000be58 f   ConEmuPluginBase.obj
 0001:0000ae80       ?CheckBufferEnabled@CPluginBase@@QEAA_NXZ 000000018000be80 f   ConEmuPluginBase.obj
 0001:0000aee4       ?CheckConEmuDetached@CPluginBase@@SAXXZ 000000018000bee4 f   ConEmuPluginBase.obj
 0001:0000b0d4       ?CheckResources@CPluginBase@@QEAAX_N@Z 000000018000c0d4 f   ConEmuPluginBase.obj
 0001:0000b2b4       ?CloseMap@?$MFileMapping@UCESERVER_CONSOLE_MAPPING_HDR@@@@QEAAXXZ 000000018000c2b4 f i ConEmuPluginBase.obj
 0001:0000b2b4       ?CloseMap@?$MFileMapping@UConEmuGuiMapping@@@@QEAAXXZ 000000018000c2b4 f i common-kernel64:ConEmuCheck.obj
 0001:0000b2b4       ?CloseMap@?$MFileMapping@UPanelViewSetMapping@@@@QEAAXXZ 000000018000c2b4 f i PluginBackground.obj
 0001:0000b318       ?CloseMapHeader@CPluginBase@@SAXXZ 000000018000c318 f   ConEmuPluginBase.obj
 0001:0000b33c       ?CloseTabs@CPluginBase@@SAXXZ 000000018000c33c f   ConEmuPluginBase.obj
 0001:0000b3dc       ?CommonPluginStartup@CPluginBase@@QEAAXXZ 000000018000c3dc f   ConEmuPluginBase.obj
 0001:0000b4e8       ?CreateTabs@CPluginBase@@SA_NH@Z 000000018000c4e8 f   ConEmuPluginBase.obj
 0001:0000b5a8       ?DllCheckUnique@CPluginBase@@KA_N_N@Z 000000018000c5a8 f   ConEmuPluginBase.obj
 0001:0000b7e4       ?DllMain_ProcessAttach@CPluginBase@@KAXPEAUHINSTANCE__@@@Z 000000018000c7e4 f   ConEmuPluginBase.obj
 0001:0000b8cc       ?DllMain_ProcessDetach@CPluginBase@@KAXXZ 000000018000c8cc f   ConEmuPluginBase.obj
 0001:0000b9b4       ?EditViewConsoleOutput@CPluginBase@@QEAAX_N@Z 000000018000c9b4 f   ConEmuPluginBase.obj
 0001:0000ba80       ?EmergencyShow@CPluginBase@@KAXXZ 000000018000ca80 f   ConEmuPluginBase.obj
 0001:0000badc       ?ExecuteSynchro@CPluginBase@@QEAAXXZ 000000018000cadc f   ConEmuPluginBase.obj
 0001:0000bb5c       ?ExitFarCommon@CPluginBase@@QEAAX_N@Z 000000018000cb5c f   ConEmuPluginBase.obj
 0001:0000bb88       ?FarSetConsoleSize@CPluginBase@@SA_NFF@Z 000000018000cb88 f   ConEmuPluginBase.obj
 0001:0000bc94       ?FillLoadedParm@CPluginBase@@SAXPEAUConEmuLoadedArg@@PEAUHINSTANCE__@@H@Z 000000018000cc94 f   ConEmuPluginBase.obj
 0001:0000bd6c       ?FillUpdateBackground@CPluginBase@@QEAAXPEAUPaintBackgroundArg@@@Z 000000018000cd6c f   ConEmuPluginBase.obj
 0001:0000bee8       ?FindServerCmd@CPluginBase@@QEAA_NKAEAK_N@Z 000000018000cee8 f   ConEmuPluginBase.obj
 0001:0000bfe4       ?GetMainThreadId@CPluginBase@@SAKXZ 000000018000cfe4 f   ConEmuPluginBase.obj
 0001:0000c094       ?GetPanelInfo@CPluginBase@@QEAA_NKPEAUBkPanelInfo@@@Z 000000018000d094 f   ConEmuPluginBase.obj
 0001:0000c138       ?InitHWND@CPluginBase@@SAXXZ 000000018000d138 f   ConEmuPluginBase.obj
 0001:0000c3c8       ?InitResources@CPluginBase@@QEAAXXZ 000000018000d3c8 f   ConEmuPluginBase.obj
 0001:0000c5ec       ?InitRootRegKey@CPluginBase@@IEAAXXZ 000000018000d5ec f   ConEmuPluginBase.obj
 0001:0000c6ec       ?InternalOpenCreate@?$MFileMapping@UConEmuGuiMapping@@@@IEAAPEAUConEmuGuiMapping@@_N0H@Z 000000018000d6ec f i common-kernel64:ConEmuCheck.obj
 0001:0000c6ec       ?InternalOpenCreate@?$MFileMapping@UCESERVER_CONSOLE_MAPPING_HDR@@@@IEAAPEAUCESERVER_CONSOLE_MAPPING_HDR@@_N0H@Z 000000018000d6ec f i ConEmuPluginBase.obj
 0001:0000c6ec       ?InternalOpenCreate@?$MFileMapping@UPanelViewSetMapping@@@@IEAAPEAUPanelViewSetMapping@@_N0H@Z 000000018000d6ec f i PluginBackground.obj
 0001:0000c9a0       ?IsCurrentTabModal@CPluginBase@@QEAA_NXZ 000000018000d9a0 f   ConEmuPluginBase.obj
 0001:0000cb5c       ?LoadFarVersion@CPluginBase@@SA_NXZ 000000018000db5c f   ConEmuPluginBase.obj
 0001:0000ce04       ?LoadPanelTabsFromRegistry@CPluginBase@@IEAAXXZ 000000018000de04 f   ConEmuPluginBase.obj
 0001:0000cf30       ?MonitorThreadProcW@CPluginBase@@SAKPEAX@Z 000000018000df30 f   ConEmuPluginBase.obj
 0001:0000d334       ?NotifyConEmuUnloaded@CPluginBase@@SAXXZ 000000018000e334 f   ConEmuPluginBase.obj
 0001:0000d458       ?OnConsoleDetaching@CPluginBase@@SAHPEAUHookCallbackArg@@@Z 000000018000e458 f   ConEmuPluginBase.obj
 0001:0000d59c       ?OnConsolePeekInput@CPluginBase@@SAHPEAUHookCallbackArg@@@Z 000000018000e59c f   ConEmuPluginBase.obj
 0001:0000d604       ?OnConsolePeekInputPost@CPluginBase@@SAHPEAUHookCallbackArg@@@Z 000000018000e604 f   ConEmuPluginBase.obj
 0001:0000d634       ?OnConsolePeekReadInput@CPluginBase@@SAX_N@Z 000000018000e634 f   ConEmuPluginBase.obj
 0001:0000d828       ?OnConsoleReadInput@CPluginBase@@SAHPEAUHookCallbackArg@@@Z 000000018000e828 f   ConEmuPluginBase.obj
 0001:0000d830       ?OnConsoleReadInputPost@CPluginBase@@SAHPEAUHookCallbackArg@@@Z 000000018000e830 f   ConEmuPluginBase.obj
 0001:0000d9e0       ?OnConsoleReadInputWork@CPluginBase@@SAHPEAUHookCallbackArg@@@Z 000000018000e9e0 f   ConEmuPluginBase.obj
 0001:0000da54       ?OnConsoleWasAttached@CPluginBase@@SAHPEAUHookCallbackArg@@@Z 000000018000ea54 f   ConEmuPluginBase.obj
 0001:0000dabc       ?OnCurDirChanged@CPluginBase@@SAXXZ 000000018000eabc f   ConEmuPluginBase.obj
 0001:0000db18       ?OnGetNumberOfConsoleInputEventsPost@CPluginBase@@SAHPEAUHookCallbackArg@@@Z 000000018000eb18 f   ConEmuPluginBase.obj
 0001:0000db4c       ?OnLibraryLoaded@CPluginBase@@SAXPEAUHINSTANCE__@@@Z 000000018000eb4c f   ConEmuPluginBase.obj
 0001:0000dbec       ?OnMainThreadActivated@CPluginBase@@QEAAXXZ 000000018000ebec f   ConEmuPluginBase.obj
 0001:0000dd90       ?OnPanelViewCallbacks@CPluginBase@@SA_NPEAUHookCallbackArg@@P6AHPEAXPEAU_INPUT_RECORD@@KPEAKPEAH@Z5@Z 000000018000ed90 f   ConEmuPluginBase.obj
 0001:0000de68       ?OnPostWriteConsoleOutput@CPluginBase@@SAHPEAUHookCallbackArg@@@Z 000000018000ee68 f   ConEmuPluginBase.obj
 0001:0000de74       ?OnShellExecuteExW_Except@CPluginBase@@SAHPEAUHookCallbackArg@@@Z 000000018000ee74 f   ConEmuPluginBase.obj
 0001:0000deb4       ?OnWriteConsoleOutput@CPluginBase@@SAHPEAUHookCallbackArg@@@Z 000000018000eeb4 f   ConEmuPluginBase.obj
 0001:0000df88       ?OpenMapHeader@CPluginBase@@SAHXZ 000000018000ef88 f   ConEmuPluginBase.obj
 0001:0000e144       ?OpenPluginCommon@CPluginBase@@QEAAPEAXH_J_N@Z 000000018000f144 f   ConEmuPluginBase.obj
 0001:0000e42c       ?OutDataAlloc@CPluginBase@@SA_NK@Z 000000018000f42c f   ConEmuPluginBase.obj
 0001:0000e48c       ?OutDataRealloc@CPluginBase@@SA_NK@Z 000000018000f48c f   ConEmuPluginBase.obj
 0001:0000e554       ?OutDataWrite@CPluginBase@@SA_NPEAXK@Z 000000018000f554 f   ConEmuPluginBase.obj
 0001:0000e5f4       ?PanelControl@CPluginBase@@QEAA_JPEAXH_J0@Z 000000018000f5f4 f   ConEmuPluginBase.obj
 0001:0000e68c       ?Plugin@@YAPEAVCPluginBase@@XZ 000000018000f68c f   ConEmuPluginBase.obj
 0001:0000e764       ?PrintText@CPluginBase@@QEAA_NPEB_W@Z 000000018000f764 f   ConEmuPluginBase.obj
 0001:0000e880       ?ProcessCommand@CPluginBase@@QEAA_NKHPEAXPEAPEAUCESERVER_REQ@@_N@Z 000000018000f880 f   ConEmuPluginBase.obj
 0001:0000ed20       ?ProcessCommandLine@CPluginBase@@QEAA_NPEA_W@Z 000000018000fd20 f   ConEmuPluginBase.obj
 0001:0000ed6c       ?ProcessDragFrom@CPluginBase@@QEAAXXZ 000000018000fd6c f   ConEmuPluginBase.obj
 0001:0000f1f0       ?ProcessDragTo@CPluginBase@@QEAAXXZ 00000001800101f0 f   ConEmuPluginBase.obj
 0001:0000f500       ?ProcessEditorInputInternal@CPluginBase@@QEAAXAEBU_INPUT_RECORD@@@Z 0000000180010500 f   ConEmuPluginBase.obj
 0001:0000f52c       ?ProcessEditorViewerEvent@CPluginBase@@QEAAHHH@Z 000000018001052c f   ConEmuPluginBase.obj
 0001:0000f5e0       ?ProcessSetWindowCommand@CPluginBase@@QEAAXXZ 00000001800105e0 f   ConEmuPluginBase.obj
 0001:0000f708       ?ProcessSynchroEvent@CPluginBase@@QEAAHHPEAX@Z 0000000180010708 f   ConEmuPluginBase.obj
 0001:0000f78c       ?ReloadFarInfo@CPluginBase@@QEAA_N_N@Z 000000018001078c f   ConEmuPluginBase.obj
 0001:0000fa08       ?ReloadFarInfoApi@CPluginBase@@IEAA_NXZ 0000000180010a08 f   ConEmuPluginBase.obj
 0001:0000fbdc       ?RunExternalProgram@CPluginBase@@QEAA_NPEA_W@Z 0000000180010bdc f   ConEmuPluginBase.obj
 0001:0000fd6c       ?RunExternalProgramW@CPluginBase@@SA_NPEA_W0_N@Z 0000000180010d6c f   ConEmuPluginBase.obj
 0001:0000ffd0       ?SendTabs@CPluginBase@@SAXH_N@Z 0000000180010fd0 f   ConEmuPluginBase.obj
 0001:0001018c       ?SetRootRegKey@CPluginBase@@IEAAXPEA_W@Z 000000018001118c f   ConEmuPluginBase.obj
 0001:00010228       ?ShowConsoleInfo@CPluginBase@@QEAAXXZ 0000000180011228 f   ConEmuPluginBase.obj
 0001:0001042c       ?ShowMessage@CPluginBase@@QEAAHHH@Z 000000018001142c f   ConEmuPluginBase.obj
 0001:000104a8       ?ShowMessageBox@CPluginBase@@KAHPEB_WI@Z 00000001800114a8 f   ConEmuPluginBase.obj
 0001:0001058c       ?ShowMessageGui@CPluginBase@@QEAAHHH@Z 000000018001158c f   ConEmuPluginBase.obj
 0001:00010614       ?ShowPanelsList@CPluginBase@@QEAAXXZ 0000000180011614 f   ConEmuPluginBase.obj
 0001:00010760       ?ShowPluginMenu@CPluginBase@@QEAAXW4PluginCallCommands@@@Z 0000000180011760 f   ConEmuPluginBase.obj
 0001:00010968       ?ShowProtocolWarning@CPluginBase@@KAXXZ 0000000180011968 f   ConEmuPluginBase.obj
 0001:00010ae0       ?ShowTabsList@CPluginBase@@QEAAXXZ 0000000180011ae0 f   ConEmuPluginBase.obj
 0001:00010d68       ?StartDebugger@CPluginBase@@QEAA_NXZ 0000000180011d68 f   ConEmuPluginBase.obj
 0001:0001101c       ?StopThread@CPluginBase@@QEAAX_N@Z 000000018001201c f   ConEmuPluginBase.obj
 0001:00011280       ?StorePanelDirs@CPluginBase@@QEAA_NPEB_W0@Z 0000000180012280 f   ConEmuPluginBase.obj
 0001:000113f0       ?StringCchCatW@@YAJPEA_W_KPEB_W@Z 00000001800123f0 f i ConEmuPluginBase.obj
 0001:000114ac       ?StringCchCopyW@@YAJPEA_W_KPEB_W@Z 00000001800124ac f i ConEmuPluginBase.obj
 0001:00011518       ?SwitchTabCommand@CPluginBase@@QEAAXW4PluginMenuCommands@@@Z 0000000180012518 f   ConEmuPluginBase.obj
 0001:0001159c       ?ToOem@CPluginBase@@SAPEADPEB_W@Z 000000018001259c f   ConEmuPluginBase.obj
 0001:000115f8       ?ToOem@CPluginBase@@SAXPEB_WPEAD_J@Z 00000001800125f8 f   ConEmuPluginBase.obj
 0001:00011638       ?ToUnicode@CPluginBase@@SAPEA_WPEBD@Z 0000000180012638 f   ConEmuPluginBase.obj
 0001:000116b8       ?TouchReadPeekConsoleInputs@CPluginBase@@SAXH@Z 00000001800126b8 f   ConEmuPluginBase.obj
 0001:00011704       ?UngetDummyMouseEvent@CPluginBase@@SA_N_NPEAUHookCallbackArg@@@Z 0000000180012704 f   ConEmuPluginBase.obj
 0001:000118b0       ?UpdateConEmuTabs@CPluginBase@@QEAA_N_N@Z 00000001800128b0 f   ConEmuPluginBase.obj
 0001:00011b30       ?UpdatePanelDirs@CPluginBase@@QEAAXXZ 0000000180012b30 f   ConEmuPluginBase.obj
 0001:00011d00       ?WaitPluginActivation@CPluginBase@@SAKKPEAPEAXHK@Z 0000000180012d00 f   ConEmuPluginBase.obj
 0001:00011e08       ?cmd_CloseQSearch@CPluginBase@@QEAAXXZ 0000000180012e08 f   ConEmuPluginBase.obj
 0001:00011e40       ?cmd_ConSetFont@CPluginBase@@QEAAXPEAX@Z 0000000180012e40 f   ConEmuPluginBase.obj
 0001:00011e94       ?cmd_EMenu@CPluginBase@@QEAAXPEAX@Z 0000000180012e94 f   ConEmuPluginBase.obj
 0001:00011fb0       ?cmd_ExternalCallback@CPluginBase@@QEAA_NPEAX@Z 0000000180012fb0 f   ConEmuPluginBase.obj
 0001:00012014       ?cmd_GuiChanged@CPluginBase@@QEAAXPEAX@Z 0000000180013014 f   ConEmuPluginBase.obj
 0001:000120a0       ?cmd_LeftClickSync@CPluginBase@@QEAAXPEAX@Z 00000001800130a0 f   ConEmuPluginBase.obj
 0001:0001218c       ?cmd_OpenEditorLine@CPluginBase@@QEAA_NPEAUCESERVER_REQ_FAREDITOR@@@Z 000000018001318c f   ConEmuPluginBase.obj
 0001:00012258       ?cmd_RedrawFarCall@CPluginBase@@QEAA_NAEAPEAUCESERVER_REQ@@PEAPEAU2@@Z 0000000180013258 f   ConEmuPluginBase.obj
 0001:0001232c       ?cmd_SetWindow@CPluginBase@@QEAA_NPEAX_N@Z 000000018001332c f   ConEmuPluginBase.obj
 0001:000123b8       ?isMacroActive@CPluginBase@@QEAA_NAEAH@Z 00000001800133b8 f   ConEmuPluginBase.obj
 0001:000123f4       ?isModalEditorViewer@CPluginBase@@QEAA_NXZ 00000001800133f4 f   ConEmuPluginBase.obj
 0001:00012420       ?pcc_Disabled@CPluginBase@@SA_NW4PluginMenuCommands@@@Z 0000000180013420 f   ConEmuPluginBase.obj
 0001:000124a0       ?pcc_Selected@CPluginBase@@SA_NW4PluginMenuCommands@@@Z 00000001800134a0 f   ConEmuPluginBase.obj
 0001:000124fc       ??0CPluginBackground@@QEAA@XZ 00000001800134fc f   PluginBackground.obj
 0001:000126b4       ??1CPluginBackground@@QEAA@XZ 00000001800136b4 f   PluginBackground.obj
 0001:0001281c       ?CheckPanelFolders@CPluginBackground@@IEAAXH@Z 000000018001381c f   PluginBackground.obj
 0001:000128ec       ?GetTo@?$MFileMapping@UPanelViewSetMapping@@@@QEAA_NPEAUPanelViewSetMapping@@H@Z 00000001800138ec f i PluginBackground.obj
 0001:000129bc       ?IsParmChanged@CPluginBackground@@IEAA_NPEAUPaintBackgroundArg@@0@Z 00000001800139bc f   PluginBackground.obj
 0001:00012c34       ?LoadThSet@CPluginBackground@@IEAAHH@Z 0000000180013c34 f   PluginBackground.obj
 0001:00012fa8       ?MonitorBackground@CPluginBackground@@QEAAXXZ 0000000180013fa8 f   PluginBackground.obj
 0001:00013010       ?OnMainThreadActivated@CPluginBackground@@QEAAXHH@Z 0000000180014010 f   PluginBackground.obj
 0001:000130d4       ?ReallocItems@CPluginBackground@@IEAAXH@Z 00000001800140d4 f   PluginBackground.obj
 0001:0001313c       ?RegisterSubplugin@CPluginBackground@@QEAAHPEAURegisterBackgroundArg@@@Z 000000018001413c f   PluginBackground.obj
 0001:000133c8       ?SetDcPanelRect@CPluginBackground@@IEAAXPEAUtagRECT@@PEAUBkPanelInfo@@PEAUPaintBackgroundArg@@@Z 00000001800143c8 f   PluginBackground.obj
 0001:0001349c       ?SetForceThLoad@CPluginBackground@@QEAAXXZ 000000018001449c f   PluginBackground.obj
 0001:000134b4       ?SetForceUpdate@CPluginBackground@@QEAAX_N@Z 00000001800144b4 f   PluginBackground.obj
 0001:000134d4       ?UpdateBackground@CPluginBackground@@IEAAXXZ 00000001800144d4 f   PluginBackground.obj
 0001:00013d48       ?UpdateBackground_Exec@CPluginBackground@@KAXPEAURegisterBackgroundArg@@PEAUPaintBackgroundArg@@@Z 0000000180014d48 f   PluginBackground.obj
 0001:00013d8c       ??$swprintf_c@$09@@YAHAEAY09_WPEB_WZZ 0000000180014d8c f i PluginSrv.obj
 0001:00013db8       ??$wcscpy_c@$0BAE@@@YAHAEAY0BAE@_WPEB_W@Z 0000000180014db8 f i PluginSrv.obj
 0001:00013e04       ?DumpError@?$PipeServer@UCESERVER_REQ@@@@IEAAXPEAUPipeInst@1@PEB_WH@Z 0000000180014e04 f i PluginSrv.obj
 0001:00013f18       ?PipeServerRead@?$PipeServer@UCESERVER_REQ@@@@IEAAHPEAUPipeInst@1@@Z 0000000180014f18 f i PluginSrv.obj
 0001:000141a8       ?PipeServerThread@?$PipeServer@UCESERVER_REQ@@@@IEAAKPEAUPipeInst@1@@Z 00000001800151a8 f i PluginSrv.obj
 0001:00014478       ?PipeServerWrite@?$PipeServer@UCESERVER_REQ@@@@IEAAHPEAUPipeInst@1@PEBXKPEAKH@Z 0000000180015478 f i PluginSrv.obj
 0001:000145a4       ?PlugServerCommand@@YAHPEAXPEAUCESERVER_REQ@@AEAPEAU1@AEAK3_J@Z 00000001800155a4 f   PluginSrv.obj
 0001:00014ab0       ?PlugServerFree@@YAXPEAUCESERVER_REQ@@_J@Z 0000000180015ab0 f   PluginSrv.obj
 0001:00014ac8       ?PlugServerStart@@YA_NXZ   0000000180015ac8 f   PluginSrv.obj
 0001:00014bdc       ?PlugServerStop@@YAX_N@Z   0000000180015bdc f   PluginSrv.obj
 0001:00014c24       ?StartPipeInstance@?$PipeServer@UCESERVER_REQ@@@@IEAA_NPEAUPipeInst@1@@Z 0000000180015c24 f i PluginSrv.obj
 0001:00014db4       ?StartPipeServer@?$PipeServer@UCESERVER_REQ@@@@QEAA_N_NPEB_W_JPEAU_SECURITY_ATTRIBUTES@@P6AHPEAXPEAUCESERVER_REQ@@AEAPEAU3@AEAK72@ZP6AX52@ZP6AH42@ZP6AH42@ZP6AH42@Z@Z 0000000180015db4 f i PluginSrv.obj
 0001:00014f38       ?StopPipeServer@?$PipeServer@UCESERVER_REQ@@@@QEAAX_NAEA_N@Z 0000000180015f38 f i PluginSrv.obj
 0001:000152c0       ?WaitForClient@?$PipeServer@UCESERVER_REQ@@@@IEAA_NPEAUPipeInst@1@AEAH1@Z 00000001800162c0 f i PluginSrv.obj
 0001:000155d8       ?WaitOverlapped@?$PipeServer@UCESERVER_REQ@@@@IEAAHPEAUPipeInst@1@PEAK@Z 00000001800165d8 f i PluginSrv.obj
 0001:000157ac       ?WriteDummyAnswer@?$PipeServer@UCESERVER_REQ@@@@IEAAHPEAUPipeInst@1@@Z 00000001800167ac f i PluginSrv.obj
 0001:0001582c       ?_PipeServerThread@?$PipeServer@UCESERVER_REQ@@@@KAKPEAX@Z 000000018001682c f i PluginSrv.obj
 0001:00015888       ?cmd_FarSetChanged@@YAXPEAUFAR_REQ_FARSETCHANGED@@@Z 0000000180016888 f   PluginSrv.obj
 0001:000158e2       GetFileVersionInfoSizeW    00000001800168e2 f   version:VERSION.dll
 0001:000158e8       GetFileVersionInfoW        00000001800168e8 f   version:VERSION.dll
 0001:000158ee       VerQueryValueW             00000001800168ee f   version:VERSION.dll
 0001:000158f4       CreateToolhelp32Snapshot   00000001800168f4 f   kernel32:KERNEL32.dll
 0001:000158fa       Thread32First              00000001800168fa f   kernel32:KERNEL32.dll
 0001:00015900       Thread32Next               0000000180016900 f   kernel32:KERNEL32.dll
 0001:00015906       Module32FirstW             0000000180016906 f   kernel32:KERNEL32.dll
 0001:0001590c       Module32NextW              000000018001690c f   kernel32:KERNEL32.dll
 0001:00015914       ??2@YAPEAX_K@Z             0000000180016914 f   common-kernel64:Memory.obj
 0001:0001593c       ??_V@YAXPEAX@Z             000000018001693c f   common-kernel64:Memory.obj
 0001:0001593c       ??3@YAXPEAX@Z              000000018001693c f   common-kernel64:Memory.obj
 0001:00015944       ??_U@YAPEAX_K@Z            0000000180016944 f   common-kernel64:Memory.obj
 0001:0001594c       ?HeapDeinitialize@@YAXXZ   000000018001694c f   common-kernel64:Memory.obj
 0001:000159b0       ?HeapInitialize@@YA_NXZ    00000001800169b0 f   common-kernel64:Memory.obj
 0001:000159ec       ?xf_calloc@@YAPEAX_K0@Z    00000001800169ec f   common-kernel64:Memory.obj
 0001:00015a1c       ?xf_free@@YAXPEAX@Z        0000000180016a1c f   common-kernel64:Memory.obj
 0001:00015a94       ?xf_malloc@@YAPEAX_K@Z     0000000180016a94 f   common-kernel64:Memory.obj
 0001:00015abc       ?xf_realloc@@YAPEAXPEAX_K@Z 0000000180016abc f   common-kernel64:Memory.obj
 0001:00015ae4       ??$wcscpy_c@$0CA@@@YAHAEAY0CA@_WPEB_W@Z 0000000180016ae4 f i common-kernel64:ConEmuCheck.obj
 0001:00015b30       ?ExecuteCmd@@YAPEAUCESERVER_REQ@@PEB_WPEAU1@KPEAUHWND__@@HKH@Z 0000000180016b30 f   common-kernel64:ConEmuCheck.obj
 0001:00015d18       ?ExecuteFreeResult@@YAXAEAPEAUCESERVER_REQ@@@Z 0000000180016d18 f   common-kernel64:ConEmuCheck.obj
 0001:00015d38       ?ExecuteGuiCmd@@YAPEAUCESERVER_REQ@@PEAUHWND__@@PEAU1@0H@Z 0000000180016d38 f   common-kernel64:ConEmuCheck.obj
 0001:00015df8       ?ExecuteNewCmd@@YAPEAUCESERVER_REQ@@K_K@Z 0000000180016df8 f   common-kernel64:ConEmuCheck.obj
 0001:00015e5c       ?ExecuteNewCmd@@YA_NAEAPEAUCESERVER_REQ@@AEAKK_K@Z 0000000180016e5c f   common-kernel64:ConEmuCheck.obj
 0001:00015f50       ?ExecuteOpenPipe@@YAPEAXPEB_WAEAY0CAI@_W0KKHPEAXH@Z 0000000180016f50 f   common-kernel64:ConEmuCheck.obj
 0001:00016100       ?ExecutePrepareCmd@@YAXPEAUCESERVER_REQ@@K_K@Z 0000000180017100 f   common-kernel64:ConEmuCheck.obj
 0001:0001613c       ?ExecutePrepareCmd@@YAXPEAUCESERVER_REQ_HDR@@K_K@Z 000000018001713c f   common-kernel64:ConEmuCheck.obj
 0001:000161ac       ?ExecuteSrvCmd@@YAPEAUCESERVER_REQ@@KPEAU1@PEAUHWND__@@HKH@Z 00000001800171ac f   common-kernel64:ConEmuCheck.obj
 0001:00016280       ?GetConEmuHWND@@YAPEAUHWND__@@H@Z 0000000180017280 f   common-kernel64:ConEmuCheck.obj
 0001:000163c4       ?GuiMessageBox@@YAHPEAUHWND__@@PEB_W1H@Z 00000001800173c4 f   common-kernel64:ConEmuCheck.obj
 0001:0001652c       ?LoadSrvMapping@@YAHPEAUHWND__@@AEAUCESERVER_CONSOLE_MAPPING_HDR@@@Z 000000018001752c f   common-kernel64:ConEmuCheck.obj
 0001:00016730       ?ModuleName@@YAPEB_WPEB_W@Z 0000000180017730 f   common-kernel64:ConEmuCheck.obj
 0001:000167f0       ?isConsoleClass@@YA_NPEB_W@Z 00000001800177f0 f   common-kernel64:ConEmuCheck.obj
 0001:00016840       ?isConsoleWindow@@YA_NPEAUHWND__@@@Z 0000000180017840 f   common-kernel64:ConEmuCheck.obj
 0001:00016930       ?myGetConsoleWindow@@YAPEAUHWND__@@XZ 0000000180017930 f   common-kernel64:ConEmuCheck.obj
 0001:000169cc       ?StringCchVPrintfA@@YAJPEAD_KPEBD0@Z 00000001800179cc f i common-kernel64:MStrSafe.obj
 0001:00016a74       ?lstrcmpni@@YAHPEB_W0H@Z   0000000180017a74 f   common-kernel64:MStrSafe.obj
 0001:00016b94       ?msprintf@@YAPEB_WPEA_W_KPEB_WZZ 0000000180017b94 f   common-kernel64:MStrSafe.obj
 0001:00016bb4       ?mvsprintf@@YAPEB_WPEA_W_KPEB_WPEAD@Z 0000000180017bb4 f   common-kernel64:MStrSafe.obj
 0001:00017054       ?sprintf_c@@YAHPEAD_JPEBDZZ 0000000180018054 f   common-kernel64:MStrSafe.obj
 0001:00017094       ?swprintf_c@@YAHPEA_W_JPEB_WZZ 0000000180018094 f   common-kernel64:MStrSafe.obj
 0001:000170d4       ?IsFilePath@@YA_NPEB_W_N@Z 00000001800180d4 f   common-kernel64:CmdLine.obj
 0001:00017274       ?PointToExt@@YAPEB_WPEB_W@Z 0000000180018274 f   common-kernel64:CmdLine.obj
 0001:00017298       ?PointToName@@YAPEB_WPEB_W@Z 0000000180018298 f   common-kernel64:CmdLine.obj
 0001:000172f4       ?Unquote@@YAPEB_WPEA_W_N@Z 00000001800182f4 f   common-kernel64:CmdLine.obj
 0001:0001735c       ??$sprintf_c@$0CI@@@YAHAEAY0CI@DPEBDZZ 000000018001835c f i common-kernel64:WThreads.obj
 0001:00017388       ?SetThreadName@@YAXKPEAD@Z 0000000180018388 f   common-kernel64:WThreads.obj
 0001:000173c0       ?apiCreateThread@@YAPEAXP6AKPEAX@Z0PEAKPEBDH@Z 00000001800183c0 f   common-kernel64:WThreads.obj
 0001:00017508       ?apiTerminateThreadEx@@YAHPEAXKPEBDH@Z 0000000180018508 f   common-kernel64:WThreads.obj
 0001:00017610       ?apiThreadHelper@@YAKPEAX@Z 0000000180018610 f   common-kernel64:WThreads.obj
 0001:0001781c       ?lstrdup@@YAPEA_WPEB_W_K@Z 000000018001881c f   common-kernel64:MStrDup.obj
 0001:00017890       ?lstrmerge@@YAPEA_WPEB_W00000000@Z 0000000180018890 f   common-kernel64:MStrDup.obj
 0001:000179d4       ?lstrmerge@@YA_NPEAPEA_WPEB_W1111111@Z 00000001800189d4 f   common-kernel64:MStrDup.obj
 0001:00017a4c       ??0CEStr@@QEAA@$$QEAPEA_W@Z 0000000180018a4c f   common-kernel64:CEStr.obj
 0001:00017a6c       ??0CEStr@@QEAA@$$QEAU0@@Z  0000000180018a6c f   common-kernel64:CEStr.obj
 0001:00017a94       ??0CEStr@@QEAA@PEB_W00000000@Z 0000000180018a94 f   common-kernel64:CEStr.obj
 0001:00017b2c       ??0CEStr@@QEAA@XZ          0000000180018b2c f   common-kernel64:CEStr.obj
 0001:00017b3c       ??0bad_alloc@stdext@@QEAA@AEBV01@@Z 0000000180018b3c f i common-kernel64:CEStr.obj
 0001:00017b5c       ??0bad_alloc@stdext@@QEAA@XZ 0000000180018b5c f i common-kernel64:CEStr.obj
 0001:00017b78       ??0exception@stdext@@QEAA@AEBV01@@Z 0000000180018b78 f i common-kernel64:CEStr.obj
 0001:00017b90       ??1CEStr@@QEAA@XZ          0000000180018b90 f   common-kernel64:CEStr.obj
 0001:00017b98       ??1bad_alloc@stdext@@UEAA@XZ 0000000180018b98 f i common-kernel64:CEStr.obj
 0001:00017ba4       ??4CEStr@@QEAAAEAU0@$$QEAU0@@Z 0000000180018ba4 f   common-kernel64:CEStr.obj
 0001:00017bf0       ??4CEStr@@QEAAAEAU0@PEB_W@Z 0000000180018bf0 f   common-kernel64:CEStr.obj
 0001:00017c10       ?data@CEStr@@QEBAPEA_WXZ   0000000180018c10 f   common-kernel64:CEStr.obj
 0001:00017c10       ??BCEStr@@QEBAPEB_WXZ      0000000180018c10 f   common-kernel64:CEStr.obj
 0001:00017c14       ??BCEStr@@QEBA_NXZ         0000000180018c14 f   common-kernel64:CEStr.obj
 0001:00017c28       ??_Ebad_alloc@stdext@@UEAAPEAXI@Z 0000000180018c28 f i common-kernel64:CEStr.obj
 0001:00017c28       ??_Gexception@stdext@@UEAAPEAXI@Z 0000000180018c28 f i common-kernel64:CEStr.obj
 0001:00017c28       ??_Gbad_alloc@stdext@@UEAAPEAXI@Z 0000000180018c28 f i common-kernel64:CEStr.obj
 0001:00017c28       ??_Eexception@stdext@@UEAAPEAXI@Z 0000000180018c28 f i common-kernel64:CEStr.obj
 0001:00017c54       ?AttachInt@CEStr@@AEAAPEB_WAEAPEA_W@Z 0000000180018c54 f   common-kernel64:CEStr.obj
 0001:00017cd4       ?Clear@CEStr@@QEAAXXZ      0000000180018cd4 f   common-kernel64:CEStr.obj
 0001:00017cf0       ?Compare@CEStr@@QEBAHPEB_W_N@Z 0000000180018cf0 f   common-kernel64:CEStr.obj
 0001:00017d20       ?Detach@CEStr@@QEAAPEA_WXZ 0000000180018d20 f   common-kernel64:CEStr.obj
 0001:00017d30       ?GetBuffer@CEStr@@QEAAPEA_W_J@Z 0000000180018d30 f   common-kernel64:CEStr.obj
 0001:00017dfc       ?GetLen@CEStr@@QEBA_JXZ    0000000180018dfc f   common-kernel64:CEStr.obj
 0001:00017e20       ?GetMaxCount@CEStr@@QEAA_JXZ 0000000180018e20 f   common-kernel64:CEStr.obj
 0001:00017e4c       ?Release@CEStr@@QEAAXXZ    0000000180018e4c f   common-kernel64:CEStr.obj
 0001:00017e70       ?Set@CEStr@@QEAAPEB_WPEB_W_J@Z 0000000180018e70 f   common-kernel64:CEStr.obj
 0001:00017f4c       ?SetAt@CEStr@@QEAA_W_J_W@Z 0000000180018f4c f   common-kernel64:CEStr.obj
 0001:00017fa4       ?StringCchCopyNW@@YAJPEA_W_KPEB_W1@Z 0000000180018fa4 f i common-kernel64:CEStr.obj
 0001:00018018       ?_Doraise@bad_alloc@stdext@@MEBAXXZ 0000000180019018 f i common-kernel64:CEStr.obj
 0001:00018034       ?c_str@CEStr@@QEBAPEB_WPEB_W@Z 0000000180019034 f   common-kernel64:CEStr.obj
 0001:00018040       ?what@exception@stdext@@UEBAPEBDXZ 0000000180019040 f i common-kernel64:CEStr.obj
 0001:00018054       ??0CEnvStrings@@QEAA@PEA_W@Z 0000000180019054 f   common-kernel64:EnvVar.obj
 0001:000180a8       ??1CEnvStrings@@QEAA@XZ    00000001800190a8 f   common-kernel64:EnvVar.obj
 0001:000180cc       ?Clear@CEnvRestorer@@QEAAXXZ 00000001800190cc f   common-kernel64:EnvVar.obj
 0001:000180f0       ?ExpandEnvStr@@YA?AUCEStr@@PEB_W@Z 00000001800190f0 f   common-kernel64:EnvVar.obj
 0001:000182a8       ?GetEnvVar@@YA?AUCEStr@@PEB_W@Z 00000001800192a8 f   common-kernel64:EnvVar.obj
 0001:000183c0       ?SavePathVar@CEnvRestorer@@QEAAXPEB_W@Z 00000001800193c0 f   common-kernel64:EnvVar.obj
 0001:000183f4       ?CommonShutdown@@YAXXZ     00000001800193f4 f   common-kernel64:Common.obj
 0001:00018404       ?IsEnvBlockVariableValid@@YA_NPEB_W@Z 0000000180019404 f   common-kernel64:Common.obj
 0001:00018438       ?IsEnvBlockVariableValid@@YA_NPEB_WAEAPEB_W@Z 0000000180019438 f   common-kernel64:Common.obj
 0001:0001848c       ?SetCommand@CESERVER_REQ_NEWCMD@@QEAAXPEB_W@Z 000000018001948c f   common-kernel64:Common.obj
 0001:000184f0       ?SetEnvStrings@CESERVER_REQ_NEWCMD@@QEAAXPEB_WK@Z 00000001800194f0 f   common-kernel64:Common.obj
 0001:00018608       ??_GMNullDesc@@QEAAPEAXI@Z 0000000180019608 f i common-kernel64:MSecurity.obj
 0001:0001867c       ?LoadAdvApi@MNullDesc@@IEAAHXZ 000000018001967c f i common-kernel64:MSecurity.obj
 0001:000187a4       ?LocalSecurity@@YAPEAU_SECURITY_ATTRIBUTES@@XZ 00000001800197a4 f   common-kernel64:MSecurity.obj
 0001:000187fc       ?LocalSecurity@MNullDesc@@QEAAPEAU_SECURITY_ATTRIBUTES@@XZ 00000001800197fc f i common-kernel64:MSecurity.obj
 0001:00018978       ?ShutdownSecurity@@YAXXZ   0000000180019978 f   common-kernel64:MSecurity.obj
 0001:000189a0       ??0MHandle@@QEAA@PEAXV?$function@$$A6AXPEAX@Z@std@@@Z 00000001800199a0 f i common-kernel64:WObjects.obj
 0001:00018a14       ??4?$function@$$A6AXPEAX@Z@std@@QEAAAEAV01@$$QEAV01@@Z 0000000180019a14 f i common-kernel64:WObjects.obj
 0001:00018a8c       ?Close@MHandle@@QEAAXXZ    0000000180019a8c f i common-kernel64:WObjects.obj
 0001:00018af0       ?FileExists@@YA_NPEB_WPEA_K@Z 0000000180019af0 f   common-kernel64:WObjects.obj
 0001:00018d8c       ?IsWin6@@YA_NXZ            0000000180019d8c f   common-kernel64:WObjects.obj
 0001:00018dc0       ?IsWin7@@YA_NXZ            0000000180019dc0 f   common-kernel64:WObjects.obj
 0001:00018df4       ?IsWinVerOrHigher@@YA_NG@Z 0000000180019df4 f   common-kernel64:WObjects.obj
 0001:00018f0c       ?IsWindows64@@YA_NXZ       0000000180019f0c f   common-kernel64:WObjects.obj
 0001:00018f30       ?SetHandle@MHandle@@QEAA_NPEAXV?$function@$$A6AXPEAX@Z@std@@@Z 0000000180019f30 f i common-kernel64:WObjects.obj
 0001:00018f9c       ?_Copy@?$_Func_impl_no_alloc@P6AHPEAX@ZXPEAX@std@@EEBAPEAV?$_Func_base@XPEAX@2@PEAX@Z 0000000180019f9c f i common-kernel64:WObjects.obj
 0001:00018f9c       ?_Move@?$_Func_impl_no_alloc@P6AHPEAX@ZXPEAX@std@@EEAAPEAV?$_Func_base@XPEAX@2@PEAX@Z 0000000180019f9c f i common-kernel64:WObjects.obj
 0001:00018fb4       ?_Delete_this@?$_Func_impl_no_alloc@V<lambda_217d18733db987cb8fc0adfd68028951>@@_NAEBUtagPROCESSENTRY32W@@@std@@EEAAX_N@Z 0000000180019fb4 f i common-kernel64:MProcess.obj
 0001:00018fb4       ?_Delete_this@?$_Func_impl_no_alloc@P6AHPEAX@ZXPEAX@std@@EEAAX_N@Z 0000000180019fb4 f i common-kernel64:WObjects.obj
 0001:00018fcc       ?_Do_call@?$_Func_impl_no_alloc@P6AHPEAX@ZXPEAX@std@@EEAAX$$QEAPEAX@Z 0000000180019fcc f i common-kernel64:WObjects.obj
 0001:00018fd8       ?_Get@?$_Func_impl_no_alloc@V<lambda_217d18733db987cb8fc0adfd68028951>@@_NAEBUtagPROCESSENTRY32W@@@std@@EEBAPEBXXZ 0000000180019fd8 f i common-kernel64:MProcess.obj
 0001:00018fd8       ?_Get@?$_Func_impl_no_alloc@P6AHPEAX@ZXPEAX@std@@EEBAPEBXXZ 0000000180019fd8 f i common-kernel64:WObjects.obj
 0001:00018fe0       ?_Target_type@?$_Func_impl_no_alloc@P6AHPEAX@ZXPEAX@std@@EEBAAEBVtype_info@@XZ 0000000180019fe0 f i common-kernel64:WObjects.obj
 0001:00018fe8       ?_VerifyVersionInfo@@YA_NPEAU_OSVERSIONINFOEXW@@K_K@Z 0000000180019fe8 f   common-kernel64:WObjects.obj
 0001:000190b8       ?Init@HkFunc@@QEAA_NPEB_WPEAUHINSTANCE__@@@Z 000000018001a0b8 f   common-kernel64:HkFunc.obj
 0001:00019148       ?isConEmuHk@HkFunc@@QEAA_NXZ 000000018001a148 f   common-kernel64:HkFunc.obj
 0001:00019150       ??$_Emplace_reallocate@AEBUtagPROCESSENTRY32W@@@?$vector@UtagPROCESSENTRY32W@@V?$MArrayAllocator@UtagPROCESSENTRY32W@@@@@std@@QEAAPEAUtagPROCESSENTRY32W@@QEAU2@AEBU2@@Z 000000018001a150 f i common-kernel64:MProcess.obj
 0001:00019340       ??$emplace_back@AEBUtagPROCESSENTRY32W@@@?$vector@UtagPROCESSENTRY32W@@V?$MArrayAllocator@UtagPROCESSENTRY32W@@@@@std@@QEAA?A_TAEBUtagPROCESSENTRY32W@@@Z 000000018001a340 f i common-kernel64:MProcess.obj
 0001:000193dc       ??0?$MToolHelp@UtagPROCESSENTRY32W@@$1?Process32FirstW@@YAHPEAXPEAU1@@Z$1?Process32NextW@@YAH01@Z@@QEAA@KK@Z 000000018001a3dc f i common-kernel64:MProcess.obj
 0001:00019464       ??_EMToolHelpProcess@@UEAAPEAXI@Z 000000018001a464 f i common-kernel64:MProcess.obj
 0001:00019464       ??_E?$MToolHelp@UtagPROCESSENTRY32W@@$1?Process32FirstW@@YAHPEAXPEAU1@@Z$1?Process32NextW@@YAH01@Z@@UEAAPEAXI@Z 000000018001a464 f i common-kernel64:MProcess.obj
 0001:00019464       ??_G?$MToolHelp@UtagPROCESSENTRY32W@@$1?Process32FirstW@@YAHPEAXPEAU1@@Z$1?Process32NextW@@YAH01@Z@@UEAAPEAXI@Z 000000018001a464 f i common-kernel64:MProcess.obj
 0001:00019464       ??_GMToolHelpProcess@@UEAAPEAXI@Z 000000018001a464 f i common-kernel64:MProcess.obj
 0001:000194cc       ?Close@?$MToolHelp@UtagPROCESSENTRY32W@@$1?Process32FirstW@@YAHPEAXPEAU1@@Z$1?Process32NextW@@YAH01@Z@@QEAAXXZ 000000018001a4cc f i common-kernel64:MProcess.obj
 0001:0001954c       ?Filter@?$MToolHelp@UtagPROCESSENTRY32W@@$1?Process32FirstW@@YAHPEAXPEAU1@@Z$1?Process32NextW@@YAH01@Z@@MEAA_NAEBUtagPROCESSENTRY32W@@@Z 000000018001a54c f i common-kernel64:MProcess.obj
 0001:0001954c       __acrt_uninitialize_command_line 000000018001a54c f i libucrt:argv_data.obj
 0001:00019550       ?Find@?$MToolHelp@UtagPROCESSENTRY32W@@$1?Process32FirstW@@YAHPEAXPEAU1@@Z$1?Process32NextW@@YAH01@Z@@QEAA_NAEBV?$function@$$A6A_NAEBUtagPROCESSENTRY32W@@@Z@std@@AEAUtagPROCESSENTRY32W@@@Z 000000018001a550 f i common-kernel64:MProcess.obj
 0001:00019664       ?Find@MToolHelpProcess@@QEAA_NKAEAUtagPROCESSENTRY32W@@@Z 000000018001a664 f i common-kernel64:MProcess.obj
 0001:000196d0       ?Next@?$MToolHelp@UtagPROCESSENTRY32W@@$1?Process32FirstW@@YAHPEAXPEAU1@@Z$1?Process32NextW@@YAH01@Z@@QEAA_NAEAUtagPROCESSENTRY32W@@@Z 000000018001a6d0 f i common-kernel64:MProcess.obj
 0001:000197b8       ?Open@?$MToolHelp@UtagPROCESSENTRY32W@@$1?Process32FirstW@@YAHPEAXPEAU1@@Z$1?Process32NextW@@YAH01@Z@@QEAA_NXZ 000000018001a7b8 f i common-kernel64:MProcess.obj
 0001:00019828       ?_Move@?$_Func_impl_no_alloc@V<lambda_217d18733db987cb8fc0adfd68028951>@@_NAEBUtagPROCESSENTRY32W@@@std@@EEAAPEAV?$_Func_base@_NAEBUtagPROCESSENTRY32W@@@2@PEAX@Z 000000018001a828 f i common-kernel64:MProcess.obj
 0001:00019828       ?_Copy@?$_Func_impl_no_alloc@V<lambda_217d18733db987cb8fc0adfd68028951>@@_NAEBUtagPROCESSENTRY32W@@@std@@EEBAPEAV?$_Func_base@_NAEBUtagPROCESSENTRY32W@@@2@PEAX@Z 000000018001a828 f i common-kernel64:MProcess.obj
 0001:0001983c       ?_Do_call@?$_Func_impl_no_alloc@V<lambda_217d18733db987cb8fc0adfd68028951>@@_NAEBUtagPROCESSENTRY32W@@@std@@EEAA_NAEBUtagPROCESSENTRY32W@@@Z 000000018001a83c f i common-kernel64:MProcess.obj
 0001:00019848       ?_Target_type@?$_Func_impl_no_alloc@V<lambda_217d18733db987cb8fc0adfd68028951>@@_NAEBUtagPROCESSENTRY32W@@@std@@EEBAAEBVtype_info@@XZ 000000018001a848 f i common-kernel64:MProcess.obj
 0001:00019850       ?getNext@?$MToolHelp@UtagPROCESSENTRY32W@@$1?Process32FirstW@@YAHPEAXPEAU1@@Z$1?Process32NextW@@YAH01@Z@@IEAA_NXZ 000000018001a850 f i common-kernel64:MProcess.obj
 0001:000198f0       ?isTerminalMode@@YA_NXZ    000000018001a8f0 f   common-kernel64:MProcess.obj
 0001:00019a2c       ??0MSection@@QEAA@XZ       000000018001aa2c f   common-kernel64:MSection.obj
 0001:00019ab4       ??0MSectionLock@@QEAA@XZ   000000018001aab4 f   common-kernel64:MSection.obj
 0001:00019ac4       ??0MSectionThread@@QEAA@PEAVMSection@@@Z 000000018001aac4 f   common-kernel64:MSection.obj
 0001:00019ae4       ??1MSection@@QEAA@XZ       000000018001aae4 f   common-kernel64:MSection.obj
 0001:00019b4c       ??1MSectionLock@@QEAA@XZ   000000018001ab4c f   common-kernel64:MSection.obj
 0001:00019b70       ??1MSectionThread@@QEAA@XZ 000000018001ab70 f   common-kernel64:MSection.obj
 0001:00019bac       ?AddRef@MSection@@IEAAXK@Z 000000018001abac f   common-kernel64:MSection.obj
 0001:00019c40       ?Lock@MSection@@IEAAHHK@Z  000000018001ac40 f   common-kernel64:MSection.obj
 0001:00019d3c       ?Lock@MSectionLock@@QEAAHPEAVMSection@@HK@Z 000000018001ad3c f   common-kernel64:MSection.obj
 0001:00019d90       ?MyEnterCriticalSection@MSection@@IEAA_NK@Z 000000018001ad90 f   common-kernel64:MSection.obj
 0001:00019ebc       ?ReleaseRef@MSection@@IEAAHK@Z 000000018001aebc f   common-kernel64:MSection.obj
 0001:00019f5c       ?Unlock@MSection@@IEAAXH@Z 000000018001af5c f   common-kernel64:MSection.obj
 0001:00019fb4       ?Unlock@MSectionLock@@QEAAXXZ 000000018001afb4 f   common-kernel64:MSection.obj
 0001:00019fe0       ?WaitUnlocked@MSection@@IEAAXKK@Z 000000018001afe0 f   common-kernel64:MSection.obj
 0001:0001a074       ?CheckCallbackPtr@@YA_NPEAUHINSTANCE__@@_KPEAP6A_JXZHHH@Z 000000018001b074 f   common-kernel64:WModuleCheck.obj
 0001:0001a17c       ?IsModuleValid@@YA_NPEAUHINSTANCE__@@H@Z 000000018001b17c f   common-kernel64:WModuleCheck.obj
 0001:0001a284       ??0MModule@@QEAA@PEAUHINSTANCE__@@@Z 000000018001b284 f   common-kernel64:MModule.obj
 0001:0001a294       ??1MModule@@QEAA@XZ        000000018001b294 f   common-kernel64:MModule.obj
 0001:0001a29c       ?Free@MModule@@QEAAXXZ     000000018001b29c f   common-kernel64:MModule.obj
 0001:0001a2d4       ??0MSectionSimple@@QEAA@_N@Z 000000018001b2d4 f   common-kernel64:MSectionSimple.obj
 0001:0001a30c       ?Close@MSectionSimple@@QEAAXXZ 000000018001b30c f   common-kernel64:MSectionSimple.obj
 0001:0001a30c       ??1MSectionSimple@@QEAA@XZ 000000018001b30c f   common-kernel64:MSectionSimple.obj
 0001:0001a32c       ?Enter@MSectionSimple@@QEAAXXZ 000000018001b32c f   common-kernel64:MSectionSimple.obj
 0001:0001a334       ?Init@MSectionSimple@@QEAAXXZ 000000018001b334 f   common-kernel64:MSectionSimple.obj
 0001:0001a354       ?Leave@MSectionSimple@@QEAAXXZ 000000018001b354 f   common-kernel64:MSectionSimple.obj
 0001:0001a35c       ?RecreateAndLock@MSectionSimple@@QEAA_NXZ 000000018001b35c f   common-kernel64:MSectionSimple.obj
 0001:0001a3cc       ?TryEnter@MSectionSimple@@QEAA_NXZ 000000018001b3cc f   common-kernel64:MSectionSimple.obj
 0001:0001a3f4       ?SetConEmuEnvHWND@@YAXPEB_WPEAUHWND__@@@Z 000000018001b3f4 f   common-user64:SetEnvVar.obj
 0001:0001a44c       ?SetConEmuEnvVar@@YAXPEAUHWND__@@@Z 000000018001b44c f   common-user64:SetEnvVar.obj
 0001:0001a4d0       ?SetConEmuEnvVarChild@@YAXPEAUHWND__@@0@Z 000000018001b4d0 f   common-user64:SetEnvVar.obj
 0001:0001a4fc       ??$wcscpy_c@$0BAF@@@YAHAEAY0BAF@_WPEB_W@Z 000000018001b4fc f i common-user64:ConEmuCheckEx.obj
 0001:0001a548       ?FindConEmuBaseDir@@YAHAEAY0BAF@_W0PEAUHINSTANCE__@@@Z 000000018001b548 f   common-user64:ConEmuCheckEx.obj
 0001:0001abf4       ?IsConEmuExeExist@@YAHPEB_WAEAY0BAF@_W@Z 000000018001bbf4 f   common-user64:ConEmuCheckEx.obj
 0001:0001ac9c       ??$swprintf_c@$0FA@@@YAHAEAY0FA@_WPEB_WZZ 000000018001bc9c f i common-user64:EmergencyShow.obj
 0001:0001acc8       ?CorrectConsolePos@@YAXPEAUHWND__@@@Z 000000018001bcc8 f   common-user64:EmergencyShow.obj
 0001:0001ade4       ?EmergencyShow@@YAXPEAUHWND__@@HH@Z 000000018001bde4 f   common-user64:EmergencyShow.obj
 0001:0001af24       ?EvaluateDefaultFontWidth@@YAHHPEB_W@Z 000000018001bf24 f   common-user64:EmergencyShow.obj
 0001:0001b044       ?SetUserFriendlyFont@@YAXPEAUHWND__@@HH@Z 000000018001c044 f   common-user64:EmergencyShow.obj
 0001:0001b3a4       ??0MSetter@@QEAA@PEAJ@Z    000000018001c3a4 f   common-user64:MSetter.obj
 0001:0001b3bc       ??1MSetter@@QEAA@XZ        000000018001c3bc f   common-user64:MSetter.obj
 0001:0001b3c4       ?Unlock@MSetter@@QEAAXXZ   000000018001c3c4 f   common-user64:MSetter.obj
 0001:0001b424       ?IsDotsName@@YA_NPEB_W@Z   000000018001c424 f   common-user64:WFiles.obj
 0001:0001b448       ?SearchAppPaths@@YA_NPEB_WAEAUCEStr@@_NPEAVCEnvRestorer@@@Z 000000018001c448 f   common-user64:WFiles.obj
 0001:0001b8d4       ?GetConsoleSizeInfo@@YAXPEAUCONSOLE_INFO@@@Z 000000018001c8d4 f   common-user64:WConsoleEx.obj
 0001:0001b960       ?SetConsoleFontSizeTo@@YAXPEAUHWND__@@HHPEB_WGG@Z 000000018001c960 f   common-user64:WConsoleEx.obj
 0001:0001bd48       ?SetConsoleInfo@@YAHPEAUHWND__@@PEAUCONSOLE_INFO@@@Z 000000018001cd48 f   common-user64:WConsoleEx.obj
 0001:0001bf50       ?SetEnvVarExpanded@@YAXPEB_W0@Z 000000018001cf50 f   common-user64:WUser.obj
 0001:0001c034       ?UpdateComspec@@YAXPEAUConEmuComspec@@_N@Z 000000018001d034 f   common-user64:WUser.obj
 0001:0001c37c       ?apiShowWindow@@YA_NPEAUHWND__@@H@Z 000000018001d37c f   common-user64:WUser.obj
 0001:0001c390       ?apiShowWindowAsync@@YA_NPEAUHWND__@@H@Z 000000018001d390 f   common-user64:WUser.obj
 0001:0001c3a4       ?RegGetStringValue@@YAHPEAUHKEY__@@PEB_W1AEAUCEStr@@K@Z 000000018001d3a4 f   common-user64:WRegistry.obj
 0001:0001c568       ?FindMonitorsWorkspace@@YAHPEAUHMONITOR__@@PEAUHDC__@@PEAUtagRECT@@_J@Z 000000018001d568 f   common-user64:Monitors.obj
 0001:0001c5a4       ?GetAllMonitorsWorkspace@@YA?AUtagRECT@@XZ 000000018001d5a4 f   common-user64:Monitors.obj
 0001:0001c604       ??0bad_function_call@std@@QEAA@AEBV01@@Z 000000018001d604 f i libcpmt:xthrow.obj
 0001:0001c640       ??0bad_function_call@std@@QEAA@XZ 000000018001d640 f i libcpmt:xthrow.obj
 0001:0001c658       ??0length_error@std@@QEAA@AEBV01@@Z 000000018001d658 f i libcpmt:xthrow.obj
 0001:0001c694       ??0length_error@std@@QEAA@PEBD@Z 000000018001d694 f i libcpmt:xthrow.obj
 0001:0001c6dc       ??0logic_error@std@@QEAA@AEBV01@@Z 000000018001d6dc f i libcpmt:xthrow.obj
 0001:0001c718       ?_Xbad_function_call@std@@YAXXZ 000000018001d718 f   libcpmt:xthrow.obj
 0001:0001c738       ?_Xlength_error@std@@YAXPEBD@Z 000000018001d738 f   libcpmt:xthrow.obj
 0001:0001c75c       ?what@bad_function_call@std@@UEBAPEBDXZ 000000018001d75c f i libcpmt:xthrow.obj
 0001:0001c764       __GSHandlerCheck           000000018001d764 f   LIBCMT:gshandler.obj
 0001:0001c784       __GSHandlerCheckCommon     000000018001d784 f   LIBCMT:gshandler.obj
 0001:0001c7f0       __security_check_cookie    000000018001d7f0 f   LIBCMT:amdsecgs.obj
 0001:0001c810       ??3@YAXPEAX_K@Z            000000018001d810 f   LIBCMT:delete_scalar_size.obj
 0001:0001c830       _alloca_probe              000000018001d830 f   LIBCMT:chkstk.obj
 0001:0001c830       __chkstk                   000000018001d830 f   LIBCMT:chkstk.obj
 0001:0001c880       ??_Etype_info@@UEAAPEAXI@Z 000000018001d880 f i LIBCMT:std_type_info_static.obj
 0001:0001c880       ??_Gtype_info@@UEAAPEAXI@Z 000000018001d880 f i LIBCMT:std_type_info_static.obj
 0001:0001c8ac       __GSHandlerCheck_EH4       000000018001d8ac f   LIBCMT:gshandlereh4.obj
 0001:0001ca24       _Init_thread_footer        000000018001da24 f   LIBCMT:thread_safe_statics.obj
 0001:0001ca84       _Init_thread_header        000000018001da84 f   LIBCMT:thread_safe_statics.obj
 0001:0001caec       _Init_thread_notify        000000018001daec f   LIBCMT:thread_safe_statics.obj
 0001:0001cb30       _Init_thread_wait          000000018001db30 f   LIBCMT:thread_safe_statics.obj
 0001:0001ceb4       _DllMainCRTStartup         000000018001deb4 f   LIBCMT:dll_dllmain.obj
 0001:0001cef4       __scrt_acquire_startup_lock 000000018001def4 f   LIBCMT:utility.obj
 0001:0001cf30       __scrt_dllmain_after_initialize_c 000000018001df30 f   LIBCMT:utility.obj
 0001:0001cf64       __scrt_dllmain_before_initialize_c 000000018001df64 f   LIBCMT:utility.obj
 0001:0001cf7c       __scrt_dllmain_crt_thread_attach 000000018001df7c f   LIBCMT:utility.obj
 0001:0001cfa4       __scrt_dllmain_crt_thread_detach 000000018001dfa4 f   LIBCMT:utility.obj
 0001:0001cfbc       __scrt_dllmain_exception_filter 000000018001dfbc f   LIBCMT:utility.obj
 0001:0001d01c       __scrt_dllmain_uninitialize_c 000000018001e01c f   LIBCMT:utility.obj
 0001:0001d04c       __scrt_dllmain_uninitialize_critical 000000018001e04c f   LIBCMT:utility.obj
 0001:0001d060       __scrt_initialize_crt      000000018001e060 f   LIBCMT:utility.obj
 0001:0001d0ac       __scrt_initialize_onexit_tables 000000018001e0ac f   LIBCMT:utility.obj
 0001:0001d138       __scrt_is_nonwritable_in_current_image 000000018001e138 f   LIBCMT:utility.obj
 0001:0001d1d0       __scrt_release_startup_lock 000000018001e1d0 f   LIBCMT:utility.obj
 0001:0001d1f4       __scrt_uninitialize_crt    000000018001e1f4 f   LIBCMT:utility.obj
 0001:0001d220       _onexit                    000000018001e220 f   LIBCMT:utility.obj
 0001:0001d25c       atexit                     000000018001e25c f   LIBCMT:utility.obj
 0001:0001d274       __raise_securityfailure    000000018001e274 f   LIBCMT:gs_report.obj
 0001:0001d2a8       __report_gsfailure         000000018001e2a8 f   LIBCMT:gs_report.obj
 0001:0001d37c       __report_rangecheckfailure 000000018001e37c f   LIBCMT:gs_report.obj
 0001:0001d390       __report_securityfailure   000000018001e390 f   LIBCMT:gs_report.obj
 0001:0001d510       __crt_debugger_hook        000000018001e510 f   LIBCMT:utility_desktop.obj
 0001:0001d518       __scrt_fastfail            000000018001e518 f   LIBCMT:utility_desktop.obj
 0001:0001d664       __security_init_cookie     000000018001e664 f   LIBCMT:gs_support.obj
 0001:0001d710       ?__scrt_initialize_type_info@@YAXXZ 000000018001e710 f   LIBCMT:tncleanup.obj
 0001:0001d720       ?__scrt_uninitialize_type_info@@YAXXZ 000000018001e720 f   LIBCMT:tncleanup.obj
 0001:0001d72c       __local_stdio_scanf_options 000000018001e72c f i LIBCMT:default_local_stdio_options.obj
 0001:0001d734       __scrt_initialize_default_local_stdio_options 000000018001e734 f   LIBCMT:default_local_stdio_options.obj
 0001:0001d750       __scrt_get_dyn_tls_init_callback 000000018001e750 f   LIBCMT:dyn_tls_init.obj
 0001:0001d758       _RTC_Initialize            000000018001e758 f   LIBCMT:initsect.obj
 0001:0001d794       _RTC_Terminate             000000018001e794 f   LIBCMT:initsect.obj
 0001:0001d7d0       __isa_available_init       000000018001e7d0 f   LIBCMT:cpu_disp.obj
 0001:0001d974       __scrt_is_ucrt_dll_in_use  000000018001e974 f   LIBCMT:ucrt_detection.obj
 0001:0001d980       ??$_CallSETranslator@V__FrameHandler4@@@@YAHPEAUEHExceptionRecord@@PEA_KPEAU_CONTEXT@@PEAU_xDISPATCHER_CONTEXT@@PEAUFuncInfo4@FH4@@K1H@Z 000000018001e980 f i libvcruntime:risctrnsctrl.obj
 0001:0001d9d4       ?DecompFuncInfo@FH4@@YA_JPEAEAEAUFuncInfo4@1@_KH_N@Z 000000018001e9d4 f i libvcruntime:risctrnsctrl.obj
 0001:0001daf8       ?ExecutionInCatch@__FrameHandler4@@SA_NPEAU_xDISPATCHER_CONTEXT@@PEAUFuncInfo4@FH4@@@Z 000000018001eaf8 f   libvcruntime:risctrnsctrl.obj
 0001:0001db00       ?FrameUnwindToEmptyState@__FrameHandler4@@SAXPEA_KPEAU_xDISPATCHER_CONTEXT@@PEAUFuncInfo4@FH4@@@Z 000000018001eb00 f   libvcruntime:risctrnsctrl.obj
 0001:0001db34       ?GetEstablisherFrame@__FrameHandler4@@SAPEA_KPEA_KPEAU_xDISPATCHER_CONTEXT@@PEAUFuncInfo4@FH4@@0@Z 000000018001eb34 f   libvcruntime:risctrnsctrl.obj
 0001:0001db58       ?GetRangeOfTrysToCheck@__FrameHandler4@@SA?AU?$pair@Viterator@TryBlockMap4@FH4@@V123@@std@@AEAVTryBlockMap4@FH4@@HPEAU_xDISPATCHER_CONTEXT@@PEAUFuncInfo4@5@H@Z 000000018001eb58 f   libvcruntime:risctrnsctrl.obj
 0001:0001dcc0       ?UnwindNestedFrames@__FrameHandler4@@SAXPEA_KPEAUEHExceptionRecord@@PEAU_CONTEXT@@0PEAXPEAUFuncInfo4@FH4@@HHPEAUHandlerType4@5@PEAU_xDISPATCHER_CONTEXT@@E@Z 000000018001ecc0 f   libvcruntime:risctrnsctrl.obj
 0001:0001dde0       ?setBuffer@TryBlockMap4@FH4@@QEAAXViterator@12@@Z 000000018001ede0 f i libvcruntime:risctrnsctrl.obj
 0001:0001dfa0       _CreateFrameInfo           000000018001efa0 f   libvcruntime:risctrnsctrl.obj
 0001:0001dfdc       _FindAndUnlinkFrame        000000018001efdc f   libvcruntime:risctrnsctrl.obj
 0001:0001e030       _GetImageBase              000000018001f030 f   libvcruntime:risctrnsctrl.obj
 0001:0001e044       _GetThrowImageBase         000000018001f044 f   libvcruntime:risctrnsctrl.obj
 0001:0001e058       _SetImageBase              000000018001f058 f   libvcruntime:risctrnsctrl.obj
 0001:0001e070       _SetThrowImageBase         000000018001f070 f   libvcruntime:risctrnsctrl.obj
 0001:0001e088       __CxxFrameHandler4         000000018001f088 f   libvcruntime:risctrnsctrl.obj
 0001:0001e160       memcpy_repmovs             000000018001f160 f   libvcruntime:memcpy.obj
 0001:0001e180       memmove                    000000018001f180 f   libvcruntime:memcpy.obj
 0001:0001e180       memcpy                     000000018001f180 f   libvcruntime:memcpy.obj
 0001:0001e7f8       wcschr                     000000018001f7f8 f   libvcruntime:wcschr.obj
 0001:0001e874       wcsstr                     000000018001f874 f   libvcruntime:wcsstr.obj
 0001:0001eaa0       memset_repmovs             000000018001faa0 f   libvcruntime:memset.obj
 0001:0001eac0       memset                     000000018001fac0 f   libvcruntime:memset.obj
 0001:0001ec50       __DestructExceptionObject  000000018001fc50 f   libvcruntime:ehhelpers.obj
 0001:0001ecc0       ?_CallMemberFunction0@@YAXQEAX0@Z 000000018001fcc0 f i libvcruntime:ehhelpers.obj
 0001:0001ecc4       _IsExceptionObjectToBeDestroyed 000000018001fcc4 f   libvcruntime:ehhelpers.obj
 0001:0001ecf4       __AdjustPointer            000000018001fcf4 f   libvcruntime:ehhelpers.obj
 0001:0001ed18       __FrameUnwindFilter        000000018001fd18 f   libvcruntime:ehhelpers.obj
 0001:0001ed80       __std_terminate            000000018001fd80 f   libvcruntime:ehhelpers.obj
 0001:0001ed8c       __std_exception_copy       000000018001fd8c f   libvcruntime:std_exception.obj
 0001:0001ee1c       __std_exception_destroy    000000018001fe1c f   libvcruntime:std_exception.obj
 0001:0001ee44       _CxxThrowException         000000018001fe44 f   libvcruntime:throw.obj
 0001:0001eee4       _get_purecall_handler      000000018001fee4 f   libvcruntime:purevirt.obj
 0001:0001eef0       _purecall                  000000018001fef0 f   libvcruntime:purevirt.obj
 0001:0001ef0c       wcsrchr                    000000018001ff0c f   libvcruntime:wcsrchr.obj
 0001:0001efd0       memcmp                     000000018001ffd0 f   libvcruntime:memcmp.obj
 0001:0001f098       __C_specific_handler       0000000180020098 f   libvcruntime:riscchandler.obj
 0001:0001f2a4       strrchr                    00000001800202a4 f   libvcruntime:strrchr.obj
 0001:0001f3d0       strchr                     00000001800203d0 f   libvcruntime:strchr.obj
 0001:0001f450       __vcrt_initialize          0000000180020450 f   libvcruntime:initialization.obj
 0001:0001f478       __vcrt_thread_attach       0000000180020478 f   libvcruntime:initialization.obj
 0001:0001f48c       __vcrt_thread_detach       000000018002048c f   libvcruntime:initialization.obj
 0001:0001f4a0       __vcrt_uninitialize        00000001800204a0 f   libvcruntime:initialization.obj
 0001:0001f4bc       __vcrt_uninitialize_critical 00000001800204bc f   libvcruntime:initialization.obj
 0001:0001f4cc       __std_type_info_compare    00000001800204cc f   libvcruntime:std_type_info.obj
 0001:0001f4f4       __std_type_info_destroy_list 00000001800204f4 f   libvcruntime:std_type_info.obj
 0001:0001f520       __vcrt_freefls             0000000180020520 f   libvcruntime:per_thread_data.obj
 0001:0001f540       __vcrt_freeptd             0000000180020540 f   libvcruntime:per_thread_data.obj
 0001:0001f590       __vcrt_getptd              0000000180020590 f   libvcruntime:per_thread_data.obj
 0001:0001f5ac       __vcrt_getptd_noexit       00000001800205ac f   libvcruntime:per_thread_data.obj
 0001:0001f66c       __vcrt_initialize_ptd      000000018002066c f   libvcruntime:per_thread_data.obj
 0001:0001f6b4       __vcrt_uninitialize_ptd    00000001800206b4 f   libvcruntime:per_thread_data.obj
 0001:0001f6d8       ?StateFromControlPc@__FrameHandler4@@SAHPEAUFuncInfo4@FH4@@PEAU_xDISPATCHER_CONTEXT@@@Z 00000001800206d8 f   libvcruntime:ehstate.obj
 0001:0001f6e0       ?StateFromIp@__FrameHandler4@@SAHPEAUFuncInfo4@FH4@@PEAU_xDISPATCHER_CONTEXT@@_K@Z 00000001800206e0 f   libvcruntime:ehstate.obj
 0001:00020350       ??$TypeMatchHelper@V__FrameHandler3@@@@YAHPEBU_s_HandlerType@@PEBU_s_CatchableType@@PEBU_s_ThrowInfo@@@Z 0000000180021350 f i libvcruntime:frame.obj
 0001:00020490       ??$TypeMatchHelper@V__FrameHandler4@@@@YAHPEAUHandlerType4@FH4@@PEBU_s_CatchableType@@PEBU_s_ThrowInfo@@@Z 0000000180021490 f i libvcruntime:frame.obj
 0001:000205d4       ??$__InternalCxxFrameHandler@V__FrameHandler4@@@@YA?AW4_EXCEPTION_DISPOSITION@@PEAUEHExceptionRecord@@PEA_KPEAU_CONTEXT@@PEAU_xDISPATCHER_CONTEXT@@PEAUFuncInfo4@FH4@@H1E@Z 00000001800215d4 f i libvcruntime:frame.obj
 0001:00020868       ??0HandlerMap4@FH4@@QEAA@PEBUTryBlockMapEntry4@1@_KH@Z 0000000180021868 f i libvcruntime:frame.obj
 0001:000208e4       ??0TryBlockMap4@FH4@@QEAA@PEBUFuncInfo4@1@_K@Z 00000001800218e4 f i libvcruntime:frame.obj
 0001:000209bc       ??0bad_exception@std@@QEAA@AEBV01@@Z 00000001800219bc f i libvcruntime:frame.obj
 0001:000209f8       ??0bad_exception@std@@QEAA@XZ 00000001800219f8 f i libvcruntime:frame.obj
 0001:00020a18       ?CxxCallCatchBlock@__FrameHandler4@@SAPEAXPEAU_EXCEPTION_RECORD@@@Z 0000000180021a18 f   libvcruntime:frame.obj
 0001:00020c68       ?DecompHandler@HandlerMap4@FH4@@AEAAXXZ 0000000180021c68 f i libvcruntime:frame.obj
 0001:00020ea8       ?FrameUnwindToState@__FrameHandler4@@SAXPEA_KPEAU_xDISPATCHER_CONTEXT@@PEAUFuncInfo4@FH4@@H@Z 0000000180021ea8 f   libvcruntime:frame.obj
 0001:00021308       ?ReadEntry@UWMap4@FH4@@AEAAXPEAPEAE@Z 0000000180022308 f i libvcruntime:frame.obj
 0001:000213a8       ?_CallMemberFunction1@@YAXQEAX00@Z 00000001800223a8 f i libvcruntime:frame.obj
 0001:000213b4       ?_CallMemberFunction2@@YAXQEAX00H@Z 00000001800223b4 f i libvcruntime:frame.obj
 0001:000213c4       ?getStartStop@UWMap4@FH4@@QEAAXHHAEAViterator@12@0@Z 00000001800223c4 f i libvcruntime:frame.obj
 0001:00021494       ?getStateFromIterators@UWMap4@FH4@@SAHAEBViterator@12@H0H0@Z 0000000180022494 f i libvcruntime:frame.obj
 0001:00021570       _NLG_Notify                0000000180022570 f   libvcruntime:notify.obj
 0001:00021590       __NLG_Dispatch2            0000000180022590 f   libvcruntime:notify.obj
 0001:000215a0       __NLG_Return2              00000001800225a0 f   libvcruntime:notify.obj
 0001:000215a4       __except_validate_context_record 00000001800225a4 f   libvcruntime:jbcxrval.obj
 0001:000215dc       __vcrt_initialize_locks    00000001800225dc f   libvcruntime:locks.obj
 0001:00021610       __vcrt_uninitialize_locks  0000000180022610 f   libvcruntime:locks.obj
 0001:00021798       __vcrt_FlsAlloc            0000000180022798 f   libvcruntime:winapi_downlevel.obj
 0001:000217e0       __vcrt_FlsFree             00000001800227e0 f   libvcruntime:winapi_downlevel.obj
 0001:00021828       __vcrt_FlsGetValue         0000000180022828 f   libvcruntime:winapi_downlevel.obj
 0001:00021870       __vcrt_FlsSetValue         0000000180022870 f   libvcruntime:winapi_downlevel.obj
 0001:000218c4       __vcrt_InitializeCriticalSectionEx 00000001800228c4 f   libvcruntime:winapi_downlevel.obj
 0001:00021940       _CallSettingFrame          0000000180022940 f   libvcruntime:handlers.obj
 0001:00021990       _CallSettingFrame_LookupContinuationIndex 0000000180022990 f   libvcruntime:handlers.obj
 0001:000219c0       _CallSettingFrame_NotifyContinuationAddr 00000001800229c0 f   libvcruntime:handlers.obj
 0001:000219f0       _CallSettingFrameEncoded   00000001800229f0 f   libvcruntime:handlers.obj
 0001:00021dd8       ??$ensure_buffer_is_big_enough@D@formatting_buffer@__crt_stdio_output@@QEAA_N_K@Z 0000000180022dd8 f i libucrt:output.obj
 0001:00021e80       ??$ensure_buffer_is_big_enough@_W@formatting_buffer@__crt_stdio_output@@QEAA_N_K@Z 0000000180022e80 f i libucrt:output.obj
 0001:00021f2c       ??$is_wide_character_specifier@_W@__crt_stdio_output@@YA_N_K_WW4length_modifier@0@@Z 0000000180022f2c f i libucrt:output.obj
 0001:00021f6c       ??$type_case_integer_parse_into_buffer@I@?$output_processor@DV?$string_output_adapter@D@__crt_stdio_output@@V?$standard_base@DV?$string_output_adapter@D@__crt_stdio_output@@@2@@__crt_stdio_output@@AEAAXII_N@Z 0000000180022f6c f i libucrt:output.obj
 0001:00021ff4       ??$type_case_integer_parse_into_buffer@I@?$output_processor@_WV?$string_output_adapter@_W@__crt_stdio_output@@V?$standard_base@_WV?$string_output_adapter@_W@__crt_stdio_output@@@2@@__crt_stdio_output@@AEAAXII_N@Z 0000000180022ff4 f i libucrt:output.obj
 0001:00022098       ??$type_case_integer_parse_into_buffer@_K@?$output_processor@DV?$string_output_adapter@D@__crt_stdio_output@@V?$standard_base@DV?$string_output_adapter@D@__crt_stdio_output@@@2@@__crt_stdio_output@@AEAAX_KI_N@Z 0000000180023098 f i libucrt:output.obj
 0001:00022128       ??$type_case_integer_parse_into_buffer@_K@?$output_processor@_WV?$string_output_adapter@_W@__crt_stdio_output@@V?$standard_base@_WV?$string_output_adapter@_W@__crt_stdio_output@@@2@@__crt_stdio_output@@AEAAX_KI_N@Z 0000000180023128 f i libucrt:output.obj
 0001:000221cc       ??$write_multiple_characters@V?$string_output_adapter@D@__crt_stdio_output@@D@__crt_stdio_output@@YAXAEBV?$string_output_adapter@D@0@DHQEAH@Z 00000001800231cc f i libucrt:output.obj
 0001:00022244       ??$write_multiple_characters@V?$string_output_adapter@_W@__crt_stdio_output@@D@__crt_stdio_output@@YAXAEBV?$string_output_adapter@_W@0@DHQEAH@Z 0000000180023244 f i libucrt:output.obj
 0001:000222bc       ??0_LocaleUpdate@@QEAA@QEAU__crt_locale_pointers@@@Z 00000001800232bc f i libucrt:output.obj
 0001:00022360       ?crop_zeroes@__crt_stdio_output@@YAXPEADQEAU__crt_locale_pointers@@@Z 0000000180023360 f i libucrt:output.obj
 0001:00022400       ?force_decimal_point@__crt_stdio_output@@YAXPEADQEAU__crt_locale_pointers@@@Z 0000000180023400 f i libucrt:output.obj
 0001:00022478       ?parse_int_from_format_string@?$output_processor@DV?$string_output_adapter@D@__crt_stdio_output@@V?$standard_base@DV?$string_output_adapter@D@__crt_stdio_output@@@2@@__crt_stdio_output@@AEAA_NQEAH@Z 0000000180023478 f i libucrt:output.obj
 0001:0002251c       ?parse_int_from_format_string@?$output_processor@_WV?$string_output_adapter@_W@__crt_stdio_output@@V?$standard_base@_WV?$string_output_adapter@_W@__crt_stdio_output@@@2@@__crt_stdio_output@@AEAA_NQEAH@Z 000000018002351c f i libucrt:output.obj
 0001:000225c0       ?process@?$output_processor@DV?$string_output_adapter@D@__crt_stdio_output@@V?$standard_base@DV?$string_output_adapter@D@__crt_stdio_output@@@2@@__crt_stdio_output@@QEAAHXZ 00000001800235c0 f i libucrt:output.obj
 0001:000227c8       ?process@?$output_processor@_WV?$string_output_adapter@_W@__crt_stdio_output@@V?$standard_base@_WV?$string_output_adapter@_W@__crt_stdio_output@@@2@@__crt_stdio_output@@QEAAHXZ 00000001800237c8 f i libucrt:output.obj
 0001:00022a34       ?state_case_normal@?$output_processor@DV?$string_output_adapter@D@__crt_stdio_output@@V?$standard_base@DV?$string_output_adapter@D@__crt_stdio_output@@@2@@__crt_stdio_output@@AEAA_NXZ 0000000180023a34 f i libucrt:output.obj
 0001:00022aa8       ?state_case_normal_tchar@?$output_processor@DV?$string_output_adapter@D@__crt_stdio_output@@V?$standard_base@DV?$string_output_adapter@D@__crt_stdio_output@@@2@@__crt_stdio_output@@AEAA_ND@Z 0000000180023aa8 f i libucrt:output.obj
 0001:00022b50       ?state_case_size@?$output_processor@DV?$string_output_adapter@D@__crt_stdio_output@@V?$standard_base@DV?$string_output_adapter@D@__crt_stdio_output@@@2@@__crt_stdio_output@@AEAA_NXZ 0000000180023b50 f i libucrt:output.obj
 0001:00022cc0       ?state_case_size@?$output_processor@_WV?$string_output_adapter@_W@__crt_stdio_output@@V?$standard_base@_WV?$string_output_adapter@_W@__crt_stdio_output@@@2@@__crt_stdio_output@@AEAA_NXZ 0000000180023cc0 f i libucrt:output.obj
 0001:00022e54       ?state_case_type@?$output_processor@DV?$string_output_adapter@D@__crt_stdio_output@@V?$standard_base@DV?$string_output_adapter@D@__crt_stdio_output@@@2@@__crt_stdio_output@@AEAA_NXZ 0000000180023e54 f i libucrt:output.obj
 0001:000230bc       ?state_case_type@?$output_processor@_WV?$string_output_adapter@_W@__crt_stdio_output@@V?$standard_base@_WV?$string_output_adapter@_W@__crt_stdio_output@@@2@@__crt_stdio_output@@AEAA_NXZ 00000001800240bc f i libucrt:output.obj
 0001:00023390       ?to_integer_size@__crt_stdio_output@@YA_KW4length_modifier@1@@Z 0000000180024390 f i libucrt:output.obj
 0001:000233f8       ?type_case_Z@?$output_processor@DV?$string_output_adapter@D@__crt_stdio_output@@V?$standard_base@DV?$string_output_adapter@D@__crt_stdio_output@@@2@@__crt_stdio_output@@AEAA_NXZ 00000001800243f8 f i libucrt:output.obj
 0001:0002346c       ?type_case_Z@?$output_processor@_WV?$string_output_adapter@_W@__crt_stdio_output@@V?$standard_base@_WV?$string_output_adapter@_W@__crt_stdio_output@@@2@@__crt_stdio_output@@AEAA_NXZ 000000018002446c f i libucrt:output.obj
 0001:000234e8       ?type_case_a@?$output_processor@DV?$string_output_adapter@D@__crt_stdio_output@@V?$standard_base@DV?$string_output_adapter@D@__crt_stdio_output@@@2@@__crt_stdio_output@@AEAA_NXZ 00000001800244e8 f i libucrt:output.obj
 0001:000236a4       ?type_case_a@?$output_processor@_WV?$string_output_adapter@_W@__crt_stdio_output@@V?$standard_base@_WV?$string_output_adapter@_W@__crt_stdio_output@@@2@@__crt_stdio_output@@AEAA_NXZ 00000001800246a4 f i libucrt:output.obj
 0001:00023884       ?type_case_c_tchar@?$output_processor@DV?$string_output_adapter@D@__crt_stdio_output@@V?$standard_base@DV?$string_output_adapter@D@__crt_stdio_output@@@2@@__crt_stdio_output@@AEAA_ND@Z 0000000180024884 f i libucrt:output.obj
 0001:0002394c       ?type_case_c_tchar@?$output_processor@_WV?$string_output_adapter@_W@__crt_stdio_output@@V?$standard_base@_WV?$string_output_adapter@_W@__crt_stdio_output@@@2@@__crt_stdio_output@@AEAA_N_W@Z 000000018002494c f i libucrt:output.obj
 0001:000239f4       ?type_case_integer@?$output_processor@DV?$string_output_adapter@D@__crt_stdio_output@@V?$standard_base@DV?$string_output_adapter@D@__crt_stdio_output@@@2@@__crt_stdio_output@@AEAA_NI_N@Z 00000001800249f4 f i libucrt:output.obj
 0001:00023b74       ?type_case_integer@?$output_processor@_WV?$string_output_adapter@_W@__crt_stdio_output@@V?$standard_base@_WV?$string_output_adapter@_W@__crt_stdio_output@@@2@@__crt_stdio_output@@AEAA_NI_N@Z 0000000180024b74 f i libucrt:output.obj
 0001:00023cfc       ?type_case_n@?$output_processor@DV?$string_output_adapter@D@__crt_stdio_output@@V?$standard_base@DV?$string_output_adapter@D@__crt_stdio_output@@@2@@__crt_stdio_output@@AEAA_NXZ 0000000180024cfc f i libucrt:output.obj
 0001:00023cfc       ?type_case_n@?$output_processor@_WV?$string_output_adapter@_W@__crt_stdio_output@@V?$standard_base@_WV?$string_output_adapter@_W@__crt_stdio_output@@@2@@__crt_stdio_output@@AEAA_NXZ 0000000180024cfc f i libucrt:output.obj
 0001:00023d84       ?type_case_s@?$output_processor@DV?$string_output_adapter@D@__crt_stdio_output@@V?$standard_base@DV?$string_output_adapter@D@__crt_stdio_output@@@2@@__crt_stdio_output@@AEAA_NXZ 0000000180024d84 f i libucrt:output.obj
 0001:00023e1c       ?type_case_s@?$output_processor@_WV?$string_output_adapter@_W@__crt_stdio_output@@V?$standard_base@_WV?$string_output_adapter@_W@__crt_stdio_output@@@2@@__crt_stdio_output@@AEAA_NXZ 0000000180024e1c f i libucrt:output.obj
 0001:00023ee4       ?write_stored_string_tchar@?$output_processor@DV?$string_output_adapter@D@__crt_stdio_output@@V?$standard_base@DV?$string_output_adapter@D@__crt_stdio_output@@@2@@__crt_stdio_output@@AEAA_ND@Z 0000000180024ee4 f i libucrt:output.obj
 0001:00023fc0       ?write_stored_string_tchar@?$output_processor@_WV?$string_output_adapter@_W@__crt_stdio_output@@V?$standard_base@_WV?$string_output_adapter@_W@__crt_stdio_output@@@2@@__crt_stdio_output@@AEAA_N_W@Z 0000000180024fc0 f i libucrt:output.obj
 0001:000240a8       ?write_string@?$string_output_adapter@D@__crt_stdio_output@@QEBAXQEBDHQEAHAEAV__crt_deferred_errno_cache@@@Z 00000001800250a8 f i libucrt:output.obj
 0001:0002414c       ?write_string@?$string_output_adapter@_W@__crt_stdio_output@@QEBAXQEB_WHQEAHAEAV__crt_deferred_errno_cache@@@Z 000000018002514c f i libucrt:output.obj
 0001:000241f4       __stdio_common_vsprintf    00000001800251f4 f   libucrt:output.obj
 0001:000241fc       __stdio_common_vswprintf   00000001800251fc f   libucrt:output.obj
 0001:00024204       ??$parse_integer@KV?$c_string_character_source@D@__crt_strtox@@@__crt_strtox@@YAKQEAU__crt_locale_pointers@@V?$c_string_character_source@D@0@H_N@Z 0000000180025204 f i libucrt:strtox.obj
 0001:00024508       ??$parse_integer@KV?$c_string_character_source@_W@__crt_strtox@@@__crt_strtox@@YAKQEAU__crt_locale_pointers@@V?$c_string_character_source@_W@0@H_N@Z 0000000180025508 f i libucrt:strtox.obj
 0001:00024bb0       _ischartype_l              0000000180025bb0 f i libucrt:strtox.obj
 0001:00024c28       strtol                     0000000180025c28 f   libucrt:strtox.obj
 0001:00024c54       wcstol                     0000000180025c54 f   libucrt:strtox.obj
 0001:00024c80       wcsncmp                    0000000180025c80 f   libucrt:wcsncmp.obj
 0001:00024cac       __acrt_call_reportfault    0000000180025cac f   libucrt:invalid_parameter.obj
 0001:00024e08       __acrt_initialize_invalid_parameter_handler 0000000180025e08 f   libucrt:invalid_parameter.obj
 0001:00024e10       _invalid_parameter         0000000180025e10 f   libucrt:invalid_parameter.obj
 0001:00024ec0       _invalid_parameter_noinfo  0000000180025ec0 f   libucrt:invalid_parameter.obj
 0001:00024ee0       _invoke_watson             0000000180025ee0 f   libucrt:invalid_parameter.obj
 0001:00024f28       __acrt_errno_from_os_error 0000000180025f28 f   libucrt:errno.obj
 0001:00024f70       __acrt_errno_map_os_error  0000000180025f70 f   libucrt:errno.obj
 0001:00024fc0       __doserrno                 0000000180025fc0 f   libucrt:errno.obj
 0001:00024fe0       _errno                     0000000180025fe0 f   libucrt:errno.obj
 0001:00025000       _initterm                  0000000180026000 f   libucrt:initterm.obj
 0001:00025064       _initterm_e                0000000180026064 f   libucrt:initterm.obj
 0001:000250a4       _seh_filter_dll            00000001800260a4 f   libucrt:exception_filter.obj
 0001:000250b8       _seh_filter_exe            00000001800260b8 f   libucrt:exception_filter.obj
 0001:000254a8       __acrt_initialize_thread_local_exit_callback 00000001800264a8 f   libucrt:exit.obj
 0001:000254b0       _cexit                     00000001800264b0 f   libucrt:exit.obj
 0001:000254c0       _exit                      00000001800264c0 f   libucrt:exit.obj
 0001:000254cc       _is_c_termination_complete 00000001800264cc f   libucrt:exit.obj
 0001:00025694       __acrt_allocate_buffer_for_argv 0000000180026694 f   libucrt:argv_parsing.obj
 0001:000256f4       _configure_narrow_argv     00000001800266f4 f   libucrt:argv_parsing.obj
 0001:00025a6c       __dcrt_uninitialize_environments_nolock 0000000180026a6c f   libucrt:environment_initialization.obj
 0001:00025aa4       _initialize_narrow_environment 0000000180026aa4 f   libucrt:environment_initialization.obj
 0001:00025dec       _crt_atexit                0000000180026dec f   libucrt:onexit.obj
 0001:00025dfc       _execute_onexit_table      0000000180026dfc f   libucrt:onexit.obj
 0001:00025e38       _initialize_onexit_table   0000000180026e38 f   libucrt:onexit.obj
 0001:00025e60       _register_onexit_function  0000000180026e60 f   libucrt:onexit.obj
 0001:00025fd4       __acrt_initialize          0000000180026fd4 f   libucrt:initialization.obj
 0001:00025fe8       __acrt_thread_attach       0000000180026fe8 f   libucrt:initialization.obj
 0001:00025ffc       __acrt_thread_detach       0000000180026ffc f   libucrt:initialization.obj
 0001:0002600c       __acrt_uninitialize        000000018002700c f   libucrt:initialization.obj
 0001:00026044       __acrt_uninitialize_critical 0000000180027044 f   libucrt:initialization.obj
 0001:00026054       terminate                  0000000180027054 f   libucrt:terminate.obj
 0001:00026074       abort                      0000000180027074 f   libucrt:abort.obj
 0001:000260cc       free                       00000001800270cc f   libucrt:free.obj
 0001:000260e0       malloc                     00000001800270e0 f   libucrt:malloc.obj
 0001:000260e8       strcpy_s                   00000001800270e8 f   libucrt:strcpy_s.obj
 0001:00026148       calloc                     0000000180027148 f   libucrt:calloc.obj
 0001:00026160       strncmp                    0000000180027160 f   libucrt:strncmp.obj
 0001:000261e0       _free_base                 00000001800271e0 f   libucrt:free_base.obj
 0001:00026220       _malloc_base               0000000180027220 f   libucrt:malloc_base.obj
 0001:00026280       _mbtowc_l                  0000000180027280 f   libucrt:mbtowc.obj
 0001:00026400       mbtowc                     0000000180027400 f   libucrt:mbtowc.obj
 0001:00026408       _wctomb_s_l                0000000180027408 f   libucrt:wctomb.obj
 0001:000265a4       strnlen                    00000001800275a4 f   libucrt:strnlen.obj
 0001:000266f4       wcsnlen                    00000001800276f4 f   libucrt:strnlen.obj
 0001:00026c44       __acrt_freeptd             0000000180027c44 f   libucrt:per_thread_data.obj
 0001:00026c88       __acrt_getptd              0000000180027c88 f   libucrt:per_thread_data.obj
 0001:00026d5c       __acrt_getptd_head         0000000180027d5c f   libucrt:per_thread_data.obj
 0001:00026e04       __acrt_getptd_noexit       0000000180027e04 f   libucrt:per_thread_data.obj
 0001:00026ed0       __acrt_initialize_ptd      0000000180027ed0 f   libucrt:per_thread_data.obj
 0001:00026f0c       __acrt_uninitialize_ptd    0000000180027f0c f   libucrt:per_thread_data.obj
 0001:00026f30       __acrt_update_locale_info  0000000180027f30 f   libucrt:locale_update.obj
 0001:00026f64       __acrt_update_multibyte_info 0000000180027f64 f   libucrt:locale_update.obj
 0001:000279a4       __acrt_fp_format           00000001800289a4 f   libucrt:cvt.obj
 0001:00027cdc       _fileno                    0000000180028cdc f   libucrt:fileno.obj
 0001:00027d04       __acrt_initialize_stdio    0000000180028d04 f   libucrt:_file.obj
 0001:00027e24       __acrt_uninitialize_stdio  0000000180028e24 f   libucrt:_file.obj
 0001:00027e80       _lock_file                 0000000180028e80 f   libucrt:_file.obj
 0001:00027e8c       _unlock_file               0000000180028e8c f   libucrt:_file.obj
 0001:00027e98       _get_printf_count_output   0000000180028e98 f   libucrt:printf_count_output.obj
 0001:00027f20       __acrt_set_locale_changed  0000000180028f20 f   libucrt:wsetlocale.obj
 0001:00027f2c       __acrt_uninitialize_locale 0000000180028f2c f   libucrt:wsetlocale.obj
 0001:00028158       __acrt_initialize_lowio    0000000180029158 f   libucrt:ioinit.obj
 0001:00028194       __acrt_uninitialize_lowio  0000000180029194 f   libucrt:ioinit.obj
 0001:000281d4       __pctype_func              00000001800291d4 f   libucrt:ctype.obj
 0001:00028204       iswctype                   0000000180029204 f   libucrt:iswctype.obj
 0001:00028270       _isctype_l                 0000000180029270 f   libucrt:isctype.obj
 0001:00028378       __acrt_initialize_locks    0000000180029378 f   libucrt:locks.obj
 0001:000283c0       __acrt_lock                00000001800293c0 f   libucrt:locks.obj
 0001:000283dc       __acrt_uninitialize_locks  00000001800293dc f   libucrt:locks.obj
 0001:00028414       __acrt_unlock              0000000180029414 f   libucrt:locks.obj
 0001:00028430       __acrt_get_process_end_policy 0000000180029430 f   libucrt:win_policies.obj
 0001:0002846c       _calloc_base               000000018002946c f   libucrt:calloc_base.obj
 0001:000284f8       ??$__acrt_mbs_to_wcs_cp@U__crt_win32_buffer_internal_dynamic_resizing@@@@YAHQEBDAEAV?$__crt_win32_buffer@_WU__crt_win32_buffer_internal_dynamic_resizing@@@@I@Z 00000001800294f8 f i libucrt:argv_wildcards.obj
 0001:00028670       ??$__acrt_wcs_to_mbs_cp@U__crt_win32_buffer_internal_dynamic_resizing@@@@YAHQEB_WAEAV?$__crt_win32_buffer@DU__crt_win32_buffer_internal_dynamic_resizing@@@@I@Z 0000000180029670 f i libucrt:argv_wildcards.obj
 0001:00028ea0       __acrt_expand_narrow_argv_wildcards 0000000180029ea0 f   libucrt:argv_wildcards.obj
 0001:00028ea8       ??$__acrt_wcs_to_mbs_cp@U__crt_win32_buffer_no_resizing@@@@YAHQEB_WAEAV?$__crt_win32_buffer@DU__crt_win32_buffer_no_resizing@@@@I@Z 0000000180029ea8 f i libucrt:getmodulefilenamea.obj
 0001:00028fbc       __acrt_GetModuleFileNameA  0000000180029fbc f   libucrt:getmodulefilenamea.obj
 0001:00029804       __acrt_initialize_multibyte 000000018002a804 f   libucrt:mbctype.obj
 0001:00029864       __acrt_update_thread_multibyte_data 000000018002a864 f   libucrt:mbctype.obj
 0001:00029880       _setmbcp_nolock            000000018002a880 f   libucrt:mbctype.obj
 0001:00029bb4       _ismbblead                 000000018002abb4 f   libucrt:ismbbyte.obj
 0001:00029bc8       __acrt_initialize_command_line 000000018002abc8 f   libucrt:argv_data.obj
 0001:00029bf0       __acrt_MultiByteToWideChar 000000018002abf0 f   libucrt:multibytetowidechar.obj
 0001:00029c4c       __acrt_WideCharToMultiByte 000000018002ac4c f   libucrt:widechartomultibyte.obj
 0001:00029cfc       __dcrt_get_narrow_environment_from_os 000000018002acfc f   libucrt:get_environment_from_os.obj
 0001:00029e00       _recalloc_base             000000018002ae00 f   libucrt:recalloc.obj
 0001:0002a070       __acrt_AppPolicyGetProcessTerminationMethodInternal 000000018002b070 f   libucrt:winapi_thunks.obj
 0001:0002a0c0       __acrt_AreFileApisANSI     000000018002b0c0 f   libucrt:winapi_thunks.obj
 0001:0002a0fc       __acrt_FlsAlloc            000000018002b0fc f   libucrt:winapi_thunks.obj
 0001:0002a144       __acrt_FlsFree             000000018002b144 f   libucrt:winapi_thunks.obj
 0001:0002a18c       __acrt_FlsGetValue         000000018002b18c f   libucrt:winapi_thunks.obj
 0001:0002a1d4       __acrt_FlsSetValue         000000018002b1d4 f   libucrt:winapi_thunks.obj
 0001:0002a228       __acrt_InitializeCriticalSectionEx 000000018002b228 f   libucrt:winapi_thunks.obj
 0001:0002a28c       __acrt_LCMapStringEx       000000018002b28c f   libucrt:winapi_thunks.obj
 0001:0002a368       __acrt_LocaleNameToLCID    000000018002b368 f   libucrt:winapi_thunks.obj
 0001:0002a3b8       __acrt_initialize_winapi_thunks 000000018002b3b8 f   libucrt:winapi_thunks.obj
 0001:0002a3ec       __acrt_uninitialize_winapi_thunks 000000018002b3ec f   libucrt:winapi_thunks.obj
 0001:0002a430       __acrt_initialize_heap     000000018002b430 f   libucrt:heap_handle.obj
 0001:0002a44c       __acrt_uninitialize_heap   000000018002b44c f   libucrt:heap_handle.obj
 0001:0002a458       __acrt_execute_initializers 000000018002b458 f   libucrt:shared_initialization.obj
 0001:0002a4d8       __acrt_execute_uninitializers 000000018002b4d8 f   libucrt:shared_initialization.obj
 0001:0002a514       __acrt_initialize_new_handler 000000018002b514 f   libucrt:new_handler.obj
 0001:0002a51c       _callnewh                  000000018002b51c f   libucrt:new_handler.obj
 0001:0002a54c       _query_new_handler         000000018002b54c f   libucrt:new_handler.obj
 0001:0002a5c8       __acrt_get_sigabrt_handler 000000018002b5c8 f   libucrt:signal.obj
 0001:0002a5f8       __acrt_initialize_signal_handlers 000000018002b5f8 f   libucrt:signal.obj
 0001:0002a618       raise                      000000018002b618 f   libucrt:signal.obj
 0001:0002a884       __acrt_has_user_matherr    000000018002b884 f   libucrt:matherr.obj
 0001:0002a8a4       __acrt_initialize_user_matherr 000000018002b8a4 f   libucrt:matherr.obj
 0001:0002a8ac       __acrt_invoke_user_matherr 000000018002b8ac f   libucrt:matherr.obj
 0001:0002aab8       __acrt_stdio_flush_nolock  000000018002bab8 f   libucrt:fflush.obj
 0001:0002ab34       _fflush_nolock             000000018002bb34 f   libucrt:fflush.obj
 0001:0002ab80       _flushall                  000000018002bb80 f   libucrt:fflush.obj
 0001:0002ab88       _query_new_mode            000000018002bb88 f   libucrt:new_mode.obj
 0001:0002ab90       _isleadbyte_l              000000018002bb90 f i libucrt:_wctype.obj
 0001:0002abdc       ?__mbrtowc_utf8@__crt_mbstring@@YA_KPEA_WPEBD_KPEAU_Mbstatet@@@Z 000000018002bbdc f   libucrt:mbrtowc.obj
 0001:0002ac18       ?__mbsrtowcs_utf8@__crt_mbstring@@YA_KPEA_WPEAPEBD_KPEAU_Mbstatet@@@Z 000000018002bc18 f   libucrt:mbrtowc.obj
 0001:0002ad90       ?__c32rtomb_utf8@__crt_mbstring@@YA_KPEAD_UPEAU_Mbstatet@@@Z 000000018002bd90 f   libucrt:c32rtomb.obj
 0001:0002ae44       __acrt_add_locale_ref      000000018002be44 f   libucrt:locale_refcounting.obj
 0001:0002aed0       __acrt_free_locale         000000018002bed0 f   libucrt:locale_refcounting.obj
 0001:0002b048       __acrt_locale_add_lc_time_reference 000000018002c048 f   libucrt:locale_refcounting.obj
 0001:0002b070       __acrt_locale_free_lc_time_if_unreferenced 000000018002c070 f   libucrt:locale_refcounting.obj
 0001:0002b0a8       __acrt_locale_release_lc_time_reference 000000018002c0a8 f   libucrt:locale_refcounting.obj
 0001:0002b0d0       __acrt_release_locale_ref  000000018002c0d0 f   libucrt:locale_refcounting.obj
 0001:0002b178       __acrt_update_thread_locale_data 000000018002c178 f   libucrt:locale_refcounting.obj
 0001:0002b1e8       _updatetlocinfoEx_nolock   000000018002c1e8 f   libucrt:locale_refcounting.obj
 0001:0002b250       __acrt_fp_strflt_to_string 000000018002c250 f   libucrt:_fptostr.obj
 0001:0002b3b0       ?divide@__crt_strtox@@YA_KAEAUbig_integer@1@AEBU21@@Z 000000018002c3b0 f i libucrt:cfout.obj
 0001:0002b7dc       __acrt_fltout              000000018002c7dc f   libucrt:cfout.obj
 0001:0002caa8       fegetround                 000000018002daa8 f   libucrt:fegetround.obj
 0001:0002cabc       _fcloseall                 000000018002dabc f   libucrt:closeall.obj
 0001:0002cb70       __acrt_stdio_free_buffer_nolock 000000018002db70 f   libucrt:_freebuf.obj
 0001:0002cbb0       _isatty                    000000018002dbb0 f   libucrt:isatty.obj
 0001:0002cc10       __acrt_locale_free_monetary 000000018002dc10 f   libucrt:initmon.obj
 0001:0002cd1c       __acrt_locale_free_numeric 000000018002dd1c f   libucrt:initnum.obj
 0001:0002cde0       __acrt_locale_free_time    000000018002dde0 f   libucrt:inittime.obj
 0001:0002cee8       __acrt_GetStringTypeA      000000018002dee8 f   libucrt:getstringtypea.obj
 0001:0002d078       __acrt_lowio_create_handle_array 000000018002e078 f   libucrt:osfinfo.obj
 0001:0002d120       __acrt_lowio_destroy_handle_array 000000018002e120 f   libucrt:osfinfo.obj
 0001:0002d170       __acrt_lowio_ensure_fh_exists 000000018002e170 f   libucrt:osfinfo.obj
 0001:0002d218       __acrt_lowio_lock_fh       000000018002e218 f   libucrt:osfinfo.obj
 0001:0002d240       __acrt_lowio_unlock_fh     000000018002e240 f   libucrt:osfinfo.obj
 0001:0002d268       _free_osfhnd               000000018002e268 f   libucrt:osfinfo.obj
 0001:0002d324       _get_osfhandle             000000018002e324 f   libucrt:osfinfo.obj
 0001:0002d39c       __acrt_GetStringTypeW      000000018002e39c f   libucrt:getstringtypew.obj
 0001:0002d3b0       qsort                      000000018002e3b0 f   libucrt:qsort.obj
 0001:0002d750       strncpy_s                  000000018002e750 f   libucrt:strncpy_s.obj
 0001:0002d8d0       strpbrk                    000000018002e8d0 f   libucrt:strpbrk.obj
 0001:0002dc98       _mbsdec                    000000018002ec98 f   libucrt:mbsdec.obj
 0001:0002dca0       _mbsdec_l                  000000018002eca0 f   libucrt:mbsdec.obj
 0001:0002e04c       __acrt_LCMapStringA        000000018002f04c f   libucrt:lcmapstringa.obj
 0001:0002e0fc       _msize_base                000000018002f0fc f   libucrt:msize.obj
 0001:0002e138       _realloc_base              000000018002f138 f   libucrt:realloc_base.obj
 0001:0002e1b4       __acrt_DownlevelLocaleNameToLCID 000000018002f1b4 f   libucrt:lcidtoname_downlevel.obj
 0001:0002e2f0       _commit                    000000018002f2f0 f   libucrt:commit.obj
 0001:0002ec00       _write                     000000018002fc00 f   libucrt:write.obj
 0001:0002ecec       _write_nolock              000000018002fcec f   libucrt:write.obj
 0001:0002efd0       ?__mbrtoc32_utf8@__crt_mbstring@@YA_KPEA_UPEBD_KPEAU_Mbstatet@@@Z 000000018002ffd0 f   libucrt:mbrtoc32.obj
 0001:0002f1a8       _controlfp_s               00000001800301a8 f   libucrt:contrlfp.obj
 0001:0002f20c       fegetenv                   000000018003020c f   libucrt:fegetenv.obj
 0001:0002f22c       fesetenv                   000000018003022c f   libucrt:fesetenv.obj
 0001:0002f278       feholdexcept               0000000180030278 f   libucrt:feholdexcept.obj
 0001:0002f2c8       ceil                       00000001800302c8 f   libucrt:ceil.obj
 0001:0002f390       log10                      0000000180030390 f   libucrt:log10.obj
 0001:0002f93c       __acrt_fenv_get_common_round_control 000000018003093c f   libucrt:_fenvutils.obj
 0001:0002f948       __acrt_fenv_get_control    0000000180030948 f   libucrt:_fenvutils.obj
 0001:0002fa3c       __acrt_fenv_get_status     0000000180030a3c f   libucrt:_fenvutils.obj
 0001:0002fa90       __acrt_fenv_set_control    0000000180030a90 f   libucrt:_fenvutils.obj
 0001:0002fbd8       __acrt_fenv_set_status     0000000180030bd8 f   libucrt:_fenvutils.obj
 0001:0002fcf8       _lseeki64_nolock           0000000180030cf8 f   libucrt:lseek.obj
 0001:0002fd00       _fclose_nolock             0000000180030d00 f   libucrt:fclose.obj
 0001:0002fd84       fclose                     0000000180030d84 f   libucrt:fclose.obj
 0001:0002fde8       __ascii_wcsnicmp           0000000180030de8 f   libucrt:wcsnicmp.obj
 0001:0002fe34       _query_app_type            0000000180030e34 f   libucrt:report_runtime_error.obj
 0001:0002fe3c       __strncnt                  0000000180030e3c f   libucrt:strncnt.obj
 0001:0002fe54       _putwch_nolock             0000000180030e54 f   libucrt:putwch.obj
 0001:0002fe90       _clearfp                   0000000180030e90 f   libucrt:ieee.obj
 0001:0002ff00       _control87                 0000000180030f00 f   libucrt:ieee.obj
 0001:000302ec       _handle_error              00000001800312ec f   libucrt:libm_error.obj
 0001:00030414       _handle_nan                0000000180031414 f   libucrt:libm_error.obj
 0001:00030430       __acrt_initialize_fma3     0000000180031430 f   libucrt:fma3_available.obj
 0001:000304a0       _log10_special             00000001800314a0 f   libucrt:log_special.obj
 0001:000305cc       _close                     00000001800315cc f   libucrt:close.obj
 0001:00030670       _close_nolock              0000000180031670 f   libucrt:close.obj
 0001:00030730       ?__acrt_stdio_free_stream@@YAXV__crt_stdio_stream@@@Z 0000000180031730 f   libucrt:stream.obj
 0001:0003074c       __dcrt_lowio_ensure_console_output_initialized 000000018003174c f   libucrt:initcon.obj
 0001:000307a0       __dcrt_terminate_console_output 00000001800317a0 f   libucrt:initcon.obj
 0001:000307bc       __dcrt_write_console       00000001800317bc f   libucrt:initcon.obj
 0001:00030890       _get_fpsr                  0000000180031890 f   libucrt:fpsr.obj
 0001:000308a0       _set_fpsr                  00000001800318a0 f   libucrt:fpsr.obj
 0001:000308aa       _fclrf                     00000001800318aa f   libucrt:fpsr.obj
 0001:000308be       _frnd                      00000001800318be f   libucrt:fpsr.obj
 0001:000308e0       _raise_exc                 00000001800318e0 f   libucrt:fpexcept.obj
 0001:00030908       _raise_exc_ex              0000000180031908 f   libucrt:fpexcept.obj
 0001:00030c18       _set_errno_from_matherr    0000000180031c18 f   libucrt:fpexcept.obj
 0001:00030c48       _clrfp                     0000000180031c48 f   libucrt:fpctrl.obj
 0001:00030c68       _ctrlfp                    0000000180031c68 f   libucrt:fpctrl.obj
 0001:00030ce4       _set_statfp                0000000180031ce4 f   libucrt:fpctrl.obj
 0001:00030d04       _statfp                    0000000180031d04 f   libucrt:fpctrl.obj
 0001:00030d15       Process32FirstW            0000000180031d15 f   kernel32:KERNEL32.dll
 0001:00030d1b       Process32NextW             0000000180031d1b f   kernel32:KERNEL32.dll
 0001:00030d24       ?apiGetConsoleFontSize@@YAHPEAXAEAH1AEAY0CA@_W@Z 0000000180031d24 f   common-kernel64:WConsole.obj
 0001:00030dec       ?apiGetCurrentConsoleFontEx@@YAHPEAXHPEAUMY_CONSOLE_FONT_INFOEX@@@Z 0000000180031dec f   common-kernel64:WConsole.obj
 0001:00030e68       ?apiSetConsoleFontSize@@YAHPEAXHHPEB_W@Z 0000000180031e68 f   common-kernel64:WConsole.obj
 0001:00030fd4       ?apiSetCurrentConsoleFontEx@@YAHPEAXHPEAUMY_CONSOLE_FONT_INFOEX@@@Z 0000000180031fd4 f   common-kernel64:WConsole.obj
 0001:00031050       _FindPESection             0000000180032050 f   LIBCMT:pesect.obj
 0001:000310a0       _IsNonwritableInCurrentImage 00000001800320a0 f   LIBCMT:pesect.obj
 0001:000310f0       _ValidateImageBase         00000001800320f0 f   LIBCMT:pesect.obj
 0001:00031120       __GSHandlerCheck_SEH       0000000180032120 f   LIBCMT:gshandlerseh.obj
 0001:000311c0       _guard_dispatch_icall_nop  00000001800321c0 f   LIBCMT:guard_dispatch.obj
 0001:000311e0       _guard_xfg_dispatch_icall_nop 00000001800321e0 f   LIBCMT:guard_xfg_dispatch.obj
 0002:00000000       __imp_RegQueryValueExW     0000000180033000     advapi32:ADVAPI32.dll
 0002:00000008       __imp_RegOpenKeyExW        0000000180033008     advapi32:ADVAPI32.dll
 0002:00000010       __imp_RegCloseKey          0000000180033010     advapi32:ADVAPI32.dll
 0002:00000018       __imp_RegCreateKeyExW      0000000180033018     advapi32:ADVAPI32.dll
 0002:00000020       \177ADVAPI32_NULL_THUNK_DATA 0000000180033020     advapi32:ADVAPI32.dll
 0002:00000028       __imp_GdiFlush             0000000180033028     gdi32:GDI32.dll
 0002:00000030       __imp_GetEnhMetaFileBits   0000000180033030     gdi32:GDI32.dll
 0002:00000038       __imp_DeleteEnhMetaFile    0000000180033038     gdi32:GDI32.dll
 0002:00000040       __imp_CreateEnhMetaFileW   0000000180033040     gdi32:GDI32.dll
 0002:00000048       __imp_CloseEnhMetaFile     0000000180033048     gdi32:GDI32.dll
 0002:00000050       __imp_GetDeviceCaps        0000000180033050     gdi32:GDI32.dll
 0002:00000058       __imp_DeleteObject         0000000180033058     gdi32:GDI32.dll
 0002:00000060       __imp_CreateSolidBrush     0000000180033060     gdi32:GDI32.dll
 0002:00000068       __imp_CreateCompatibleDC   0000000180033068     gdi32:GDI32.dll
 0002:00000070       __imp_CreateFontIndirectW  0000000180033070     gdi32:GDI32.dll
 0002:00000078       __imp_DeleteDC             0000000180033078     gdi32:GDI32.dll
 0002:00000080       __imp_SelectObject         0000000180033080     gdi32:GDI32.dll
 0002:00000088       __imp_GetTextMetricsW      0000000180033088     gdi32:GDI32.dll
 0002:00000090       \177GDI32_NULL_THUNK_DATA  0000000180033090     gdi32:GDI32.dll
 0002:00000098       __imp_CreateEventW         0000000180033098     kernel32:KERNEL32.dll
 0002:000000a0       __imp_Sleep                00000001800330a0     kernel32:KERNEL32.dll
 0002:000000a8       __imp_WaitForMultipleObjects 00000001800330a8     kernel32:KERNEL32.dll
 0002:000000b0       __imp_CreateSemaphoreW     00000001800330b0     kernel32:KERNEL32.dll
 0002:000000b8       __imp_GetCurrentProcess    00000001800330b8     kernel32:KERNEL32.dll
 0002:000000c0       __imp_TerminateProcess     00000001800330c0     kernel32:KERNEL32.dll
 0002:000000c8       __imp_GetExitCodeProcess   00000001800330c8     kernel32:KERNEL32.dll
 0002:000000d0       __imp_GetCurrentThreadId   00000001800330d0     kernel32:KERNEL32.dll
 0002:000000d8       __imp_SuspendThread        00000001800330d8     kernel32:KERNEL32.dll
 0002:000000e0       __imp_ResumeThread         00000001800330e0     kernel32:KERNEL32.dll
 0002:000000e8       __imp_CreateProcessW       00000001800330e8     kernel32:KERNEL32.dll
 0002:000000f0       __imp_GetTickCount         00000001800330f0     kernel32:KERNEL32.dll
 0002:000000f8       __imp_VirtualQuery         00000001800330f8     kernel32:KERNEL32.dll
 0002:00000100       __imp_CreateFileMappingW   0000000180033100     kernel32:KERNEL32.dll
 0002:00000108       __imp_OpenFileMappingW     0000000180033108     kernel32:KERNEL32.dll
 0002:00000110       __imp_MapViewOfFile        0000000180033110     kernel32:KERNEL32.dll
 0002:00000118       __imp_UnmapViewOfFile      0000000180033118     kernel32:KERNEL32.dll
 0002:00000120       __imp_GetModuleFileNameW   0000000180033120     kernel32:KERNEL32.dll
 0002:00000128       __imp_lstrcmpW             0000000180033128     kernel32:KERNEL32.dll
 0002:00000130       __imp_lstrcmpiW            0000000180033130     kernel32:KERNEL32.dll
 0002:00000138       __imp_lstrcatW             0000000180033138     kernel32:KERNEL32.dll
 0002:00000140       __imp_IsBadStringPtrW      0000000180033140     kernel32:KERNEL32.dll
 0002:00000148       __imp_GetConsoleMode       0000000180033148     kernel32:KERNEL32.dll
 0002:00000150       __imp_SetConsoleMode       0000000180033150     kernel32:KERNEL32.dll
 0002:00000158       __imp_GetNumberOfConsoleInputEvents 0000000180033158     kernel32:KERNEL32.dll
 0002:00000160       __imp_ReadConsoleInputW    0000000180033160     kernel32:KERNEL32.dll
 0002:00000168       __imp_lstrcpynA            0000000180033168     kernel32:KERNEL32.dll
 0002:00000170       __imp_GetConsoleCursorInfo 0000000180033170     kernel32:KERNEL32.dll
 0002:00000178       __imp_GetConsoleScreenBufferInfo 0000000180033178     kernel32:KERNEL32.dll
 0002:00000180       __imp_WriteConsoleInputW   0000000180033180     kernel32:KERNEL32.dll
 0002:00000188       __imp_GetConsoleTitleW     0000000180033188     kernel32:KERNEL32.dll
 0002:00000190       __imp_SetConsoleTitleW     0000000180033190     kernel32:KERNEL32.dll
 0002:00000198       __imp_WaitForSingleObject  0000000180033198     kernel32:KERNEL32.dll
 0002:000001a0       __imp_Thread32First        00000001800331a0     kernel32:KERNEL32.dll
 0002:000001a8       __imp_Thread32Next         00000001800331a8     kernel32:KERNEL32.dll
 0002:000001b0       __imp_Module32FirstW       00000001800331b0     kernel32:KERNEL32.dll
 0002:000001b8       __imp_Module32NextW        00000001800331b8     kernel32:KERNEL32.dll
 0002:000001c0       __imp_FlushFileBuffers     00000001800331c0     kernel32:KERNEL32.dll
 0002:000001c8       __imp_ReadFile             00000001800331c8     kernel32:KERNEL32.dll
 0002:000001d0       __imp_WriteFile            00000001800331d0     kernel32:KERNEL32.dll
 0002:000001d8       __imp_ConnectNamedPipe     00000001800331d8     kernel32:KERNEL32.dll
 0002:000001e0       __imp_DisconnectNamedPipe  00000001800331e0     kernel32:KERNEL32.dll
 0002:000001e8       __imp_CreateNamedPipeW     00000001800331e8     kernel32:KERNEL32.dll
 0002:000001f0       __imp_GetOverlappedResult  00000001800331f0     kernel32:KERNEL32.dll
 0002:000001f8       __imp_SetThreadPriority    00000001800331f8     kernel32:KERNEL32.dll
 0002:00000200       __imp_GetExitCodeThread    0000000180033200     kernel32:KERNEL32.dll
 0002:00000208       __imp_lstrlenW             0000000180033208     kernel32:KERNEL32.dll
 0002:00000210       __imp_lstrcpyW             0000000180033210     kernel32:KERNEL32.dll
 0002:00000218       __imp_lstrcpynW            0000000180033218     kernel32:KERNEL32.dll
 0002:00000220       __imp_CloseHandle          0000000180033220     kernel32:KERNEL32.dll
 0002:00000228       __imp_SetEnvironmentVariableW 0000000180033228     kernel32:KERNEL32.dll
 0002:00000230       __imp_VirtualProtect       0000000180033230     kernel32:KERNEL32.dll
 0002:00000238       __imp_LoadLibraryW         0000000180033238     kernel32:KERNEL32.dll
 0002:00000240       __imp_GetProcAddress       0000000180033240     kernel32:KERNEL32.dll
 0002:00000248       __imp_GetModuleHandleW     0000000180033248     kernel32:KERNEL32.dll
 0002:00000250       __imp_GetCurrentProcessId  0000000180033250     kernel32:KERNEL32.dll
 0002:00000258       __imp_GetLastError         0000000180033258     kernel32:KERNEL32.dll
 0002:00000260       __imp_ReleaseSemaphore     0000000180033260     kernel32:KERNEL32.dll
 0002:00000268       __imp_ResetEvent           0000000180033268     kernel32:KERNEL32.dll
 0002:00000270       __imp_SetEvent             0000000180033270     kernel32:KERNEL32.dll
 0002:00000278       __imp_SetLastError         0000000180033278     kernel32:KERNEL32.dll
 0002:00000280       __imp_IsDebuggerPresent    0000000180033280     kernel32:KERNEL32.dll
 0002:00000288       __imp_DeleteFileW          0000000180033288     kernel32:KERNEL32.dll
 0002:00000290       __imp_GetEnvironmentVariableW 0000000180033290     kernel32:KERNEL32.dll
 0002:00000298       __imp_GetEnvironmentStringsW 0000000180033298     kernel32:KERNEL32.dll
 0002:000002a0       __imp_GetStdHandle         00000001800332a0     kernel32:KERNEL32.dll
 0002:000002a8       __imp_WideCharToMultiByte  00000001800332a8     kernel32:KERNEL32.dll
 0002:000002b0       __imp_MultiByteToWideChar  00000001800332b0     kernel32:KERNEL32.dll
 0002:000002b8       __imp_lstrlenA             00000001800332b8     kernel32:KERNEL32.dll
 0002:000002c0       __imp_CreateToolhelp32Snapshot 00000001800332c0     kernel32:KERNEL32.dll
 0002:000002c8       __imp_lstrcpyA             00000001800332c8     kernel32:KERNEL32.dll
 0002:000002d0       __imp_PeekConsoleInputW    00000001800332d0     kernel32:KERNEL32.dll
 0002:000002d8       __imp_FreeLibrary          00000001800332d8     kernel32:KERNEL32.dll
 0002:000002e0       __imp_HeapCreate           00000001800332e0     kernel32:KERNEL32.dll
 0002:000002e8       __imp_HeapDestroy          00000001800332e8     kernel32:KERNEL32.dll
 0002:000002f0       __imp_HeapAlloc            00000001800332f0     kernel32:KERNEL32.dll
 0002:000002f8       __imp_HeapReAlloc          00000001800332f8     kernel32:KERNEL32.dll
 0002:00000300       __imp_HeapFree             0000000180033300     kernel32:KERNEL32.dll
 0002:00000308       __imp_CreateFileW          0000000180033308     kernel32:KERNEL32.dll
 0002:00000310       __imp_SetNamedPipeHandleState 0000000180033310     kernel32:KERNEL32.dll
 0002:00000318       __imp_TransactNamedPipe    0000000180033318     kernel32:KERNEL32.dll
 0002:00000320       __imp_WaitNamedPipeW       0000000180033320     kernel32:KERNEL32.dll
 0002:00000328       __imp_GetConsoleWindow     0000000180033328     kernel32:KERNEL32.dll
 0002:00000330       __imp_DebugBreak           0000000180033330     kernel32:KERNEL32.dll
 0002:00000338       __imp_RaiseException       0000000180033338     kernel32:KERNEL32.dll
 0002:00000340       __imp_CreateThread         0000000180033340     kernel32:KERNEL32.dll
 0002:00000348       __imp_TerminateThread      0000000180033348     kernel32:KERNEL32.dll
 0002:00000350       __imp_FreeEnvironmentStringsW 0000000180033350     kernel32:KERNEL32.dll
 0002:00000358       __imp_ExpandEnvironmentStringsW 0000000180033358     kernel32:KERNEL32.dll
 0002:00000360       __imp_WriteConsoleW        0000000180033360     kernel32:KERNEL32.dll
 0002:00000368       __imp_LocalAlloc           0000000180033368     kernel32:KERNEL32.dll
 0002:00000370       __imp_LocalFree            0000000180033370     kernel32:KERNEL32.dll
 0002:00000378       __imp_VerSetConditionMask  0000000180033378     kernel32:KERNEL32.dll
 0002:00000380       __imp_FindClose            0000000180033380     kernel32:KERNEL32.dll
 0002:00000388       __imp_FindFirstFileW       0000000180033388     kernel32:KERNEL32.dll
 0002:00000390       __imp_FindNextFileW        0000000180033390     kernel32:KERNEL32.dll
 0002:00000398       __imp_GetFileInformationByHandle 0000000180033398     kernel32:KERNEL32.dll
 0002:000003a0       __imp_VerifyVersionInfoW   00000001800333a0     kernel32:KERNEL32.dll
 0002:000003a8       __imp_Process32FirstW      00000001800333a8     kernel32:KERNEL32.dll
 0002:000003b0       __imp_Process32NextW       00000001800333b0     kernel32:KERNEL32.dll
 0002:000003b8       __imp_OpenThread           00000001800333b8     kernel32:KERNEL32.dll
 0002:000003c0       __imp_GetSystemInfo        00000001800333c0     kernel32:KERNEL32.dll
 0002:000003c8       __imp_VirtualAlloc         00000001800333c8     kernel32:KERNEL32.dll
 0002:000003d0       __imp_VirtualFree          00000001800333d0     kernel32:KERNEL32.dll
 0002:000003d8       __imp_IsBadReadPtr         00000001800333d8     kernel32:KERNEL32.dll
 0002:000003e0       __imp_InitializeCriticalSection 00000001800333e0     kernel32:KERNEL32.dll
 0002:000003e8       __imp_EnterCriticalSection 00000001800333e8     kernel32:KERNEL32.dll
 0002:000003f0       __imp_LeaveCriticalSection 00000001800333f0     kernel32:KERNEL32.dll
 0002:000003f8       __imp_TryEnterCriticalSection 00000001800333f8     kernel32:KERNEL32.dll
 0002:00000400       __imp_DeleteCriticalSection 0000000180033400     kernel32:KERNEL32.dll
 0002:00000408       __imp_ReleaseMutex         0000000180033408     kernel32:KERNEL32.dll
 0002:00000410       __imp_CreateMutexW         0000000180033410     kernel32:KERNEL32.dll
 0002:00000418       __imp_GetConsoleOutputCP   0000000180033418     kernel32:KERNEL32.dll
 0002:00000420       __imp_GetStartupInfoW      0000000180033420     kernel32:KERNEL32.dll
 0002:00000428       __imp_InitializeCriticalSectionAndSpinCount 0000000180033428     kernel32:KERNEL32.dll
 0002:00000430       __imp_WaitForSingleObjectEx 0000000180033430     kernel32:KERNEL32.dll
 0002:00000438       __imp_RtlCaptureContext    0000000180033438     kernel32:KERNEL32.dll
 0002:00000440       __imp_RtlLookupFunctionEntry 0000000180033440     kernel32:KERNEL32.dll
 0002:00000448       __imp_RtlVirtualUnwind     0000000180033448     kernel32:KERNEL32.dll
 0002:00000450       __imp_UnhandledExceptionFilter 0000000180033450     kernel32:KERNEL32.dll
 0002:00000458       __imp_SetUnhandledExceptionFilter 0000000180033458     kernel32:KERNEL32.dll
 0002:00000460       __imp_IsProcessorFeaturePresent 0000000180033460     kernel32:KERNEL32.dll
 0002:00000468       __imp_QueryPerformanceCounter 0000000180033468     kernel32:KERNEL32.dll
 0002:00000470       __imp_GetSystemTimeAsFileTime 0000000180033470     kernel32:KERNEL32.dll
 0002:00000478       __imp_InitializeSListHead  0000000180033478     kernel32:KERNEL32.dll
 0002:00000480       __imp_RtlUnwindEx          0000000180033480     kernel32:KERNEL32.dll
 0002:00000488       __imp_RtlPcToFileHeader    0000000180033488     kernel32:KERNEL32.dll
 0002:00000490       __imp_InterlockedFlushSList 0000000180033490     kernel32:KERNEL32.dll
 0002:00000498       __imp_EncodePointer        0000000180033498     kernel32:KERNEL32.dll
 0002:000004a0       __imp_TlsAlloc             00000001800334a0     kernel32:KERNEL32.dll
 0002:000004a8       __imp_TlsGetValue          00000001800334a8     kernel32:KERNEL32.dll
 0002:000004b0       __imp_TlsSetValue          00000001800334b0     kernel32:KERNEL32.dll
 0002:000004b8       __imp_TlsFree              00000001800334b8     kernel32:KERNEL32.dll
 0002:000004c0       __imp_LoadLibraryExW       00000001800334c0     kernel32:KERNEL32.dll
 0002:000004c8       __imp_ExitProcess          00000001800334c8     kernel32:KERNEL32.dll
 0002:000004d0       __imp_GetModuleHandleExW   00000001800334d0     kernel32:KERNEL32.dll
 0002:000004d8       __imp_GetFileType          00000001800334d8     kernel32:KERNEL32.dll
 0002:000004e0       __imp_FindFirstFileExW     00000001800334e0     kernel32:KERNEL32.dll
 0002:000004e8       __imp_IsValidCodePage      00000001800334e8     kernel32:KERNEL32.dll
 0002:000004f0       __imp_GetACP               00000001800334f0     kernel32:KERNEL32.dll
 0002:000004f8       __imp_GetOEMCP             00000001800334f8     kernel32:KERNEL32.dll
 0002:00000500       __imp_GetCPInfo            0000000180033500     kernel32:KERNEL32.dll
 0002:00000508       __imp_GetCommandLineA      0000000180033508     kernel32:KERNEL32.dll
 0002:00000510       __imp_GetCommandLineW      0000000180033510     kernel32:KERNEL32.dll
 0002:00000518       __imp_LCMapStringW         0000000180033518     kernel32:KERNEL32.dll
 0002:00000520       __imp_GetProcessHeap       0000000180033520     kernel32:KERNEL32.dll
 0002:00000528       __imp_SetFilePointerEx     0000000180033528     kernel32:KERNEL32.dll
 0002:00000530       __imp_GetStringTypeW       0000000180033530     kernel32:KERNEL32.dll
 0002:00000538       __imp_SetStdHandle         0000000180033538     kernel32:KERNEL32.dll
 0002:00000540       __imp_HeapSize             0000000180033540     kernel32:KERNEL32.dll
 0002:00000548       \177KERNEL32_NULL_THUNK_DATA 0000000180033548     kernel32:KERNEL32.dll
 0002:00000550       __imp_GetSystemMetrics     0000000180033550     user32:USER32.dll
 0002:00000558       __imp_FindWindowW          0000000180033558     user32:USER32.dll
 0002:00000560       __imp_SetWindowPos         0000000180033560     user32:USER32.dll
 0002:00000568       __imp_EnableWindow         0000000180033568     user32:USER32.dll
 0002:00000570       __imp_IsWindowEnabled      0000000180033570     user32:USER32.dll
 0002:00000578       __imp_GetWindowRect        0000000180033578     user32:USER32.dll
 0002:00000580       __imp_MonitorFromWindow    0000000180033580     user32:USER32.dll
 0002:00000588       __imp_GetMonitorInfoW      0000000180033588     user32:USER32.dll
 0002:00000590       __imp_SendMessageW         0000000180033590     user32:USER32.dll
 0002:00000598       __imp_ShowWindow           0000000180033598     user32:USER32.dll
 0002:000005a0       __imp_ShowWindowAsync      00000001800335a0     user32:USER32.dll
 0002:000005a8       __imp_IsRectEmpty          00000001800335a8     user32:USER32.dll
 0002:000005b0       __imp_EnumDisplayMonitors  00000001800335b0     user32:USER32.dll
 0002:000005b8       __imp_ActivateKeyboardLayout 00000001800335b8     user32:USER32.dll
 0002:000005c0       __imp_LoadKeyboardLayoutW  00000001800335c0     user32:USER32.dll
 0002:000005c8       __imp_FillRect             00000001800335c8     user32:USER32.dll
 0002:000005d0       __imp_ReleaseDC            00000001800335d0     user32:USER32.dll
 0002:000005d8       __imp_GetDC                00000001800335d8     user32:USER32.dll
 0002:000005e0       __imp_GetWindowThreadProcessId 00000001800335e0     user32:USER32.dll
 0002:000005e8       __imp_IsWindowVisible      00000001800335e8     user32:USER32.dll
 0002:000005f0       __imp_PostMessageW         00000001800335f0     user32:USER32.dll
 0002:000005f8       __imp_RegisterWindowMessageW 00000001800335f8     user32:USER32.dll
 0002:00000600       __imp_wsprintfW            0000000180033600     user32:USER32.dll
 0002:00000608       __imp_CharUpperBuffW       0000000180033608     user32:USER32.dll
 0002:00000610       __imp_GetParent            0000000180033610     user32:USER32.dll
 0002:00000618       __imp_GetWindowLongPtrW    0000000180033618     user32:USER32.dll
 0002:00000620       __imp_IsWindow             0000000180033620     user32:USER32.dll
 0002:00000628       __imp_MessageBoxW          0000000180033628     user32:USER32.dll
 0002:00000630       __imp_GetClassNameW        0000000180033630     user32:USER32.dll
 0002:00000638       \177USER32_NULL_THUNK_DATA 0000000180033638     user32:USER32.dll
 0002:00000640       __imp_VerQueryValueW       0000000180033640     version:VERSION.dll
 0002:00000648       __imp_GetFileVersionInfoW  0000000180033648     version:VERSION.dll
 0002:00000650       __imp_GetFileVersionInfoSizeW 0000000180033650     version:VERSION.dll
 0002:00000658       \177VERSION_NULL_THUNK_DATA 0000000180033658     version:VERSION.dll
 0002:00000660       __guard_check_icall_fptr   0000000180033660     LIBCMT:guard_support.obj
 0002:00000668       __guard_xfg_check_icall_fptr 0000000180033668     LIBCMT:guard_support.obj
 0002:00000670       __guard_dispatch_icall_fptr 0000000180033670     LIBCMT:guard_support.obj
 0002:00000678       __guard_xfg_dispatch_icall_fptr 0000000180033678     LIBCMT:guard_support.obj
 0002:00000680       __guard_xfg_table_dispatch_icall_fptr 0000000180033680     LIBCMT:guard_support.obj
 0002:00000688       __xc_a                     0000000180033688     LIBCMT:initializers.obj
 0002:00000698       __xc_z                     0000000180033698     LIBCMT:initializers.obj
 0002:000006a0       __xi_a                     00000001800336a0     LIBCMT:initializers.obj
 0002:000006b0       __acrt_stdio_initializer   00000001800336b0     libucrt:stdio_initializer.obj
 0002:000006b8       __acrt_multibyte_initializer 00000001800336b8     libucrt:multibyte_initializer.obj
 0002:000006c0       __acrt_tran_fma3_initializer 00000001800336c0     libucrt:fma3_initializer.obj
 0002:000006c8       __xi_z                     00000001800336c8     LIBCMT:initializers.obj
 0002:000006d0       __xl_a                     00000001800336d0     LIBCMT:tlssup.obj
 0002:000006d8       __xl_z                     00000001800336d8     LIBCMT:tlssup.obj
 0002:000006e0       __xp_a                     00000001800336e0     LIBCMT:initializers.obj
 0002:000006e8       __acrt_locale_terminator   00000001800336e8     libucrt:locale_initializer.obj
 0002:000006f0       __dcrt_console_output_terminator 00000001800336f0     libucrt:console_output_initializer.obj
 0002:000006f8       __acrt_stdio_terminator    00000001800336f8     libucrt:stdio_initializer.obj
 0002:00000700       __xp_z                     0000000180033700     LIBCMT:initializers.obj
 0002:00000708       __xt_a                     0000000180033708     LIBCMT:initializers.obj
 0002:00000710       __xt_z                     0000000180033710     LIBCMT:initializers.obj
 0002:00000720       ??_C@_1BO@MLCHEAGG@?$AAC?$AAo?$AAn?$AAE?$AAm?$AAu?$AAH?$AAk?$AA6?$AA4?$AA?4?$AAd?$AAl?$AAl@ 0000000180033720     ConEmuInjects.obj
 0002:00000740       ??_C@_1IM@IDJBHJMA@?$AAC?$AAo?$AAn?$AAE?$AAm?$AAu?$AAH?$AAk?$AA?5?$AAw?$AAa?$AAs?$AA?5?$AAn?$AAo@ 0000000180033740     ConEmuInjects.obj
 0002:000007d0       ??_C@_1BM@LHLFCECN@?$AAC?$AAo?$AAn?$AAE?$AAm?$AAu?$AA?5?$AAp?$AAl?$AAu?$AAg?$AAi?$AAn@ 00000001800337d0     ConEmuInjects.obj
 0002:000007f0       ??_C@_0BB@OPFPFOCM@SetHookCallbacks@ 00000001800337f0     ConEmuInjects.obj
 0002:00000808       ??_C@_0BH@HLKHEPME@SetLoadLibraryCallback@ 0000000180033808     ConEmuInjects.obj
 0002:00000820       ??_C@_0P@JOHNNMGG@SetFarHookMode@ 0000000180033820     ConEmuInjects.obj
 0002:00000830       ??_C@_1CM@DEPCLAGE@?$AAC?$AAo?$AAn?$AAE?$AAm?$AAu?$AA?5?$AAp?$AAl?$AAu?$AAg?$AAi?$AAn?$AA?0?$AA?5@ 0000000180033830     ConEmuInjects.obj
 0002:00000860       ??_C@_1CC@JNEFFKJH@?$AAS?$AAe?$AAt?$AAH?$AAo?$AAo?$AAk?$AAC?$AAa?$AAl?$AAl?$AAb?$AAa?$AAc?$AAk@ 0000000180033860     ConEmuInjects.obj
 0002:00000888       ??_C@_1CO@HHOFMBDD@?$AAS?$AAe?$AAt?$AAL?$AAo?$AAa?$AAd?$AAL?$AAi?$AAb?$AAr?$AAa?$AAr?$AAy?$AAC@ 0000000180033888     ConEmuInjects.obj
 0002:000008b8       ??_C@_1BO@OGOEDKED@?$AAS?$AAe?$AAt?$AAF?$AAa?$AAr?$AAH?$AAo?$AAo?$AAk?$AAM?$AAo?$AAd?$AAe@ 00000001800338b8     ConEmuInjects.obj
 0002:000008e0       ??_C@_1FG@GKBMDCCM@?$AAC?$AAo?$AAn?$AAE?$AAm?$AAu?$AAH?$AAk?$AA?5?$AAi?$AAs?$AA?5?$AAb?$AAr?$AAo@ 00000001800338e0     ConEmuInjects.obj
 0002:00000938       ??_C@_1BK@MGMFAEKH@?$AAk?$AAe?$AAr?$AAn?$AAe?$AAl?$AA3?$AA2?$AA?4?$AAd?$AAl?$AAl@ 0000000180033938     ConEmuInjects.obj
 0002:00000958       ??_C@_0M@LAGCIMKJ@FreeConsole@ 0000000180033958     ConEmuInjects.obj
 0002:00000968       ??_C@_0N@MOGGHBHN@AllocConsole@ 0000000180033968     ConEmuInjects.obj
 0002:00000978       ??_C@_0BC@BINPJBNK@PeekConsoleInputA@ 0000000180033978     ConEmuInjects.obj
 0002:00000990       ??_C@_0BC@EEHCEAN@PeekConsoleInputW@ 0000000180033990     ConEmuInjects.obj
 0002:000009a8       ??_C@_0BC@JNLCHFED@ReadConsoleInputA@ 00000001800339a8     ConEmuInjects.obj
 0002:000009c0       ??_C@_0BC@IBCKMAJE@ReadConsoleInputW@ 00000001800339c0     ConEmuInjects.obj
 0002:000009d8       ??_C@_0BE@PKLMIEOM@WriteConsoleOutputA@ 00000001800339d8     ConEmuInjects.obj
 0002:000009f0       ??_C@_0BE@OGCEDBDL@WriteConsoleOutputW@ 00000001800339f0     ConEmuInjects.obj
 0002:00000a08       ??_C@_0BO@HCPBIAL@GetNumberOfConsoleInputEvents@ 0000000180033a08     ConEmuInjects.obj
 0002:00000a28       ??_C@_1BI@BNFKGMFK@?$AAs?$AAh?$AAe?$AAl?$AAl?$AA3?$AA2?$AA?4?$AAd?$AAl?$AAl@ 0000000180033a28     ConEmuInjects.obj
 0002:00000a40       ??_C@_0BA@LIPPODFA@ShellExecuteExW@ 0000000180033a40     ConEmuInjects.obj
 0002:00000a50       ??_C@_1CM@NELFNPDE@?$AAE?$AAx?$AAt?$AAe?$AAn?$AAd?$AAe?$AAd?$AAC?$AAo?$AAn?$AAs?$AAo?$AAl?$AAe@ 0000000180033a50     ConEmuInjects.obj
 0002:00000a80       ??_C@_0BE@MFLNGBIK@SetConsoleCallbacks@ 0000000180033a80     ConEmuInjects.obj
 0002:00000a98       ??_C@_08BCACMCCB@ExitFARW@ 0000000180033a98     ConEmuPlugin.obj
 0002:00000aa8       ??_C@_0BE@PJBDJPG@ProcessEditorEventW@ 0000000180033aa8     ConEmuPlugin.obj
 0002:00000ac0       ??_C@_0BE@OMPAFBFG@ProcessViewerEventW@ 0000000180033ac0     ConEmuPlugin.obj
 0002:00000ad8       ??_C@_0BF@NLPJFAHE@ProcessSynchroEventW@ 0000000180033ad8     ConEmuPlugin.obj
 0002:00000af0       ??_C@_1BA@JOPOJEME@?$AAE?$AAx?$AAi?$AAt?$AAF?$AAA?$AAR@ 0000000180033af0     ConEmuPlugin.obj
 0002:00000b00       ??_C@_1BO@LDDOEOAL@?$AAE?$AAx?$AAi?$AAt?$AAF?$AAA?$AAR?$AA?5?$AA?9?$AA?5?$AAd?$AAo?$AAn?$AAe@ 0000000180033b00     ConEmuPlugin.obj
 0002:00000b20       ??_C@_1BC@OCOOMPC@?$AAE?$AAx?$AAi?$AAt?$AAF?$AAA?$AAR?$AAW@ 0000000180033b20     ConEmuPlugin.obj
 0002:00000b38       ??_C@_1CA@IFHGCKFI@?$AAE?$AAx?$AAi?$AAt?$AAF?$AAA?$AAR?$AAW?$AA?5?$AA?9?$AA?5?$AAd?$AAo?$AAn?$AAe@ 0000000180033b38     ConEmuPlugin.obj
 0002:00000b58       ??_C@_1BE@GNKIHEAN@?$AAE?$AAx?$AAi?$AAt?$AAF?$AAA?$AAR?$AAW?$AA3@ 0000000180033b58     ConEmuPlugin.obj
 0002:00000b70       ??_C@_1CC@LCFMKIJA@?$AAE?$AAx?$AAi?$AAt?$AAF?$AAA?$AAR?$AAW?$AA3?$AA?5?$AA?9?$AA?5?$AAd?$AAo?$AAn@ 0000000180033b70     ConEmuPlugin.obj
 0002:00000b94       ??_C@_11LOCGONAA@@         0000000180033b94     ConEmuPlugin1900.obj
 0002:00000ba0       ??_7CPluginW1900@@6B@      0000000180033ba0     ConEmuPlugin1900.obj
 0002:00000cc8       ??_C@_1O@PICBDAL@?$AAC?$AAo?$AAn?$AAE?$AAm?$AAu@ 0000000180033cc8     ConEmuPlugin1900.obj
 0002:00000cd8       ??_C@_1BK@BCDKFLCP@?$AAE?$AAx?$AAi?$AAt?$AAF?$AAA?$AAR?$AAW?$AA1?$AA9?$AA0?$AA0@ 0000000180033cd8     ConEmuPlugin1900.obj
 0002:00000cf8       ??_C@_1CI@OHGGDAJD@?$AAE?$AAx?$AAi?$AAt?$AAF?$AAA?$AAR?$AAW?$AA1?$AA9?$AA0?$AA0?$AA?5?$AA?9?$AA?5@ 0000000180033cf8     ConEmuPlugin1900.obj
 0002:00000d20       ??_C@_1M@OKCNCBMD@?$AA$?$AAT?$AAE?$AAX?$AAT@ 0000000180033d20     ConEmuPlugin1900.obj
 0002:00000d30       ??_C@_1O@BBPMHPCD@?$AAp?$AAr?$AAi?$AAn?$AAt?$AA?$CI@ 0000000180033d30     ConEmuPlugin1900.obj
 0002:00000d40       ??_C@_19JPEEHMMI@?$AA?5?$AA?7?$AA?$AN?$AA?6@ 0000000180033d40     ConEmuPlugin1900.obj
 0002:00000d50       ??_C@_1BC@OLJIBFPH@?$AA?0?$AA?5?$AAH?$AAi?$AAn?$AAt?$AA?3?$AA?5@ 0000000180033d50     ConEmuPlugin1900.obj
 0002:00000d70       ??_C@_1BCK@MAAKAKN@?$AAE?$AAr?$AAr?$AAo?$AAr?$AA?5?$AAi?$AAn?$AA?5?$AAM?$AAa?$AAc?$AAr?$AAo?$AA?4@ 0000000180033d70     ConEmuPlugin1900.obj
 0002:00000ea0       ??_C@_1OK@GOJADEAC@?$AAE?$AAr?$AAr?$AAo?$AAr?$AA?5?$AAi?$AAn?$AA?5?$AAM?$AAa?$AAc?$AAr?$AAo?$AA?4@ 0000000180033ea0     ConEmuPlugin1900.obj
 0002:00000f90       ??_C@_0BF@MFOIGNA@BackgroundMacroError@ 0000000180033f90     ConEmuPlugin1900.obj
 0002:00000fa8       ??_C@_1BI@EKLHEFDO@?$AAS?$AAh?$AAo?$AAw?$AAM?$AAe?$AAn?$AAu?$AAB?$AAa?$AAr@ 0000000180033fa8     ConEmuPlugin1900.obj
 0002:00000fc0       ??_C@_1O@PDEOIOBG@?$AAK?$AAe?$AAy?$AAB?$AAa?$AAr@ 0000000180033fc0     ConEmuPlugin1900.obj
 0002:00000fd0       ??_C@_1BK@MBFACEDG@?$AAC?$AAo?$AAl?$AAu?$AAm?$AAn?$AAT?$AAi?$AAt?$AAl?$AAe?$AAs@ 0000000180033fd0     ConEmuPlugin1900.obj
 0002:00000ff0       ??_C@_1BG@MHMKAABO@?$AAS?$AAt?$AAa?$AAt?$AAu?$AAs?$AAL?$AAi?$AAn?$AAe@ 0000000180033ff0     ConEmuPlugin1900.obj
 0002:00001008       ??_C@_1BC@IALIJCAM@?$AAS?$AAo?$AAr?$AAt?$AAM?$AAo?$AAd?$AAe@ 0000000180034008     ConEmuPlugin1900.obj
 0002:00001020       ??_C@_1BK@BKCACCAI@?$AAW?$AAT?$AAY?$AAP?$AAE?$AA_?$AAP?$AAA?$AAN?$AAE?$AAL?$AAS@ 0000000180034020     ConEmuPlugin1900.obj
 0002:00001040       ??_C@_1BK@LNCDOEEM@?$AAW?$AAT?$AAY?$AAP?$AAE?$AA_?$AAV?$AAI?$AAE?$AAW?$AAE?$AAR@ 0000000180034040     ConEmuPlugin1900.obj
 0002:00001060       ??_C@_1BK@MHHDIBO@?$AAW?$AAT?$AAY?$AAP?$AAE?$AA_?$AAE?$AAD?$AAI?$AAT?$AAO?$AAR@ 0000000180034060     ConEmuPlugin1900.obj
 0002:00001080       ??_C@_1BK@NEJJBFEB@?$AAW?$AAT?$AAY?$AAP?$AAE?$AA_?$AAD?$AAI?$AAA?$AAL?$AAO?$AAG@ 0000000180034080     ConEmuPlugin1900.obj
 0002:000010a0       ??_C@_1BI@IHGDMIGH@?$AAW?$AAT?$AAY?$AAP?$AAE?$AA_?$AAV?$AAM?$AAE?$AAN?$AAU@ 00000001800340a0     ConEmuPlugin1900.obj
 0002:000010b8       ??_C@_1BG@LKGDBHML@?$AAW?$AAT?$AAY?$AAP?$AAE?$AA_?$AAH?$AAE?$AAL?$AAP@ 00000001800340b8     ConEmuPlugin1900.obj
 0002:000010d0       ??_C@_1BA@LEPJIIOK@?$AAU?$AAn?$AAk?$AAn?$AAo?$AAw?$AAn@ 00000001800340d0     ConEmuPlugin1900.obj
 0002:000010e0       ??_C@_1CE@PEOBLGJK@?$AAC?$AAo?$AAn?$AAE?$AAm?$AAu?$AAM?$AAa?$AAc?$AAr?$AAo?$AAR?$AAe?$AAs?$AAu@ 00000001800340e0     ConEmuPlugin1900.obj
 0002:00001108       ??_C@_1BO@HNJMHBAE@?$AAC?$AAo?$AAn?$AAE?$AAm?$AAu?$AAG?$AAu?$AAi?$AAM?$AAa?$AAc?$AAr?$AAo@ 0000000180034108     ConEmuPlugin1900.obj
 0002:00001130       __xmm@00000000000000020000000500000000 0000000180034130     ConEmuPlugin1900.obj
 0002:00001140       __xmm@00000000000000040000000500000000 0000000180034140     ConEmuPlugin1900.obj
 0002:00001150       __xmm@00000000000000070000000000000007 0000000180034150     ConEmuPlugin1900.obj
 0002:00001160       __xmm@00000046000000030000000500000004 0000000180034160     ConEmuPlugin1900.obj
 0002:00001170       __xmm@00000046000000050000000500000004 0000000180034170     ConEmuPlugin1900.obj
 0002:00001180       __xmm@00000048000000010000000300000003 0000000180034180     ConEmuPlugin1900.obj
 0002:000011a0       ??_7exception@std@@6B@     00000001800341a0     ConEmuPlugin2800.obj
 0002:000011b0       ??_C@_0BC@EOODALEL@Unknown?5exception@ 00000001800341b0     ConEmuPlugin2800.obj
 0002:000011d0       ??_7bad_alloc@std@@6B@     00000001800341d0     ConEmuPlugin2800.obj
 0002:000011e0       ??_C@_0P@GHFPNOJB@bad?5allocation@ 00000001800341e0     ConEmuPlugin2800.obj
 0002:000011f8       ??_7CPluginW2800@@6B@      00000001800341f8     ConEmuPlugin2800.obj
 0002:00001320       ??_C@_1DO@JIOAOHCJ@?$AAC?$AAo?$AAn?$AAE?$AAm?$AAu?$AA?5?$AAs?$AAu?$AAp?$AAp?$AAo?$AAr?$AAt?$AA?5@ 0000000180034320     ConEmuPlugin2800.obj
 0002:00001360       ??_C@_1DE@DJEAMLPH@?$AAC?$AAo?$AAn?$AAE?$AAm?$AAu?$AA?4?$AAM?$AAa?$AAx?$AAi?$AAm?$AAu?$AAs?$AA5@ 0000000180034360     ConEmuPlugin2800.obj
 0002:00001398       ??_C@_17IOMHDNEC@?$AAf?$AAa?$AAr@ 0000000180034398     ConEmuPlugin2800.obj
 0002:000013a0       ??_C@_1BK@DFKHOALC@?$AAE?$AAx?$AAi?$AAt?$AAF?$AAA?$AAR?$AAW?$AA2?$AA8?$AA0?$AA0@ 00000001800343a0     ConEmuPlugin2800.obj
 0002:000013c0       ??_C@_1CI@KIFAPNHL@?$AAE?$AAx?$AAi?$AAt?$AAF?$AAA?$AAR?$AAW?$AA2?$AA8?$AA0?$AA0?$AA?5?$AA?9?$AA?5@ 00000001800343c0     ConEmuPlugin2800.obj
 0002:000013f0       ??_C@_1BCK@KGGLGNDM@?$AAE?$AAr?$AAr?$AAo?$AAr?$AA?5?$AAi?$AAn?$AA?5?$AAM?$AAa?$AAc?$AAr?$AAo?$AA?4@ 00000001800343f0     ConEmuPlugin2800.obj
 0002:00001520       ??_C@_1OK@MGLNOED@?$AAE?$AAr?$AAr?$AAo?$AAr?$AA?5?$AAi?$AAn?$AA?5?$AAM?$AAa?$AAc?$AAr?$AAo?$AA?4@ 0000000180034520     ConEmuPlugin2800.obj
 0002:00001610       ??_C@_0BA@FOIKENOD@vector?5too?5long@ 0000000180034610     ConEmuPlugin2800.obj
 0002:00001620       __xmm@00000000000000000000000000000002 0000000180034620     ConEmuPlugin2800.obj
 0002:00001630       __xmm@00000000000000000000000000000004 0000000180034630     ConEmuPlugin2800.obj
 0002:00001640       __xmm@00000000000000000000000000000007 0000000180034640     ConEmuPlugin2800.obj
 0002:00001650       __xmm@00000000000000460000000000000003 0000000180034650     ConEmuPlugin2800.obj
 0002:00001660       __xmm@00000000000000460000000000000005 0000000180034660     ConEmuPlugin2800.obj
 0002:00001670       __xmm@00000000000000480000000000000001 0000000180034670     ConEmuPlugin2800.obj
 0002:00001688       ??_7CPluginW995@@6B@       0000000180034688     ConEmuPlugin995.obj
 0002:000017b0       ??_C@_1BI@IBAPHBGL@?$AAE?$AAx?$AAi?$AAt?$AAF?$AAA?$AAR?$AAW?$AA9?$AA9?$AA5@ 00000001800347b0     ConEmuPlugin995.obj
 0002:000017c8       ??_C@_1CG@PKCNLDOL@?$AAE?$AAx?$AAi?$AAt?$AAF?$AAA?$AAR?$AAW?$AA9?$AA9?$AA5?$AA?5?$AA?9?$AA?5?$AAd@ 00000001800347c8     ConEmuPlugin995.obj
 0002:000017f0       __xmm@00000001000000000000000000000002 00000001800347f0     ConEmuPlugin995.obj
 0002:00001800       __xmm@00000033000000010000000300000003 0000000180034800     ConEmuPlugin995.obj
 0002:00001810       ??_C@_00CNPNBAHC@@         0000000180034810     ConEmuPluginA.obj
 0002:00001820       ??_7CPluginAnsi@@6B@       0000000180034820     ConEmuPluginA.obj
 0002:00001948       ??_C@_1O@BKFLFFPA@?$AAP?$AAl?$AAu?$AAg?$AAi?$AAn@ 0000000180034948     ConEmuPluginA.obj
 0002:00001958       ??_C@_06HGFNEGAJ@ConEmu@   0000000180034958     ConEmuPluginA.obj
 0002:00001960       ??_C@_0P@DFGMHJNG@ConEmuGuiMacro@ 0000000180034960     ConEmuPluginA.obj
 0002:00001978       ??_7CPluginBase@@6B@       0000000180034978     ConEmuPluginBase.obj
 0002:00001aa0       ??_C@_13FPGAJAPJ@?$AA?2@   0000000180034aa0     ConEmuPluginBase.obj
 0002:00001ab0       ??_C@_1FG@DPPGENBC@?$AAL?$AAo?$AAa?$AAd?$AAA?$AAp?$AAp?$AAV?$AAe?$AAr?$AAs?$AAi?$AAo?$AAn?$AA?4@ 0000000180034ab0     ConEmuPluginBase.obj
 0002:00001b10       ??_C@_1FK@HILEEFML@?$AAL?$AAo?$AAa?$AAd?$AAA?$AAp?$AAp?$AAV?$AAe?$AAr?$AAs?$AAi?$AAo?$AAn?$AA?4@ 0000000180034b10     ConEmuPluginBase.obj
 0002:00001b70       ??_C@_1GC@BINFLBDC@?$AAL?$AAo?$AAa?$AAd?$AAA?$AAp?$AAp?$AAV?$AAe?$AAr?$AAs?$AAi?$AAo?$AAn?$AA?5@ 0000000180034b70     ConEmuPluginBase.obj
 0002:00001be0       ??_C@_1GC@CPPHDKJK@?$AAL?$AAo?$AAa?$AAd?$AAA?$AAp?$AAp?$AAV?$AAe?$AAr?$AAs?$AAi?$AAo?$AAn?$AA?4@ 0000000180034be0     ConEmuPluginBase.obj
 0002:00001c50       ??_C@_1EG@IINOBDEG@?$AAI?$AAn?$AAv?$AAa?$AAl?$AAi?$AAd?$AA?5?$AAa?$AAs?$AAM?$AAo?$AAd?$AAu?$AAl@ 0000000180034c50     ConEmuPluginBase.obj
 0002:00001c98       ??_C@_1CA@GGFPMHLH@?$AA?6?$AAE?$AAr?$AAr?$AAC?$AAo?$AAd?$AAe?$AA?$DN?$AA0?$AAx?$AA?$CF?$AA0?$AA8?$AAX@ 0000000180034c98     ConEmuPluginBase.obj
 0002:00001cc0       ??_C@_1FG@LNADFPCE@?$AAL?$AAo?$AAa?$AAd?$AAF?$AAa?$AAr?$AAV?$AAe?$AAr?$AAs?$AAi?$AAo?$AAn?$AA?4@ 0000000180034cc0     ConEmuPluginBase.obj
 0002:00001d18       ??_C@_0BP@OODKCJPP@Wow64DisableWow64FsRedirection@ 0000000180034d18     ConEmuPluginBase.obj
 0002:00001d38       ??_C@_0BO@KOCOEJCM@Wow64RevertWow64FsRedirection@ 0000000180034d38     ConEmuPluginBase.obj
 0002:00001d58       ??_C@_1BO@ONHPLONP@?$AAC?$AAo?$AAn?$AAE?$AAm?$AAu?$AA?4?$AAx?$AA6?$AA4?$AA?4?$AAd?$AAl?$AAl@ 0000000180034d58     ConEmuPluginBase.obj
 0002:00001d80       ??_C@_1IA@EGLJCBKE@?$AAS?$AAy?$AAn?$AAc?$AAh?$AAo?$AA?5?$AAe?$AAv?$AAe?$AAn?$AAt?$AAs?$AA?5?$AAa@ 0000000180034d80     ConEmuPluginBase.obj
 0002:00001e00       ??_C@_1BG@NBIHKCLP@?$AAC?$AAo?$AAn?$AAE?$AAm?$AAu?$AA?4?$AAd?$AAl?$AAl@ 0000000180034e00     ConEmuPluginBase.obj
 0002:00001e18       ??_C@_13LBAGMAIH@?$AA?6@   0000000180034e18     ConEmuPluginBase.obj
 0002:00001e20       ??_C@_1PO@CKPDODMD@?$AAS?$AAe?$AAv?$AAe?$AAr?$AAa?$AAl?$AA?5?$AAi?$AAn?$AAs?$AAt?$AAa?$AAn?$AAc@ 0000000180034e20     ConEmuPluginBase.obj
 0002:00001f20       ??_C@_13IMODFHAA@?$AA?9@   0000000180034f20     ConEmuPluginBase.obj
 0002:00001f30       ??_C@_1FI@CBKBKFFI@?$AAC?$AAo?$AAn?$AAE?$AAm?$AAu?$AA?5?$AAp?$AAl?$AAu?$AAg?$AAi?$AAn?$AA?5?$AA?$CF@ 0000000180034f30     ConEmuPluginBase.obj
 0002:00001f88       ??_C@_1BG@DILNIJHK@?$AA?$DM?$AAM?$AAs?$AAg?$AAI?$AAD?$AA?$DN?$AA?$CF?$AAi?$AA?$DO@ 0000000180034f88     ConEmuPluginBase.obj
 0002:00001fa0       ??_C@_1PO@DJAPICLP@?$AA$?$AAi?$AAf?$AA?5?$AA?$CI?$AA?$CB?$AAE?$AAd?$AAi?$AAt?$AAo?$AAr?$AA?5?$AA?$CG?$AA?$CG@ 0000000180034fa0     ConEmuPluginBase.obj
 0002:000020a0       ??_C@_1EK@LJEKIKEG@?$AA4?$AAb?$AA6?$AA7?$AA5?$AAd?$AA8?$AA0?$AA?9?$AA1?$AAd?$AA4?$AAa?$AA?9?$AA4@ 00000001800350a0     ConEmuPluginBase.obj
 0002:000020f0       ??_C@_1BBO@FBOKPEBF@?$AA$?$AAi?$AAf?$AA?5?$AA?$CI?$AAA?$AAP?$AAa?$AAn?$AAe?$AAl?$AA?4?$AAP?$AAl?$AAu@ 00000001800350f0     ConEmuPluginBase.obj
 0002:00002210       ??_C@_1LO@GJMEBJHL@?$AAP?$AAl?$AAu?$AAg?$AAi?$AAn?$AA?4?$AAC?$AAa?$AAl?$AAl?$AA?$CI?$AA?$CC?$AA?$CF?$AAs@ 0000000180035210     ConEmuPluginBase.obj
 0002:000022d0       ??_C@_1BA@CMKDJLHG@?$AA?$HN?$AA?5?$AA?9?$AA?5?$AAF?$AAa?$AAr@ 00000001800352d0     ConEmuPluginBase.obj
 0002:000022e0       ??_C@_17MEJHPLBO@?$AAc?$AAm?$AAd@ 00000001800352e0     ConEmuPluginBase.obj
 0002:000022e8       ??_C@_1CK@KEKIDABI@?$AAC?$AAo?$AAn?$AAE?$AAm?$AAu?$AA?4?$AAC?$AAr?$AAe?$AAa?$AAt?$AAe?$AAP?$AAr@ 00000001800352e8     ConEmuPluginBase.obj
 0002:00002318       ??_C@_1CM@MHCEHIEP@?$AAS?$AAt?$AAa?$AAr?$AAt?$AA?5?$AAc?$AAo?$AAn?$AAs?$AAo?$AAl?$AAe?$AA?5?$AAp@ 0000000180035318     ConEmuPluginBase.obj
 0002:00002348       ??_C@_17BJPFHBEJ@?$AAC?$AA?3?$AA?2@ 0000000180035348     ConEmuPluginBase.obj
 0002:00002350       ??_C@_1BK@NEALEMPH@?$AA?9?$AAn?$AAe?$AAw?$AA_?$AAc?$AAo?$AAn?$AAs?$AAo?$AAl?$AAe@ 0000000180035350     ConEmuPluginBase.obj
 0002:00002370       ??_C@_19KHBBCLDH@?$AAr?$AAu?$AAn?$AA?3@ 0000000180035370     ConEmuPluginBase.obj
 0002:0000237c       ??_C@_13DANNHAJN@?$AAV@    000000018003537c     ConEmuPluginBase.obj
 0002:00002380       ??_C@_13IABLFADB@?$AAH@    0000000180035380     ConEmuPluginBase.obj
 0002:00002388       ??_C@_17PBAHFJOA@?$AAY?$AAe?$AAs@ 0000000180035388     ConEmuPluginBase.obj
 0002:00002390       ??_C@_15BICKNCBF@?$AAN?$AAo@ 0000000180035390     ConEmuPluginBase.obj
 0002:000023a0       ??_C@_1BPK@LEDPNENO@?$AAC?$AAo?$AAn?$AAE?$AAm?$AAu?$AA?5?$AAC?$AAo?$AAn?$AAs?$AAo?$AAl?$AAe?$AA?5@ 00000001800353a0     ConEmuPluginBase.obj
 0002:000025a0       ??_C@_1BM@MGPNCPCE@?$AAC?$AAo?$AAn?$AAE?$AAm?$AAu?$AAB?$AAa?$AAs?$AAe?$AAD?$AAi?$AAr@ 00000001800355a0     ConEmuPluginBase.obj
 0002:000025c0       ??_C@_1BK@PCAIPEAH@?$AA?2?$AAC?$AAo?$AAn?$AAE?$AAm?$AAu?$AAC?$AA?4?$AAe?$AAx?$AAe@ 00000001800355c0     ConEmuPluginBase.obj
 0002:000025e0       ??_C@_1CI@DIEJPMOK@?$AA?2?$AAC?$AAo?$AAn?$AAE?$AAm?$AAu?$AA?2?$AAC?$AAo?$AAn?$AAE?$AAm?$AAu?$AAC@ 00000001800355e0     ConEmuPluginBase.obj
 0002:00002610       ??_C@_1HE@BLMGMKID@?$AA?$CC?$AA?$CF?$AAs?$AA?$CC?$AA?5?$AA?1?$AAA?$AAT?$AAT?$AAA?$AAC?$AAH?$AA?5?$AA?1?$AAR@ 0000000180035610     ConEmuPluginBase.obj
 0002:00002690       ??_C@_1EO@CCMHHKOG@?$AA?$CC?$AA?$CF?$AAs?$AA?$CC?$AA?5?$AA?1?$AAD?$AAE?$AAB?$AAU?$AAG?$AAP?$AAI?$AAD?$AA?$DN@ 0000000180035690     ConEmuPluginBase.obj
 0002:000026e0       ??_C@_1CA@CIILNAEN@?$AA?2?$AAC?$AAo?$AAn?$AAE?$AAm?$AAu?$AAH?$AAk?$AA6?$AA4?$AA?4?$AAd?$AAl?$AAl@ 00000001800356e0     ConEmuPluginBase.obj
 0002:00002700       ??_C@_1BM@DIGKKBBA@?$AAC?$AAo?$AAn?$AAE?$AAm?$AAu?$AAC?$AA6?$AA4?$AA?4?$AAe?$AAx?$AAe@ 0000000180035700     ConEmuPluginBase.obj
 0002:00002720       ??_C@_1BI@OPBAAHCM@?$AAC?$AAo?$AAn?$AAE?$AAm?$AAu?$AAC?$AA?4?$AAe?$AAx?$AAe@ 0000000180035720     ConEmuPluginBase.obj
 0002:00002738       ??_C@_1BE@FFPCKGKG@?$AA?1?$AAC?$AAO?$AAN?$AAF?$AAI?$AAR?$AAM?$AA?5@ 0000000180035738     ConEmuPluginBase.obj
 0002:00002750       ??_C@_1DA@LLHOBAFM@?$AA?$CC?$AA?5?$AA?1?$AAA?$AAT?$AAT?$AAA?$AAC?$AAH?$AA?5?$AA?1?$AAF?$AAA?$AAR?$AAP@ 0000000180035750     ConEmuPluginBase.obj
 0002:00002780       ??_C@_1BA@JLPJLFMH@?$AA?1?$AAG?$AAI?$AAD?$AA?$DN?$AA?$CF?$AAi@ 0000000180035780     ConEmuPluginBase.obj
 0002:00002790       ??_C@_1CI@EIEAGHGL@?$AAC?$AAo?$AAn?$AAE?$AAm?$AAu?$AAS?$AAr?$AAv?$AAS?$AAt?$AAa?$AAr?$AAt?$AAe@ 0000000180035790     ConEmuPluginBase.obj
 0002:000027b8       ??_C@_0BD@DHBGKFD@RequestLocalServer@ 00000001800357b8     ConEmuPluginBase.obj
 0002:000027d0       ??_C@_17LCEPOKH@?$AAC?$AAE?$AAM@ 00000001800357d0     ConEmuPluginBase.obj
 0002:000027d8       ??_C@_19LKKOIHJI@?$AA?4?$AAt?$AAm?$AAp@ 00000001800357d8     ConEmuPluginBase.obj
 0002:000027f0       ??_C@_1BFI@CAKBMDAF@?$AAW?$AAr?$AAo?$AAn?$AAg?$AA?5?$AAp?$AAl?$AAu?$AAg?$AAi?$AAn?$AA?5?$AAv?$AAe@ 00000001800357f0     ConEmuPluginBase.obj
 0002:00002948       ??_C@_1BA@DAHNNHGF@?$AAF?$AAA?$AAR?$AAL?$AAA?$AAN?$AAG@ 0000000180035948     ConEmuPluginBase.obj
 0002:00002960       ??_C@_1EA@BFFHMENH@?$AAC?$AAo?$AAn?$AAE?$AAm?$AAu?$AAC?$AA?3?$AA?5?$AAC?$AAh?$AAe?$AAc?$AAk?$AAR@ 0000000180035960     ConEmuPluginBase.obj
 0002:000029a0       ??_C@_19LELMJPKF@?$AAe?$AAd?$AAi?$AAt@ 00000001800359a0     ConEmuPluginBase.obj
 0002:000029b0       ??_C@_19IGFHNPAK@?$AAv?$AAi?$AAe?$AAw@ 00000001800359b0     ConEmuPluginBase.obj
 0002:000029c0       ??_C@_1CC@IHNECLD@?$AA?$HL?$AAT?$AAe?$AAm?$AAp?$AAo?$AAr?$AAa?$AAr?$AAy?$AA?5?$AAp?$AAa?$AAn?$AAe@ 00000001800359c0     ConEmuPluginBase.obj
 0002:000029e8       ??_C@_1CO@ELKEEMPJ@?$AAC?$AAo?$AAn?$AAE?$AAm?$AAu?$AAF?$AAi?$AAl?$AAe?$AAM?$AAa?$AAp?$AAp?$AAi@ 00000001800359e8     ConEmuPluginBase.obj
 0002:00002a18       ??_C@_1BI@ENONIIIC@?$AAF?$AAa?$AAr?$AA?5?$AAM?$AAa?$AAn?$AAa?$AAg?$AAe?$AAr@ 0000000180035a18     ConEmuPluginBase.obj
 0002:00002a30       ??_C@_19HBICLLML@?$AAF?$AAA?$AAR?$AA2@ 0000000180035a30     ConEmuPluginBase.obj
 0002:00002a40       ??_C@_17NACPPFBM@?$AAF?$AAA?$AAR@ 0000000180035a40     ConEmuPluginBase.obj
 0002:00002a48       ??_C@_1BA@NIFIBMHP@?$AAF?$AAA?$AAR?$AAU?$AAS?$AAE?$AAR@ 0000000180035a48     ConEmuPluginBase.obj
 0002:00002a58       ??_C@_1BA@FJJFMPFO@?$AA?2?$AAU?$AAs?$AAe?$AAr?$AAs?$AA?2@ 0000000180035a58     ConEmuPluginBase.obj
 0002:00002a68       ??_C@_1BE@FLHKCJKF@?$AAS?$AAo?$AAf?$AAt?$AAw?$AAa?$AAr?$AAe?$AA?2@ 0000000180035a68     ConEmuPluginBase.obj
 0002:00002a80       ??_C@_1CG@HOMCPCN@?$AA?2?$AAP?$AAl?$AAu?$AAg?$AAi?$AAn?$AAs?$AA?2?$AAP?$AAa?$AAn?$AAe?$AAl?$AAT@ 0000000180035a80     ConEmuPluginBase.obj
 0002:00002aa8       ??_C@_1BK@NFAPLMGI@?$AAS?$AAe?$AAp?$AAa?$AAr?$AAa?$AAt?$AAe?$AAT?$AAa?$AAb?$AAs@ 0000000180035aa8     ConEmuPluginBase.obj
 0002:00002ac8       ??_C@_1BI@GILFJGEK@?$AAB?$AAu?$AAt?$AAt?$AAo?$AAn?$AAC?$AAo?$AAl?$AAo?$AAr@ 0000000180035ac8     ConEmuPluginBase.obj
 0002:00002ae0       ??_C@_1DE@DBNFJOHM@?$AAC?$AAo?$AAn?$AAs?$AAo?$AAl?$AAe?$AA2?$AA_?$AAc?$AAo?$AAn?$AAs?$AAo?$AAl@ 0000000180035ae0     ConEmuPluginBase.obj
 0002:00002b18       ??_C@_1CK@EANOIBDN@?$AAC?$AAo?$AAn?$AAE?$AAm?$AAu?$AAC?$AAt?$AAr?$AAl?$AAP?$AAr?$AAe?$AAs?$AAs@ 0000000180035b18     ConEmuPluginBase.obj
 0002:00002b48       ??_C@_1CM@JBFABNEO@?$AAC?$AAo?$AAn?$AAE?$AAm?$AAu?$AAS?$AAh?$AAi?$AAf?$AAt?$AAP?$AAr?$AAe?$AAs@ 0000000180035b48     ConEmuPluginBase.obj
 0002:00002b78       ??_C@_1CE@DLFCKCF@?$AAC?$AAo?$AAn?$AAE?$AAm?$AAu?$AAT?$AAa?$AAb?$AAs?$AAC?$AAh?$AAa?$AAn?$AAg@ 0000000180035b78     ConEmuPluginBase.obj
 0002:00002ba0       ??_C@_0BG@HFNJBNKJ@Plugin?3?3MonitorThread@ 0000000180035ba0     ConEmuPluginBase.obj
 0002:00002bb8       ??_C@_1BG@OILDLIOJ@?$AAu?$AAs?$AAe?$AAr?$AA3?$AA2?$AA?4?$AAd?$AAl?$AAl@ 0000000180035bb8     ConEmuPluginBase.obj
 0002:00002bd0       ??_C@_0BJ@GFJHAGKD@AllowSetForegroundWindow@ 0000000180035bd0     ConEmuPluginBase.obj
 0002:00002bf0       ??_C@_1BO@KPCFCPEP@?$AAC?$AAo?$AAn?$AAE?$AAm?$AAu?$AAC?$AAD?$AA6?$AA4?$AA?4?$AAd?$AAl?$AAl@ 0000000180035bf0     ConEmuPluginBase.obj
 0002:00002c10       ??_C@_1HO@CHHOFADM@?$AAC?$AAo?$AAn?$AAs?$AAo?$AAl?$AAe?$AA?5?$AAw?$AAa?$AAs?$AA?5?$AAa?$AAb?$AAn@ 0000000180035c10     ConEmuPluginBase.obj
 0002:00002c90       ??_C@_1NC@MNABBPPB@?$AA$?$AAi?$AAf?$AA?5?$AA?$CI?$AAS?$AAe?$AAa?$AAr?$AAc?$AAh?$AA?$CJ?$AA?5?$AAE?$AAs@ 0000000180035c90     ConEmuPluginBase.obj
 0002:00002d70       ??_C@_1MK@EDFFIGHJ@?$AA$?$AAi?$AAf?$AA?5?$AA?$CI?$AAS?$AAe?$AAa?$AAr?$AAc?$AAh?$AA?$CJ?$AA?5?$AAE?$AAs@ 0000000180035d70     ConEmuPluginBase.obj
 0002:00002e40       ??_C@_1BBA@LKLGFJB@?$AAi?$AAf?$AA?5?$AAA?$AAr?$AAe?$AAa?$AA?4?$AAS?$AAe?$AAa?$AAr?$AAc?$AAh?$AA?5@ 0000000180035e40     ConEmuPluginBase.obj
 0002:00002f50       ??_C@_0P@LNKHCDND@OnConEmuLoaded@ 0000000180035f50     ConEmuPluginBase.obj
 0002:00002f60       ??_C@_0BA@IDLLFCLM@SetStartupInfoW@ 0000000180035f60     ConEmuPluginBase.obj
 0002:00002f70       ??_C@_0P@JNNILPEA@SetStartupInfo@ 0000000180035f70     ConEmuPluginBase.obj
 0002:00002f80       ??_C@_0EB@EJJEIDNB@C?3?2Users?2conemu?2SRC?2conemu?2src?2@ 0000000180035f80     ConEmuPluginBase.obj
 0002:00002fc8       ??_C@_1BC@GNOFNJJG@?$AAM?$AAs?$AAL?$AAC?$AAl?$AAi?$AAc?$AAk@ 0000000180035fc8     ConEmuPluginBase.obj
 0002:00002fe0       ??_C@_1CC@DFJIOIPL@?$AAK?$AAe?$AAy?$AAs?$AA?$CI?$AA?8?$AAM?$AAs?$AAL?$AAC?$AAl?$AAi?$AAc?$AAk?$AA?8@ 0000000180035fe0     ConEmuPluginBase.obj
 0002:00003008       ??_C@_1CM@IICFOBPI@?$AA$?$AAi?$AAf?$AA?5?$AA?$CI?$AAS?$AAe?$AAa?$AAr?$AAc?$AAh?$AA?$CJ?$AA?5?$AAE?$AAs@ 0000000180036008     ConEmuPluginBase.obj
 0002:00003038       ??_C@_1DO@LEFBPADB@?$AAi?$AAf?$AA?5?$AAA?$AAr?$AAe?$AAa?$AA?4?$AAS?$AAe?$AAa?$AAr?$AAc?$AAh?$AA?5@ 0000000180036038     ConEmuPluginBase.obj
 0002:00003080       ??_C@_1CCO@OMFPMNEO@?$AA?$EA?$AAi?$AAf?$AA?5?$AAn?$AAo?$AAt?$AA?5?$AAC?$AAm?$AAd?$AAL?$AAi?$AAn?$AAe@ 0000000180036080     ConEmuPluginBase.obj
 0002:000032b0       ??_C@_1CAM@BBLMGMFK@?$AA?$EA?$AA$?$AAI?$AAf?$AA?5?$AA?$CI?$AA?$CB?$AAC?$AAm?$AAd?$AAL?$AAi?$AAn?$AAe?$AA?4@ 00000001800362b0     ConEmuPluginBase.obj
 0002:000034c0       ??_C@_1CG@OILEFJJN@?$AAC?$AAo?$AAn?$AAE?$AAm?$AAu?$AAT?$AAh?$AA?3?$AA?3?$AAS?$AAe?$AAt?$AAt?$AAi@ 00000001800364c0     ConEmuPluginBase.obj
 0002:000034e8       ??_C@_1CI@MBMLEGFG@?$AAC?$AAo?$AAn?$AAE?$AAm?$AAu?$AAF?$AAa?$AAr?$AAM?$AAa?$AAp?$AAp?$AAi?$AAn@ 00000001800364e8     ConEmuPluginBase.obj
 0002:00003510       ??_C@_1CO@INAJPHBH@?$AAC?$AAo?$AAn?$AAE?$AAm?$AAu?$AAF?$AAa?$AAr?$AAA?$AAl?$AAi?$AAv?$AAe?$AAE@ 0000000180036510     ConEmuPluginBase.obj
 0002:00003540       ??_C@_1BE@GLIABAAK@?$AA?$EA?$AA?$FO?$AA$?$AAT?$AAE?$AAX?$AAT?$AA?5?$AA?$CC@ 0000000180036540     ConEmuPluginBase.obj
 0002:00003558       ??_C@_1BE@CPLNCDLK@?$AA?$EA?$AA?$FO?$AAp?$AAr?$AAi?$AAn?$AAt?$AA?$CI?$AA?$CC@ 0000000180036558     ConEmuPluginBase.obj
 0002:0000356c       ??_C@_13NEIAEHFG@?$AA?$CC@ 000000018003656c     ConEmuPluginBase.obj
 0002:00003570       ??_C@_15NJGDBKNF@?$AA?$CC?$AA?$CJ@ 0000000180036570     ConEmuPluginBase.obj
 0002:00003580       ??_C@_1GK@OGACKIKJ@?$AAI?$AAn?$AAt?$AAe?$AAr?$AAn?$AAa?$AAl?$AA?5?$AAe?$AAr?$AAr?$AAo?$AAr?$AA?4@ 0000000180036580     ConEmuPluginBase.obj
 0002:000035f0       ??_C@_1O@KBENBEFG@?$AAc?$AAr?$AAe?$AAa?$AAt?$AAe@ 00000001800365f0     ConEmuPluginBase.obj
 0002:00003600       ??_C@_19BDAJEHDN@?$AAo?$AAp?$AAe?$AAn@ 0000000180036600     ConEmuPluginBase.obj
 0002:00003610       ??_C@_1GM@LGOLGABE@?$AAC?$AAa?$AAn?$AA?8?$AAt?$AA?5?$AA?$CF?$AAs?$AA?5?$AAc?$AAo?$AAn?$AAs?$AAo?$AAl@ 0000000180036610     ConEmuPluginBase.obj
 0002:00003680       ??_C@_1BE@HADLJAO@?$AAR?$AAe?$AAa?$AAd?$AAW?$AAr?$AAi?$AAt?$AAe@ 0000000180036680     ConEmuPluginBase.obj
 0002:00003698       ??_C@_19EOHDNDII@?$AAR?$AAe?$AAa?$AAd@ 0000000180036698     ConEmuPluginBase.obj
 0002:000036b0       ??_C@_1FO@BGAPBIGG@?$AAC?$AAa?$AAn?$AA?8?$AAt?$AA?5?$AAm?$AAa?$AAp?$AA?5?$AAc?$AAo?$AAn?$AAs?$AAo@ 00000001800366b0     ConEmuPluginBase.obj
 0002:00003710       ??_C@_1II@OIMPCJAG@?$AAC?$AAa?$AAn?$AA?8?$AAt?$AA?5?$AAm?$AAa?$AAp?$AA?5?$AAc?$AAo?$AAn?$AAs?$AAo@ 0000000180036710     ConEmuPluginBase.obj
 0002:000037a0       ??_C@_1JM@IDPBKCIF@?$AAC?$AAa?$AAn?$AA?8?$AAt?$AA?5?$AAm?$AAa?$AAp?$AA?5?$AAc?$AAo?$AAn?$AAs?$AAo@ 00000001800367a0     ConEmuPluginBase.obj
 0002:00003840       ??_C@_1DA@OEIAGFIH@?$AAC?$AAo?$AAn?$AAE?$AAm?$AAu?$AA?$AA?$AAF?$AAa?$AAr?$AA?5?$AAB?$AAa?$AAc?$AAk@ 0000000180036840     PluginBackground.obj
 0002:00003870       ??_C@_1DA@BMIFHIMF@?$AAC?$AAo?$AAn?$AAE?$AAm?$AAu?$AAV?$AAi?$AAe?$AAw?$AAS?$AAe?$AAt?$AAM?$AAa@ 0000000180036870     PluginBackground.obj
 0002:000038a0       ??_C@_1GA@OEMDGAOF@?$AAI?$AAn?$AAt?$AAe?$AAr?$AAn?$AAa?$AAl?$AA?5?$AAe?$AAr?$AAr?$AAo?$AAr?$AA?4@ 00000001800368a0     PluginBackground.obj
 0002:00003900       ??_C@_13JOFGPIOO@?$AA?4@   0000000180036900     PluginSrv.obj
 0002:00003908       ??_C@_1DC@PFNEMDKA@?$AA?2?$AA?2?$AA?$CF?$AAs?$AA?2?$AAp?$AAi?$AAp?$AAe?$AA?2?$AAC?$AAo?$AAn?$AAE?$AAm@ 0000000180036908     PluginSrv.obj
 0002:00003940       ??_C@_19HGGOABND@?$AA?$CF?$AA0?$AA8?$AAx@ 0000000180036940     PluginSrv.obj
 0002:00003950       ??_C@_1FM@LPOPCJG@?$AAS?$AAt?$AAa?$AAr?$AAt?$AAP?$AAi?$AAp?$AAe?$AAS?$AAe?$AAr?$AAv?$AAe?$AAr@ 0000000180036950     PluginSrv.obj
 0002:000039b0       ??_C@_0DD@GBHPPKJE@C?3?2Users?2conemu?2SRC?2conemu?2src?2@ 00000001800369b0     PluginSrv.obj
 0002:000039f0       ??_C@_1GC@MCEAIMAO@?$AAS?$AAt?$AAa?$AAr?$AAt?$AAP?$AAi?$AAp?$AAe?$AAI?$AAn?$AAs?$AAt?$AAa?$AAn@ 00000001800369f0     PluginSrv.obj
 0002:00003a58       ??_C@_0BB@MDGFLNIP@PipeServerThread@ 0000000180036a58     PluginSrv.obj
 0002:00003a70       ??_C@_1GG@PAGGIEEF@?$AAS?$AAt?$AAa?$AAr?$AAt?$AAP?$AAi?$AAp?$AAe?$AAI?$AAn?$AAs?$AAt?$AAa?$AAn@ 0000000180036a70     PluginSrv.obj
 0002:00003ad8       ??_C@_1M@KGONCMNM@?$AA?$CF?$AAs?$AA?6?$AA?$CF?$AAs@ 0000000180036ad8     PluginSrv.obj
 0002:00003af0       ??_C@_1EA@JFONKNJK@?$AAP?$AAi?$AAp?$AAe?$AAS?$AAe?$AAr?$AAv?$AAe?$AAr?$AAE?$AAr?$AAr?$AAo?$AAr@ 0000000180036af0     PluginSrv.obj
 0002:00003b30       ??_C@_1FG@DJFPBHJF@?$AAP?$AAi?$AAp?$AAe?$AAS?$AAe?$AAr?$AAv?$AAe?$AAr?$AAE?$AAr?$AAr?$AAo?$AAr@ 0000000180036b30     PluginSrv.obj
 0002:00003b90       ??_C@_1GK@OLPCHMBE@?$AAP?$AAi?$AAp?$AAe?$AAS?$AAe?$AAr?$AAv?$AAe?$AAr?$AAT?$AAh?$AAr?$AAe?$AAa@ 0000000180036b90     PluginSrv.obj
 0002:00003c00       ??_C@_1HA@EGHGJDPG@?$AAP?$AAi?$AAp?$AAe?$AAS?$AAe?$AAr?$AAv?$AAe?$AAr?$AAT?$AAh?$AAr?$AAe?$AAa@ 0000000180036c00     PluginSrv.obj
 0002:00003c70       ??_C@_1HG@LHMKOAMG@?$AAP?$AAi?$AAp?$AAe?$AAS?$AAe?$AAr?$AAv?$AAe?$AAr?$AAT?$AAh?$AAr?$AAe?$AAa@ 0000000180036c70     PluginSrv.obj
 0002:00003cf0       ??_C@_1EM@INHGIPLC@?$AA?$CF?$AAs?$AA?4?$AA?$CF?$AAu?$AA?3?$AA?5?$AAC?$AAr?$AAe?$AAa?$AAt?$AAe?$AAF?$AAi@ 0000000180036cf0     common-kernel64:ConEmuCheck.obj
 0002:00003d40       ??_C@_1DA@LCPELGGN@?$AAC?$AAo?$AAn?$AAE?$AAm?$AAu?$AAG?$AAu?$AAi?$AAI?$AAn?$AAf?$AAo?$AAM?$AAa@ 0000000180036d40     common-kernel64:ConEmuCheck.obj
 0002:00003d70       ??_C@_1DC@MJLCOFMA@?$AA?2?$AA?2?$AA?$CF?$AAs?$AA?2?$AAp?$AAi?$AAp?$AAe?$AA?2?$AAC?$AAo?$AAn?$AAE?$AAm@ 0000000180036d70     common-kernel64:ConEmuCheck.obj
 0002:00003da8       ??_C@_1CM@OPJKOFLA@?$AA?2?$AA?2?$AA?$CF?$AAs?$AA?2?$AAp?$AAi?$AAp?$AAe?$AA?2?$AAC?$AAo?$AAn?$AAE?$AAm@ 0000000180036da8     common-kernel64:ConEmuCheck.obj
 0002:00003dd8       ??_C@_1CG@FFFCCLIF@?$AAC?$AAo?$AAn?$AAs?$AAo?$AAl?$AAe?$AAW?$AAi?$AAn?$AAd?$AAo?$AAw?$AAC?$AAl@ 0000000180036dd8     common-kernel64:ConEmuCheck.obj
 0002:00003e00       ??_C@_1CC@LMJBOHFL@?$AAW?$AAi?$AAn?$AAe?$AAC?$AAo?$AAn?$AAs?$AAo?$AAl?$AAe?$AAC?$AAl?$AAa?$AAs@ 0000000180036e00     common-kernel64:ConEmuCheck.obj
 0002:00003e28       ??_C@_1BC@LMIJMNIA@?$AA0?$AA0?$AA0?$AA0?$AA0?$AA0?$AA0?$AA0@ 0000000180036e28     common-kernel64:MStrSafe.obj
 0002:00004150       ??_C@_1BC@DDAIKLEO@?$AAA?$AAC?$AAT?$AAI?$AAV?$AAA?$AAT?$AAE@ 0000000180037150     common-kernel64:CmdLine.obj
 0002:00004168       ??_C@_1M@IAAEIFGC@?$AAA?$AAL?$AAI?$AAA?$AAS@ 0000000180037168     common-kernel64:CmdLine.obj
 0002:00004178       ??_C@_1M@NBMJEEAL@?$AAA?$AAS?$AAS?$AAO?$AAC@ 0000000180037178     common-kernel64:CmdLine.obj
 0002:00004188       ??_C@_1O@HDDJOIFH@?$AAA?$AAT?$AAT?$AAR?$AAI?$AAB@ 0000000180037188     common-kernel64:CmdLine.obj
 0002:00004198       ??_C@_19HDNPBIOA@?$AAB?$AAE?$AAE?$AAP@ 0000000180037198     common-kernel64:CmdLine.obj
 0002:000041a8       ??_C@_1M@MPPIMPG@?$AAB?$AAR?$AAE?$AAA?$AAK@ 00000001800371a8     common-kernel64:CmdLine.obj
 0002:000041b8       ??_C@_19CFJHMEML@?$AAC?$AAA?$AAL?$AAL@ 00000001800371b8     common-kernel64:CmdLine.obj
 0002:000041c8       ??_C@_17LNHAGCII@?$AAC?$AAD?$AAD@ 00000001800371c8     common-kernel64:CmdLine.obj
 0002:000041d0       ??_C@_19NBEBIFBC@?$AAC?$AAH?$AAC?$AAP@ 00000001800371d0     common-kernel64:CmdLine.obj
 0002:000041e0       ??_C@_1M@ENFOKIIP@?$AAC?$AAO?$AAL?$AAO?$AAR@ 00000001800371e0     common-kernel64:CmdLine.obj
 0002:000041f0       ??_C@_19CDMOLDLE@?$AAC?$AAO?$AAP?$AAY@ 00000001800371f0     common-kernel64:CmdLine.obj
 0002:00004200       ??_C@_19FFMGBAMO@?$AAD?$AAA?$AAT?$AAE@ 0000000180037200     common-kernel64:CmdLine.obj
 0002:00004210       ??_C@_1BA@KDAEEGIF@?$AAD?$AAE?$AAF?$AAA?$AAU?$AAL?$AAT@ 0000000180037210     common-kernel64:CmdLine.obj
 0002:00004220       ??_C@_17LJFNJANL@?$AAD?$AAE?$AAL@ 0000000180037220     common-kernel64:CmdLine.obj
 0002:00004228       ??_C@_1M@MDOPDHLI@?$AAD?$AAE?$AAL?$AAA?$AAY@ 0000000180037228     common-kernel64:CmdLine.obj
 0002:00004238       ??_C@_1BC@EBILLKF@?$AAD?$AAE?$AAS?$AAC?$AAR?$AAI?$AAB?$AAE@ 0000000180037238     common-kernel64:CmdLine.obj
 0002:00004250       ??_C@_1O@FMDFNCGD@?$AAD?$AAE?$AAT?$AAA?$AAC?$AAH@ 0000000180037250     common-kernel64:CmdLine.obj
 0002:00004260       ??_C@_17HOFJHAAM@?$AAD?$AAI?$AAR@ 0000000180037260     common-kernel64:CmdLine.obj
 0002:00004268       ??_C@_1BG@NDOBACJO@?$AAD?$AAI?$AAR?$AAH?$AAI?$AAS?$AAT?$AAO?$AAR?$AAY@ 0000000180037268     common-kernel64:CmdLine.obj
 0002:00004280       ??_C@_19CFAIOACF@?$AAD?$AAI?$AAR?$AAS@ 0000000180037280     common-kernel64:CmdLine.obj
 0002:00004290       ??_C@_1BA@EEGPDNCN@?$AAD?$AAR?$AAA?$AAW?$AAB?$AAO?$AAX@ 0000000180037290     common-kernel64:CmdLine.obj
 0002:000042a0       ??_C@_1BE@MFLGFCAF@?$AAD?$AAR?$AAA?$AAW?$AAH?$AAL?$AAI?$AAN?$AAE@ 00000001800372a0     common-kernel64:CmdLine.obj
 0002:000042b8       ??_C@_1BE@CAJPGMOH@?$AAD?$AAR?$AAA?$AAW?$AAV?$AAL?$AAI?$AAN?$AAE@ 00000001800372b8     common-kernel64:CmdLine.obj
 0002:000042d0       ??_C@_19ODIIFOAJ@?$AAE?$AAC?$AAH?$AAO@ 00000001800372d0     common-kernel64:CmdLine.obj
 0002:000042e0       ??_C@_1BA@GCFKHCBD@?$AAE?$AAC?$AAH?$AAO?$AAE?$AAR?$AAR@ 00000001800372e0     common-kernel64:CmdLine.obj
 0002:000042f0       ??_C@_1M@IEKJIEHO@?$AAE?$AAC?$AAH?$AAO?$AAS@ 00000001800372f0     common-kernel64:CmdLine.obj
 0002:00004300       ??_C@_1BC@OCCODNGM@?$AAE?$AAC?$AAH?$AAO?$AAS?$AAE?$AAR?$AAR@ 0000000180037300     common-kernel64:CmdLine.obj
 0002:00004318       ??_C@_1BC@HIHGAEJA@?$AAE?$AAN?$AAD?$AAL?$AAO?$AAC?$AAA?$AAL@ 0000000180037318     common-kernel64:CmdLine.obj
 0002:00004330       ??_C@_1M@FCOMLPCA@?$AAE?$AAR?$AAA?$AAS?$AAE@ 0000000180037330     common-kernel64:CmdLine.obj
 0002:00004340       ??_C@_1BG@GOAOIOCC@?$AAE?$AAR?$AAR?$AAO?$AAR?$AAL?$AAE?$AAV?$AAE?$AAL@ 0000000180037340     common-kernel64:CmdLine.obj
 0002:00004358       ??_C@_19KELFKMGC@?$AAE?$AAS?$AAE?$AAT@ 0000000180037358     common-kernel64:CmdLine.obj
 0002:00004368       ??_C@_1O@INDINDHO@?$AAE?$AAX?$AAC?$AAE?$AAP?$AAT@ 0000000180037368     common-kernel64:CmdLine.obj
 0002:00004378       ??_C@_1M@HOIOAEKG@?$AAE?$AAX?$AAI?$AAS?$AAT@ 0000000180037378     common-kernel64:CmdLine.obj
 0002:00004388       ??_C@_19IOBNHAEP@?$AAE?$AAX?$AAI?$AAT@ 0000000180037388     common-kernel64:CmdLine.obj
 0002:00004398       ??_C@_1M@NPCGCBNH@?$AAF?$AAF?$AAI?$AAN?$AAD@ 0000000180037398     common-kernel64:CmdLine.obj
 0002:000043a8       ??_C@_17OKCFJEGM@?$AAF?$AAO?$AAR@ 00000001800373a8     common-kernel64:CmdLine.obj
 0002:000043b0       ??_C@_19GLINCHAF@?$AAF?$AAR?$AAE?$AAE@ 00000001800373b0     common-kernel64:CmdLine.obj
 0002:000043c0       ??_C@_1M@BKGEFKH@?$AAF?$AAT?$AAY?$AAP?$AAE@ 00000001800373c0     common-kernel64:CmdLine.obj
 0002:000043d0       ??_C@_1O@COJGIGIJ@?$AAG?$AAL?$AAO?$AAB?$AAA?$AAL@ 00000001800373d0     common-kernel64:CmdLine.obj
 0002:000043e0       ??_C@_19MEMGFJJL@?$AAG?$AAO?$AAT?$AAO@ 00000001800373e0     common-kernel64:CmdLine.obj
 0002:000043f0       ??_C@_19EDPCNJOB@?$AAH?$AAE?$AAL?$AAP@ 00000001800373f0     common-kernel64:CmdLine.obj
 0002:00004400       ??_C@_1BA@FNCCECPF@?$AAH?$AAI?$AAS?$AAT?$AAO?$AAR?$AAY@ 0000000180037400     common-kernel64:CmdLine.obj
 0002:00004410       ??_C@_15NIBFACBJ@?$AAI?$AAF@ 0000000180037410     common-kernel64:CmdLine.obj
 0002:00004418       ??_C@_17MLHBBHMA@?$AAI?$AAF?$AAF@ 0000000180037418     common-kernel64:CmdLine.obj
 0002:00004420       ??_C@_1M@DEPEIGKO@?$AAI?$AAN?$AAK?$AAE?$AAY@ 0000000180037420     common-kernel64:CmdLine.obj
 0002:00004430       ??_C@_1M@OEJJHBJF@?$AAI?$AAN?$AAP?$AAU?$AAT@ 0000000180037430     common-kernel64:CmdLine.obj
 0002:00004440       ??_C@_1M@KBMHGKGK@?$AAK?$AAE?$AAY?$AAB?$AAD@ 0000000180037440     common-kernel64:CmdLine.obj
 0002:00004450       ??_C@_19OJGLFOCE@?$AAK?$AAE?$AAY?$AAS@ 0000000180037450     common-kernel64:CmdLine.obj
 0002:00004460       ??_C@_1M@CFNEBGLF@?$AAL?$AAA?$AAB?$AAE?$AAL@ 0000000180037460     common-kernel64:CmdLine.obj
 0002:00004470       ??_C@_19GAFEELMN@?$AAL?$AAI?$AAS?$AAT@ 0000000180037470     common-kernel64:CmdLine.obj
 0002:00004480       ??_C@_17BMCCCPAJ@?$AAL?$AAO?$AAG@ 0000000180037480     common-kernel64:CmdLine.obj
 0002:00004488       ??_C@_15OJINIIIE@?$AAM?$AAD@ 0000000180037488     common-kernel64:CmdLine.obj
 0002:00004490       ??_C@_1O@BMHNHEPH@?$AAM?$AAE?$AAM?$AAO?$AAR?$AAY@ 0000000180037490     common-kernel64:CmdLine.obj
 0002:000044a0       ??_C@_1M@KIDICDED@?$AAM?$AAK?$AAD?$AAI?$AAR@ 00000001800374a0     common-kernel64:CmdLine.obj
 0002:000044b0       ??_C@_19PBJBIIDN@?$AAM?$AAO?$AAV?$AAE@ 00000001800374b0     common-kernel64:CmdLine.obj
 0002:000044c0       ??_C@_1O@HEILMPND@?$AAM?$AAS?$AAG?$AAB?$AAO?$AAX@ 00000001800374c0     common-kernel64:CmdLine.obj
 0002:000044d0       ??_C@_17BMKLNAAF@?$AAN?$AAO?$AAT@ 00000001800374d0     common-kernel64:CmdLine.obj
 0002:000044d8       ??_C@_15MLPIMJOL@?$AAO?$AAN@ 00000001800374d8     common-kernel64:CmdLine.obj
 0002:000044e0       ??_C@_1O@GPKPHHA@?$AAO?$AAP?$AAT?$AAI?$AAO?$AAN@ 00000001800374e0     common-kernel64:CmdLine.obj
 0002:000044f0       ??_C@_19IJOJOJIB@?$AAP?$AAA?$AAT?$AAH@ 00000001800374f0     common-kernel64:CmdLine.obj
 0002:00004500       ??_C@_1M@PCDPCAPG@?$AAP?$AAA?$AAU?$AAS?$AAE@ 0000000180037500     common-kernel64:CmdLine.obj
 0002:00004510       ??_C@_19ENCEAGBN@?$AAP?$AAO?$AAP?$AAD@ 0000000180037510     common-kernel64:CmdLine.obj
 0002:00004520       ??_C@_1O@EMMHJCCF@?$AAP?$AAR?$AAO?$AAM?$AAP?$AAT@ 0000000180037520     common-kernel64:CmdLine.obj
 0002:00004530       ??_C@_1M@MLLIJNNO@?$AAP?$AAU?$AAS?$AAH?$AAD@ 0000000180037530     common-kernel64:CmdLine.obj
 0002:0000453c       ??_C@_15BLANDIMK@?$AAR?$AAD@ 000000018003753c     common-kernel64:CmdLine.obj
 0002:00004548       ??_C@_1O@JAHCGOHI@?$AAR?$AAE?$AAB?$AAO?$AAO?$AAT@ 0000000180037548     common-kernel64:CmdLine.obj
 0002:00004558       ??_C@_17KJIAGAPM@?$AAR?$AAE?$AAN@ 0000000180037558     common-kernel64:CmdLine.obj
 0002:00004560       ??_C@_1O@DKKJANDF@?$AAR?$AAE?$AAN?$AAA?$AAM?$AAE@ 0000000180037560     common-kernel64:CmdLine.obj
 0002:00004570       ??_C@_1M@NLKKCBIJ@?$AAR?$AAM?$AAD?$AAI?$AAR@ 0000000180037570     common-kernel64:CmdLine.obj
 0002:00004580       ??_C@_1O@MKBBCDFD@?$AAS?$AAC?$AAR?$AAE?$AAE?$AAN@ 0000000180037580     common-kernel64:CmdLine.obj
 0002:00004590       ??_C@_1O@MCDIKJHM@?$AAS?$AAC?$AAR?$AAP?$AAU?$AAT@ 0000000180037590     common-kernel64:CmdLine.obj
 0002:000045a0       ??_C@_1O@PFLGGDAO@?$AAS?$AAE?$AAL?$AAE?$AAC?$AAT@ 00000001800375a0     common-kernel64:CmdLine.obj
 0002:000045b0       ??_C@_17FKIONHJJ@?$AAS?$AAE?$AAT@ 00000001800375b0     common-kernel64:CmdLine.obj
 0002:000045b8       ??_C@_1O@OHHAFKEO@?$AAS?$AAE?$AAT?$AAD?$AAO?$AAS@ 00000001800375b8     common-kernel64:CmdLine.obj
 0002:000045c8       ??_C@_1BC@GEMAPDNM@?$AAS?$AAE?$AAT?$AAL?$AAO?$AAC?$AAA?$AAL@ 00000001800375c8     common-kernel64:CmdLine.obj
 0002:000045e0       ??_C@_1M@OJBOFOHK@?$AAS?$AAH?$AAI?$AAF?$AAT@ 00000001800375e0     common-kernel64:CmdLine.obj
 0002:000045f0       ??_C@_1BC@HJGKBLNP@?$AAS?$AAH?$AAR?$AAA?$AAL?$AAI?$AAA?$AAS@ 00000001800375f0     common-kernel64:CmdLine.obj
 0002:00004608       ??_C@_1M@JPCOGECE@?$AAS?$AAT?$AAA?$AAR?$AAT@ 0000000180037608     common-kernel64:CmdLine.obj
 0002:00004618       ??_C@_17LIOOOOHK@?$AAT?$AAE?$AAE@ 0000000180037618     common-kernel64:CmdLine.obj
 0002:00004620       ??_C@_19IFFENJMA@?$AAT?$AAI?$AAM?$AAE@ 0000000180037620     common-kernel64:CmdLine.obj
 0002:00004630       ??_C@_1M@FFPBPPED@?$AAT?$AAI?$AAM?$AAE?$AAR@ 0000000180037630     common-kernel64:CmdLine.obj
 0002:00004640       ??_C@_1M@NMMEOLKN@?$AAT?$AAI?$AAT?$AAL?$AAE@ 0000000180037640     common-kernel64:CmdLine.obj
 0002:00004650       ??_C@_1M@BOEMPBHM@?$AAT?$AAO?$AAU?$AAC?$AAH@ 0000000180037650     common-kernel64:CmdLine.obj
 0002:00004660       ??_C@_19EINGHGNA@?$AAT?$AAR?$AAE?$AAE@ 0000000180037660     common-kernel64:CmdLine.obj
 0002:00004670       ??_C@_1BC@DJLLAHAG@?$AAT?$AAR?$AAU?$AAE?$AAN?$AAA?$AAM?$AAE@ 0000000180037670     common-kernel64:CmdLine.obj
 0002:00004688       ??_C@_19EGKHPJKO@?$AAT?$AAY?$AAP?$AAE@ 0000000180037688     common-kernel64:CmdLine.obj
 0002:00004698       ??_C@_1BA@CPEILPFL@?$AAU?$AAN?$AAA?$AAL?$AAI?$AAA?$AAS@ 0000000180037698     common-kernel64:CmdLine.obj
 0002:000046a8       ??_C@_1M@GANCNEJA@?$AAU?$AAN?$AAS?$AAE?$AAT@ 00000001800376a8     common-kernel64:CmdLine.obj
 0002:000046b8       ??_C@_17DHAFIGCB@?$AAV?$AAE?$AAR@ 00000001800376b8     common-kernel64:CmdLine.obj
 0002:000046c0       ??_C@_1O@LNHKOABJ@?$AAV?$AAE?$AAR?$AAI?$AAF?$AAY@ 00000001800376c0     common-kernel64:CmdLine.obj
 0002:000046d0       ??_C@_17CGFIIFOL@?$AAV?$AAO?$AAL@ 00000001800376d0     common-kernel64:CmdLine.obj
 0002:000046d8       ??_C@_1BA@GEPADKGO@?$AAV?$AAS?$AAC?$AAR?$AAP?$AAU?$AAT@ 00000001800376d8     common-kernel64:CmdLine.obj
 0002:000046e8       ??_C@_1O@EEDIBOKC@?$AAW?$AAI?$AAN?$AAD?$AAO?$AAW@ 00000001800376e8     common-kernel64:CmdLine.obj
 0002:000046f8       ??_C@_13GILOGAML@?$AAY@    00000001800376f8     common-kernel64:CmdLine.obj
 0002:00004700       ??_C@_19DOGDICKI@?$AA?4?$AAe?$AAx?$AAe@ 0000000180037700     common-kernel64:CmdLine.obj
 0002:00004710       ??_C@_1BG@PIGCKNCG@?$AAC?$AAo?$AAn?$AAE?$AAm?$AAu?$AA?4?$AAe?$AAx?$AAe@ 0000000180037710     common-kernel64:CmdLine.obj
 0002:00004728       ??_C@_1BK@BNOCAHHB@?$AAC?$AAo?$AAn?$AAE?$AAm?$AAu?$AA6?$AA4?$AA?4?$AAe?$AAx?$AAe@ 0000000180037728     common-kernel64:CmdLine.obj
 0002:00004744       ??_C@_05LCABBMOG@?$CFs?3?$CFi@ 0000000180037744     common-kernel64:WThreads.obj
 0002:00004758       ??_7exception@stdext@@6B@  0000000180037758     common-kernel64:CEStr.obj
 0002:00004770       ??_C@_0BC@BDKFLDHL@unknown?5exception@ 0000000180037770     common-kernel64:CEStr.obj
 0002:00004790       ??_7bad_alloc@stdext@@6B@  0000000180037790     common-kernel64:CEStr.obj
 0002:000047a8       ??_C@_1BO@HJHEFHMO@?$AAK?$AAe?$AAr?$AAn?$AAe?$AAl?$AAB?$AAa?$AAs?$AAe?$AA?4?$AAd?$AAl?$AAl@ 00000001800377a8     common-kernel64:MSecurity.obj
 0002:000047c8       ??_C@_1BK@BIGILECK@?$AAA?$AAd?$AAv?$AAa?$AAp?$AAi?$AA3?$AA2?$AA?4?$AAd?$AAl?$AAl@ 00000001800377c8     common-kernel64:MSecurity.obj
 0002:000047e8       ??_C@_0BE@IPKPLIM@AddAccessAllowedAce@ 00000001800377e8     common-kernel64:MSecurity.obj
 0002:00004800       ??_C@_0BD@EIGAJLOG@AddAccessDeniedAce@ 0000000180037800     common-kernel64:MSecurity.obj
 0002:00004818       ??_C@_0BJ@ECIKFEOL@AllocateAndInitializeSid@ 0000000180037818     common-kernel64:MSecurity.obj
 0002:00004838       ??_C@_0N@HBKDHKNL@GetLengthSid@ 0000000180037838     common-kernel64:MSecurity.obj
 0002:00004848       ??_C@_0O@GKCEJBAA@InitializeAcl@ 0000000180037848     common-kernel64:MSecurity.obj
 0002:00004858       ??_C@_0BN@FNLANPJJ@InitializeSecurityDescriptor@ 0000000180037858     common-kernel64:MSecurity.obj
 0002:00004878       ??_C@_0BK@DNNLOFO@SetSecurityDescriptorDacl@ 0000000180037878     common-kernel64:MSecurity.obj
 0002:00004898       ??_C@_1BE@GJOFHIHD@?$AAn?$AAt?$AAd?$AAl?$AAl?$AA?4?$AAd?$AAl?$AAl@ 0000000180037898     common-kernel64:WObjects.obj
 0002:000048b0       ??_C@_0BF@LOGLPPDD@RtlVerifyVersionInfo@ 00000001800378b0     common-kernel64:WObjects.obj
 0002:000048c8       ??_C@_1BA@PHJPMKEE@?$AAC?$AAo?$AAm?$AAS?$AAp?$AAe?$AAc@ 00000001800378c8     common-kernel64:WObjects.obj
 0002:000048e0       ??_7?$_Func_impl_no_alloc@P6AHPEAX@ZXPEAX@std@@6B@ 00000001800378e0     common-kernel64:WObjects.obj
 0002:00004910       ??_C@_0BD@HGJIAJJM@RequestTrampolines@ 0000000180037910     common-kernel64:HkFunc.obj
 0002:00004930       ??_7?$MToolHelp@UtagPROCESSENTRY32W@@$1?Process32FirstW@@YAHPEAXPEAU1@@Z$1?Process32NextW@@YAH01@Z@@6B@ 0000000180037930     common-kernel64:MProcess.obj
 0002:00004948       ??_7MToolHelpProcess@@6B@  0000000180037948     common-kernel64:MProcess.obj
 0002:00004958       ??_C@_1BK@HHKNEJDC@?$AAt?$AAl?$AAn?$AAt?$AAs?$AAe?$AAs?$AAs?$AA?4?$AAe?$AAx?$AAe@ 0000000180037958     common-kernel64:MProcess.obj
 0002:00004978       ??_C@_1BI@MPDCNJBA@?$AAt?$AAl?$AAn?$AAt?$AAs?$AAv?$AAr?$AA?4?$AAe?$AAx?$AAe@ 0000000180037978     common-kernel64:MProcess.obj
 0002:00004998       ??_7?$_Func_impl_no_alloc@V<lambda_217d18733db987cb8fc0adfd68028951>@@_NAEBUtagPROCESSENTRY32W@@@std@@6B@ 0000000180037998     common-kernel64:MProcess.obj
 0002:000049c8       ??_C@_1O@GNPNAMOC@?$AA0?$AAx?$AA?$CF?$AA0?$AA8?$AAX@ 00000001800379c8     common-user64:SetEnvVar.obj
 0002:000049d8       ??_C@_1BG@CJNOKBPK@?$AAC?$AAo?$AAn?$AAE?$AAm?$AAu?$AAH?$AAW?$AAN?$AAD@ 00000001800379d8     common-user64:SetEnvVar.obj
 0002:000049f0       ??_C@_15EFLNJKHH@?$AA?$CF?$AAu@ 00000001800379f0     common-user64:SetEnvVar.obj
 0002:000049f8       ??_C@_1BE@GIIMEDBE@?$AAC?$AAo?$AAn?$AAE?$AAm?$AAu?$AAP?$AAI?$AAD@ 00000001800379f8     common-user64:SetEnvVar.obj
 0002:00004a10       ??_C@_1BO@BBOAAODE@?$AAC?$AAo?$AAn?$AAE?$AAm?$AAu?$AAD?$AAr?$AAa?$AAw?$AAH?$AAW?$AAN?$AAD@ 0000000180037a10     common-user64:SetEnvVar.obj
 0002:00004a30       ??_C@_1BO@DIAPFMAN@?$AAC?$AAo?$AAn?$AAE?$AAm?$AAu?$AAB?$AAa?$AAc?$AAk?$AAH?$AAW?$AAN?$AAD@ 0000000180037a30     common-user64:SetEnvVar.obj
 0002:00004a50       ??_C@_1CI@PDOPFPLH@?$AAV?$AAi?$AAr?$AAt?$AAu?$AAa?$AAl?$AAC?$AAo?$AAn?$AAs?$AAo?$AAl?$AAe?$AAC@ 0000000180037a50     common-user64:ConEmuCheckEx.obj
 0002:00004a78       ??_C@_1CC@PDEDDOGK@?$AA?2?$AAP?$AAl?$AAu?$AAg?$AAi?$AAn?$AAs?$AA?2?$AAC?$AAo?$AAn?$AAE?$AAm?$AAu@ 0000000180037a78     common-user64:ConEmuCheckEx.obj
 0002:00004aa0       ??_C@_1CA@CNCOCNJD@?$AAS?$AAo?$AAf?$AAt?$AAw?$AAa?$AAr?$AAe?$AA?2?$AAC?$AAo?$AAn?$AAE?$AAm?$AAu@ 0000000180037aa0     common-user64:ConEmuCheckEx.obj
 0002:00004ac0       ??_C@_1CK@KBHIPEEC@?$AAC?$AAo?$AAn?$AAE?$AAm?$AAu?$AA?2?$AAC?$AAo?$AAn?$AAE?$AAm?$AAu?$AAC?$AA6@ 0000000180037ac0     common-user64:ConEmuCheckEx.obj
 0002:00004af0       ??_C@_1CG@HCDHJIEM@?$AAC?$AAo?$AAn?$AAE?$AAm?$AAu?$AA?2?$AAC?$AAo?$AAn?$AAE?$AAm?$AAu?$AAC?$AA?4@ 0000000180037af0     common-user64:ConEmuCheckEx.obj
 0002:00004b20       __xmm@ffffffff800000010000000000000000 0000000180037b20     common-user64:ConEmuCheckEx.obj
 0002:00004b30       __xmm@ffffffff80000002ffffffff80000002 0000000180037b30     common-user64:ConEmuCheckEx.obj
 0002:00004b40       ??_C@_1BO@CJPKCNHF@?$AAL?$AAu?$AAc?$AAi?$AAd?$AAa?$AA?5?$AAC?$AAo?$AAn?$AAs?$AAo?$AAl?$AAe@ 0000000180037b40     common-user64:EmergencyShow.obj
 0002:00004b60       ??_C@_1BA@GIKDDGPH@?$AAC?$AAo?$AAn?$AAs?$AAo?$AAl?$AAe@ 0000000180037b60     common-user64:EmergencyShow.obj
 0002:00004b70       ??_C@_1BC@MAHCNJIF@?$AAF?$AAo?$AAn?$AAt?$AAS?$AAi?$AAz?$AAe@ 0000000180037b70     common-user64:EmergencyShow.obj
 0002:00004b90       ??_C@_1EM@OAOIIPGN@?$AAC?$AAo?$AAn?$AAs?$AAo?$AAl?$AAe?$AA?2?$AA?$CF?$AAS?$AAy?$AAs?$AAt?$AAe?$AAm@ 0000000180037b90     common-user64:EmergencyShow.obj
 0002:00004be0       ??_C@_1DC@GKBPJPHN@?$AAC?$AAo?$AAn?$AAE?$AAm?$AAu?$AAE?$AAm?$AAe?$AAr?$AAg?$AAe?$AAn?$AAc?$AAy@ 0000000180037be0     common-user64:EmergencyShow.obj
 0002:00004c20       ??_C@_1GK@PPEHOOAL@?$AAS?$AAO?$AAF?$AAT?$AAW?$AAA?$AAR?$AAE?$AA?2?$AAM?$AAi?$AAc?$AAr?$AAo?$AAs@ 0000000180037c20     common-user64:WFiles.obj
 0002:00004c8c       ??_C@_13PJJBFPED@?$AA?$DL@ 0000000180037c8c     common-user64:WFiles.obj
 0002:00004c90       ??_C@_1FM@HGFGNGE@?$AAC?$AAa?$AAn?$AA?8?$AAt?$AA?5?$AAC?$AAr?$AAe?$AAa?$AAt?$AAe?$AAF?$AAi?$AAl@ 0000000180037c90     common-user64:WConsoleEx.obj
 0002:00004cf0       ??_C@_1EA@DNEBDKPD@?$AAC?$AAa?$AAn?$AA?8?$AAt?$AA?5?$AAM?$AAa?$AAp?$AAV?$AAi?$AAe?$AAw?$AAO?$AAf@ 0000000180037cf0     common-user64:WConsoleEx.obj
 0002:00004d30       ??_C@_1BO@IPFLJP@?$AAC?$AAo?$AAn?$AAs?$AAo?$AAl?$AAe?$AA?2?$AAC?$AAo?$AAn?$AAE?$AAm?$AAu@ 0000000180037d30     common-user64:WConsoleEx.obj
 0002:00004d50       ??_C@_1CE@BJHMHGLF@?$AAH?$AAi?$AAs?$AAt?$AAo?$AAr?$AAy?$AAB?$AAu?$AAf?$AAf?$AAe?$AAr?$AAS?$AAi@ 0000000180037d50     common-user64:WConsoleEx.obj
 0002:00004d78       ??_C@_1CO@DAOCNAIJ@?$AAN?$AAu?$AAm?$AAb?$AAe?$AAr?$AAO?$AAf?$AAH?$AAi?$AAs?$AAt?$AAo?$AAr?$AAy@ 0000000180037d78     common-user64:WConsoleEx.obj
 0002:00004db0       ??_7bad_function_call@std@@6B@ 0000000180037db0     libcpmt:xthrow.obj
 0002:00004dc0       ??_C@_0BC@DPJNKNAF@bad?5function?5call@ 0000000180037dc0     libcpmt:xthrow.obj
 0002:00004de0       ??_7logic_error@std@@6B@   0000000180037de0     libcpmt:xthrow.obj
 0002:00004df8       ??_7length_error@std@@6B@  0000000180037df8     libcpmt:xthrow.obj
 0002:00004e10       ??_7type_info@@6B@         0000000180037e10     LIBCMT:std_type_info_static.obj
 0002:00004e20       ??_C@_1EC@JIJBPKFM@?$AAa?$AAp?$AAi?$AA?9?$AAm?$AAs?$AA?9?$AAw?$AAi?$AAn?$AA?9?$AAc?$AAo?$AAr?$AAe@ 0000000180037e20     LIBCMT:thread_safe_statics.obj
 0002:00004e68       ??_C@_0BJ@JEBJOJFJ@SleepConditionVariableCS@ 0000000180037e68     LIBCMT:thread_safe_statics.obj
 0002:00004e88       ??_C@_0BJ@PGPPEPCC@WakeAllConditionVariable@ 0000000180037e88     LIBCMT:thread_safe_statics.obj
 0002:00004ea8       _pRawDllMain               0000000180037ea8     LIBCMT:dll_dllmain.obj
 0002:00004ea8       _pDefaultRawDllMain        0000000180037ea8     LIBCMT:dll_dllmain.obj
 0002:00004eb0       __xmm@ffffffffffffffffffffffffffffffff 0000000180037eb0     LIBCMT:utility.obj
 0002:00004ed0       ?s_negLengthTab@FH4@@3QBCB 0000000180037ed0     libvcruntime:risctrnsctrl.obj
 0002:00004ee0       ?s_shiftTab@FH4@@3QBEB     0000000180037ee0     libvcruntime:risctrnsctrl.obj
 0002:00004f88       _pDestructExceptionObject  0000000180037f88     libvcruntime:ehhelpers.obj
 0002:00004f98       ??_7bad_exception@std@@6B@ 0000000180037f98     libvcruntime:frame.obj
 0002:00004fa8       ??_C@_0O@DPKOEFFH@bad?5exception@ 0000000180037fa8     libvcruntime:frame.obj
 0002:000056c0       ??_C@_08EHJDFFNH@__based?$CI@ 00000001800386c0     libvcruntime:undname.obj
 0002:000056d0       ??_C@_07KOLFKCDI@__cdecl@  00000001800386d0     libvcruntime:undname.obj
 0002:000056d8       ??_C@_08GHMPAG@__pascal@   00000001800386d8     libvcruntime:undname.obj
 0002:000056e8       ??_C@_09IFJBGAPI@__stdcall@ 00000001800386e8     libvcruntime:undname.obj
 0002:000056f8       ??_C@_0L@NPHFGOKO@__thiscall@ 00000001800386f8     libvcruntime:undname.obj
 0002:00005708       ??_C@_0L@JMKHOMEK@__fastcall@ 0000000180038708     libvcruntime:undname.obj
 0002:00005718       ??_C@_0N@BCKKPABJ@__vectorcall@ 0000000180038718     libvcruntime:undname.obj
 0002:00005728       ??_C@_09HIJEGCPM@__clrcall@ 0000000180038728     libvcruntime:undname.obj
 0002:00005734       ??_C@_06GHPCKEAG@__eabi@   0000000180038734     libvcruntime:undname.obj
 0002:00005740       ??_C@_09IOPIDJLG@__swift_1@ 0000000180038740     libvcruntime:undname.obj
 0002:00005750       ??_C@_09KFNFGKHF@__swift_2@ 0000000180038750     libvcruntime:undname.obj
 0002:00005760       ??_C@_07JOMMBBKO@__ptr64@  0000000180038760     libvcruntime:undname.obj
 0002:00005768       ??_C@_0L@PILCLIHE@__restrict@ 0000000180038768     libvcruntime:undname.obj
 0002:00005778       ??_C@_0M@GFIIJFMG@__unaligned@ 0000000180038778     libvcruntime:undname.obj
 0002:00005788       ??_C@_09DHDLOLLB@restrict?$CI@ 0000000180038788     libvcruntime:undname.obj
 0002:00005794       ??_C@_04NIHEBCM@?5new@     0000000180038794     libvcruntime:undname.obj
 0002:000057a0       ??_C@_07FPCDHGMM@?5delete@ 00000001800387a0     libvcruntime:undname.obj
 0002:000057a8       ??_C@_01NEMOKFLO@?$DN@     00000001800387a8     libvcruntime:undname.obj
 0002:000057ac       ??_C@_02GPIOPFAK@?$DO?$DO@ 00000001800387ac     libvcruntime:undname.obj
 0002:000057b0       ??_C@_02FODMEDOG@?$DM?$DM@ 00000001800387b0     libvcruntime:undname.obj
 0002:000057b4       ??_C@_01DCLJPIOD@?$CB@     00000001800387b4     libvcruntime:undname.obj
 0002:000057b8       ??_C@_02EGOFBIJA@?$DN?$DN@ 00000001800387b8     libvcruntime:undname.obj
 0002:000057bc       ??_C@_02FDNJECIE@?$CB?$DN@ 00000001800387bc     libvcruntime:undname.obj
 0002:000057c0       ??_C@_02GPECMEKF@?$FL?$FN@ 00000001800387c0     libvcruntime:undname.obj
 0002:000057c8       ??_C@_08LHJFAFGD@operator@ 00000001800387c8     libvcruntime:undname.obj
 0002:000057d4       ??_C@_02HBOOOICD@?9?$DO@   00000001800387d4     libvcruntime:undname.obj
 0002:000057d8       ??_C@_01NBENCBCI@?$CK@     00000001800387d8     libvcruntime:undname.obj
 0002:000057dc       ??_C@_02ECNGHCIF@?$CL?$CL@ 00000001800387dc     libvcruntime:undname.obj
 0002:000057e0       ??_C@_02BAABKJLB@?9?9@     00000001800387e0     libvcruntime:undname.obj
 0002:000057e4       ??_C@_01JOAMLHOP@?9@       00000001800387e4     libvcruntime:undname.obj
 0002:000057e8       ??_C@_01MIFGBAGJ@?$CL@     00000001800387e8     libvcruntime:undname.obj
 0002:000057ec       ??_C@_01HNPIGOCE@?$CG@     00000001800387ec     libvcruntime:undname.obj
 0002:000057f0       ??_C@_03MNHNFDLC@?9?$DO?$CK@ 00000001800387f0     libvcruntime:undname.obj
 0002:000057f4       ??_C@_01KMDKNFGN@?1@       00000001800387f4     libvcruntime:undname.obj
 0002:000057f8       ??_C@_01FGNFDNOH@?$CF@     00000001800387f8     libvcruntime:undname.obj
 0002:000057fc       ??_C@_01MNNFJEPP@?$DM@     00000001800387fc     libvcruntime:undname.obj
 0002:00005800       ??_C@_02EHCHHCKH@?$DM?$DN@ 0000000180038800     libvcruntime:undname.obj
 0002:00005804       ??_C@_01PPODPGHN@?$DO@     0000000180038804     libvcruntime:undname.obj
 0002:00005808       ??_C@_02EEKDKGMJ@?$DO?$DN@ 0000000180038808     libvcruntime:undname.obj
 0002:0000580c       ??_C@_01IHBHIGKO@?0@       000000018003880c     libvcruntime:undname.obj
 0002:00005810       ??_C@_02HCKGKOFO@?$CI?$CJ@ 0000000180038810     libvcruntime:undname.obj
 0002:00005814       ??_C@_01PJKLJHI@?$HO@      0000000180038814     libvcruntime:undname.obj
 0002:00005818       ??_C@_01JKBOJNNK@?$FO@     0000000180038818     libvcruntime:undname.obj
 0002:0000581c       ??_C@_01DNKMNLPK@?$HM@     000000018003881c     libvcruntime:undname.obj
 0002:00005820       ??_C@_02PPKAJPJL@?$CG?$CG@ 0000000180038820     libvcruntime:undname.obj
 0002:00005824       ??_C@_02NONPIBCD@?$HM?$HM@ 0000000180038824     libvcruntime:undname.obj
 0002:00005828       ??_C@_02FPIMKNGF@?$CK?$DN@ 0000000180038828     libvcruntime:undname.obj
 0002:0000582c       ??_C@_02FOEOMHFC@?$CL?$DN@ 000000018003882c     libvcruntime:undname.obj
 0002:00005830       ??_C@_02FKMDLLOA@?9?$DN@   0000000180038830     libvcruntime:undname.obj
 0002:00005834       ??_C@_02FJEHGPIO@?1?$DN@   0000000180038834     libvcruntime:undname.obj
 0002:00005838       ??_C@_02FENAOKFI@?$CF?$DN@ 0000000180038838     libvcruntime:undname.obj
 0002:0000583c       ??_C@_03IKFCCPFF@?$DO?$DO?$DN@ 000000018003883c     libvcruntime:undname.obj
 0002:00005840       ??_C@_03CDNPDDLA@?$DM?$DM?$DN@ 0000000180038840     libvcruntime:undname.obj
 0002:00005844       ??_C@_02FGJGFEAB@?$CG?$DN@ 0000000180038844     libvcruntime:undname.obj
 0002:00005848       ??_C@_02DHLNPPGH@?$HM?$DN@ 0000000180038848     libvcruntime:undname.obj
 0002:0000584c       ??_C@_02MHEGNOJ@?$FO?$DN@  000000018003884c     libvcruntime:undname.obj
 0002:00005850       ??_C@_09IFPLHPGF@?$GAvftable?8@ 0000000180038850     libvcruntime:undname.obj
 0002:00005860       ??_C@_09BLBHBJP@?$GAvbtable?8@ 0000000180038860     libvcruntime:undname.obj
 0002:00005870       ??_C@_07FEEIOKP@?$GAvcall?8@ 0000000180038870     libvcruntime:undname.obj
 0002:00005878       ??_C@_08LLFFHHDJ@?$GAtypeof?8@ 0000000180038878     libvcruntime:undname.obj
 0002:00005888       ??_C@_0BF@KDPPACIK@?$GAlocal?5static?5guard?8@ 0000000180038888     libvcruntime:undname.obj
 0002:000058a0       ??_C@_08OBABFOLI@?$GAstring?8@ 00000001800388a0     libvcruntime:undname.obj
 0002:000058b0       ??_C@_0BD@JDLKDPAB@?$GAvbase?5destructor?8@ 00000001800388b0     libvcruntime:undname.obj
 0002:000058c8       ??_C@_0BN@DEGPLNFK@?$GAvector?5deleting?5destructor?8@ 00000001800388c8     libvcruntime:undname.obj
 0002:000058e8       ??_C@_0BO@OBMKPJIG@?$GAdefault?5constructor?5closure?8@ 00000001800388e8     libvcruntime:undname.obj
 0002:00005908       ??_C@_0BN@IMDCHIKM@?$GAscalar?5deleting?5destructor?8@ 0000000180038908     libvcruntime:undname.obj
 0002:00005928       ??_C@_0BO@PFGOCPJJ@?$GAvector?5constructor?5iterator?8@ 0000000180038928     libvcruntime:undname.obj
 0002:00005948       ??_C@_0BN@LFPFMEDL@?$GAvector?5destructor?5iterator?8@ 0000000180038948     libvcruntime:undname.obj
 0002:00005968       ??_C@_0CE@IKBNEHA@?$GAvector?5vbase?5constructor?5itera@ 0000000180038968     libvcruntime:undname.obj
 0002:00005990       ??_C@_0BL@NILFHHPC@?$GAvirtual?5displacement?5map?8@ 0000000180038990     libvcruntime:undname.obj
 0002:000059b0       ??_C@_0CB@JONCMFFK@?$GAeh?5vector?5constructor?5iterator@ 00000001800389b0     libvcruntime:undname.obj
 0002:000059d8       ??_C@_0CA@GCEOPDGL@?$GAeh?5vector?5destructor?5iterator?8@ 00000001800389d8     libvcruntime:undname.obj
 0002:000059f8       ??_C@_0CH@OOJPLCPH@?$GAeh?5vector?5vbase?5constructor?5it@ 00000001800389f8     libvcruntime:undname.obj
 0002:00005a20       ??_C@_0BL@LLKPOHJI@?$GAcopy?5constructor?5closure?8@ 0000000180038a20     libvcruntime:undname.obj
 0002:00005a40       ??_C@_0BA@KBCDOMBN@?$GAudt?5returning?8@ 0000000180038a40     libvcruntime:undname.obj
 0002:00005a50       ??_C@_03KLGMFNMG@?$GAEH@   0000000180038a50     libvcruntime:undname.obj
 0002:00005a54       ??_C@_05KHLCHHI@?$GARTTI@  0000000180038a54     libvcruntime:undname.obj
 0002:00005a60       ??_C@_0BA@KKLDJDLB@?$GAlocal?5vftable?8@ 0000000180038a60     libvcruntime:undname.obj
 0002:00005a70       ??_C@_0CE@IIHCMGGL@?$GAlocal?5vftable?5constructor?5clos@ 0000000180038a70     libvcruntime:undname.obj
 0002:00005a94       ??_C@_06FHBGPFGH@?5new?$FL?$FN@ 0000000180038a94     libvcruntime:undname.obj
 0002:00005aa0       ??_C@_09LBNFPBCA@?5delete?$FL?$FN@ 0000000180038aa0     libvcruntime:undname.obj
 0002:00005ab0       ??_C@_0P@HJKNJFNN@?$GAomni?5callsig?8@ 0000000180038ab0     libvcruntime:undname.obj
 0002:00005ac0       ??_C@_0BL@CNOONJFP@?$GAplacement?5delete?5closure?8@ 0000000180038ac0     libvcruntime:undname.obj
 0002:00005ae0       ??_C@_0BN@CKNJLHMB@?$GAplacement?5delete?$FL?$FN?5closure?8@ 0000000180038ae0     libvcruntime:undname.obj
 0002:00005b00       ??_C@_0CG@CFDHKGGD@?$GAmanaged?5vector?5constructor?5ite@ 0000000180038b00     libvcruntime:undname.obj
 0002:00005b28       ??_C@_0CF@IMGKMJNO@?$GAmanaged?5vector?5destructor?5iter@ 0000000180038b28     libvcruntime:undname.obj
 0002:00005b50       ??_C@_0CG@HLDDJMAG@?$GAeh?5vector?5copy?5constructor?5ite@ 0000000180038b50     libvcruntime:undname.obj
 0002:00005b78       ??_C@_0CM@FCBBDIGB@?$GAeh?5vector?5vbase?5copy?5construct@ 0000000180038b78     libvcruntime:undname.obj
 0002:00005ba8       ??_C@_0BL@CLIPGLGB@?$GAdynamic?5initializer?5for?5?8@ 0000000180038ba8     libvcruntime:undname.obj
 0002:00005bc8       ??_C@_0CB@PDBIFEP@?$GAdynamic?5atexit?5destructor?5for?5@ 0000000180038bc8     libvcruntime:undname.obj
 0002:00005bf0       ??_C@_0CD@CGAJBKEJ@?$GAvector?5copy?5constructor?5iterat@ 0000000180038bf0     libvcruntime:undname.obj
 0002:00005c18       ??_C@_0CJ@GJELGAMM@?$GAvector?5vbase?5copy?5constructor?5@ 0000000180038c18     libvcruntime:undname.obj
 0002:00005c48       ??_C@_0CL@FGIJHLCE@?$GAmanaged?5vector?5copy?5constructo@ 0000000180038c48     libvcruntime:undname.obj
 0002:00005c78       ??_C@_0BM@PMGGMLDN@?$GAlocal?5static?5thread?5guard?8@ 0000000180038c78     libvcruntime:undname.obj
 0002:00005c98       ??_C@_0N@BDNMDMOL@operator?5?$CC?$CC?5@ 0000000180038c98     libvcruntime:undname.obj
 0002:00005ca8       ??_C@_0BC@GGEBGALA@operator?5co_await@ 0000000180038ca8     libvcruntime:undname.obj
 0002:00005cc0       ??_C@_0M@GAAIMMOH@operator?$DM?$DN?$DO@ 0000000180038cc0     libvcruntime:undname.obj
 0002:00005cd0       ??_C@_0BC@DAFEJGAK@?5Type?5Descriptor?8@ 0000000180038cd0     libvcruntime:undname.obj
 0002:00005ce8       ??_C@_0BM@LDKODKLH@?5Base?5Class?5Descriptor?5at?5?$CI@ 0000000180038ce8     libvcruntime:undname.obj
 0002:00005d08       ??_C@_0BD@LGICGFMM@?5Base?5Class?5Array?8@ 0000000180038d08     libvcruntime:undname.obj
 0002:00005d20       ??_C@_0BN@MECKDCOJ@?5Class?5Hierarchy?5Descriptor?8@ 0000000180038d20     libvcruntime:undname.obj
 0002:00005d40       ??_C@_0BK@CFCOFLF@?5Complete?5Object?5Locator?8@ 0000000180038d40     libvcruntime:undname.obj
 0002:00005d60       ??_C@_0BG@JNJLAMPM@?$GAanonymous?5namespace?8@ 0000000180038d60     libvcruntime:undname.obj
 0002:00005d90       ??_C@_1DM@KHCHBNEB@?$AAa?$AAp?$AAi?$AA?9?$AAm?$AAs?$AA?9?$AAw?$AAi?$AAn?$AA?9?$AAc?$AAo?$AAr?$AAe@ 0000000180038d90     libvcruntime:winapi_downlevel.obj
 0002:00005dd0       ??_C@_1DK@LPPGFMPP@?$AAa?$AAp?$AAi?$AA?9?$AAm?$AAs?$AA?9?$AAw?$AAi?$AAn?$AA?9?$AAc?$AAo?$AAr?$AAe@ 0000000180038dd0     libvcruntime:winapi_downlevel.obj
 0002:00005e10       ??_C@_1BC@GDMECMAK@?$AAk?$AAe?$AAr?$AAn?$AAe?$AAl?$AA3?$AA2@ 0000000180038e10     libvcruntime:winapi_downlevel.obj
 0002:00005e28       ??_C@_1BA@PFFKHIOG@?$AAa?$AAp?$AAi?$AA?9?$AAm?$AAs?$AA?9@ 0000000180038e28     libvcruntime:winapi_downlevel.obj
 0002:00005e40       ??_C@_08KNHFBNJ@FlsAlloc@  0000000180038e40     libvcruntime:winapi_downlevel.obj
 0002:00005e58       ??_C@_07PEJMOBNF@FlsFree@  0000000180038e58     libvcruntime:winapi_downlevel.obj
 0002:00005e68       ??_C@_0M@GDNOONDI@FlsGetValue@ 0000000180038e68     libvcruntime:winapi_downlevel.obj
 0002:00005e80       ??_C@_0M@JCPCPOEF@FlsSetValue@ 0000000180038e80     libvcruntime:winapi_downlevel.obj
 0002:00005e98       ??_C@_0BM@HCFOFFN@InitializeCriticalSectionEx@ 0000000180038e98     libvcruntime:winapi_downlevel.obj
 0002:00005ec0       ?standard_lookup_table_spectre@__crt_stdio_output@@3V?$spectre_mitigated_lookup_table@Ustate_transition_pair@__crt_stdio_output@@$0IA@@1@B 0000000180038ec0     libucrt:output.obj
 0002:000062c0       ??_C@_1O@CEDCILHN@?$AA?$CI?$AAn?$AAu?$AAl?$AAl?$AA?$CJ@ 00000001800392c0     libucrt:output.obj
 0002:000062d0       ??_C@_06OJHGLDPL@?$CInull?$CJ@ 00000001800392d0     libucrt:output.obj
 0002:00006450       __acrt_exception_action_table 0000000180039450     libucrt:exception_filter.obj
 0002:00006510       __acrt_signal_action_table_count 0000000180039510     libucrt:exception_filter.obj
 0002:00006518       __acrt_signal_action_first_fpe_index 0000000180039518     libucrt:exception_filter.obj
 0002:00006520       __acrt_signal_action_fpe_count 0000000180039520     libucrt:exception_filter.obj
 0002:00006528       ??_C@_1BI@BGOHAHKC@?$AAm?$AAs?$AAc?$AAo?$AAr?$AAe?$AAe?$AA?4?$AAd?$AAl?$AAl@ 0000000180039528     libucrt:exit.obj
 0002:00006540       ??_C@_0P@MIGLKIOC@CorExitProcess@ 0000000180039540     libucrt:exit.obj
 0002:000066d0       ??_C@_03OEIAHPBN@INF@      00000001800396d0     libucrt:cvt.obj
 0002:000066d4       ??_C@_03OJHLLCGB@inf@      00000001800396d4     libucrt:cvt.obj
 0002:000066d8       ??_C@_03LKNCIKJB@NAN@      00000001800396d8     libucrt:cvt.obj
 0002:000066dc       ??_C@_03LHCJEHON@nan@      00000001800396dc     libucrt:cvt.obj
 0002:000066e0       ??_C@_09OFJJIMPC@NAN?$CISNAN?$CJ@ 00000001800396e0     libucrt:cvt.obj
 0002:000066f0       ??_C@_09IPFBKMDL@nan?$CIsnan?$CJ@ 00000001800396f0     libucrt:cvt.obj
 0002:00006700       ??_C@_08IKHNHAJ@NAN?$CIIND?$CJ@ 0000000180039700     libucrt:cvt.obj
 0002:00006710       ??_C@_08OFCDMILK@nan?$CIind?$CJ@ 0000000180039710     libucrt:cvt.obj
 0002:0000671c       ??_C@_05KLBDPFGC@e?$CL000@ 000000018003971c     libucrt:cvt.obj
 0002:00006730       __lc_time_c                0000000180039730     libucrt:nlsdata.obj
 0002:000069f0       ??_C@_03KOEHGMDN@Sun@      00000001800399f0     libucrt:nlsdata.obj
 0002:000069f4       ??_C@_03PDAGKDH@Mon@       00000001800399f4     libucrt:nlsdata.obj
 0002:000069f8       ??_C@_03NAGEINEP@Tue@      00000001800399f8     libucrt:nlsdata.obj
 0002:000069fc       ??_C@_03MHOMLAJA@Wed@      00000001800399fc     libucrt:nlsdata.obj
 0002:00006a00       ??_C@_03IOFIKPDN@Thu@      0000000180039a00     libucrt:nlsdata.obj
 0002:00006a04       ??_C@_03IDIOELNC@Fri@      0000000180039a04     libucrt:nlsdata.obj
 0002:00006a08       ??_C@_03FEFJNEK@Sat@       0000000180039a08     libucrt:nlsdata.obj
 0002:00006a0c       ??_C@_06OOPIFAJ@Sunday@    0000000180039a0c     libucrt:nlsdata.obj
 0002:00006a14       ??_C@_06JLEDEDGH@Monday@   0000000180039a14     libucrt:nlsdata.obj
 0002:00006a20       ??_C@_07BAAGCFCM@Tuesday@  0000000180039a20     libucrt:nlsdata.obj
 0002:00006a28       ??_C@_09DLIGFAKA@Wednesday@ 0000000180039a28     libucrt:nlsdata.obj
 0002:00006a38       ??_C@_08HACCIKIA@Thursday@ 0000000180039a38     libucrt:nlsdata.obj
 0002:00006a44       ??_C@_06JECMNKMI@Friday@   0000000180039a44     libucrt:nlsdata.obj
 0002:00006a50       ??_C@_08INBOOONO@Saturday@ 0000000180039a50     libucrt:nlsdata.obj
 0002:00006a5c       ??_C@_03JIHJHPIE@Jan@      0000000180039a5c     libucrt:nlsdata.obj
 0002:00006a60       ??_C@_03HJBDCHOM@Feb@      0000000180039a60     libucrt:nlsdata.obj
 0002:00006a64       ??_C@_03ODNJBKGA@Mar@      0000000180039a64     libucrt:nlsdata.obj
 0002:00006a68       ??_C@_03LEOLGMJP@Apr@      0000000180039a68     libucrt:nlsdata.obj
 0002:00006a6c       ??_C@_03CNMDKL@May@        0000000180039a6c     libucrt:nlsdata.obj
 0002:00006a70       ??_C@_03IDFGHECI@Jun@      0000000180039a70     libucrt:nlsdata.obj
 0002:00006a74       ??_C@_03LBGABGKK@Jul@      0000000180039a74     libucrt:nlsdata.obj
 0002:00006a78       ??_C@_03IFJFEIGA@Aug@      0000000180039a78     libucrt:nlsdata.obj
 0002:00006a7c       ??_C@_03GGCAPAJC@Sep@      0000000180039a7c     libucrt:nlsdata.obj
 0002:00006a80       ??_C@_03BMAOKBAD@Oct@      0000000180039a80     libucrt:nlsdata.obj
 0002:00006a84       ??_C@_03JPJOFNIA@Nov@      0000000180039a84     libucrt:nlsdata.obj
 0002:00006a88       ??_C@_03MKABNOCG@Dec@      0000000180039a88     libucrt:nlsdata.obj
 0002:00006a90       ??_C@_07CGJPFGJA@January@  0000000180039a90     libucrt:nlsdata.obj
 0002:00006a98       ??_C@_08GNJGEPFN@February@ 0000000180039a98     libucrt:nlsdata.obj
 0002:00006aa4       ??_C@_05HPCKOFNC@March@    0000000180039aa4     libucrt:nlsdata.obj
 0002:00006aac       ??_C@_05DMJDNLEJ@April@    0000000180039aac     libucrt:nlsdata.obj
 0002:00006ab4       ??_C@_04CNLMGBGM@June@     0000000180039ab4     libucrt:nlsdata.obj
 0002:00006abc       ??_C@_04MIEPOIFP@July@     0000000180039abc     libucrt:nlsdata.obj
 0002:00006ac4       ??_C@_06LBBHFDDG@August@   0000000180039ac4     libucrt:nlsdata.obj
 0002:00006ad0       ??_C@_09BHHEALKD@September@ 0000000180039ad0     libucrt:nlsdata.obj
 0002:00006ae0       ??_C@_07JJNFCEND@October@  0000000180039ae0     libucrt:nlsdata.obj
 0002:00006ae8       ??_C@_08HCHEGEOA@November@ 0000000180039ae8     libucrt:nlsdata.obj
 0002:00006af8       ??_C@_08EDHMEBNP@December@ 0000000180039af8     libucrt:nlsdata.obj
 0002:00006b04       ??_C@_02DEDBPAFC@AM@       0000000180039b04     libucrt:nlsdata.obj
 0002:00006b08       ??_C@_02CJNFDJBF@PM@       0000000180039b08     libucrt:nlsdata.obj
 0002:00006b10       ??_C@_08BPBNCDIB@MM?1dd?1yy@ 0000000180039b10     libucrt:nlsdata.obj
 0002:00006b20       ??_C@_0BE@CKGJFCPC@dddd?0?5MMMM?5dd?0?5yyyy@ 0000000180039b20     libucrt:nlsdata.obj
 0002:00006b38       ??_C@_08JCCMCCIL@HH?3mm?3ss@ 0000000180039b38     libucrt:nlsdata.obj
 0002:00006b48       ??_C@_17MBGCMIPB@?$AAS?$AAu?$AAn@ 0000000180039b48     libucrt:nlsdata.obj
 0002:00006b50       ??_C@_17KBOMKBF@?$AAM?$AAo?$AAn@ 0000000180039b50     libucrt:nlsdata.obj
 0002:00006b58       ??_C@_17BMKGEGOJ@?$AAT?$AAu?$AAe@ 0000000180039b58     libucrt:nlsdata.obj
 0002:00006b60       ??_C@_17CJEDCEPE@?$AAW?$AAe?$AAd@ 0000000180039b60     libucrt:nlsdata.obj
 0002:00006b68       ??_C@_17PDPHAADD@?$AAT?$AAh?$AAu@ 0000000180039b68     libucrt:nlsdata.obj
 0002:00006b70       ??_C@_17HFOLPPLP@?$AAF?$AAr?$AAi@ 0000000180039b70     libucrt:nlsdata.obj
 0002:00006b78       ??_C@_17GGIBDPIH@?$AAS?$AAa?$AAt@ 0000000180039b78     libucrt:nlsdata.obj
 0002:00006b80       ??_C@_1O@IHNHDHPB@?$AAS?$AAu?$AAn?$AAd?$AAa?$AAy@ 0000000180039b80     libucrt:nlsdata.obj
 0002:00006b90       ??_C@_1O@MMNBFLIA@?$AAM?$AAo?$AAn?$AAd?$AAa?$AAy@ 0000000180039b90     libucrt:nlsdata.obj
 0002:00006ba0       ??_C@_1BA@ENFBFFEK@?$AAT?$AAu?$AAe?$AAs?$AAd?$AAa?$AAy@ 0000000180039ba0     libucrt:nlsdata.obj
 0002:00006bb0       ??_C@_1BE@EBOGMDOH@?$AAW?$AAe?$AAd?$AAn?$AAe?$AAs?$AAd?$AAa?$AAy@ 0000000180039bb0     libucrt:nlsdata.obj
 0002:00006bc8       ??_C@_1BC@HHMNLIHE@?$AAT?$AAh?$AAu?$AAr?$AAs?$AAd?$AAa?$AAy@ 0000000180039bc8     libucrt:nlsdata.obj
 0002:00006be0       ??_C@_1O@PDICJHAG@?$AAF?$AAr?$AAi?$AAd?$AAa?$AAy@ 0000000180039be0     libucrt:nlsdata.obj
 0002:00006bf0       ??_C@_1BC@ENMNNPAJ@?$AAS?$AAa?$AAt?$AAu?$AAr?$AAd?$AAa?$AAy@ 0000000180039bf0     libucrt:nlsdata.obj
 0002:00006c08       ??_C@_17DKNBKCHM@?$AAJ?$AAa?$AAn@ 0000000180039c08     libucrt:nlsdata.obj
 0002:00006c10       ??_C@_17LMDJEKJN@?$AAF?$AAe?$AAb@ 0000000180039c10     libucrt:nlsdata.obj
 0002:00006c18       ??_C@_17CKNLEDEC@?$AAM?$AAa?$AAr@ 0000000180039c18     libucrt:nlsdata.obj
 0002:00006c20       ??_C@_17LFPOIHDD@?$AAA?$AAp?$AAr@ 0000000180039c20     libucrt:nlsdata.obj
 0002:00006c28       ??_C@_17PNNKMEED@?$AAM?$AAa?$AAy@ 0000000180039c28     libucrt:nlsdata.obj
 0002:00006c30       ??_C@_17KCJGOCPB@?$AAJ?$AAu?$AAn@ 0000000180039c30     libucrt:nlsdata.obj
 0002:00006c38       ??_C@_17IJPCKHK@?$AAJ?$AAu?$AAl@ 0000000180039c38     libucrt:nlsdata.obj
 0002:00006c40       ??_C@_17ICPELBCN@?$AAA?$AAu?$AAg@ 0000000180039c40     libucrt:nlsdata.obj
 0002:00006c48       ??_C@_17HCHCOKMG@?$AAS?$AAe?$AAp@ 0000000180039c48     libucrt:nlsdata.obj
 0002:00006c50       ??_C@_17FNLKOI@?$AAO?$AAc?$AAt@ 0000000180039c50     libucrt:nlsdata.obj
 0002:00006c58       ??_C@_17BBDMLCIG@?$AAN?$AAo?$AAv@ 0000000180039c58     libucrt:nlsdata.obj
 0002:00006c60       ??_C@_17EGKACKIF@?$AAD?$AAe?$AAc@ 0000000180039c60     libucrt:nlsdata.obj
 0002:00006c68       ??_C@_1BA@EFMEIEBA@?$AAJ?$AAa?$AAn?$AAu?$AAa?$AAr?$AAy@ 0000000180039c68     libucrt:nlsdata.obj
 0002:00006c78       ??_C@_1BC@JGDDFFAM@?$AAF?$AAe?$AAb?$AAr?$AAu?$AAa?$AAr?$AAy@ 0000000180039c78     libucrt:nlsdata.obj
 0002:00006c90       ??_C@_1M@IKEENEDF@?$AAM?$AAa?$AAr?$AAc?$AAh@ 0000000180039c90     libucrt:nlsdata.obj
 0002:00006ca0       ??_C@_1M@GJNLMHFD@?$AAA?$AAp?$AAr?$AAi?$AAl@ 0000000180039ca0     libucrt:nlsdata.obj
 0002:00006cb0       ??_C@_19EPFLPGAP@?$AAJ?$AAu?$AAn?$AAe@ 0000000180039cb0     libucrt:nlsdata.obj
 0002:00006cc0       ??_C@_19BIFMLPCD@?$AAJ?$AAu?$AAl?$AAy@ 0000000180039cc0     libucrt:nlsdata.obj
 0002:00006cd0       ??_C@_1O@PAHLKOAC@?$AAA?$AAu?$AAg?$AAu?$AAs?$AAt@ 0000000180039cd0     libucrt:nlsdata.obj
 0002:00006ce0       ??_C@_1BE@DKAAMBJL@?$AAS?$AAe?$AAp?$AAt?$AAe?$AAm?$AAb?$AAe?$AAr@ 0000000180039ce0     libucrt:nlsdata.obj
 0002:00006cf8       ??_C@_1BA@EPANDLNG@?$AAO?$AAc?$AAt?$AAo?$AAb?$AAe?$AAr@ 0000000180039cf8     libucrt:nlsdata.obj
 0002:00006d08       ??_C@_1BC@BGLIFPF@?$AAN?$AAo?$AAv?$AAe?$AAm?$AAb?$AAe?$AAr@ 0000000180039d08     libucrt:nlsdata.obj
 0002:00006d20       ??_C@_1BC@FEMKIFH@?$AAD?$AAe?$AAc?$AAe?$AAm?$AAb?$AAe?$AAr@ 0000000180039d20     libucrt:nlsdata.obj
 0002:00006d34       ??_C@_15ODEHAHHF@?$AAA?$AAM@ 0000000180039d34     libucrt:nlsdata.obj
 0002:00006d3c       ??_C@_15CLMNNGEL@?$AAP?$AAM@ 0000000180039d3c     libucrt:nlsdata.obj
 0002:00006d48       ??_C@_1BC@IEBCMHCM@?$AAM?$AAM?$AA?1?$AAd?$AAd?$AA?1?$AAy?$AAy@ 0000000180039d48     libucrt:nlsdata.obj
 0002:00006d60       ??_C@_1CI@KNAKOEBC@?$AAd?$AAd?$AAd?$AAd?$AA?0?$AA?5?$AAM?$AAM?$AAM?$AAM?$AA?5?$AAd?$AAd?$AA?0?$AA?5@ 0000000180039d60     libucrt:nlsdata.obj
 0002:00006d88       ??_C@_1BC@GDGBMEMK@?$AAH?$AAH?$AA?3?$AAm?$AAm?$AA?3?$AAs?$AAs@ 0000000180039d88     libucrt:nlsdata.obj
 0002:00006da0       ??_C@_1M@BMHNFIME@?$AAe?$AAn?$AA?9?$AAU?$AAS@ 0000000180039da0     libucrt:nlsdata.obj
 0002:00006db0       __newctype                 0000000180039db0     libucrt:ctype.obj
 0002:000070b0       __newclmap                 000000018003a0b0     libucrt:ctype.obj
 0002:00007230       __newcumap                 000000018003a230     libucrt:ctype.obj
 0002:000073b0       _wctype                    000000018003a3b0     libucrt:ctype.obj
 0002:000075d8       ??_C@_1M@HPNHIDJI@?$AAj?$AAa?$AA?9?$AAJ?$AAP@ 000000018003a5d8     libucrt:mbctype.obj
 0002:000075e8       ??_C@_1M@BIBDDEMK@?$AAz?$AAh?$AA?9?$AAC?$AAN@ 000000018003a5e8     libucrt:mbctype.obj
 0002:000075f8       ??_C@_1M@JLOOOEGK@?$AAk?$AAo?$AA?9?$AAK?$AAR@ 000000018003a5f8     libucrt:mbctype.obj
 0002:00007608       ??_C@_1M@CLNBBOPM@?$AAz?$AAh?$AA?9?$AAT?$AAW@ 000000018003a608     libucrt:mbctype.obj
 0002:000076c0       ??_C@_1EA@JGEFHKEI@?$AAa?$AAp?$AAi?$AA?9?$AAm?$AAs?$AA?9?$AAw?$AAi?$AAn?$AA?9?$AAc?$AAo?$AAr?$AAe@ 000000018003a6c0     libucrt:winapi_thunks.obj
 0002:00007700       ??_C@_1DI@IJCEHOCB@?$AAa?$AAp?$AAi?$AA?9?$AAm?$AAs?$AA?9?$AAw?$AAi?$AAn?$AA?9?$AAc?$AAo?$AAr?$AAe@ 000000018003a700     libucrt:winapi_thunks.obj
 0002:00007740       ??_C@_1EI@MPIAOHOC@?$AAa?$AAp?$AAi?$AA?9?$AAm?$AAs?$AA?9?$AAw?$AAi?$AAn?$AA?9?$AAc?$AAo?$AAr?$AAe@ 000000018003a740     libucrt:winapi_thunks.obj
 0002:00007790       ??_C@_1FK@FPHCKFIE@?$AAa?$AAp?$AAi?$AA?9?$AAm?$AAs?$AA?9?$AAw?$AAi?$AAn?$AA?9?$AAc?$AAo?$AAr?$AAe@ 000000018003a790     libucrt:winapi_thunks.obj
 0002:000077f0       ??_C@_1EM@DILCGIIO@?$AAa?$AAp?$AAi?$AA?9?$AAm?$AAs?$AA?9?$AAw?$AAi?$AAn?$AA?9?$AAc?$AAo?$AAr?$AAe@ 000000018003a7f0     libucrt:winapi_thunks.obj
 0002:00007840       ??_C@_1DM@LNCGDDPN@?$AAa?$AAp?$AAi?$AA?9?$AAm?$AAs?$AA?9?$AAw?$AAi?$AAn?$AA?9?$AAc?$AAo?$AAr?$AAe@ 000000018003a840     libucrt:winapi_thunks.obj
 0002:00007880       ??_C@_1DO@FPAPJEMD@?$AAa?$AAp?$AAi?$AA?9?$AAm?$AAs?$AA?9?$AAw?$AAi?$AAn?$AA?9?$AAc?$AAo?$AAr?$AAe@ 000000018003a880     libucrt:winapi_thunks.obj
 0002:000078c0       ??_C@_1DK@NDHNAHIO@?$AAa?$AAp?$AAi?$AA?9?$AAm?$AAs?$AA?9?$AAw?$AAi?$AAn?$AA?9?$AAc?$AAo?$AAr?$AAe@ 000000018003a8c0     libucrt:winapi_thunks.obj
 0002:00007900       ??_C@_1DM@KGHDGBCM@?$AAa?$AAp?$AAi?$AA?9?$AAm?$AAs?$AA?9?$AAw?$AAi?$AAn?$AA?9?$AAc?$AAo?$AAr?$AAe@ 000000018003a900     libucrt:winapi_thunks.obj
 0002:00007940       ??_C@_1EO@IJIOEFOH@?$AAa?$AAp?$AAi?$AA?9?$AAm?$AAs?$AA?9?$AAw?$AAi?$AAn?$AA?9?$AAr?$AAt?$AAc?$AAo@ 000000018003a940     libucrt:winapi_thunks.obj
 0002:00007990       ??_C@_1FG@HHGEKANL@?$AAa?$AAp?$AAi?$AA?9?$AAm?$AAs?$AA?9?$AAw?$AAi?$AAn?$AA?9?$AAs?$AAe?$AAc?$AAu@ 000000018003a990     libucrt:winapi_thunks.obj
 0002:000079f0       ??_C@_1EG@DBIOJECG@?$AAe?$AAx?$AAt?$AA?9?$AAm?$AAs?$AA?9?$AAw?$AAi?$AAn?$AA?9?$AAn?$AAt?$AAu?$AAs@ 000000018003a9f0     libucrt:winapi_thunks.obj
 0002:00007a40       ??_C@_1EO@FIHMJCLF@?$AAe?$AAx?$AAt?$AA?9?$AAm?$AAs?$AA?9?$AAw?$AAi?$AAn?$AA?9?$AAn?$AAt?$AAu?$AAs@ 000000018003aa40     libucrt:winapi_thunks.obj
 0002:00007a90       ??_C@_1BC@DNHGCMLG@?$AAa?$AAd?$AAv?$AAa?$AAp?$AAi?$AA3?$AA2@ 000000018003aa90     libucrt:winapi_thunks.obj
 0002:00007aa8       ??_C@_1M@OAIMIKLP@?$AAn?$AAt?$AAd?$AAl?$AAl@ 000000018003aaa8     libucrt:winapi_thunks.obj
 0002:00007ac0       ??_C@_1EG@DPGNFKGC@?$AAa?$AAp?$AAi?$AA?9?$AAm?$AAs?$AA?9?$AAw?$AAi?$AAn?$AA?9?$AAa?$AAp?$AAp?$AAm@ 000000018003aac0     libucrt:winapi_thunks.obj
 0002:00007b08       ??_C@_1O@BCCLBEOE@?$AAu?$AAs?$AAe?$AAr?$AA3?$AA2@ 000000018003ab08     libucrt:winapi_thunks.obj
 0002:00007b18       ??_C@_1BA@IAIFMGEF@?$AAe?$AAx?$AAt?$AA?9?$AAm?$AAs?$AA?9@ 000000018003ab18     libucrt:winapi_thunks.obj
 0002:00007b30       ??_C@_0BA@FHFNEAED@AreFileApisANSI@ 000000018003ab30     libucrt:winapi_thunks.obj
 0002:00007b70       ??_C@_0O@KKBNKAPF@LCMapStringEx@ 000000018003ab70     libucrt:winapi_thunks.obj
 0002:00007b88       ??_C@_0BB@HBDEELFH@LocaleNameToLCID@ 000000018003ab88     libucrt:winapi_thunks.obj
 0002:00007ba0       ??_C@_0CF@OJOFEIGO@AppPolicyGetProcessTerminationM@ 000000018003aba0     libucrt:winapi_thunks.obj
 0002:00007bd0       ?large_power_data@?1??multiply_by_power_of_ten@__crt_strtox@@YA_NAEAUbig_integer@2@I@Z@4QBIB 000000018003abd0     libucrt:cfout.obj
 0002:000084e0       ?large_power_indices@?1??multiply_by_power_of_ten@__crt_strtox@@YA_NAEAUbig_integer@2@I@Z@4QBUunpack_index@?1??12@YA_N0I@Z@B 000000018003b4e0     libucrt:cfout.obj
 0002:00008578       ?small_powers_of_ten@?1??multiply_by_power_of_ten@__crt_strtox@@YA_NAEAUbig_integer@2@I@Z@4QBIB 000000018003b578     libucrt:cfout.obj
 0002:0000859c       ??_C@_01GBGANLPD@0@        000000018003b59c     libucrt:cfout.obj
 0002:000085a0       ??_C@_05DNEBIAHO@1?$CDINF@ 000000018003b5a0     libucrt:cfout.obj
 0002:000085a8       ??_C@_06IMKFLFPG@1?$CDQNAN@ 000000018003b5a8     libucrt:cfout.obj
 0002:000085b0       ??_C@_06PGGFOGJG@1?$CDSNAN@ 000000018003b5b0     libucrt:cfout.obj
 0002:000085b8       ??_C@_05PHHOCPM@1?$CDIND@  000000018003b5b8     libucrt:cfout.obj
 0002:000085c0       ??_C@_15PJPFLCCM@?$AAu?$AAk@ 000000018003b5c0     libucrt:get_qualified_locale.obj
 0002:00009410       ??_C@_15EMKDOKLE@?$AAa?$AAr@ 000000018003c410     libucrt:lcidtoname_downlevel.obj
 0002:00009418       ??_C@_15KNPADPLH@?$AAb?$AAg@ 000000018003c418     libucrt:lcidtoname_downlevel.obj
 0002:00009420       ??_C@_15EDMHLDMO@?$AAc?$AAa@ 000000018003c420     libucrt:lcidtoname_downlevel.obj
 0002:00009428       ??_C@_1O@BPEAJADD@?$AAz?$AAh?$AA?9?$AAC?$AAH?$AAS@ 000000018003c428     libucrt:lcidtoname_downlevel.obj
 0002:00009438       ??_C@_15LJNHCMNK@?$AAc?$AAs@ 000000018003c438     libucrt:lcidtoname_downlevel.obj
 0002:00009440       ??_C@_15FOMCIDHG@?$AAd?$AAa@ 000000018003c440     libucrt:lcidtoname_downlevel.obj
 0002:00009448       ??_C@_15NBKABECB@?$AAd?$AAe@ 000000018003c448     libucrt:lcidtoname_downlevel.obj
 0002:00009450       ??_C@_15GHPEIIAO@?$AAe?$AAl@ 000000018003c450     libucrt:lcidtoname_downlevel.obj
 0002:00009458       ??_C@_15MNPNEAIF@?$AAe?$AAn@ 000000018003c458     libucrt:lcidtoname_downlevel.obj
 0002:00009460       ??_C@_15GPIOMPMH@?$AAe?$AAs@ 000000018003c460     libucrt:lcidtoname_downlevel.obj
 0002:00009468       ??_C@_15NGLOAKJC@?$AAf?$AAi@ 000000018003c468     libucrt:lcidtoname_downlevel.obj
 0002:00009470       ??_C@_15FBKGNKAM@?$AAf?$AAr@ 000000018003c470     libucrt:lcidtoname_downlevel.obj
 0002:00009478       ??_C@_15KGGCNEFK@?$AAh?$AAe@ 000000018003c478     libucrt:lcidtoname_downlevel.obj
 0002:00009480       ??_C@_15PGHLIDMF@?$AAh?$AAu@ 000000018003c480     libucrt:lcidtoname_downlevel.obj
 0002:00009488       ??_C@_15BIEMAPLM@?$AAi?$AAs@ 000000018003c488     libucrt:lcidtoname_downlevel.obj
 0002:00009490       ??_C@_15IFJLDHAF@?$AAi?$AAt@ 000000018003c490     libucrt:lcidtoname_downlevel.obj
 0002:00009498       ??_C@_15GEMIOCAG@?$AAj?$AAa@ 000000018003c498     libucrt:lcidtoname_downlevel.obj
 0002:000094a0       ??_C@_15EPELEGJA@?$AAk?$AAo@ 000000018003c4a0     libucrt:lcidtoname_downlevel.obj
 0002:000094a8       ??_C@_15NDDHIMN@?$AAn?$AAl@ 000000018003c4a8     libucrt:lcidtoname_downlevel.obj
 0002:000094b0       ??_C@_15BPIGNHCD@?$AAn?$AAo@ 000000018003c4b0     libucrt:lcidtoname_downlevel.obj
 0002:000094b8       ??_C@_15DEOPBLCG@?$AAp?$AAl@ 000000018003c4b8     libucrt:lcidtoname_downlevel.obj
 0002:000094c0       ??_C@_15KBECGEFG@?$AAp?$AAt@ 000000018003c4c0     libucrt:lcidtoname_downlevel.obj
 0002:000094c8       ??_C@_15GLJCBFMD@?$AAr?$AAo@ 000000018003c4c8     libucrt:lcidtoname_downlevel.obj
 0002:000094d0       ??_C@_15FEDGKCDI@?$AAr?$AAu@ 000000018003c4d0     libucrt:lcidtoname_downlevel.obj
 0002:000094d8       ??_C@_15GLKMLLHM@?$AAh?$AAr@ 000000018003c4d8     libucrt:lcidtoname_downlevel.obj
 0002:000094e0       ??_C@_15CPKMFBDB@?$AAs?$AAk@ 000000018003c4e0     libucrt:lcidtoname_downlevel.obj
 0002:000094e8       ??_C@_15BAAIOGMK@?$AAs?$AAq@ 000000018003c4e8     libucrt:lcidtoname_downlevel.obj
 0002:000094f0       ??_C@_15INNPNOHD@?$AAs?$AAv@ 000000018003c4f0     libucrt:lcidtoname_downlevel.obj
 0002:000094f8       ??_C@_15CABMMOGH@?$AAt?$AAh@ 000000018003c4f8     libucrt:lcidtoname_downlevel.obj
 0002:00009500       ??_C@_15BPLIHJJM@?$AAt?$AAr@ 000000018003c500     libucrt:lcidtoname_downlevel.obj
 0002:00009508       ??_C@_15NEOEKKDJ@?$AAu?$AAr@ 000000018003c508     libucrt:lcidtoname_downlevel.obj
 0002:00009510       ??_C@_15NFICGAJK@?$AAi?$AAd@ 000000018003c510     libucrt:lcidtoname_downlevel.obj
 0002:00009518       ??_C@_15HPJPHDM@?$AAb?$AAe@ 000000018003c518     libucrt:lcidtoname_downlevel.obj
 0002:00009520       ??_C@_15LCHLGJII@?$AAs?$AAl@ 000000018003c520     libucrt:lcidtoname_downlevel.obj
 0002:00009528       ??_C@_15PCFJPHHO@?$AAe?$AAt@ 000000018003c528     libucrt:lcidtoname_downlevel.obj
 0002:00009530       ??_C@_15HPFPGODN@?$AAl?$AAv@ 000000018003c530     libucrt:lcidtoname_downlevel.obj
 0002:00009538       ??_C@_15NFFGKGLG@?$AAl?$AAt@ 000000018003c538     libucrt:lcidtoname_downlevel.obj
 0002:00009540       ??_C@_15BDAKCCHN@?$AAf?$AAa@ 000000018003c540     libucrt:lcidtoname_downlevel.obj
 0002:00009548       ??_C@_15NFGIAIAJ@?$AAv?$AAi@ 000000018003c548     libucrt:lcidtoname_downlevel.obj
 0002:00009550       ??_C@_15LMKNDMHN@?$AAh?$AAy@ 000000018003c550     libucrt:lcidtoname_downlevel.obj
 0002:00009558       ??_C@_15IJBHMCFL@?$AAa?$AAz@ 000000018003c558     libucrt:lcidtoname_downlevel.obj
 0002:00009560       ??_C@_15EKOFJABL@?$AAe?$AAu@ 000000018003c560     libucrt:lcidtoname_downlevel.obj
 0002:00009568       ??_C@_15BGHADCNK@?$AAm?$AAk@ 000000018003c568     libucrt:lcidtoname_downlevel.obj
 0002:00009570       ??_C@_15JDNICKHM@?$AAa?$AAf@ 000000018003c570     libucrt:lcidtoname_downlevel.obj
 0002:00009578       ??_C@_15KPJEDBKD@?$AAk?$AAa@ 000000018003c578     libucrt:lcidtoname_downlevel.obj
 0002:00009580       ??_C@_15PDNFFFEO@?$AAf?$AAo@ 000000018003c580     libucrt:lcidtoname_downlevel.obj
 0002:00009588       ??_C@_15OMLEGLOC@?$AAh?$AAi@ 000000018003c588     libucrt:lcidtoname_downlevel.obj
 0002:00009590       ??_C@_15IDNNENKK@?$AAm?$AAs@ 000000018003c590     libucrt:lcidtoname_downlevel.obj
 0002:00009598       ??_C@_15MACJNBMH@?$AAk?$AAk@ 000000018003c598     libucrt:lcidtoname_downlevel.obj
 0002:000095a0       ??_C@_15DKDJEOND@?$AAk?$AAy@ 000000018003c5a0     libucrt:lcidtoname_downlevel.obj
 0002:000095a8       ??_C@_15DFGDLJBG@?$AAs?$AAw@ 000000018003c5a8     libucrt:lcidtoname_downlevel.obj
 0002:000095b0       ??_C@_15BBFAICNG@?$AAu?$AAz@ 000000018003c5b0     libucrt:lcidtoname_downlevel.obj
 0002:000095b8       ??_C@_15DKNDCGEA@?$AAt?$AAt@ 000000018003c5b8     libucrt:lcidtoname_downlevel.obj
 0002:000095c0       ??_C@_15MGIFMDPL@?$AAp?$AAa@ 000000018003c5c0     libucrt:lcidtoname_downlevel.obj
 0002:000095c8       ??_C@_15HCNDBBA@?$AAg?$AAu@ 000000018003c5c8     libucrt:lcidtoname_downlevel.obj
 0002:000095d0       ??_C@_15FNBEIBON@?$AAt?$AAa@ 000000018003c5d0     libucrt:lcidtoname_downlevel.obj
 0002:000095d8       ??_C@_15NCHGBGLK@?$AAt?$AAe@ 000000018003c5d8     libucrt:lcidtoname_downlevel.obj
 0002:000095e0       ??_C@_15PHPHCBPF@?$AAk?$AAn@ 000000018003c5e0     libucrt:lcidtoname_downlevel.obj
 0002:000095e8       ??_C@_15DLGBCKMP@?$AAm?$AAr@ 000000018003c5e8     libucrt:lcidtoname_downlevel.obj
 0002:000095f0       ??_C@_15EABBLBFF@?$AAs?$AAa@ 000000018003c5f0     libucrt:lcidtoname_downlevel.obj
 0002:000095f8       ??_C@_15CBKOMCOI@?$AAm?$AAn@ 000000018003c5f8     libucrt:lcidtoname_downlevel.obj
 0002:00009600       ??_C@_15CKDMCJAF@?$AAg?$AAl@ 000000018003c600     libucrt:lcidtoname_downlevel.obj
 0002:00009608       ??_C@_17CNJFBPG@?$AAk?$AAo?$AAk@ 000000018003c608     libucrt:lcidtoname_downlevel.obj
 0002:00009610       ??_C@_17FFBJICPL@?$AAs?$AAy?$AAr@ 000000018003c610     libucrt:lcidtoname_downlevel.obj
 0002:00009618       ??_C@_17KPNDCPAF@?$AAd?$AAi?$AAv@ 000000018003c618     libucrt:lcidtoname_downlevel.obj
 0002:00009620       ??_C@_1M@OKAHONE@?$AAa?$AAr?$AA?9?$AAS?$AAA@ 000000018003c620     libucrt:lcidtoname_downlevel.obj
 0002:00009630       ??_C@_1M@FFFIGIGK@?$AAb?$AAg?$AA?9?$AAB?$AAG@ 000000018003c630     libucrt:lcidtoname_downlevel.obj
 0002:00009640       ??_C@_1M@BJNKEDC@?$AAc?$AAa?$AA?9?$AAE?$AAS@ 000000018003c640     libucrt:lcidtoname_downlevel.obj
 0002:00009650       ??_C@_1M@IJJHFJHA@?$AAc?$AAs?$AA?9?$AAC?$AAZ@ 000000018003c650     libucrt:lcidtoname_downlevel.obj
 0002:00009660       ??_C@_1M@CLPEOBGI@?$AAd?$AAa?$AA?9?$AAD?$AAK@ 000000018003c660     libucrt:lcidtoname_downlevel.obj
 0002:00009670       ??_C@_1M@MCMADGCB@?$AAd?$AAe?$AA?9?$AAD?$AAE@ 000000018003c670     libucrt:lcidtoname_downlevel.obj
 0002:00009680       ??_C@_1M@OOCKEMAM@?$AAe?$AAl?$AA?9?$AAG?$AAR@ 000000018003c680     libucrt:lcidtoname_downlevel.obj
 0002:00009690       ??_C@_1M@DDNJFGID@?$AAf?$AAi?$AA?9?$AAF?$AAI@ 000000018003c690     libucrt:lcidtoname_downlevel.obj
 0002:000096a0       ??_C@_1M@GLIPPMAC@?$AAf?$AAr?$AA?9?$AAF?$AAR@ 000000018003c6a0     libucrt:lcidtoname_downlevel.obj
 0002:000096b0       ??_C@_1M@GFMCHPE@?$AAh?$AAe?$AA?9?$AAI?$AAL@ 000000018003c6b0     libucrt:lcidtoname_downlevel.obj
 0002:000096c0       ??_C@_1M@MHLPGNKM@?$AAh?$AAu?$AA?9?$AAH?$AAU@ 000000018003c6c0     libucrt:lcidtoname_downlevel.obj
 0002:000096d0       ??_C@_1M@LPDDNNPN@?$AAi?$AAs?$AA?9?$AAI?$AAS@ 000000018003c6d0     libucrt:lcidtoname_downlevel.obj
 0002:000096e0       ??_C@_1M@MADIPODN@?$AAi?$AAt?$AA?9?$AAI?$AAT@ 000000018003c6e0     libucrt:lcidtoname_downlevel.obj
 0002:000096f0       ??_C@_1M@IHBJJGG@?$AAn?$AAl?$AA?9?$AAN?$AAL@ 000000018003c6f0     libucrt:lcidtoname_downlevel.obj
 0002:00009700       ??_C@_1M@EANAGDL@?$AAn?$AAb?$AA?9?$AAN?$AAO@ 000000018003c700     libucrt:lcidtoname_downlevel.obj
 0002:00009710       ??_C@_1M@NEIEMEGP@?$AAp?$AAl?$AA?9?$AAP?$AAL@ 000000018003c710     libucrt:lcidtoname_downlevel.obj
 0002:00009720       ??_C@_1M@BOCFIGEP@?$AAp?$AAt?$AA?9?$AAB?$AAR@ 000000018003c720     libucrt:lcidtoname_downlevel.obj
 0002:00009730       ??_C@_1M@IMPFOPBG@?$AAr?$AAo?$AA?9?$AAR?$AAO@ 000000018003c730     libucrt:lcidtoname_downlevel.obj
 0002:00009740       ??_C@_1M@IDNNEJMM@?$AAr?$AAu?$AA?9?$AAR?$AAU@ 000000018003c740     libucrt:lcidtoname_downlevel.obj
 0002:00009750       ??_C@_1M@LILEEOGM@?$AAh?$AAr?$AA?9?$AAH?$AAR@ 000000018003c750     libucrt:lcidtoname_downlevel.obj
 0002:00009760       ??_C@_1M@FKIFEHPB@?$AAs?$AAk?$AA?9?$AAS?$AAK@ 000000018003c760     libucrt:lcidtoname_downlevel.obj
 0002:00009770       ??_C@_1M@LJMAMNPJ@?$AAs?$AAq?$AA?9?$AAA?$AAL@ 000000018003c770     libucrt:lcidtoname_downlevel.obj
 0002:00009780       ??_C@_1M@GIAKDKJK@?$AAs?$AAv?$AA?9?$AAS?$AAE@ 000000018003c780     libucrt:lcidtoname_downlevel.obj
 0002:00009790       ??_C@_1M@MKJKIKCL@?$AAt?$AAh?$AA?9?$AAT?$AAH@ 000000018003c790     libucrt:lcidtoname_downlevel.obj
 0002:000097a0       ??_C@_1M@MFLCCMPB@?$AAt?$AAr?$AA?9?$AAT?$AAR@ 000000018003c7a0     libucrt:lcidtoname_downlevel.obj
 0002:000097b0       ??_C@_1M@OIJHDKJN@?$AAu?$AAr?$AA?9?$AAP?$AAK@ 000000018003c7b0     libucrt:lcidtoname_downlevel.obj
 0002:000097c0       ??_C@_1M@LHIPCIEK@?$AAi?$AAd?$AA?9?$AAI?$AAD@ 000000018003c7c0     libucrt:lcidtoname_downlevel.obj
 0002:000097d0       ??_C@_1M@MFMOBGI@?$AAu?$AAk?$AA?9?$AAU?$AAA@ 000000018003c7d0     libucrt:lcidtoname_downlevel.obj
 0002:000097e0       ??_C@_1M@OBGLJIPL@?$AAb?$AAe?$AA?9?$AAB?$AAY@ 000000018003c7e0     libucrt:lcidtoname_downlevel.obj
 0002:000097f0       ??_C@_1M@BCFAJEAD@?$AAs?$AAl?$AA?9?$AAS?$AAI@ 000000018003c7f0     libucrt:lcidtoname_downlevel.obj
 0002:00009800       ??_C@_1M@FKFFEDDN@?$AAe?$AAt?$AA?9?$AAE?$AAE@ 000000018003c800     libucrt:lcidtoname_downlevel.obj
 0002:00009810       ??_C@_1M@KGKKAACI@?$AAl?$AAv?$AA?9?$AAL?$AAV@ 000000018003c810     libucrt:lcidtoname_downlevel.obj
 0002:00009820       ??_C@_1M@IFGBIJO@?$AAl?$AAt?$AA?9?$AAL?$AAT@ 000000018003c820     libucrt:lcidtoname_downlevel.obj
 0002:00009830       ??_C@_1M@FGEAHEDM@?$AAf?$AAa?$AA?9?$AAI?$AAR@ 000000018003c830     libucrt:lcidtoname_downlevel.obj
 0002:00009840       ??_C@_1M@KBMAIBFN@?$AAv?$AAi?$AA?9?$AAV?$AAN@ 000000018003c840     libucrt:lcidtoname_downlevel.obj
 0002:00009850       ??_C@_1M@GPCBKDJK@?$AAh?$AAy?$AA?9?$AAA?$AAM@ 000000018003c850     libucrt:lcidtoname_downlevel.obj
 0002:00009860       ??_C@_1BG@BECMDDJB@?$AAa?$AAz?$AA?9?$AAA?$AAZ?$AA?9?$AAL?$AAa?$AAt?$AAn@ 000000018003c860     libucrt:lcidtoname_downlevel.obj
 0002:00009878       ??_C@_1M@MAOFCAEA@?$AAe?$AAu?$AA?9?$AAE?$AAS@ 000000018003c878     libucrt:lcidtoname_downlevel.obj
 0002:00009888       ??_C@_1M@IGHABKPI@?$AAm?$AAk?$AA?9?$AAM?$AAK@ 000000018003c888     libucrt:lcidtoname_downlevel.obj
 0002:00009898       ??_C@_1M@IAIGNEJG@?$AAt?$AAn?$AA?9?$AAZ?$AAA@ 000000018003c898     libucrt:lcidtoname_downlevel.obj
 0002:000098a8       ??_C@_1M@IIJCOJFA@?$AAx?$AAh?$AA?9?$AAZ?$AAA@ 000000018003c8a8     libucrt:lcidtoname_downlevel.obj
 0002:000098b8       ??_C@_1M@LGPJHNJH@?$AAz?$AAu?$AA?9?$AAZ?$AAA@ 000000018003c8b8     libucrt:lcidtoname_downlevel.obj
 0002:000098c8       ??_C@_1M@HOKAOIO@?$AAa?$AAf?$AA?9?$AAZ?$AAA@ 000000018003c8c8     libucrt:lcidtoname_downlevel.obj
 0002:000098d8       ??_C@_1M@DPCLHLIE@?$AAk?$AAa?$AA?9?$AAG?$AAE@ 000000018003c8d8     libucrt:lcidtoname_downlevel.obj
 0002:000098e8       ??_C@_1M@BLKMHJBI@?$AAf?$AAo?$AA?9?$AAF?$AAO@ 000000018003c8e8     libucrt:lcidtoname_downlevel.obj
 0002:000098f8       ??_C@_1M@LGGJAPPB@?$AAh?$AAi?$AA?9?$AAI?$AAN@ 000000018003c8f8     libucrt:lcidtoname_downlevel.obj
 0002:00009908       ??_C@_1M@FIKPIHFE@?$AAm?$AAt?$AA?9?$AAM?$AAT@ 000000018003c908     libucrt:lcidtoname_downlevel.obj
 0002:00009918       ??_C@_1M@HEGGPBFA@?$AAs?$AAe?$AA?9?$AAN?$AAO@ 000000018003c918     libucrt:lcidtoname_downlevel.obj
 0002:00009928       ??_C@_1M@EIBJEEPA@?$AAm?$AAs?$AA?9?$AAM?$AAY@ 000000018003c928     libucrt:lcidtoname_downlevel.obj
 0002:00009938       ??_C@_1M@FHLBGMPP@?$AAk?$AAk?$AA?9?$AAK?$AAZ@ 000000018003c938     libucrt:lcidtoname_downlevel.obj
 0002:00009948       ??_C@_1M@NGJJLCGI@?$AAk?$AAy?$AA?9?$AAK?$AAG@ 000000018003c948     libucrt:lcidtoname_downlevel.obj
 0002:00009958       ??_C@_1M@GIENNBFC@?$AAs?$AAw?$AA?9?$AAK?$AAE@ 000000018003c958     libucrt:lcidtoname_downlevel.obj
 0002:00009968       ??_C@_1BG@NDGMJIMJ@?$AAu?$AAz?$AA?9?$AAU?$AAZ?$AA?9?$AAL?$AAa?$AAt?$AAn@ 000000018003c968     libucrt:lcidtoname_downlevel.obj
 0002:00009980       ??_C@_1M@IDCCIHBC@?$AAt?$AAt?$AA?9?$AAR?$AAU@ 000000018003c980     libucrt:lcidtoname_downlevel.obj
 0002:00009990       ??_C@_1M@LOICPMOJ@?$AAb?$AAn?$AA?9?$AAI?$AAN@ 000000018003c990     libucrt:lcidtoname_downlevel.obj
 0002:000099a0       ??_C@_1M@KPKKNEAH@?$AAp?$AAa?$AA?9?$AAI?$AAN@ 000000018003c9a0     libucrt:lcidtoname_downlevel.obj
 0002:000099b0       ??_C@_1M@PJGPPBOG@?$AAg?$AAu?$AA?9?$AAI?$AAN@ 000000018003c9b0     libucrt:lcidtoname_downlevel.obj
 0002:000099c0       ??_C@_1M@KMKMOPHI@?$AAt?$AAa?$AA?9?$AAI?$AAN@ 000000018003c9c0     libucrt:lcidtoname_downlevel.obj
 0002:000099d0       ??_C@_1M@KFEHEPAC@?$AAt?$AAe?$AA?9?$AAI?$AAN@ 000000018003c9d0     libucrt:lcidtoname_downlevel.obj
 0002:000099e0       ??_C@_1M@CDCLMGHI@?$AAk?$AAn?$AA?9?$AAI?$AAN@ 000000018003c9e0     libucrt:lcidtoname_downlevel.obj
 0002:000099f0       ??_C@_1M@MIODLDKF@?$AAm?$AAl?$AA?9?$AAI?$AAN@ 000000018003c9f0     libucrt:lcidtoname_downlevel.obj
 0002:00009a00       ??_C@_1M@PBIEACPO@?$AAm?$AAr?$AA?9?$AAI?$AAN@ 000000018003ca00     libucrt:lcidtoname_downlevel.obj
 0002:00009a10       ??_C@_1M@NIDEAGPH@?$AAs?$AAa?$AA?9?$AAI?$AAN@ 000000018003ca10     libucrt:lcidtoname_downlevel.obj
 0002:00009a20       ??_C@_1M@FHIHCBIO@?$AAm?$AAn?$AA?9?$AAM?$AAN@ 000000018003ca20     libucrt:lcidtoname_downlevel.obj
 0002:00009a30       ??_C@_1M@JAIJPENP@?$AAc?$AAy?$AA?9?$AAG?$AAB@ 000000018003ca30     libucrt:lcidtoname_downlevel.obj
 0002:00009a40       ??_C@_1M@PHGFBEPN@?$AAg?$AAl?$AA?9?$AAE?$AAS@ 000000018003ca40     libucrt:lcidtoname_downlevel.obj
 0002:00009a50       ??_C@_1O@KPIPDNCP@?$AAk?$AAo?$AAk?$AA?9?$AAI?$AAN@ 000000018003ca50     libucrt:lcidtoname_downlevel.obj
 0002:00009a60       ??_C@_1O@KNHJLDJA@?$AAs?$AAy?$AAr?$AA?9?$AAS?$AAY@ 000000018003ca60     libucrt:lcidtoname_downlevel.obj
 0002:00009a70       ??_C@_1O@MKEKBLAH@?$AAd?$AAi?$AAv?$AA?9?$AAM?$AAV@ 000000018003ca70     libucrt:lcidtoname_downlevel.obj
 0002:00009a80       ??_C@_1O@OHDCKDDF@?$AAq?$AAu?$AAz?$AA?9?$AAB?$AAO@ 000000018003ca80     libucrt:lcidtoname_downlevel.obj
 0002:00009a90       ??_C@_1M@LEPJNLFD@?$AAn?$AAs?$AA?9?$AAZ?$AAA@ 000000018003ca90     libucrt:lcidtoname_downlevel.obj
 0002:00009aa0       ??_C@_1M@OMLEIIJB@?$AAm?$AAi?$AA?9?$AAN?$AAZ@ 000000018003caa0     libucrt:lcidtoname_downlevel.obj
 0002:00009ab0       ??_C@_1M@PMPEAILG@?$AAa?$AAr?$AA?9?$AAI?$AAQ@ 000000018003cab0     libucrt:lcidtoname_downlevel.obj
 0002:00009ac0       ??_C@_1M@CNKPNOEE@?$AAd?$AAe?$AA?9?$AAC?$AAH@ 000000018003cac0     libucrt:lcidtoname_downlevel.obj
 0002:00009ad0       ??_C@_1M@LKMGMLKO@?$AAe?$AAn?$AA?9?$AAG?$AAB@ 000000018003cad0     libucrt:lcidtoname_downlevel.obj
 0002:00009ae0       ??_C@_1M@PGKJFFGL@?$AAe?$AAs?$AA?9?$AAM?$AAX@ 000000018003cae0     libucrt:lcidtoname_downlevel.obj
 0002:00009af0       ??_C@_1M@DNNANBDC@?$AAf?$AAr?$AA?9?$AAB?$AAE@ 000000018003caf0     libucrt:lcidtoname_downlevel.obj
 0002:00009b00       ??_C@_1M@HLGMDFHM@?$AAi?$AAt?$AA?9?$AAC?$AAH@ 000000018003cb00     libucrt:lcidtoname_downlevel.obj
 0002:00009b10       ??_C@_1M@CLLBGJH@?$AAn?$AAl?$AA?9?$AAB?$AAE@ 000000018003cb10     libucrt:lcidtoname_downlevel.obj
 0002:00009b20       ??_C@_1M@BODBOGLF@?$AAn?$AAn?$AA?9?$AAN?$AAO@ 000000018003cb20     libucrt:lcidtoname_downlevel.obj
 0002:00009b30       ??_C@_1M@HFFAHKAD@?$AAp?$AAt?$AA?9?$AAP?$AAT@ 000000018003cb30     libucrt:lcidtoname_downlevel.obj
 0002:00009b40       ??_C@_1BG@LNOAKHIE@?$AAs?$AAr?$AA?9?$AAS?$AAP?$AA?9?$AAL?$AAa?$AAt?$AAn@ 000000018003cb40     libucrt:lcidtoname_downlevel.obj
 0002:00009b58       ??_C@_1M@HBMHBGAK@?$AAs?$AAv?$AA?9?$AAF?$AAI@ 000000018003cb58     libucrt:lcidtoname_downlevel.obj
 0002:00009b68       ??_C@_1BG@DGCJGJBE@?$AAa?$AAz?$AA?9?$AAA?$AAZ?$AA?9?$AAC?$AAy?$AAr?$AAl@ 000000018003cb68     libucrt:lcidtoname_downlevel.obj
 0002:00009b80       ??_C@_1M@KEJDAAHB@?$AAs?$AAe?$AA?9?$AAS?$AAE@ 000000018003cb80     libucrt:lcidtoname_downlevel.obj
 0002:00009b90       ??_C@_1M@HEIBJJAD@?$AAm?$AAs?$AA?9?$AAB?$AAN@ 000000018003cb90     libucrt:lcidtoname_downlevel.obj
 0002:00009ba0       ??_C@_1BG@PBGJMCEM@?$AAu?$AAz?$AA?9?$AAU?$AAZ?$AA?9?$AAC?$AAy?$AAr?$AAl@ 000000018003cba0     libucrt:lcidtoname_downlevel.obj
 0002:00009bb8       ??_C@_1O@LAOBCMDF@?$AAq?$AAu?$AAz?$AA?9?$AAE?$AAC@ 000000018003cbb8     libucrt:lcidtoname_downlevel.obj
 0002:00009bc8       ??_C@_1M@POEEMAIO@?$AAa?$AAr?$AA?9?$AAE?$AAG@ 000000018003cbc8     libucrt:lcidtoname_downlevel.obj
 0002:00009bd8       ??_C@_1M@EFAKDEDL@?$AAz?$AAh?$AA?9?$AAH?$AAK@ 000000018003cbd8     libucrt:lcidtoname_downlevel.obj
 0002:00009be8       ??_C@_1M@HKKIJHGI@?$AAd?$AAe?$AA?9?$AAA?$AAT@ 000000018003cbe8     libucrt:lcidtoname_downlevel.obj
 0002:00009bf8       ??_C@_1M@KBFBEHJF@?$AAe?$AAn?$AA?9?$AAA?$AAU@ 000000018003cbf8     libucrt:lcidtoname_downlevel.obj
 0002:00009c08       ??_C@_1M@MNPLFAAH@?$AAe?$AAs?$AA?9?$AAE?$AAS@ 000000018003cc08     libucrt:lcidtoname_downlevel.obj
 0002:00009c18       ??_C@_1M@HJOOJFMA@?$AAf?$AAr?$AA?9?$AAC?$AAA@ 000000018003cc18     libucrt:lcidtoname_downlevel.obj
 0002:00009c28       ??_C@_1BG@JPOFPNAB@?$AAs?$AAr?$AA?9?$AAS?$AAP?$AA?9?$AAC?$AAy?$AAr?$AAl@ 000000018003cc28     libucrt:lcidtoname_downlevel.obj
 0002:00009c40       ??_C@_1M@LNFOCMOB@?$AAs?$AAe?$AA?9?$AAF?$AAI@ 000000018003cc40     libucrt:lcidtoname_downlevel.obj
 0002:00009c50       ??_C@_1O@MGJBOAMB@?$AAq?$AAu?$AAz?$AA?9?$AAP?$AAE@ 000000018003cc50     libucrt:lcidtoname_downlevel.obj
 0002:00009c60       ??_C@_1M@GJINLBOK@?$AAa?$AAr?$AA?9?$AAL?$AAY@ 000000018003cc60     libucrt:lcidtoname_downlevel.obj
 0002:00009c70       ??_C@_1M@GGMNHJNL@?$AAz?$AAh?$AA?9?$AAS?$AAG@ 000000018003cc70     libucrt:lcidtoname_downlevel.obj
 0002:00009c80       ??_C@_1M@HOIKODND@?$AAd?$AAe?$AA?9?$AAL?$AAU@ 000000018003cc80     libucrt:lcidtoname_downlevel.obj
 0002:00009c90       ??_C@_1M@DDOCCGFG@?$AAe?$AAn?$AA?9?$AAC?$AAA@ 000000018003cc90     libucrt:lcidtoname_downlevel.obj
 0002:00009ca0       ??_C@_1M@BNOEMJLF@?$AAe?$AAs?$AA?9?$AAG?$AAT@ 000000018003cca0     libucrt:lcidtoname_downlevel.obj
 0002:00009cb0       ??_C@_1M@EOGNKEK@?$AAf?$AAr?$AA?9?$AAC?$AAH@ 000000018003ccb0     libucrt:lcidtoname_downlevel.obj
 0002:00009cc0       ??_C@_1M@FLIDJFHL@?$AAh?$AAr?$AA?9?$AAB?$AAA@ 000000018003ccc0     libucrt:lcidtoname_downlevel.obj
 0002:00009cd0       ??_C@_1O@FMCELNAJ@?$AAs?$AAm?$AAj?$AA?9?$AAN?$AAO@ 000000018003ccd0     libucrt:lcidtoname_downlevel.obj
 0002:00009ce0       ??_C@_1M@JHGLJMGJ@?$AAa?$AAr?$AA?9?$AAD?$AAZ@ 000000018003cce0     libucrt:lcidtoname_downlevel.obj
 0002:00009cf0       ??_C@_1M@JKKFDCNP@?$AAz?$AAh?$AA?9?$AAM?$AAO@ 000000018003ccf0     libucrt:lcidtoname_downlevel.obj
 0002:00009d00       ??_C@_1M@GEEFALPE@?$AAd?$AAe?$AA?9?$AAL?$AAI@ 000000018003cd00     libucrt:lcidtoname_downlevel.obj
 0002:00009d10       ??_C@_1M@IGEOFBG@?$AAe?$AAn?$AA?9?$AAN?$AAZ@ 000000018003cd10     libucrt:lcidtoname_downlevel.obj
 0002:00009d20       ??_C@_1M@KDBONEHP@?$AAe?$AAs?$AA?9?$AAC?$AAR@ 000000018003cd20     libucrt:lcidtoname_downlevel.obj
 0002:00009d30       ??_C@_1M@FHMDOHNN@?$AAf?$AAr?$AA?9?$AAL?$AAU@ 000000018003cd30     libucrt:lcidtoname_downlevel.obj
 0002:00009d40       ??_C@_1BG@NFKKMAFG@?$AAb?$AAs?$AA?9?$AAB?$AAA?$AA?9?$AAL?$AAa?$AAt?$AAn@ 000000018003cd40     libucrt:lcidtoname_downlevel.obj
 0002:00009d58       ??_C@_1O@IMNBEMCI@?$AAs?$AAm?$AAj?$AA?9?$AAS?$AAE@ 000000018003cd58     libucrt:lcidtoname_downlevel.obj
 0002:00009d68       ??_C@_1M@DHHMBNDP@?$AAa?$AAr?$AA?9?$AAM?$AAA@ 000000018003cd68     libucrt:lcidtoname_downlevel.obj
 0002:00009d78       ??_C@_1M@BNBLJCGH@?$AAe?$AAn?$AA?9?$AAI?$AAE@ 000000018003cd78     libucrt:lcidtoname_downlevel.obj
 0002:00009d88       ??_C@_1M@GEPAFMDL@?$AAe?$AAs?$AA?9?$AAP?$AAA@ 000000018003cd88     libucrt:lcidtoname_downlevel.obj
 0002:00009d98       ??_C@_1M@OJONDMDL@?$AAf?$AAr?$AA?9?$AAM?$AAC@ 000000018003cd98     libucrt:lcidtoname_downlevel.obj
 0002:00009da8       ??_C@_1BG@OBCNFJB@?$AAs?$AAr?$AA?9?$AAB?$AAA?$AA?9?$AAL?$AAa?$AAt?$AAn@ 000000018003cda8     libucrt:lcidtoname_downlevel.obj
 0002:00009dc0       ??_C@_1O@KEMEEGPO@?$AAs?$AAm?$AAa?$AA?9?$AAN?$AAO@ 000000018003cdc0     libucrt:lcidtoname_downlevel.obj
 0002:00009dd0       ??_C@_1M@ELMGFODK@?$AAa?$AAr?$AA?9?$AAT?$AAN@ 000000018003cdd0     libucrt:lcidtoname_downlevel.obj
 0002:00009de0       ??_C@_1M@BHDLHFAF@?$AAe?$AAn?$AA?9?$AAZ?$AAA@ 000000018003cde0     libucrt:lcidtoname_downlevel.obj
 0002:00009df0       ??_C@_1M@BMGIGLIF@?$AAe?$AAs?$AA?9?$AAD?$AAO@ 000000018003cdf0     libucrt:lcidtoname_downlevel.obj
 0002:00009e00       ??_C@_1BG@CMBHIPBE@?$AAs?$AAr?$AA?9?$AAB?$AAA?$AA?9?$AAC?$AAy?$AAr?$AAl@ 000000018003ce00     libucrt:lcidtoname_downlevel.obj
 0002:00009e18       ??_C@_1O@HEDBLHNP@?$AAs?$AAm?$AAa?$AA?9?$AAS?$AAE@ 000000018003ce18     libucrt:lcidtoname_downlevel.obj
 0002:00009e28       ??_C@_1M@DAGCADIM@?$AAa?$AAr?$AA?9?$AAO?$AAM@ 000000018003ce28     libucrt:lcidtoname_downlevel.obj
 0002:00009e38       ??_C@_1M@FODLMICG@?$AAe?$AAn?$AA?9?$AAJ?$AAM@ 000000018003ce38     libucrt:lcidtoname_downlevel.obj
 0002:00009e48       ??_C@_1M@DNMLCIHB@?$AAe?$AAs?$AA?9?$AAV?$AAE@ 000000018003ce48     libucrt:lcidtoname_downlevel.obj
 0002:00009e58       ??_C@_1O@EOKHMKJK@?$AAs?$AAm?$AAs?$AA?9?$AAF?$AAI@ 000000018003ce58     libucrt:lcidtoname_downlevel.obj
 0002:00009e68       ??_C@_1M@CAFJMKOF@?$AAa?$AAr?$AA?9?$AAY?$AAE@ 000000018003ce68     libucrt:lcidtoname_downlevel.obj
 0002:00009e78       ??_C@_1M@CBFHIJLI@?$AAe?$AAn?$AA?9?$AAC?$AAB@ 000000018003ce78     libucrt:lcidtoname_downlevel.obj
 0002:00009e88       ??_C@_1M@BGNFLDN@?$AAe?$AAs?$AA?9?$AAC?$AAO@ 000000018003ce88     libucrt:lcidtoname_downlevel.obj
 0002:00009e98       ??_C@_1O@JMPHMAMC@?$AAs?$AAm?$AAn?$AA?9?$AAF?$AAI@ 000000018003ce98     libucrt:lcidtoname_downlevel.obj
 0002:00009ea8       ??_C@_1M@JLANABKE@?$AAa?$AAr?$AA?9?$AAS?$AAY@ 000000018003cea8     libucrt:lcidtoname_downlevel.obj
 0002:00009eb8       ??_C@_1M@HPKGCFGN@?$AAe?$AAn?$AA?9?$AAB?$AAZ@ 000000018003ceb8     libucrt:lcidtoname_downlevel.obj
 0002:00009ec8       ??_C@_1M@OLJCMLGM@?$AAe?$AAs?$AA?9?$AAP?$AAE@ 000000018003cec8     libucrt:lcidtoname_downlevel.obj
 0002:00009ed8       ??_C@_1M@MKKGFKLE@?$AAa?$AAr?$AA?9?$AAJ?$AAO@ 000000018003ced8     libucrt:lcidtoname_downlevel.obj
 0002:00009ee8       ??_C@_1M@EKPGLDNI@?$AAe?$AAn?$AA?9?$AAT?$AAT@ 000000018003cee8     libucrt:lcidtoname_downlevel.obj
 0002:00009ef8       ??_C@_1M@OONGHFHE@?$AAe?$AAs?$AA?9?$AAA?$AAR@ 000000018003cef8     libucrt:lcidtoname_downlevel.obj
 0002:00009f08       ??_C@_1M@OOJFGBHE@?$AAa?$AAr?$AA?9?$AAL?$AAB@ 000000018003cf08     libucrt:lcidtoname_downlevel.obj
 0002:00009f18       ??_C@_1M@GCEJHNEG@?$AAe?$AAn?$AA?9?$AAZ?$AAW@ 000000018003cf18     libucrt:lcidtoname_downlevel.obj
 0002:00009f28       ??_C@_1M@JNOCAHJI@?$AAe?$AAs?$AA?9?$AAE?$AAC@ 000000018003cf28     libucrt:lcidtoname_downlevel.obj
 0002:00009f38       ??_C@_1M@JEFHPGGB@?$AAa?$AAr?$AA?9?$AAK?$AAW@ 000000018003cf38     libucrt:lcidtoname_downlevel.obj
 0002:00009f48       ??_C@_1M@MLKIBJOJ@?$AAe?$AAn?$AA?9?$AAP?$AAH@ 000000018003cf48     libucrt:lcidtoname_downlevel.obj
 0002:00009f58       ??_C@_1M@BDNIPEND@?$AAe?$AAs?$AA?9?$AAC?$AAL@ 000000018003cf58     libucrt:lcidtoname_downlevel.obj
 0002:00009f68       ??_C@_1M@MPNMEKBD@?$AAa?$AAr?$AA?9?$AAA?$AAE@ 000000018003cf68     libucrt:lcidtoname_downlevel.obj
 0002:00009f78       ??_C@_1M@KBJALCPI@?$AAe?$AAs?$AA?9?$AAU?$AAY@ 000000018003cf78     libucrt:lcidtoname_downlevel.obj
 0002:00009f88       ??_C@_1M@LLCCOAGA@?$AAa?$AAr?$AA?9?$AAB?$AAH@ 000000018003cf88     libucrt:lcidtoname_downlevel.obj
 0002:00009f98       ??_C@_1M@PBFNCDEL@?$AAe?$AAs?$AA?9?$AAP?$AAY@ 000000018003cf98     libucrt:lcidtoname_downlevel.obj
 0002:00009fa8       ??_C@_1M@EDGINPNP@?$AAa?$AAr?$AA?9?$AAQ?$AAA@ 000000018003cfa8     libucrt:lcidtoname_downlevel.obj
 0002:00009fb8       ??_C@_1M@MKDBIIJI@?$AAe?$AAs?$AA?9?$AAB?$AAO@ 000000018003cfb8     libucrt:lcidtoname_downlevel.obj
 0002:00009fc8       ??_C@_1M@CPKKEBLD@?$AAe?$AAs?$AA?9?$AAS?$AAV@ 000000018003cfc8     libucrt:lcidtoname_downlevel.obj
 0002:00009fd8       ??_C@_1M@NDBGMMJL@?$AAe?$AAs?$AA?9?$AAH?$AAN@ 000000018003cfd8     libucrt:lcidtoname_downlevel.obj
 0002:00009fe8       ??_C@_1M@JIJIBHDP@?$AAe?$AAs?$AA?9?$AAN?$AAI@ 000000018003cfe8     libucrt:lcidtoname_downlevel.obj
 0002:00009ff8       ??_C@_1M@CGFMKEEK@?$AAe?$AAs?$AA?9?$AAP?$AAR@ 000000018003cff8     libucrt:lcidtoname_downlevel.obj
 0002:0000a008       ??_C@_1O@ICJHKIIK@?$AAz?$AAh?$AA?9?$AAC?$AAH?$AAT@ 000000018003d008     libucrt:lcidtoname_downlevel.obj
 0002:0000a018       ??_C@_15CLNEJCE@?$AAs?$AAr@ 000000018003d018     libucrt:lcidtoname_downlevel.obj
 0002:0000ae60       ??_C@_1M@KAHEKEIG@?$AAa?$AAf?$AA?9?$AAz?$AAa@ 000000018003de60     libucrt:lcidtoname_downlevel.obj
 0002:0000ae70       ??_C@_1M@GIECOABL@?$AAa?$AAr?$AA?9?$AAa?$AAe@ 000000018003de70     libucrt:lcidtoname_downlevel.obj
 0002:0000ae80       ??_C@_1M@BMLMEKGI@?$AAa?$AAr?$AA?9?$AAb?$AAh@ 000000018003de80     libucrt:lcidtoname_downlevel.obj
 0002:0000ae90       ??_C@_1M@DAPFDGGB@?$AAa?$AAr?$AA?9?$AAd?$AAz@ 000000018003de90     libucrt:lcidtoname_downlevel.obj
 0002:0000aea0       ??_C@_1M@FJNKGKIG@?$AAa?$AAr?$AA?9?$AAe?$AAg@ 000000018003dea0     libucrt:lcidtoname_downlevel.obj
 0002:0000aeb0       ??_C@_1M@FLGKKCLO@?$AAa?$AAr?$AA?9?$AAi?$AAq@ 000000018003deb0     libucrt:lcidtoname_downlevel.obj
 0002:0000aec0       ??_C@_1M@GNDIPALM@?$AAa?$AAr?$AA?9?$AAj?$AAo@ 000000018003dec0     libucrt:lcidtoname_downlevel.obj
 0002:0000aed0       ??_C@_1M@DDMJFMGJ@?$AAa?$AAr?$AA?9?$AAk?$AAw@ 000000018003ded0     libucrt:lcidtoname_downlevel.obj
 0002:0000aee0       ??_C@_1M@EJALMLHM@?$AAa?$AAr?$AA?9?$AAl?$AAb@ 000000018003dee0     libucrt:lcidtoname_downlevel.obj
 0002:0000aef0       ??_C@_1M@MOBDBLOC@?$AAa?$AAr?$AA?9?$AAl?$AAy@ 000000018003def0     libucrt:lcidtoname_downlevel.obj
 0002:0000af00       ??_C@_1M@JAOCLHDH@?$AAa?$AAr?$AA?9?$AAm?$AAa@ 000000018003df00     libucrt:lcidtoname_downlevel.obj
 0002:0000af10       ??_C@_1M@JHPMKJIE@?$AAa?$AAr?$AA?9?$AAo?$AAm@ 000000018003df10     libucrt:lcidtoname_downlevel.obj
 0002:0000af20       ??_C@_1M@OEPGHFNH@?$AAa?$AAr?$AA?9?$AAq?$AAa@ 000000018003df20     libucrt:lcidtoname_downlevel.obj
 0002:0000af30       ??_C@_1M@KJDONENM@?$AAa?$AAr?$AA?9?$AAs?$AAa@ 000000018003df30     libucrt:lcidtoname_downlevel.obj
 0002:0000af40       ??_C@_1M@DMJDKLKM@?$AAa?$AAr?$AA?9?$AAs?$AAy@ 000000018003df40     libucrt:lcidtoname_downlevel.obj
 0002:0000af50       ??_C@_1M@OMFIPEDC@?$AAa?$AAr?$AA?9?$AAt?$AAn@ 000000018003df50     libucrt:lcidtoname_downlevel.obj
 0002:0000af60       ??_C@_1M@IHMHGAON@?$AAa?$AAr?$AA?9?$AAy?$AAe@ 000000018003df60     libucrt:lcidtoname_downlevel.obj
 0002:0000af70       ??_C@_1BG@KDCPGJGB@?$AAa?$AAz?$AA?9?$AAa?$AAz?$AA?9?$AAc?$AAy?$AAr?$AAl@ 000000018003df70     libucrt:lcidtoname_downlevel.obj
 0002:0000af88       ??_C@_1BG@IBCKDDOE@?$AAa?$AAz?$AA?9?$AAa?$AAz?$AA?9?$AAl?$AAa?$AAt?$AAn@ 000000018003df88     libucrt:lcidtoname_downlevel.obj
 0002:0000afa0       ??_C@_1M@EGPFDCPD@?$AAb?$AAe?$AA?9?$AAb?$AAy@ 000000018003dfa0     libucrt:lcidtoname_downlevel.obj
 0002:0000afb0       ??_C@_1M@PCMGMCGC@?$AAb?$AAg?$AA?9?$AAb?$AAg@ 000000018003dfb0     libucrt:lcidtoname_downlevel.obj
 0002:0000afc0       ??_C@_1M@BJBMFGOB@?$AAb?$AAn?$AA?9?$AAi?$AAn@ 000000018003dfc0     libucrt:lcidtoname_downlevel.obj
 0002:0000afd0       ??_C@_1BG@EAKMMACD@?$AAb?$AAs?$AA?9?$AAb?$AAa?$AA?9?$AAl?$AAa?$AAt?$AAn@ 000000018003dfd0     libucrt:lcidtoname_downlevel.obj
 0002:0000afe8       ??_C@_1M@KGADAODK@?$AAc?$AAa?$AA?9?$AAe?$AAs@ 000000018003dfe8     libucrt:lcidtoname_downlevel.obj
 0002:0000aff8       ??_C@_1M@COAJPDHI@?$AAc?$AAs?$AA?9?$AAc?$AAz@ 000000018003dff8     libucrt:lcidtoname_downlevel.obj
 0002:0000b008       ??_C@_1M@DHBHFONH@?$AAc?$AAy?$AA?9?$AAg?$AAb@ 000000018003e008     libucrt:lcidtoname_downlevel.obj
 0002:0000b018       ??_C@_1M@IMGKELGA@?$AAd?$AAa?$AA?9?$AAd?$AAk@ 000000018003e018     libucrt:lcidtoname_downlevel.obj
 0002:0000b028       ??_C@_1M@NNDGDNGA@?$AAd?$AAe?$AA?9?$AAa?$AAt@ 000000018003e028     libucrt:lcidtoname_downlevel.obj
 0002:0000b038       ??_C@_1M@IKDBHEEM@?$AAd?$AAe?$AA?9?$AAc?$AAh@ 000000018003e038     libucrt:lcidtoname_downlevel.obj
 0002:0000b048       ??_C@_1M@GFFOJMCJ@?$AAd?$AAe?$AA?9?$AAd?$AAe@ 000000018003e048     libucrt:lcidtoname_downlevel.obj
 0002:0000b058       ??_C@_1M@MDNLKBPM@?$AAd?$AAe?$AA?9?$AAl?$AAi@ 000000018003e058     libucrt:lcidtoname_downlevel.obj
 0002:0000b068       ??_C@_1M@NJBEEJNL@?$AAd?$AAe?$AA?9?$AAl?$AAu@ 000000018003e068     libucrt:lcidtoname_downlevel.obj
 0002:0000b078       ??_C@_1O@GNNELBAP@?$AAd?$AAi?$AAv?$AA?9?$AAm?$AAv@ 000000018003e078     libucrt:lcidtoname_downlevel.obj
 0002:0000b088       ??_C@_1M@EJLEOGAE@?$AAe?$AAl?$AA?9?$AAg?$AAr@ 000000018003e088     libucrt:lcidtoname_downlevel.obj
 0002:0000b098       ??_C@_1M@GMPONJN@?$AAe?$AAn?$AA?9?$AAa?$AAu@ 000000018003e098     libucrt:lcidtoname_downlevel.obj
 0002:0000b0a8       ??_C@_1M@NIDIIPGF@?$AAe?$AAn?$AA?9?$AAb?$AAz@ 000000018003e0a8     libucrt:lcidtoname_downlevel.obj
 0002:0000b0b8       ??_C@_1M@JEHMIMFO@?$AAe?$AAn?$AA?9?$AAc?$AAa@ 000000018003e0b8     libucrt:lcidtoname_downlevel.obj
 0002:0000b0c8       ??_C@_1M@IGMJCDLA@?$AAe?$AAn?$AA?9?$AAc?$AAb@ 000000018003e0c8     libucrt:lcidtoname_downlevel.obj
 0002:0000b0d8       ??_C@_1M@BNFIGBKG@?$AAe?$AAn?$AA?9?$AAg?$AAb@ 000000018003e0d8     libucrt:lcidtoname_downlevel.obj
 0002:0000b0e8       ??_C@_1M@LKIFDIGP@?$AAe?$AAn?$AA?9?$AAi?$AAe@ 000000018003e0e8     libucrt:lcidtoname_downlevel.obj
 0002:0000b0f8       ??_C@_1M@PJKFGCCO@?$AAe?$AAn?$AA?9?$AAj?$AAm@ 000000018003e0f8     libucrt:lcidtoname_downlevel.obj
 0002:0000b108       ??_C@_1M@KPPKEPBO@?$AAe?$AAn?$AA?9?$AAn?$AAz@ 000000018003e108     libucrt:lcidtoname_downlevel.obj
 0002:0000b118       ??_C@_1M@GMDGLDOB@?$AAe?$AAn?$AA?9?$AAp?$AAh@ 000000018003e118     libucrt:lcidtoname_downlevel.obj
 0002:0000b128       ??_C@_1M@ONGIBJNA@?$AAe?$AAn?$AA?9?$AAt?$AAt@ 000000018003e128     libucrt:lcidtoname_downlevel.obj
 0002:0000b138       ??_C@_1M@LLODPCMM@?$AAe?$AAn?$AA?9?$AAu?$AAs@ 000000018003e138     libucrt:lcidtoname_downlevel.obj
 0002:0000b148       ??_C@_1M@LAKFNPAN@?$AAe?$AAn?$AA?9?$AAz?$AAa@ 000000018003e148     libucrt:lcidtoname_downlevel.obj
 0002:0000b158       ??_C@_1M@MFNHNHEO@?$AAe?$AAn?$AA?9?$AAz?$AAw@ 000000018003e158     libucrt:lcidtoname_downlevel.obj
 0002:0000b168       ??_C@_1M@EJEINPHM@?$AAe?$AAs?$AA?9?$AAa?$AAr@ 000000018003e168     libucrt:lcidtoname_downlevel.obj
 0002:0000b178       ??_C@_1M@GNKPCCJA@?$AAe?$AAs?$AA?9?$AAb?$AAo@ 000000018003e178     libucrt:lcidtoname_downlevel.obj
 0002:0000b188       ??_C@_1M@LEEGFONL@?$AAe?$AAs?$AA?9?$AAc?$AAl@ 000000018003e188     libucrt:lcidtoname_downlevel.obj
 0002:0000b198       ??_C@_1M@KGPDPBDF@?$AAe?$AAs?$AA?9?$AAc?$AAo@ 000000018003e198     libucrt:lcidtoname_downlevel.obj
 0002:0000b1a8       ??_C@_1M@EIAHOHH@?$AAe?$AAs?$AA?9?$AAc?$AAr@ 000000018003e1a8     libucrt:lcidtoname_downlevel.obj
 0002:0000b1b8       ??_C@_1M@LLPGMBIN@?$AAe?$AAs?$AA?9?$AAd?$AAo@ 000000018003e1b8     libucrt:lcidtoname_downlevel.obj
 0002:0000b1c8       ??_C@_1M@DKHMKNJA@?$AAe?$AAs?$AA?9?$AAe?$AAc@ 000000018003e1c8     libucrt:lcidtoname_downlevel.obj
 0002:0000b1d8       ??_C@_1M@GKGFPKAP@?$AAe?$AAs?$AA?9?$AAe?$AAs@ 000000018003e1d8     libucrt:lcidtoname_downlevel.obj
 0002:0000b1e8       ??_C@_1M@LKHKGDLN@?$AAe?$AAs?$AA?9?$AAg?$AAt@ 000000018003e1e8     libucrt:lcidtoname_downlevel.obj
 0002:0000b1f8       ??_C@_1M@HEIIGGJD@?$AAe?$AAs?$AA?9?$AAh?$AAn@ 000000018003e1f8     libucrt:lcidtoname_downlevel.obj
 0002:0000b208       ??_C@_1M@FBDHPPGD@?$AAe?$AAs?$AA?9?$AAm?$AAx@ 000000018003e208     libucrt:lcidtoname_downlevel.obj
 0002:0000b218       ??_C@_1M@DPAGLNDH@?$AAe?$AAs?$AA?9?$AAn?$AAi@ 000000018003e218     libucrt:lcidtoname_downlevel.obj
 0002:0000b228       ??_C@_1M@MDGOPGDD@?$AAe?$AAs?$AA?9?$AAp?$AAa@ 000000018003e228     libucrt:lcidtoname_downlevel.obj
 0002:0000b238       ??_C@_1M@EMAMGBGE@?$AAe?$AAs?$AA?9?$AAp?$AAe@ 000000018003e238     libucrt:lcidtoname_downlevel.obj
 0002:0000b248       ??_C@_1M@IBMCAOEC@?$AAe?$AAs?$AA?9?$AAp?$AAr@ 000000018003e248     libucrt:lcidtoname_downlevel.obj
 0002:0000b258       ??_C@_1M@FGMDIJED@?$AAe?$AAs?$AA?9?$AAp?$AAy@ 000000018003e258     libucrt:lcidtoname_downlevel.obj
 0002:0000b268       ??_C@_1M@IIDEOLLL@?$AAe?$AAs?$AA?9?$AAs?$AAv@ 000000018003e268     libucrt:lcidtoname_downlevel.obj
 0002:0000b278       ??_C@_1M@GAOBIPA@?$AAe?$AAs?$AA?9?$AAu?$AAy@ 000000018003e278     libucrt:lcidtoname_downlevel.obj
 0002:0000b288       ??_C@_1M@JKFFICHJ@?$AAe?$AAs?$AA?9?$AAv?$AAe@ 000000018003e288     libucrt:lcidtoname_downlevel.obj
 0002:0000b298       ??_C@_1M@PNMLOJDF@?$AAe?$AAt?$AA?9?$AAe?$AAe@ 000000018003e298     libucrt:lcidtoname_downlevel.obj
 0002:0000b2a8       ??_C@_1M@GHHLIKEI@?$AAe?$AAu?$AA?9?$AAe?$AAs@ 000000018003e2a8     libucrt:lcidtoname_downlevel.obj
 0002:0000b2b8       ??_C@_1M@PBNONODE@?$AAf?$AAa?$AA?9?$AAi?$AAr@ 000000018003e2b8     libucrt:lcidtoname_downlevel.obj
 0002:0000b2c8       ??_C@_1M@JEEHPMIL@?$AAf?$AAi?$AA?9?$AAf?$AAi@ 000000018003e2c8     libucrt:lcidtoname_downlevel.obj
 0002:0000b2d8       ??_C@_1M@LMDCNDBA@?$AAf?$AAo?$AA?9?$AAf?$AAo@ 000000018003e2d8     libucrt:lcidtoname_downlevel.obj
 0002:0000b2e8       ??_C@_1M@JKEOHLDK@?$AAf?$AAr?$AA?9?$AAb?$AAe@ 000000018003e2e8     libucrt:lcidtoname_downlevel.obj
 0002:0000b2f8       ??_C@_1M@NOHADPMI@?$AAf?$AAr?$AA?9?$AAc?$AAa@ 000000018003e2f8     libucrt:lcidtoname_downlevel.obj
 0002:0000b308       ??_C@_1M@KDHIHAEC@?$AAf?$AAr?$AA?9?$AAc?$AAh@ 000000018003e308     libucrt:lcidtoname_downlevel.obj
 0002:0000b318       ??_C@_1M@MMBBFGAK@?$AAf?$AAr?$AA?9?$AAf?$AAr@ 000000018003e318     libucrt:lcidtoname_downlevel.obj
 0002:0000b328       ??_C@_1M@PAFNENNF@?$AAf?$AAr?$AA?9?$AAl?$AAu@ 000000018003e328     libucrt:lcidtoname_downlevel.obj
 0002:0000b338       ??_C@_1M@EOHDJGDD@?$AAf?$AAr?$AA?9?$AAm?$AAc@ 000000018003e338     libucrt:lcidtoname_downlevel.obj
 0002:0000b348       ??_C@_1M@FAPLLOPF@?$AAg?$AAl?$AA?9?$AAe?$AAs@ 000000018003e348     libucrt:lcidtoname_downlevel.obj
 0002:0000b358       ??_C@_1M@FOPBFLOO@?$AAg?$AAu?$AA?9?$AAi?$AAn@ 000000018003e358     libucrt:lcidtoname_downlevel.obj
 0002:0000b368       ??_C@_1M@KBMCINPM@?$AAh?$AAe?$AA?9?$AAi?$AAl@ 000000018003e368     libucrt:lcidtoname_downlevel.obj
 0002:0000b378       ??_C@_1M@BBPHKFPJ@?$AAh?$AAi?$AA?9?$AAi?$AAn@ 000000018003e378     libucrt:lcidtoname_downlevel.obj
 0002:0000b388       ??_C@_1M@PMBNDPHD@?$AAh?$AAr?$AA?9?$AAb?$AAa@ 000000018003e388     libucrt:lcidtoname_downlevel.obj
 0002:0000b398       ??_C@_1M@BPCKOEGE@?$AAh?$AAr?$AA?9?$AAh?$AAr@ 000000018003e398     libucrt:lcidtoname_downlevel.obj
 0002:0000b3a8       ??_C@_1M@GACBMHKE@?$AAh?$AAu?$AA?9?$AAh?$AAu@ 000000018003e3a8     libucrt:lcidtoname_downlevel.obj
 0002:0000b3b8       ??_C@_1M@MILPAJJC@?$AAh?$AAy?$AA?9?$AAa?$AAm@ 000000018003e3b8     libucrt:lcidtoname_downlevel.obj
 0002:0000b3c8       ??_C@_1M@BABBICEC@?$AAi?$AAd?$AA?9?$AAi?$AAd@ 000000018003e3c8     libucrt:lcidtoname_downlevel.obj
 0002:0000b3d8       ??_C@_1M@BIKNHHPF@?$AAi?$AAs?$AA?9?$AAi?$AAs@ 000000018003e3d8     libucrt:lcidtoname_downlevel.obj
 0002:0000b3e8       ??_C@_1M@NMPCJPHE@?$AAi?$AAt?$AA?9?$AAc?$AAh@ 000000018003e3e8     libucrt:lcidtoname_downlevel.obj
 0002:0000b3f8       ??_C@_1M@GHKGFEDF@?$AAi?$AAt?$AA?9?$AAi?$AAt@ 000000018003e3f8     libucrt:lcidtoname_downlevel.obj
 0002:0000b408       ??_C@_1M@NIEJCJJA@?$AAj?$AAa?$AA?9?$AAj?$AAp@ 000000018003e408     libucrt:lcidtoname_downlevel.obj
 0002:0000b418       ??_C@_1M@JILFNBIM@?$AAk?$AAa?$AA?9?$AAg?$AAe@ 000000018003e418     libucrt:lcidtoname_downlevel.obj
 0002:0000b428       ??_C@_1M@PACPMGPH@?$AAk?$AAk?$AA?9?$AAk?$AAz@ 000000018003e428     libucrt:lcidtoname_downlevel.obj
 0002:0000b438       ??_C@_1M@IELFGMHA@?$AAk?$AAn?$AA?9?$AAi?$AAn@ 000000018003e438     libucrt:lcidtoname_downlevel.obj
 0002:0000b448       ??_C@_1O@IBBJHCH@?$AAk?$AAo?$AAk?$AA?9?$AAi?$AAn@ 000000018003e448     libucrt:lcidtoname_downlevel.obj
 0002:0000b458       ??_C@_1M@DMHAEOGC@?$AAk?$AAo?$AA?9?$AAk?$AAr@ 000000018003e458     libucrt:lcidtoname_downlevel.obj
 0002:0000b468       ??_C@_1M@HBAHBIGA@?$AAk?$AAy?$AA?9?$AAk?$AAg@ 000000018003e468     libucrt:lcidtoname_downlevel.obj
 0002:0000b478       ??_C@_1M@KPMILCJG@?$AAl?$AAt?$AA?9?$AAl?$AAt@ 000000018003e478     libucrt:lcidtoname_downlevel.obj
 0002:0000b488       ??_C@_1M@BDEKKCA@?$AAl?$AAv?$AA?9?$AAl?$AAv@ 000000018003e488     libucrt:lcidtoname_downlevel.obj
 0002:0000b498       ??_C@_1M@ELCKCCJJ@?$AAm?$AAi?$AA?9?$AAn?$AAz@ 000000018003e498     libucrt:lcidtoname_downlevel.obj
 0002:0000b4a8       ??_C@_1M@CBOOLAPA@?$AAm?$AAk?$AA?9?$AAm?$AAk@ 000000018003e4a8     libucrt:lcidtoname_downlevel.obj
 0002:0000b4b8       ??_C@_1M@GPHNBJKN@?$AAm?$AAl?$AA?9?$AAi?$AAn@ 000000018003e4b8     libucrt:lcidtoname_downlevel.obj
 0002:0000b4c8       ??_C@_1M@PABJILIG@?$AAm?$AAn?$AA?9?$AAm?$AAn@ 000000018003e4c8     libucrt:lcidtoname_downlevel.obj
 0002:0000b4d8       ??_C@_1M@FGBKKIPG@?$AAm?$AAr?$AA?9?$AAi?$AAn@ 000000018003e4d8     libucrt:lcidtoname_downlevel.obj
 0002:0000b4e8       ??_C@_1M@NDBPDDAL@?$AAm?$AAs?$AA?9?$AAb?$AAn@ 000000018003e4e8     libucrt:lcidtoname_downlevel.obj
 0002:0000b4f8       ??_C@_1M@OPIHOOPI@?$AAm?$AAs?$AA?9?$AAm?$AAy@ 000000018003e4f8     libucrt:lcidtoname_downlevel.obj
 0002:0000b508       ??_C@_1M@PPDBCNFM@?$AAm?$AAt?$AA?9?$AAm?$AAt@ 000000018003e508     libucrt:lcidtoname_downlevel.obj
 0002:0000b518       ??_C@_1M@KDJDKMDD@?$AAn?$AAb?$AA?9?$AAn?$AAo@ 000000018003e518     libucrt:lcidtoname_downlevel.obj
 0002:0000b528       ??_C@_1M@KFCFLMJP@?$AAn?$AAl?$AA?9?$AAb?$AAe@ 000000018003e528     libucrt:lcidtoname_downlevel.obj
 0002:0000b538       ??_C@_1M@KPOPDDGO@?$AAn?$AAl?$AA?9?$AAn?$AAl@ 000000018003e538     libucrt:lcidtoname_downlevel.obj
 0002:0000b548       ??_C@_1M@LJKPEMLN@?$AAn?$AAn?$AA?9?$AAn?$AAo@ 000000018003e548     libucrt:lcidtoname_downlevel.obj
 0002:0000b558       ??_C@_1M@BDGHHBFL@?$AAn?$AAs?$AA?9?$AAz?$AAa@ 000000018003e558     libucrt:lcidtoname_downlevel.obj
 0002:0000b568       ??_C@_1M@IDEHOAP@?$AAp?$AAa?$AA?9?$AAi?$AAn@ 000000018003e568     libucrt:lcidtoname_downlevel.obj
 0002:0000b578       ??_C@_1M@HDBKGOGH@?$AAp?$AAl?$AA?9?$AAp?$AAl@ 000000018003e578     libucrt:lcidtoname_downlevel.obj
 0002:0000b588       ??_C@_1M@LJLLCMEH@?$AAp?$AAt?$AA?9?$AAb?$AAr@ 000000018003e588     libucrt:lcidtoname_downlevel.obj
 0002:0000b598       ??_C@_1M@NCMONAAL@?$AAp?$AAt?$AA?9?$AAp?$AAt@ 000000018003e598     libucrt:lcidtoname_downlevel.obj
 0002:0000b5a8       ??_C@_1O@EAKMAJDN@?$AAq?$AAu?$AAz?$AA?9?$AAb?$AAo@ 000000018003e5a8     libucrt:lcidtoname_downlevel.obj
 0002:0000b5b8       ??_C@_1O@BHHPIGDN@?$AAq?$AAu?$AAz?$AA?9?$AAe?$AAc@ 000000018003e5b8     libucrt:lcidtoname_downlevel.obj
 0002:0000b5c8       ??_C@_1O@GBAPEKMJ@?$AAq?$AAu?$AAz?$AA?9?$AAp?$AAe@ 000000018003e5c8     libucrt:lcidtoname_downlevel.obj
 0002:0000b5d8       ??_C@_1M@CLGLEFBO@?$AAr?$AAo?$AA?9?$AAr?$AAo@ 000000018003e5d8     libucrt:lcidtoname_downlevel.obj
 0002:0000b5e8       ??_C@_1M@CEEDODME@?$AAr?$AAu?$AA?9?$AAr?$AAu@ 000000018003e5e8     libucrt:lcidtoname_downlevel.obj
 0002:0000b5f8       ??_C@_1M@HPKKKMPP@?$AAs?$AAa?$AA?9?$AAi?$AAn@ 000000018003e5f8     libucrt:lcidtoname_downlevel.obj
 0002:0000b608       ??_C@_1M@BKMAIGOJ@?$AAs?$AAe?$AA?9?$AAf?$AAi@ 000000018003e608     libucrt:lcidtoname_downlevel.obj
 0002:0000b618       ??_C@_1M@NDPIFLFI@?$AAs?$AAe?$AA?9?$AAn?$AAo@ 000000018003e618     libucrt:lcidtoname_downlevel.obj
 0002:0000b628       ??_C@_1M@DANKKHJ@?$AAs?$AAe?$AA?9?$AAs?$AAe@ 000000018003e628     libucrt:lcidtoname_downlevel.obj
 0002:0000b638       ??_C@_1M@PNBLONPJ@?$AAs?$AAk?$AA?9?$AAs?$AAk@ 000000018003e638     libucrt:lcidtoname_downlevel.obj
 0002:0000b648       ??_C@_1M@LFMODOAL@?$AAs?$AAl?$AA?9?$AAs?$AAi@ 000000018003e648     libucrt:lcidtoname_downlevel.obj
 0002:0000b658       ??_C@_1O@DFKOMPG@?$AAs?$AAm?$AAa?$AA?9?$AAn?$AAo@ 000000018003e658     libucrt:lcidtoname_downlevel.obj
 0002:0000b668       ??_C@_1O@NDKPBNNH@?$AAs?$AAm?$AAa?$AA?9?$AAs?$AAe@ 000000018003e668     libucrt:lcidtoname_downlevel.obj
 0002:0000b678       ??_C@_1O@PLLKBHAB@?$AAs?$AAm?$AAj?$AA?9?$AAn?$AAo@ 000000018003e678     libucrt:lcidtoname_downlevel.obj
 0002:0000b688       ??_C@_1O@CLEPOGCA@?$AAs?$AAm?$AAj?$AA?9?$AAs?$AAe@ 000000018003e688     libucrt:lcidtoname_downlevel.obj
 0002:0000b698       ??_C@_1O@DLGJGKMK@?$AAs?$AAm?$AAn?$AA?9?$AAf?$AAi@ 000000018003e698     libucrt:lcidtoname_downlevel.obj
 0002:0000b6a8       ??_C@_1O@OJDJGAJC@?$AAs?$AAm?$AAs?$AA?9?$AAf?$AAi@ 000000018003e6a8     libucrt:lcidtoname_downlevel.obj
 0002:0000b6b8       ??_C@_1M@BOFOGHPB@?$AAs?$AAq?$AA?9?$AAa?$AAl@ 000000018003e6b8     libucrt:lcidtoname_downlevel.obj
 0002:0000b6c8       ??_C@_1BG@LJBBIPGB@?$AAs?$AAr?$AA?9?$AAb?$AAa?$AA?9?$AAc?$AAy?$AAr?$AAl@ 000000018003e6c8     libucrt:lcidtoname_downlevel.obj
 0002:0000b6e0       ??_C@_1BG@JLBENFOE@?$AAs?$AAr?$AA?9?$AAb?$AAa?$AA?9?$AAl?$AAa?$AAt?$AAn@ 000000018003e6e0     libucrt:lcidtoname_downlevel.obj
 0002:0000b6f8       ??_C@_1BG@KODPNHE@?$AAs?$AAr?$AA?9?$AAs?$AAp?$AA?9?$AAc?$AAy?$AAr?$AAl@ 000000018003e6f8     libucrt:lcidtoname_downlevel.obj
 0002:0000b710       ??_C@_1BG@CIOGKHPB@?$AAs?$AAr?$AA?9?$AAs?$AAp?$AA?9?$AAl?$AAa?$AAt?$AAn@ 000000018003e710     libucrt:lcidtoname_downlevel.obj
 0002:0000b728       ??_C@_1M@NGFJLMAC@?$AAs?$AAv?$AA?9?$AAf?$AAi@ 000000018003e728     libucrt:lcidtoname_downlevel.obj
 0002:0000b738       ??_C@_1M@MPJEJAJC@?$AAs?$AAv?$AA?9?$AAs?$AAe@ 000000018003e738     libucrt:lcidtoname_downlevel.obj
 0002:0000b748       ??_C@_1M@MPNDHLFK@?$AAs?$AAw?$AA?9?$AAk?$AAe@ 000000018003e748     libucrt:lcidtoname_downlevel.obj
 0002:0000b758       ??_C@_1O@KOHBJJI@?$AAs?$AAy?$AAr?$AA?9?$AAs?$AAy@ 000000018003e758     libucrt:lcidtoname_downlevel.obj
 0002:0000b768       ??_C@_1M@LDCEFHA@?$AAt?$AAa?$AA?9?$AAi?$AAn@ 000000018003e768     libucrt:lcidtoname_downlevel.obj
 0002:0000b778       ??_C@_1M@CNJOFAK@?$AAt?$AAe?$AA?9?$AAi?$AAn@ 000000018003e778     libucrt:lcidtoname_downlevel.obj
 0002:0000b788       ??_C@_1M@GNAECACD@?$AAt?$AAh?$AA?9?$AAt?$AAh@ 000000018003e788     libucrt:lcidtoname_downlevel.obj
 0002:0000b798       ??_C@_1M@CHBIHOJO@?$AAt?$AAn?$AA?9?$AAz?$AAa@ 000000018003e798     libucrt:lcidtoname_downlevel.obj
 0002:0000b7a8       ??_C@_1M@GCCMIGPJ@?$AAt?$AAr?$AA?9?$AAt?$AAr@ 000000018003e7a8     libucrt:lcidtoname_downlevel.obj
 0002:0000b7b8       ??_C@_1M@CELMCNBK@?$AAt?$AAt?$AA?9?$AAr?$AAu@ 000000018003e7b8     libucrt:lcidtoname_downlevel.obj
 0002:0000b7c8       ??_C@_1M@KLMCELGA@?$AAu?$AAk?$AA?9?$AAu?$AAa@ 000000018003e7c8     libucrt:lcidtoname_downlevel.obj
 0002:0000b7d8       ??_C@_1M@EPAJJAJF@?$AAu?$AAr?$AA?9?$AAp?$AAk@ 000000018003e7d8     libucrt:lcidtoname_downlevel.obj
 0002:0000b7e8       ??_C@_1BG@GEGPMCDJ@?$AAu?$AAz?$AA?9?$AAu?$AAz?$AA?9?$AAc?$AAy?$AAr?$AAl@ 000000018003e7e8     libucrt:lcidtoname_downlevel.obj
 0002:0000b800       ??_C@_1BG@EGGKJILM@?$AAu?$AAz?$AA?9?$AAu?$AAz?$AA?9?$AAl?$AAa?$AAt?$AAn@ 000000018003e800     libucrt:lcidtoname_downlevel.obj
 0002:0000b818       ??_C@_1M@GFOCLFF@?$AAv?$AAi?$AA?9?$AAv?$AAn@ 000000018003e818     libucrt:lcidtoname_downlevel.obj
 0002:0000b828       ??_C@_1M@CPAMEDFI@?$AAx?$AAh?$AA?9?$AAz?$AAa@ 000000018003e828     libucrt:lcidtoname_downlevel.obj
 0002:0000b838       ??_C@_1O@EBKIFIGN@?$AAz?$AAh?$AA?9?$AAc?$AAh?$AAs@ 000000018003e838     libucrt:lcidtoname_downlevel.obj
 0002:0000b848       ??_C@_1O@NMHPGANE@?$AAz?$AAh?$AA?9?$AAc?$AAh?$AAt@ 000000018003e848     libucrt:lcidtoname_downlevel.obj
 0002:0000b858       ??_C@_1M@LPINJOMC@?$AAz?$AAh?$AA?9?$AAc?$AAn@ 000000018003e858     libucrt:lcidtoname_downlevel.obj
 0002:0000b868       ??_C@_1M@OCJEJODD@?$AAz?$AAh?$AA?9?$AAh?$AAk@ 000000018003e868     libucrt:lcidtoname_downlevel.obj
 0002:0000b878       ??_C@_1M@DNDLJINH@?$AAz?$AAh?$AA?9?$AAm?$AAo@ 000000018003e878     libucrt:lcidtoname_downlevel.obj
 0002:0000b888       ??_C@_1M@MBFDNDND@?$AAz?$AAh?$AA?9?$AAs?$AAg@ 000000018003e888     libucrt:lcidtoname_downlevel.obj
 0002:0000b898       ??_C@_1M@IMEPLEPE@?$AAz?$AAh?$AA?9?$AAt?$AAw@ 000000018003e898     libucrt:lcidtoname_downlevel.obj
 0002:0000b8a8       ??_C@_1M@BBGHNHJP@?$AAz?$AAu?$AA?9?$AAz?$AAa@ 000000018003e8a8     libucrt:lcidtoname_downlevel.obj
 0002:0000b8b8       __real@3ff0000000000000    000000018003e8b8     libucrt:ceil.obj
 0002:0000bb10       __log10_256_lead           000000018003eb10     libucrt:log10_256_lead_tail_table.obj
 0002:0000c320       __log10_256_tail           000000018003f320     libucrt:log10_256_lead_tail_table.obj
 0002:0000cb30       __log_F_inv_qword          000000018003fb30     libucrt:log_f_inv_qword_table.obj
 0002:0000d340       ??_C@_05HGHHAHAP@log10@    0000000180040340     libucrt:log_special.obj
 0002:0000d348       ??_C@_1BA@BALFACEM@?$AAC?$AAO?$AAN?$AAO?$AAU?$AAT?$AA$@ 0000000180040348     libucrt:initcon.obj
 0002:0000d370       ??_C@_0BI@OEHNMHCG@GetCurrentConsoleFontEx@ 0000000180040370     common-kernel64:WConsole.obj
 0002:0000d388       ??_C@_0BI@PCBACGEE@SetCurrentConsoleFontEx@ 0000000180040388     common-kernel64:WConsole.obj
 0002:0000d400       _load_config_used          0000000180040400     LIBCMT:loadcfg.obj
 0002:0000d580       _tls_used                  0000000180040580     LIBCMT:tlssup.obj
 0002:0000d5a8       ??_R4CPluginW1900@@6B@     00000001800405a8     ConEmuPlugin1900.obj
 0002:0000d5d0       ??_R3CPluginW1900@@8       00000001800405d0     ConEmuPlugin1900.obj
 0002:0000d5e8       ??_R2CPluginW1900@@8       00000001800405e8     ConEmuPlugin1900.obj
 0002:0000d600       ??_R1A@?0A@EA@CPluginW1900@@8 0000000180040600     ConEmuPlugin1900.obj
 0002:0000d628       ??_R1A@?0A@EA@CPluginBase@@8 0000000180040628     ConEmuPlugin1900.obj
 0002:0000d650       ??_R3CPluginBase@@8        0000000180040650     ConEmuPlugin1900.obj
 0002:0000d668       ??_R2CPluginBase@@8        0000000180040668     ConEmuPlugin1900.obj
 0002:0000d678       ??_R4exception@std@@6B@    0000000180040678     ConEmuPlugin2800.obj
 0002:0000d6a0       ??_R3exception@std@@8      00000001800406a0     ConEmuPlugin2800.obj
 0002:0000d6b8       ??_R2exception@std@@8      00000001800406b8     ConEmuPlugin2800.obj
 0002:0000d6c8       ??_R1A@?0A@EA@exception@std@@8 00000001800406c8     ConEmuPlugin2800.obj
 0002:0000d6f0       ??_R4bad_alloc@std@@6B@    00000001800406f0     ConEmuPlugin2800.obj
 0002:0000d718       ??_R3bad_alloc@std@@8      0000000180040718     ConEmuPlugin2800.obj
 0002:0000d730       ??_R2bad_alloc@std@@8      0000000180040730     ConEmuPlugin2800.obj
 0002:0000d748       ??_R1A@?0A@EA@bad_alloc@std@@8 0000000180040748     ConEmuPlugin2800.obj
 0002:0000d770       ??_R4CPluginW2800@@6B@     0000000180040770     ConEmuPlugin2800.obj
 0002:0000d798       ??_R3CPluginW2800@@8       0000000180040798     ConEmuPlugin2800.obj
 0002:0000d7b0       ??_R2CPluginW2800@@8       00000001800407b0     ConEmuPlugin2800.obj
 0002:0000d7c8       ??_R1A@?0A@EA@CPluginW2800@@8 00000001800407c8     ConEmuPlugin2800.obj
 0002:0000d7f0       ??_R4CPluginW995@@6B@      00000001800407f0     ConEmuPlugin995.obj
 0002:0000d818       ??_R3CPluginW995@@8        0000000180040818     ConEmuPlugin995.obj
 0002:0000d830       ??_R2CPluginW995@@8        0000000180040830     ConEmuPlugin995.obj
 0002:0000d848       ??_R1A@?0A@EA@CPluginW995@@8 0000000180040848     ConEmuPlugin995.obj
 0002:0000d870       ??_R4CPluginAnsi@@6B@      0000000180040870     ConEmuPluginA.obj
 0002:0000d898       ??_R3CPluginAnsi@@8        0000000180040898     ConEmuPluginA.obj
 0002:0000d8b0       ??_R2CPluginAnsi@@8        00000001800408b0     ConEmuPluginA.obj
 0002:0000d8c8       ??_R1A@?0A@EA@CPluginAnsi@@8 00000001800408c8     ConEmuPluginA.obj
 0002:0000d8f0       ??_R4CPluginBase@@6B@      00000001800408f0     ConEmuPluginBase.obj
 0002:0000d918       ??_R4exception@stdext@@6B@ 0000000180040918     common-kernel64:CEStr.obj
 0002:0000d940       ??_R3exception@stdext@@8   0000000180040940     common-kernel64:CEStr.obj
 0002:0000d958       ??_R2exception@stdext@@8   0000000180040958     common-kernel64:CEStr.obj
 0002:0000d968       ??_R1A@?0A@EA@exception@stdext@@8 0000000180040968     common-kernel64:CEStr.obj
 0002:0000d990       ??_R4bad_alloc@stdext@@6B@ 0000000180040990     common-kernel64:CEStr.obj
 0002:0000d9b8       ??_R3bad_alloc@stdext@@8   00000001800409b8     common-kernel64:CEStr.obj
 0002:0000d9d0       ??_R2bad_alloc@stdext@@8   00000001800409d0     common-kernel64:CEStr.obj
 0002:0000d9e8       ??_R1A@?0A@EA@bad_alloc@stdext@@8 00000001800409e8     common-kernel64:CEStr.obj
 0002:0000da10       ??_R3?$_Func_base@XPEAX@std@@8 0000000180040a10     common-kernel64:WObjects.obj
 0002:0000da28       ??_R2?$_Func_base@XPEAX@std@@8 0000000180040a28     common-kernel64:WObjects.obj
 0002:0000da38       ??_R1A@?0A@EA@?$_Func_base@XPEAX@std@@8 0000000180040a38     common-kernel64:WObjects.obj
 0002:0000da60       ??_R4?$_Func_impl_no_alloc@P6AHPEAX@ZXPEAX@std@@6B@ 0000000180040a60     common-kernel64:WObjects.obj
 0002:0000da88       ??_R3?$_Func_impl_no_alloc@P6AHPEAX@ZXPEAX@std@@8 0000000180040a88     common-kernel64:WObjects.obj
 0002:0000daa0       ??_R2?$_Func_impl_no_alloc@P6AHPEAX@ZXPEAX@std@@8 0000000180040aa0     common-kernel64:WObjects.obj
 0002:0000dab8       ??_R1A@?0A@EA@?$_Func_impl_no_alloc@P6AHPEAX@ZXPEAX@std@@8 0000000180040ab8     common-kernel64:WObjects.obj
 0002:0000dae0       ??_R4MToolHelpProcess@@6B@ 0000000180040ae0     common-kernel64:MProcess.obj
 0002:0000db08       ??_R3MToolHelpProcess@@8   0000000180040b08     common-kernel64:MProcess.obj
 0002:0000db20       ??_R2MToolHelpProcess@@8   0000000180040b20     common-kernel64:MProcess.obj
 0002:0000db38       ??_R1A@?0A@EA@MToolHelpProcess@@8 0000000180040b38     common-kernel64:MProcess.obj
 0002:0000db60       ??_R1A@?0A@EA@?$MToolHelp@UtagPROCESSENTRY32W@@$1?Process32FirstW@@YAHPEAXPEAU1@@Z$1?Process32NextW@@YAH01@Z@@8 0000000180040b60     common-kernel64:MProcess.obj
 0002:0000db88       ??_R3?$MToolHelp@UtagPROCESSENTRY32W@@$1?Process32FirstW@@YAHPEAXPEAU1@@Z$1?Process32NextW@@YAH01@Z@@8 0000000180040b88     common-kernel64:MProcess.obj
 0002:0000dba0       ??_R2?$MToolHelp@UtagPROCESSENTRY32W@@$1?Process32FirstW@@YAHPEAXPEAU1@@Z$1?Process32NextW@@YAH01@Z@@8 0000000180040ba0     common-kernel64:MProcess.obj
 0002:0000dbb0       ??_R4?$MToolHelp@UtagPROCESSENTRY32W@@$1?Process32FirstW@@YAHPEAXPEAU1@@Z$1?Process32NextW@@YAH01@Z@@6B@ 0000000180040bb0     common-kernel64:MProcess.obj
 0002:0000dbd8       ??_R3?$_Func_base@_NAEBUtagPROCESSENTRY32W@@@std@@8 0000000180040bd8     common-kernel64:MProcess.obj
 0002:0000dbf0       ??_R2?$_Func_base@_NAEBUtagPROCESSENTRY32W@@@std@@8 0000000180040bf0     common-kernel64:MProcess.obj
 0002:0000dc00       ??_R1A@?0A@EA@?$_Func_base@_NAEBUtagPROCESSENTRY32W@@@std@@8 0000000180040c00     common-kernel64:MProcess.obj
 0002:0000dc28       ??_R4?$_Func_impl_no_alloc@V<lambda_217d18733db987cb8fc0adfd68028951>@@_NAEBUtagPROCESSENTRY32W@@@std@@6B@ 0000000180040c28     common-kernel64:MProcess.obj
 0002:0000dc50       ??_R3?$_Func_impl_no_alloc@V<lambda_217d18733db987cb8fc0adfd68028951>@@_NAEBUtagPROCESSENTRY32W@@@std@@8 0000000180040c50     common-kernel64:MProcess.obj
 0002:0000dc68       ??_R2?$_Func_impl_no_alloc@V<lambda_217d18733db987cb8fc0adfd68028951>@@_NAEBUtagPROCESSENTRY32W@@@std@@8 0000000180040c68     common-kernel64:MProcess.obj
 0002:0000dc80       ??_R1A@?0A@EA@?$_Func_impl_no_alloc@V<lambda_217d18733db987cb8fc0adfd68028951>@@_NAEBUtagPROCESSENTRY32W@@@std@@8 0000000180040c80     common-kernel64:MProcess.obj
 0002:0000dca8       ??_R4bad_function_call@std@@6B@ 0000000180040ca8     libcpmt:xthrow.obj
 0002:0000dcd0       ??_R3bad_function_call@std@@8 0000000180040cd0     libcpmt:xthrow.obj
 0002:0000dce8       ??_R2bad_function_call@std@@8 0000000180040ce8     libcpmt:xthrow.obj
 0002:0000dd00       ??_R1A@?0A@EA@bad_function_call@std@@8 0000000180040d00     libcpmt:xthrow.obj
 0002:0000dd28       ??_R4logic_error@std@@6B@  0000000180040d28     libcpmt:xthrow.obj
 0002:0000dd50       ??_R3logic_error@std@@8    0000000180040d50     libcpmt:xthrow.obj
 0002:0000dd68       ??_R2logic_error@std@@8    0000000180040d68     libcpmt:xthrow.obj
 0002:0000dd80       ??_R1A@?0A@EA@logic_error@std@@8 0000000180040d80     libcpmt:xthrow.obj
 0002:0000dda8       ??_R4length_error@std@@6B@ 0000000180040da8     libcpmt:xthrow.obj
 0002:0000ddd0       ??_R3length_error@std@@8   0000000180040dd0     libcpmt:xthrow.obj
 0002:0000dde8       ??_R2length_error@std@@8   0000000180040de8     libcpmt:xthrow.obj
 0002:0000de08       ??_R1A@?0A@EA@length_error@std@@8 0000000180040e08     libcpmt:xthrow.obj
 0002:0000de30       ??_R4type_info@@6B@        0000000180040e30     LIBCMT:std_type_info_static.obj
 0002:0000de58       ??_R3type_info@@8          0000000180040e58     LIBCMT:std_type_info_static.obj
 0002:0000de70       ??_R2type_info@@8          0000000180040e70     LIBCMT:std_type_info_static.obj
 0002:0000de80       ??_R1A@?0A@EA@type_info@@8 0000000180040e80     LIBCMT:std_type_info_static.obj
 0002:0000dea8       ??_R4bad_exception@std@@6B@ 0000000180040ea8     libvcruntime:frame.obj
 0002:0000ded0       ??_R3bad_exception@std@@8  0000000180040ed0     libvcruntime:frame.obj
 0002:0000dee8       ??_R2bad_exception@std@@8  0000000180040ee8     libvcruntime:frame.obj
 0002:0000df00       ??_R1A@?0A@EA@bad_exception@std@@8 0000000180040f00     libvcruntime:frame.obj
 0002:0000df24       __volatile_metadata        0000000180040f24     <linker-defined>
 0002:0000e4a0       __rtc_iaa                  00000001800414a0     LIBCMT:initsect.obj
 0002:0000e4a8       __rtc_izz                  00000001800414a8     LIBCMT:initsect.obj
 0002:0000e4b0       __rtc_taa                  00000001800414b0     LIBCMT:initsect.obj
 0002:0000e4b8       __rtc_tzz                  00000001800414b8     LIBCMT:initsect.obj
 0002:0000e4c0       _tls_start                 00000001800414c0     LIBCMT:tlssup.obj
 0002:0000e4c4       _Init_thread_epoch         00000001800414c4     LIBCMT:thread_safe_statics.obj
 0002:0000e4c8       _tls_end                   00000001800414c8     LIBCMT:tlssup.obj
 0002:00010b68       _CT??_R0?AVbad_alloc@std@@@8??0bad_alloc@std@@QEAA@AEBV01@@Z24 0000000180043b68     ConEmuPlugin2800.obj
 0002:00010b90       _CT??_R0?AVexception@std@@@8??0exception@std@@QEAA@AEBV01@@Z24 0000000180043b90     ConEmuPlugin2800.obj
 0002:00010bb8       _TI2?AVbad_alloc@std@@     0000000180043bb8     ConEmuPlugin2800.obj
 0002:00010bd8       _CTA2?AVbad_alloc@std@@    0000000180043bd8     ConEmuPlugin2800.obj
 0002:00010bf0       _TI2?AVbad_alloc@stdext@@  0000000180043bf0     common-kernel64:CEStr.obj
 0002:00010c10       _CTA2?AVbad_alloc@stdext@@ 0000000180043c10     common-kernel64:CEStr.obj
 0002:00010c28       _CT??_R0?AVbad_alloc@stdext@@@8??0bad_alloc@stdext@@QEAA@AEBV01@@Z16 0000000180043c28     common-kernel64:CEStr.obj
 0002:00010c50       _CT??_R0?AVexception@stdext@@@8??0exception@stdext@@QEAA@AEBV01@@Z16 0000000180043c50     common-kernel64:CEStr.obj
 0002:00010c78       _CT??_R0?AVlogic_error@std@@@8??0logic_error@std@@QEAA@AEBV01@@Z24 0000000180043c78     libcpmt:xthrow.obj
 0002:00010ca0       _TI3?AVlength_error@std@@  0000000180043ca0     libcpmt:xthrow.obj
 0002:00010cc0       _CTA3?AVlength_error@std@@ 0000000180043cc0     libcpmt:xthrow.obj
 0002:00010ce0       _CT??_R0?AVlength_error@std@@@8??0length_error@std@@QEAA@AEBV01@@Z24 0000000180043ce0     libcpmt:xthrow.obj
 0002:00010d08       _TI2?AVbad_function_call@std@@ 0000000180043d08     libcpmt:xthrow.obj
 0002:00010d28       _CTA2?AVbad_function_call@std@@ 0000000180043d28     libcpmt:xthrow.obj
 0002:00010d40       _CT??_R0?AVbad_function_call@std@@@8??0bad_function_call@std@@QEAA@AEBV01@@Z24 0000000180043d40     libcpmt:xthrow.obj
 0002:00010d68       _TI2?AVbad_exception@std@@ 0000000180043d68     libvcruntime:frame.obj
 0002:00010d88       _CTA2?AVbad_exception@std@@ 0000000180043d88     libvcruntime:frame.obj
 0002:00010da0       _CT??_R0?AVbad_exception@std@@@8??0bad_exception@std@@QEAA@AEBV01@@Z24 0000000180043da0     libvcruntime:frame.obj
 0002:000110b4       __IMPORT_DESCRIPTOR_VERSION 00000001800440b4     version:VERSION.dll
 0002:000110c8       __IMPORT_DESCRIPTOR_KERNEL32 00000001800440c8     kernel32:KERNEL32.dll
 0002:000110dc       __IMPORT_DESCRIPTOR_USER32 00000001800440dc     user32:USER32.dll
 0002:000110f0       __IMPORT_DESCRIPTOR_GDI32  00000001800440f0     gdi32:GDI32.dll
 0002:00011104       __IMPORT_DESCRIPTOR_ADVAPI32 0000000180044104     advapi32:ADVAPI32.dll
 0002:00011118       __NULL_IMPORT_DESCRIPTOR   0000000180044118     version:VERSION.dll
 0003:00000000       ?Far3Func@@3PAUExportFunc@@A 0000000180046000     ConEmuPlugin.obj
 0003:00000080       ?StdPalette@?1??GetStdPalette@Far3Color@@SAPEBKXZ@4PAKA 0000000180046080     ConEmuPlugin1900.obj
 0003:000000c0       ?guid_ConEmu@@3U_GUID@@A   00000001800460c0     ConEmuPlugin2800.obj
 0003:000000d0       ?guid_ConEmuPluginItems@@3U_GUID@@A 00000001800460d0     ConEmuPlugin2800.obj
 0003:000000e0       ?guid_ConEmuPluginMenu@@3U_GUID@@A 00000001800460e0     ConEmuPlugin2800.obj
 0003:000000f0       ?guid_ConEmuGuiMacroDlg@@3U_GUID@@A 00000001800460f0     ConEmuPlugin2800.obj
 0003:00000100       ?guid_ConEmuWaitEndSynchro@@3U_GUID@@A 0000000180046100     ConEmuPlugin2800.obj
 0003:00000110       ?guid_ConEmuMsg@@3U_GUID@@A 0000000180046110     ConEmuPlugin2800.obj
 0003:00000120       ?guid_ConEmuInput@@3U_GUID@@A 0000000180046120     ConEmuPlugin2800.obj
 0003:00000130       ?guid_ConEmuMenu@@3U_GUID@@A 0000000180046130     ConEmuPlugin2800.obj
 0003:00000160       ?gFarMode@@3UHookModeFar@@A 0000000180046160     ConEmuPluginBase.obj
 0003:00000190       ?gnPluginOpenFrom@@3HA     0000000180046190     ConEmuPluginBase.obj
 0003:00000194       ?gnReqCommand@@3KA         0000000180046194     ConEmuPluginBase.obj
 0003:00000198       ?lastModifiedStateW@@3HA   0000000180046198     ConEmuPluginBase.obj
 0003:000001a0       ?gpPluginMenu@@3PAUPluginAndMenuCommands@@A 00000001800461a0     ConEmuPluginBase.obj
 0003:00000260       ?g_TerminatedThreadIdx@@3JA 0000000180046260     common-kernel64:WThreads.obj
 0003:00000270       __security_cookie_complement 0000000180046270     LIBCMT:gs_cookie.obj
 0003:00000278       __security_cookie          0000000180046278     LIBCMT:gs_cookie.obj
 0003:00000280       _Init_global_epoch         0000000180046280     LIBCMT:thread_safe_statics.obj
 0003:00000284       __scrt_native_dllmain_reason 0000000180046284     LIBCMT:utility.obj
 0003:00000288       __isa_available            0000000180046288     LIBCMT:cpu_disp.obj
 0003:0000028c       __isa_enabled              000000018004628c     LIBCMT:cpu_disp.obj
 0003:00000290       __memcpy_nt_iters          0000000180046290     LIBCMT:cpu_disp.obj
 0003:00000298       __memset_nt_iters          0000000180046298     LIBCMT:cpu_disp.obj
 0003:000002b8       __abort_behavior           00000001800462b8     libucrt:abort.obj
 0003:000002d0       _iob                       00000001800462d0     libucrt:_file.obj
 0003:000003e0       __acrt_initial_locale_data 00000001800463e0     libucrt:nlsdata.obj
 0003:00000538       __acrt_initial_locale_pointers 0000000180046538     libucrt:nlsdata.obj
 0003:00000548       __acrt_wide_c_locale_string 0000000180046548     libucrt:nlsdata.obj
 0003:00000550       _pwctype                   0000000180046550     libucrt:ctype.obj
 0003:00000560       __acrt_initial_multibyte_data 0000000180046560     libucrt:mbctype.obj
 0003:00000aa0       __globallocalestatus       0000000180046aa0     libucrt:glstatus.obj
 0003:00000ab0       __acrt_lconv_c             0000000180046ab0     libucrt:localeconv.obj
 0003:00000b48       __acrt_lconv_static_decimal 0000000180046b48     libucrt:localeconv.obj
 0003:00000b4c       __acrt_lconv_static_W_decimal 0000000180046b4c     libucrt:localeconv.obj
 0003:00000b50       _lookuptrailbytes          0000000180046b50     libucrt:read.obj
 0003:00000c74       _fltused                   0000000180046c74     LIBCMT:fltused.obj
 0003:00000c80       ??_R0?AVbad_alloc@std@@@8  0000000180046c80     ConEmuPlugin2800.obj
 0003:00000ca8       ??_R0?AVexception@std@@@8  0000000180046ca8     ConEmuPlugin2800.obj
 0003:00000cd0       ??_R0?AVbad_alloc@stdext@@@8 0000000180046cd0     common-kernel64:CEStr.obj
 0003:00000cf8       ??_R0?AVexception@stdext@@@8 0000000180046cf8     common-kernel64:CEStr.obj
 0003:00000d20       ??_R0P6AHPEAX@Z@8          0000000180046d20     common-kernel64:WObjects.obj
 0003:00000d40       ??_R0?AV<lambda_217d18733db987cb8fc0adfd68028951>@@@8 0000000180046d40     common-kernel64:MProcess.obj
 0003:00000d80       ??_R0?AVlogic_error@std@@@8 0000000180046d80     libcpmt:xthrow.obj
 0003:00000da8       ??_R0?AVlength_error@std@@@8 0000000180046da8     libcpmt:xthrow.obj
 0003:00000dd0       ??_R0?AVbad_function_call@std@@@8 0000000180046dd0     libcpmt:xthrow.obj
 0003:00000e00       ??_R0?AVbad_exception@std@@@8 0000000180046e00     libvcruntime:frame.obj
 0003:00000e30       ??_R0?AVCPluginW1900@@@8   0000000180046e30     ConEmuPlugin1900.obj
 0003:00000e58       ??_R0?AVCPluginBase@@@8    0000000180046e58     ConEmuPlugin1900.obj
 0003:00000e80       ??_R0?AVCPluginW2800@@@8   0000000180046e80     ConEmuPlugin2800.obj
 0003:00000ea8       ??_R0?AVCPluginW995@@@8    0000000180046ea8     ConEmuPlugin995.obj
 0003:00000ed0       ??_R0?AVCPluginAnsi@@@8    0000000180046ed0     ConEmuPluginA.obj
 0003:00000ef8       ??_R0?AV?$_Func_base@XPEAX@std@@@8 0000000180046ef8     common-kernel64:WObjects.obj
 0003:00000f30       ??_R0?AV?$_Func_impl_no_alloc@P6AHPEAX@ZXPEAX@std@@@8 0000000180046f30     common-kernel64:WObjects.obj
 0003:00000f70       ??_R0?AVMToolHelpProcess@@@8 0000000180046f70     common-kernel64:MProcess.obj
 0003:00000fa0       ??_R0?AV?$MToolHelp@UtagPROCESSENTRY32W@@$1?Process32FirstW@@YAHPEAXPEAU1@@Z$1?Process32NextW@@YAH01@Z@@@8 0000000180046fa0     common-kernel64:MProcess.obj
 0003:00001020       ??_R0?AV?$_Func_base@_NAEBUtagPROCESSENTRY32W@@@std@@@8 0000000180047020     common-kernel64:MProcess.obj
 0003:00001070       ??_R0?AV?$_Func_impl_no_alloc@V<lambda_217d18733db987cb8fc0adfd68028951>@@_NAEBUtagPROCESSENTRY32W@@@std@@@8 0000000180047070     common-kernel64:MProcess.obj
 0003:000010e8       ??_R0?AVtype_info@@@8      00000001800470e8     LIBCMT:std_type_info_static.obj
 0003:00001110       ?ghExtConModule@@3PEAUHINSTANCE__@@EA 0000000180047110     ConEmuInjects.obj
 0003:00001118       ?ghHooksModule@@3PEAUHINSTANCE__@@EA 0000000180047118     ConEmuInjects.obj
 0003:00001120       ?gbHooksModuleLoaded@@3HA  0000000180047120     ConEmuInjects.obj
 0003:00001128       ?SetHookCallbacks@@3P6A_NPEBDPEB_WPEAUHINSTANCE__@@P6AHPEAUHookCallbackArg@@@Z44@ZEA 0000000180047128     ConEmuInjects.obj
 0003:00001130       ?SetLoadLibraryCallback@@3P6AXPEAUHINSTANCE__@@P6AX0@Z1@ZEA 0000000180047130     ConEmuInjects.obj
 0003:00001138       ?SetFarHookMode@@3P6AXPEAUHookModeFar@@@ZEA 0000000180047138     ConEmuInjects.obj
 0003:00001140       ?SetConsoleCallbacks@@3P6A_NPEAUHINSTANCE__@@KPEAP6AHPEAUHookCallbackArg@@@Z@ZEA 0000000180047140     ConEmuInjects.obj
 0003:00001148       ?_OptionsStorage@?1??__local_stdio_printf_options@@9@4_KA 0000000180047148     ConEmuInjects.obj
 0003:00001150       ?InfoW1900@@3PEAUPluginStartupInfo@@EA 0000000180047150     ConEmuPlugin1900.obj
 0003:00001158       ?FSFW1900@@3PEAUFarStandardFunctions@@EA 0000000180047158     ConEmuPlugin1900.obj
 0003:00001160       ?LastColor@?1??Color2FgIndex@Far3Color@@SAXKAEAGPEBK@Z@4KA 0000000180047160     ConEmuPlugin1900.obj
 0003:00001164       ?LastIndex@?1??Color2FgIndex@Far3Color@@SAXKAEAGPEBK@Z@4HA 0000000180047164     ConEmuPlugin1900.obj
 0003:00001168       ?LastColor@?1??Color2BgIndex@Far3Color@@SAXKHAEAGPEBK@Z@4KA 0000000180047168     ConEmuPlugin1900.obj
 0003:0000116c       ?LastIndex@?1??Color2BgIndex@Far3Color@@SAXKHAEAGPEBK@Z@4HA 000000018004716c     ConEmuPlugin1900.obj
 0003:00001428       ?InfoW2800@@3PEAUPluginStartupInfo@@EA 0000000180047428     ConEmuPlugin2800.obj
 0003:00001430       ?FSFW2800@@3PEAUFarStandardFunctions@@EA 0000000180047430     ConEmuPlugin2800.obj
 0003:00001720       ?InfoW995@@3PEAUPluginStartupInfo@@EA 0000000180047720     ConEmuPlugin995.obj
 0003:00001728       ?FSFW995@@3PEAUFarStandardFunctions@@EA 0000000180047728     ConEmuPlugin995.obj
 0003:00001990       ?InfoA@@3PEAUPluginStartupInfo@@EA 0000000180047990     ConEmuPluginA.obj
 0003:00001998       ?FSFA@@3PEAUFarStandardFunctions@@EA 0000000180047998     ConEmuPluginA.obj
 0003:00001cb0       ?gLastMouseReadEvent@@3U_MOUSE_EVENT_RECORD@@A 0000000180047cb0     ConEmuPluginBase.obj
 0003:00001cc0       ?gnDummyMouseEventFromMacro@@3JA 0000000180047cc0     ConEmuPluginBase.obj
 0003:00001cc4       ?gbUngetDummyMouseEvent@@3HA 0000000180047cc4     ConEmuPluginBase.obj
 0003:00001cc8       ?gpPlugin@@3PEAVCPluginBase@@EA 0000000180047cc8     ConEmuPluginBase.obj
 0003:00001cd0       ?gbWasDetached@@3HA        0000000180047cd0     ConEmuPluginBase.obj
 0003:00001cd4       ?gbFarWndVisible@@3HA      0000000180047cd4     ConEmuPluginBase.obj
 0003:00001cd8       ?gsbiDetached@@3U_CONSOLE_SCREEN_BUFFER_INFO@@A 0000000180047cd8     ConEmuPluginBase.obj
 0003:00001cee       ?gbExitFarCalled@@3_NA     0000000180047cee     ConEmuPluginBase.obj
 0003:00001cef       ?gbSynchroProhibited@@3_NA 0000000180047cef     ConEmuPluginBase.obj
 0003:00001cf0       ?gnPeekReadCount@@3KA      0000000180047cf0     ConEmuPluginBase.obj
 0003:00001cf4       ?gnInLongOperation@@3JA    0000000180047cf4     ConEmuPluginBase.obj
 0003:00001cf8       ?gdwPreDetachGuiPID@@3KA   0000000180047cf8     ConEmuPluginBase.obj
 0003:00001cfc       ?gdwServerPID@@3KA         0000000180047cfc     ConEmuPluginBase.obj
 0003:00001d00       ?gnMainThreadIdInitial@@3KA 0000000180047d00     ConEmuPluginBase.obj
 0003:00001d04       ?gnMonitorThreadId@@3KA    0000000180047d04     ConEmuPluginBase.obj
 0003:00001d08       ?ghMonitorThread@@3PEAXEA  0000000180047d08     ConEmuPluginBase.obj
 0003:00001d10       ?ghSetWndSendTabsEvent@@3PEAXEA 0000000180047d10     ConEmuPluginBase.obj
 0003:00001d18       ?gbRequestUpdateTabs@@3HA  0000000180047d18     ConEmuPluginBase.obj
 0003:00001d1c       ?gbClosingModalViewerEditor@@3HA 0000000180047d1c     ConEmuPluginBase.obj
 0003:00001d20       ?gnAllowDummyMouseEvent@@3JA 0000000180047d20     ConEmuPluginBase.obj
 0003:00001d24       ?gnDataSize@@3KA           0000000180047d24     ConEmuPluginBase.obj
 0003:00001d28       ?csData@@3PEAVMSection@@EA 0000000180047d28     ConEmuPluginBase.obj
 0003:00001d30       ?gpData@@3PEAEEA           0000000180047d30     ConEmuPluginBase.obj
 0003:00001d38       ?gpCursor@@3PEAEEA         0000000180047d38     ConEmuPluginBase.obj
 0003:00001d40       ?gpReqCommandData@@3PEAXEA 0000000180047d40     ConEmuPluginBase.obj
 0003:00001d48       ?ghReqCommandEvent@@3PEAXEA 0000000180047d48     ConEmuPluginBase.obj
 0003:00001d50       ?gbReqCommandWaiting@@3HA  0000000180047d50     ConEmuPluginBase.obj
 0003:00001d54       ?gnMsgTabChanged@@3IA      0000000180047d54     ConEmuPluginBase.obj
 0003:00001d58       ?csTabs@@3PEAVMSection@@EA 0000000180047d58     ConEmuPluginBase.obj
 0003:00001d60       ?gbPlugKeyChanged@@3HA     0000000180047d60     ConEmuPluginBase.obj
 0003:00001d64       ?gbNeedPostTabSend@@3HA    0000000180047d64     ConEmuPluginBase.obj
 0003:00001d68       ?ghRegMonitorKey@@3PEAUHKEY__@@EA 0000000180047d68     ConEmuPluginBase.obj
 0003:00001d70       ?ghRegMonitorEvt@@3PEAXEA  0000000180047d70     ConEmuPluginBase.obj
 0003:00001d78       ?ghPluginSemaphore@@3PEAXEA 0000000180047d78     ConEmuPluginBase.obj
 0003:00001d80       ?gsFarLang@@3PA_WA         0000000180047d80     ConEmuPluginBase.obj
 0003:00001e00       ?gbNeedPostEditCheck@@3HA  0000000180047e00     ConEmuPluginBase.obj
 0003:00001e04       ?gbNeedPostReloadFarInfo@@3HA 0000000180047e04     ConEmuPluginBase.obj
 0003:00001e08       ?gbNeedReloadFarDir@@3HA   0000000180047e08     ConEmuPluginBase.obj
 0003:00001e0c       ?gnNeedPostTabSendTick@@3KA 0000000180047e0c     ConEmuPluginBase.obj
 0003:00001e10       ?gpConMap@@3PEAV?$MFileMapping@UCESERVER_CONSOLE_MAPPING_HDR@@@@EA 0000000180047e10     ConEmuPluginBase.obj
 0003:00001e18       ?gbStartedUnderConsole2@@3HA 0000000180047e18     ConEmuPluginBase.obj
 0003:00001e1c       ?gnSelfPID@@3KA            0000000180047e1c     ConEmuPluginBase.obj
 0003:00001e20       ?ghFarInfoMapping@@3PEAXEA 0000000180047e20     ConEmuPluginBase.obj
 0003:00001e28       ?gpFarInfo@@3PEAUCEFAR_INFO_MAPPING@@EA 0000000180047e28     ConEmuPluginBase.obj
 0003:00001e30       ?gpFarInfoMapping@@3PEAUCEFAR_INFO_MAPPING@@EA 0000000180047e30     ConEmuPluginBase.obj
 0003:00001e38       ?ghFarAliveEvent@@3PEAXEA  0000000180047e38     ConEmuPluginBase.obj
 0003:00001e40       ?ghConEmuCtrlPressed@@3PEAXEA 0000000180047e40     ConEmuPluginBase.obj
 0003:00001e48       ?ghConEmuShiftPressed@@3PEAXEA 0000000180047e48     ConEmuPluginBase.obj
 0003:00001e50       ?gbWaitConsoleInputEmpty@@3HA 0000000180047e50     ConEmuPluginBase.obj
 0003:00001e54       ?gbWaitConsoleWrite@@3HA   0000000180047e54     ConEmuPluginBase.obj
 0003:00001e58       ?ghConsoleInputEmpty@@3PEAXEA 0000000180047e58     ConEmuPluginBase.obj
 0003:00001e60       ?ghConsoleWrite@@3PEAXEA   0000000180047e60     ConEmuPluginBase.obj
 0003:00001e68       ?gbInputSynchroPending@@3_NA 0000000180047e68     ConEmuPluginBase.obj
 0003:00001e69       ?gb_DllUniqueWarned@CPluginBase@@1_NA 0000000180047e69     ConEmuPluginBase.obj
 0003:00001e6a       ?gb_DllUniqueChecked@CPluginBase@@1_NA 0000000180047e6a     ConEmuPluginBase.obj
 0003:00001e6b       ?gb_ProtocolWarned@CPluginBase@@1_NA 0000000180047e6b     ConEmuPluginBase.obj
 0003:00001e6c       ?gnMainThreadId@@3KA       0000000180047e6c     ConEmuPluginBase.obj
 0003:00001e70       ?ghPluginModule@@3PEAUHINSTANCE__@@EA 0000000180047e70     ConEmuPluginBase.obj
 0003:00001e78       ?maxTabCount@@3HA          0000000180047e78     ConEmuPluginBase.obj
 0003:00001e7c       ?lastWindowCount@@3HA      0000000180047e7c     ConEmuPluginBase.obj
 0003:00001e80       ?gszDir1@@3PA_WA           0000000180047e80     ConEmuPluginBase.obj
 0003:00002680       ?gszDir2@@3PA_WA           0000000180048680     ConEmuPluginBase.obj
 0003:00002e80       ?gnCurTabCount@@3HA        0000000180048e80     ConEmuPluginBase.obj
 0003:00002e84       ?gbIgnoreUpdateTabs@@3HA   0000000180048e84     ConEmuPluginBase.obj
 0003:00002e88       ?gpCmdRet@@3PEAUCESERVER_REQ@@EA 0000000180048e88     ConEmuPluginBase.obj
 0003:00002e90       ?ghConEmuWndDC@@3PEAUHWND__@@EA 0000000180048e90     ConEmuPluginBase.obj
 0003:00002e98       ?FarHwnd@@3PEAUHWND__@@EA  0000000180048e98     ConEmuPluginBase.obj
 0003:00002ea0       ?gFarVersion@@3UFarVersion@@A 0000000180048ea0     ConEmuPluginBase.obj
 0003:00002eac       ?gbForceSendTabs@@3HA      0000000180048eac     ConEmuPluginBase.obj
 0003:00002eb0       ?gpConMapInfo@@3PEBUCESERVER_CONSOLE_MAPPING_HDR@@EB 0000000180048eb0     ConEmuPluginBase.obj
 0003:00002eb8       ?gpTabs@@3PEAUCESERVER_REQ@@EA 0000000180048eb8     ConEmuPluginBase.obj
 0003:00002ec0       ?gnCurrentWindowType@@3HA  0000000180048ec0     ConEmuPluginBase.obj
 0003:00002ec4       ?gnSynchroCount@@3HA       0000000180048ec4     ConEmuPluginBase.obj
 0003:00002ec8       ?gPanelRegLeft@@3UPanelViewRegInfo@@A 0000000180048ec8     ConEmuPluginBase.obj
 0003:00002ef8       ?gPanelRegRight@@3UPanelViewRegInfo@@A 0000000180048ef8     ConEmuPluginBase.obj
 0003:00002f28       ?TerminalMode@@3HA         0000000180048f28     ConEmuPluginBase.obj
 0003:00002f48       ?csbi@@3U_CONSOLE_SCREEN_BUFFER_INFO@@A 0000000180048f48     LogBrowser.obj
 0003:00002f5e       ?gbShowAttrsOnly@@3_NA     0000000180048f5e     LogBrowser.obj
 0003:00002f60       ?gnPage@@3HA               0000000180048f60     LogBrowser.obj
 0003:00002f68       ?gbBgPluginsAllowed@@3HA   0000000180048f68     PluginBackground.obj
 0003:00002f6c       ?gbNeedBgActivate@@3HA     0000000180048f6c     PluginBackground.obj
 0003:00002f70       ?gpBgPlugin@@3PEAVCPluginBackground@@EA 0000000180048f70     PluginBackground.obj
 0003:00002f80       ?ghServerTerminateEvent@@3PEAXEA 0000000180048f80     PluginSrv.obj
 0003:00002f88       ?gpPlugServer@@3PEAU?$PipeServer@UCESERVER_REQ@@@@EA 0000000180048f88     PluginSrv.obj
 0003:00002f90       ?gszPluginServerPipe@@3PA_WA 0000000180048f90     PluginSrv.obj
 0003:00003198       ?gbForcedServerTermination@@3_NA 0000000180049198     PluginSrv.obj
 0003:000031a0       ?g_LastDeletePtr@@3PEAXEA  00000001800491a0     common-kernel64:Memory.obj
 0003:000031b8       ?gpLocalSecurity@@3PEAU_SECURITY_ATTRIBUTES@@EA 00000001800491b8     common-kernel64:ConEmuCheck.obj
 0003:000031c0       ?ghWorkingModule@@3UHANDLE2@@A 00000001800491c0     common-kernel64:ConEmuCheck.obj
 0003:000031c8       ?gfGetRealConsoleWindow@@3P6APEAUHWND__@@XZEA 00000001800491c8     common-kernel64:ConEmuCheck.obj
 0003:00003210       ?g_ThreadsIdx@@3JA         0000000180049210     common-kernel64:WThreads.obj
 0003:0000ba28       ?gbInCommonShutdown@@3HA   0000000180051a28     common-kernel64:Common.obj
 0003:0000ba30       ?gNullDesc@@3PEAVMNullDesc@@EA 0000000180051a30     common-kernel64:MSecurity.obj
 0003:0000ba38       ?gfnSearchAppPaths@@3P6A_NPEB_WAEAUCEStr@@_NPEAVCEnvRestorer@@@ZEA 0000000180051a38     common-kernel64:WObjects.obj
 0003:0000ba58       ?hkFunc@@3UHkFunc@@A       0000000180051a58     common-kernel64:HkFunc.obj
 0003:0000ba90       ?gsMapHelper@@3UConsoleSectionHelper@@A 0000000180051a90     common-user64:WConsoleEx.obj
 0003:0000baa0       _tls_index                 0000000180051aa0     LIBCMT:tlssup.obj
 0003:0000baf8       __scrt_current_native_startup_state 0000000180051af8     LIBCMT:utility.obj
 0003:0000bb00       __scrt_native_startup_lock 0000000180051b00     LIBCMT:utility.obj
 0003:0000c0b0       __scrt_debugger_hook_flag  00000001800520b0     LIBCMT:utility_desktop.obj
 0003:0000c0b8       __castguard_check_failure_os_handled_fptr 00000001800520b8     LIBCMT:guard_support.obj
 0003:0000c0c0       ?__type_info_root_node@@3U__type_info_node@@A 00000001800520c0     LIBCMT:tncleanup.obj
 0003:0000c0d0       ?_OptionsStorage@?1??__local_stdio_scanf_options@@9@4_KA 00000001800520d0     LIBCMT:default_local_stdio_options.obj
 0003:0000c0d8       __favor                    00000001800520d8     LIBCMT:cpu_disp.obj
 0003:0000c0e0       ?__WinRTOutOfMemoryExceptionCallback@@3P6APEAXXZEA 00000001800520e0     libvcruntime:ehhelpers.obj
 0003:0000c170       __pPurecall                0000000180052170     libvcruntime:purevirt_data.obj
 0003:0000c1a8       ?pArgList@UnDecorator@@0PEAVReplicator@@EA 00000001800521a8     libvcruntime:undname.obj
 0003:0000c1b0       ?pZNameList@UnDecorator@@0PEAVReplicator@@EA 00000001800521b0     libvcruntime:undname.obj
 0003:0000c1b8       ?pTemplateArgList@UnDecorator@@0PEAVReplicator@@EA 00000001800521b8     libvcruntime:undname.obj
 0003:0000c1c0       ?gName@UnDecorator@@0PEBDEB 00000001800521c0     libvcruntime:undname.obj
 0003:0000c1c8       ?name@UnDecorator@@0PEBDEB 00000001800521c8     libvcruntime:undname.obj
 0003:0000c1d0       ?disableFlags@UnDecorator@@0KA 00000001800521d0     libvcruntime:undname.obj
 0003:0000c1d4       ?fExplicitTemplateParams@UnDecorator@@0_NA 00000001800521d4     libvcruntime:undname.obj
 0003:0000c1d5       ?fGetTemplateArgumentList@UnDecorator@@0_NA 00000001800521d5     libvcruntime:undname.obj
 0003:0000c1d8       ?m_pGetParameter@UnDecorator@@0P6APEADJ@ZEA 00000001800521d8     libvcruntime:undname.obj
 0003:0000c1e0       ?m_CHPENameOffset@UnDecorator@@0KA 00000001800521e0     libvcruntime:undname.obj
 0003:0000c1e4       ?m_recursionLevel@UnDecorator@@0KA 00000001800521e4     libvcruntime:undname.obj
 0003:0000c268       ?c_exit_complete@?1???R<lambda_6e4b09c48022b2350581041d5f6b0c4c>@@QEBA@XZ@4_NA 0000000180052268     libucrt:exit.obj
 0003:0000c378       _environ_table             0000000180052378     libucrt:environment_initialization.obj
 0003:0000c380       _wenviron_table            0000000180052380     libucrt:environment_initialization.obj
 0003:0000c388       __dcrt_initial_wide_environment 0000000180052388     libucrt:environment_initialization.obj
 0003:0000c390       __dcrt_initial_narrow_environment 0000000180052390     libucrt:environment_initialization.obj
 0003:0000c398       __acrt_atexit_table        0000000180052398     libucrt:onexit.obj
 0003:0000c3b0       __acrt_at_quick_exit_table 00000001800523b0     libucrt:onexit.obj
 0003:0000c3d0       _nstream                   00000001800523d0     libucrt:_file.obj
 0003:0000c3d8       __piob                     00000001800523d8     libucrt:_file.obj
 0003:0000c3e8       __acrt_stdout_buffer       00000001800523e8     libucrt:_sftbuf.obj
 0003:0000c3f0       __acrt_stderr_buffer       00000001800523f0     libucrt:_sftbuf.obj
 0003:0000c3f8       __acrt_locale_changed_data 00000001800523f8     libucrt:wsetlocale.obj
 0003:0000c400       __acrt_current_locale_data 0000000180052400     libucrt:nlsdata.obj
 0003:0000c410       __pioinfo                  0000000180052410     libucrt:ioinit.obj
 0003:0000c810       _nhandle                   0000000180052810     libucrt:ioinit.obj
 0003:0000ca58       _mbctype                   0000000180052a58     libucrt:mbctype.obj
 0003:0000ca60       _mbcasemap                 0000000180052a60     libucrt:mbctype.obj
 0003:0000ca68       __acrt_current_multibyte_data 0000000180052a68     libucrt:mbctype.obj
 0003:0000ca78       _pgmptr                    0000000180052a78     libucrt:argv_data.obj
 0003:0000ca80       __argc                     0000000180052a80     libucrt:argv_data.obj
 0003:0000ca88       __argv                     0000000180052a88     libucrt:argv_data.obj
 0003:0000ca90       __wargv                    0000000180052a90     libucrt:argv_data.obj
 0003:0000ca98       _acmdln                    0000000180052a98     libucrt:argv_data.obj
 0003:0000caa0       _wcmdln                    0000000180052aa0     libucrt:argv_data.obj
 0003:0000cc60       __acrt_heap                0000000180052c60     libucrt:heap_handle.obj
 0003:0000cc9c       __acrt_lconv_static_null   0000000180052c9c     libucrt:localeconv.obj
 0003:0000cca0       __acrt_lconv_static_W_null 0000000180052ca0     libucrt:localeconv.obj
 0003:0000ccb4       __fma3_is_available        0000000180052cb4     libucrt:fma3_available.obj
 0003:0000ccb8       __use_fma3_lib             0000000180052cb8     libucrt:fma3_available.obj
 0003:0000ccc0       ?g_LastSetConsoleFont@@3UMY_CONSOLE_FONT_INFOEX@@A 0000000180052cc0     common-kernel64:WConsole.obj
 0003:0000cd34       __scrt_ucrt_dll_is_in_use  0000000180052d34     <common>
 0003:0000cd38       __dyn_tls_init_callback    0000000180052d38     <common>

 entry point at        0001:0001ceb4

 Static symbols

 0000:fffa7000       .debug$S                   0000000180000000     ConEmu.x64.exp
 0000:fffa7000       .debug$S                   0000000180000000     advapi32:ADVAPI32.dll
 0000:fffa7000       .debug$S                   0000000180000000     advapi32:ADVAPI32.dll
 0000:fffa7000       .debug$S                   0000000180000000     advapi32:ADVAPI32.dll
 0000:fffa7000       .debug$S                   0000000180000000     advapi32:ADVAPI32.dll
 0000:fffa7000       .debug$S                   0000000180000000     advapi32:ADVAPI32.dll
 0000:fffa7000       .debug$S                   0000000180000000     advapi32:ADVAPI32.dll
 0000:fffa7000       .debug$S                   0000000180000000     advapi32:ADVAPI32.dll
 0000:fffa7000       .debug$S                   0000000180000000     advapi32:ADVAPI32.dll
 0000:fffa7000       .debug$S                   0000000180000000     advapi32:ADVAPI32.dll
 0000:fffa7000       .debug$S                   0000000180000000     advapi32:ADVAPI32.dll
 0000:fffa7000       .debug$S                   0000000180000000     advapi32:ADVAPI32.dll
 0000:fffa7000       .debug$S                   0000000180000000     advapi32:ADVAPI32.dll
 0000:fffa7000       .debug$S                   0000000180000000     advapi32:ADVAPI32.dll
 0000:fffa7000       .debug$S                   0000000180000000     advapi32:ADVAPI32.dll
 0000:fffa7000       .debug$S                   0000000180000000     advapi32:ADVAPI32.dll
 0000:fffa7000       .debug$S                   0000000180000000     gdi32:GDI32.dll
 0000:fffa7000       .debug$S                   0000000180000000     gdi32:GDI32.dll
 0000:fffa7000       .debug$S                   0000000180000000     gdi32:GDI32.dll
 0000:fffa7000       .debug$S                   0000000180000000     gdi32:GDI32.dll
 0000:fffa7000       .debug$S                   0000000180000000     gdi32:GDI32.dll
 0000:fffa7000       .debug$S                   0000000180000000     gdi32:GDI32.dll
 0000:fffa7000       .debug$S                   0000000180000000     gdi32:GDI32.dll
 0000:fffa7000       .debug$S                   0000000180000000     gdi32:GDI32.dll
 0000:fffa7000       .debug$S                   0000000180000000     gdi32:GDI32.dll
 0000:fffa7000       .debug$S                   0000000180000000     gdi32:GDI32.dll
 0000:fffa7000       .debug$S                   0000000180000000     gdi32:GDI32.dll
 0000:fffa7000       .debug$S                   0000000180000000     gdi32:GDI32.dll
 0000:fffa7000       .debug$S                   0000000180000000     gdi32:GDI32.dll
 0000:fffa7000       .debug$S                   0000000180000000     kernel32:KERNEL32.dll
 0000:fffa7000       .debug$S                   0000000180000000     kernel32:KERNEL32.dll
 0000:fffa7000       .debug$S                   0000000180000000     kernel32:KERNEL32.dll
 0000:fffa7000       .debug$S                   0000000180000000     kernel32:KERNEL32.dll
 0000:fffa7000       .debug$S                   0000000180000000     kernel32:KERNEL32.dll
 0000:fffa7000       .debug$S                   0000000180000000     kernel32:KERNEL32.dll
 0000:fffa7000       .debug$S                   0000000180000000     kernel32:KERNEL32.dll
 0000:fffa7000       .debug$S                   0000000180000000     kernel32:KERNEL32.dll
 0000:fffa7000       .debug$S                   0000000180000000     kernel32:KERNEL32.dll
 0000:fffa7000       .debug$S                   0000000180000000     kernel32:KERNEL32.dll
 0000:fffa7000       .debug$S                   0000000180000000     kernel32:KERNEL32.dll
 0000:fffa7000       .debug$S                   0000000180000000     kernel32:KERNEL32.dll
 0000:fffa7000       .debug$S                   0000000180000000     kernel32:KERNEL32.dll
 0000:fffa7000       .debug$S                   0000000180000000     kernel32:KERNEL32.dll
 0000:fffa7000       .debug$S                   0000000180000000     kernel32:KERNEL32.dll
 0000:fffa7000       .debug$S                   0000000180000000     kernel32:KERNEL32.dll
 0000:fffa7000       .debug$S                   0000000180000000     kernel32:KERNEL32.dll
 0000:fffa7000       .debug$S                   0000000180000000     kernel32:KERNEL32.dll
 0000:fffa7000       .debug$S                   0000000180000000     kernel32:KERNEL32.dll
 0000:fffa7000       .debug$S                   0000000180000000     kernel32:KERNEL32.dll
 0000:fffa7000       .debug$S                   0000000180000000     kernel32:KERNEL32.dll
 0000:fffa7000       .debug$S                   0000000180000000     kernel32:KERNEL32.dll
 0000:fffa7000       .debug$S                   0000000180000000     kernel32:KERNEL32.dll
 0000:fffa7000       .debug$S                   0000000180000000     kernel32:KERNEL32.dll
 0000:fffa7000       .debug$S                   0000000180000000     kernel32:KERNEL32.dll
 0000:fffa7000       .debug$S                   0000000180000000     kernel32:KERNEL32.dll
 0000:fffa7000       .debug$S                   0000000180000000     kernel32:KERNEL32.dll
 0000:fffa7000       .debug$S                   0000000180000000     kernel32:KERNEL32.dll
 0000:fffa7000       .debug$S                   0000000180000000     kernel32:KERNEL32.dll
 0000:fffa7000       .debug$S                   0000000180000000     kernel32:KERNEL32.dll
 0000:fffa7000       .debug$S                   0000000180000000     kernel32:KERNEL32.dll
 0000:fffa7000       .debug$S                   0000000180000000     kernel32:KERNEL32.dll
 0000:fffa7000       .debug$S                   0000000180000000     kernel32:KERNEL32.dll
 0000:fffa7000       .debug$S                   0000000180000000     kernel32:KERNEL32.dll
 0000:fffa7000       .debug$S                   0000000180000000     kernel32:KERNEL32.dll
 0000:fffa7000       .debug$S                   0000000180000000     kernel32:KERNEL32.dll
 0000:fffa7000       .debug$S                   0000000180000000     kernel32:KERNEL32.dll
 0000:fffa7000       .debug$S                   0000000180000000     kernel32:KERNEL32.dll
 0000:fffa7000       .debug$S                   0000000180000000     kernel32:KERNEL32.dll
 0000:fffa7000       .debug$S                   0000000180000000     kernel32:KERNEL32.dll
 0000:fffa7000       .debug$S                   0000000180000000     kernel32:KERNEL32.dll
 0000:fffa7000       .debug$S                   0000000180000000     kernel32:KERNEL32.dll
 0000:fffa7000       .debug$S                   0000000180000000     kernel32:KERNEL32.dll
 0000:fffa7000       .debug$S                   0000000180000000     kernel32:KERNEL32.dll
 0000:fffa7000       .debug$S                   0000000180000000     kernel32:KERNEL32.dll
 0000:fffa7000       .debug$S                   0000000180000000     kernel32:KERNEL32.dll
 0000:fffa7000       .debug$S                   0000000180000000     kernel32:KERNEL32.dll
 0000:fffa7000       .debug$S                   0000000180000000     kernel32:KERNEL32.dll
 0000:fffa7000       .debug$S                   0000000180000000     kernel32:KERNEL32.dll
 0000:fffa7000       .debug$S                   0000000180000000     kernel32:KERNEL32.dll
 0000:fffa7000       .debug$S                   0000000180000000     kernel32:KERNEL32.dll
 0000:fffa7000       .debug$S                   0000000180000000     kernel32:KERNEL32.dll
 0000:fffa7000       .debug$S                   0000000180000000     kernel32:KERNEL32.dll
 0000:fffa7000       .debug$S                   0000000180000000     kernel32:KERNEL32.dll
 0000:fffa7000       .debug$S                   0000000180000000     kernel32:KERNEL32.dll
 0000:fffa7000       .debug$S                   0000000180000000     kernel32:KERNEL32.dll
 0000:fffa7000       .debug$S                   0000000180000000     kernel32:KERNEL32.dll
 0000:fffa7000       .debug$S                   0000000180000000     kernel32:KERNEL32.dll
 0000:fffa7000       .debug$S                   0000000180000000     kernel32:KERNEL32.dll
 0000:fffa7000       .debug$S                   0000000180000000     kernel32:KERNEL32.dll
 0000:fffa7000       .debug$S                   0000000180000000     kernel32:KERNEL32.dll
 0000:fffa7000       .debug$S                   0000000180000000     kernel32:KERNEL32.dll
 0000:fffa7000       .debug$S                   0000000180000000     kernel32:KERNEL32.dll
 0000:fffa7000       .debug$S                   0000000180000000     kernel32:KERNEL32.dll
 0000:fffa7000       .debug$S                   0000000180000000     kernel32:KERNEL32.dll
 0000:fffa7000       .debug$S                   0000000180000000     kernel32:KERNEL32.dll
 0000:fffa7000       .debug$S                   0000000180000000     kernel32:KERNEL32.dll
 0000:fffa7000       .debug$S                   0000000180000000     kernel32:KERNEL32.dll
 0000:fffa7000       .debug$S                   0000000180000000     kernel32:KERNEL32.dll
 0000:fffa7000       .debug$S                   0000000180000000     kernel32:KERNEL32.dll
 0000:fffa7000       .debug$S                   0000000180000000     kernel32:KERNEL32.dll
 0000:fffa7000       .debug$S                   0000000180000000     kernel32:KERNEL32.dll
 0000:fffa7000       .debug$S                   0000000180000000     kernel32:KERNEL32.dll
 0000:fffa7000       .debug$S                   0000000180000000     kernel32:KERNEL32.dll
 0000:fffa7000       .debug$S                   0000000180000000     kernel32:KERNEL32.dll
 0000:fffa7000       .debug$S                   0000000180000000     kernel32:KERNEL32.dll
 0000:fffa7000       .debug$S                   0000000180000000     kernel32:KERNEL32.dll
 0000:fffa7000       .debug$S                   0000000180000000     kernel32:KERNEL32.dll
 0000:fffa7000       .debug$S                   0000000180000000     kernel32:KERNEL32.dll
 0000:fffa7000       .debug$S                   0000000180000000     kernel32:KERNEL32.dll
 0000:fffa7000       .debug$S                   0000000180000000     kernel32:KERNEL32.dll
 0000:fffa7000       .debug$S                   0000000180000000     kernel32:KERNEL32.dll
 0000:fffa7000       .debug$S                   0000000180000000     kernel32:KERNEL32.dll
 0000:fffa7000       .debug$S                   0000000180000000     kernel32:KERNEL32.dll
 0000:fffa7000       .debug$S                   0000000180000000     kernel32:KERNEL32.dll
 0000:fffa7000       .debug$S                   0000000180000000     kernel32:KERNEL32.dll
 0000:fffa7000       .debug$S                   0000000180000000     kernel32:KERNEL32.dll
 0000:fffa7000       .debug$S                   0000000180000000     kernel32:KERNEL32.dll
 0000:fffa7000       .debug$S                   0000000180000000     kernel32:KERNEL32.dll
 0000:fffa7000       .debug$S                   0000000180000000     kernel32:KERNEL32.dll
 0000:fffa7000       .debug$S                   0000000180000000     kernel32:KERNEL32.dll
 0000:fffa7000       .debug$S                   0000000180000000     kernel32:KERNEL32.dll
 0000:fffa7000       .debug$S                   0000000180000000     kernel32:KERNEL32.dll
 0000:fffa7000       .debug$S                   0000000180000000     kernel32:KERNEL32.dll
 0000:fffa7000       .debug$S                   0000000180000000     kernel32:KERNEL32.dll
 0000:fffa7000       .debug$S                   0000000180000000     kernel32:KERNEL32.dll
 0000:fffa7000       .debug$S                   0000000180000000     kernel32:KERNEL32.dll
 0000:fffa7000       .debug$S                   0000000180000000     kernel32:KERNEL32.dll
 0000:fffa7000       .debug$S                   0000000180000000     kernel32:KERNEL32.dll
 0000:fffa7000       .debug$S                   0000000180000000     kernel32:KERNEL32.dll
 0000:fffa7000       .debug$S                   0000000180000000     kernel32:KERNEL32.dll
 0000:fffa7000       .debug$S                   0000000180000000     kernel32:KERNEL32.dll
 0000:fffa7000       .debug$S                   0000000180000000     kernel32:KERNEL32.dll
 0000:fffa7000       .debug$S                   0000000180000000     kernel32:KERNEL32.dll
 0000:fffa7000       .debug$S                   0000000180000000     kernel32:KERNEL32.dll
 0000:fffa7000       .debug$S                   0000000180000000     kernel32:KERNEL32.dll
 0000:fffa7000       .debug$S                   0000000180000000     kernel32:KERNEL32.dll
 0000:fffa7000       .debug$S                   0000000180000000     kernel32:KERNEL32.dll
 0000:fffa7000       .debug$S                   0000000180000000     kernel32:KERNEL32.dll
 0000:fffa7000       .debug$S                   0000000180000000     kernel32:KERNEL32.dll
 0000:fffa7000       .debug$S                   0000000180000000     kernel32:KERNEL32.dll
 0000:fffa7000       .debug$S                   0000000180000000     kernel32:KERNEL32.dll
 0000:fffa7000       .debug$S                   0000000180000000     kernel32:KERNEL32.dll
 0000:fffa7000       .debug$S                   0000000180000000     kernel32:KERNEL32.dll
 0000:fffa7000       .debug$S                   0000000180000000     kernel32:KERNEL32.dll
 0000:fffa7000       .debug$S                   0000000180000000     kernel32:KERNEL32.dll
 0000:fffa7000       .debug$S                   0000000180000000     kernel32:KERNEL32.dll
 0000:fffa7000       .debug$S                   0000000180000000     kernel32:KERNEL32.dll
 0000:fffa7000       .debug$S                   0000000180000000     kernel32:KERNEL32.dll
 0000:fffa7000       .debug$S                   0000000180000000     kernel32:KERNEL32.dll
 0000:fffa7000       .debug$S                   0000000180000000     kernel32:KERNEL32.dll
 0000:fffa7000       .debug$S                   0000000180000000     kernel32:KERNEL32.dll
 0000:fffa7000       .debug$S                   0000000180000000     kernel32:KERNEL32.dll
 0000:fffa7000       .debug$S                   0000000180000000     kernel32:KERNEL32.dll
 0000:fffa7000       .debug$S                   0000000180000000     kernel32:KERNEL32.dll
 0000:fffa7000       .debug$S                   0000000180000000     kernel32:KERNEL32.dll
 0000:fffa7000       .debug$S                   0000000180000000     kernel32:KERNEL32.dll
 0000:fffa7000       .debug$S                   0000000180000000     kernel32:KERNEL32.dll
 0000:fffa7000       .debug$S                   0000000180000000     kernel32:KERNEL32.dll
 0000:fffa7000       .debug$S                   0000000180000000     kernel32:KERNEL32.dll
 0000:fffa7000       .debug$S                   0000000180000000     kernel32:KERNEL32.dll
 0000:fffa7000       .debug$S                   0000000180000000     kernel32:KERNEL32.dll
 0000:fffa7000       .debug$S                   0000000180000000     kernel32:KERNEL32.dll
 0000:fffa7000       .debug$S                   0000000180000000     kernel32:KERNEL32.dll
 0000:fffa7000       .debug$S                   0000000180000000     kernel32:KERNEL32.dll
 0000:fffa7000       .debug$S                   0000000180000000     kernel32:KERNEL32.dll
 0000:fffa7000       .debug$S                   0000000180000000     kernel32:KERNEL32.dll
 0000:fffa7000       .debug$S                   0000000180000000     kernel32:KERNEL32.dll
 0000:fffa7000       .debug$S                   0000000180000000     kernel32:KERNEL32.dll
 0000:fffa7000       .debug$S                   0000000180000000     kernel32:KERNEL32.dll
 0000:fffa7000       .debug$S                   0000000180000000     kernel32:KERNEL32.dll
 0000:fffa7000       .debug$S                   0000000180000000     kernel32:KERNEL32.dll
 0000:fffa7000       .debug$S                   0000000180000000     kernel32:KERNEL32.dll
 0000:fffa7000       .debug$S                   0000000180000000     kernel32:KERNEL32.dll
 0000:fffa7000       .debug$S                   0000000180000000     kernel32:KERNEL32.dll
 0000:fffa7000       .debug$S                   0000000180000000     kernel32:KERNEL32.dll
 0000:fffa7000       .debug$S                   0000000180000000     kernel32:KERNEL32.dll
 0000:fffa7000       .debug$S                   0000000180000000     kernel32:KERNEL32.dll
 0000:fffa7000       .debug$S                   0000000180000000     kernel32:KERNEL32.dll
 0000:fffa7000       .debug$S                   0000000180000000     kernel32:KERNEL32.dll
 0000:fffa7000       .debug$S                   0000000180000000     kernel32:KERNEL32.dll
 0000:fffa7000       .debug$S                   0000000180000000     kernel32:KERNEL32.dll
 0000:fffa7000       .debug$S                   0000000180000000     kernel32:KERNEL32.dll
 0000:fffa7000       .debug$S                   0000000180000000     kernel32:KERNEL32.dll
 0000:fffa7000       .debug$S                   0000000180000000     kernel32:KERNEL32.dll
 0000:fffa7000       .debug$S                   0000000180000000     kernel32:KERNEL32.dll
 0000:fffa7000       .debug$S                   0000000180000000     kernel32:KERNEL32.dll
 0000:fffa7000       .debug$S                   0000000180000000     kernel32:KERNEL32.dll
 0000:fffa7000       .debug$S                   0000000180000000     kernel32:KERNEL32.dll
 0000:fffa7000       .debug$S                   0000000180000000     kernel32:KERNEL32.dll
 0000:fffa7000       .debug$S                   0000000180000000     kernel32:KERNEL32.dll
 0000:fffa7000       .debug$S                   0000000180000000     kernel32:KERNEL32.dll
 0000:fffa7000       .debug$S                   0000000180000000     kernel32:KERNEL32.dll
 0000:fffa7000       .debug$S                   0000000180000000     kernel32:KERNEL32.dll
 0000:fffa7000       .debug$S                   0000000180000000     kernel32:KERNEL32.dll
 0000:fffa7000       .debug$S                   0000000180000000     kernel32:KERNEL32.dll
 0000:fffa7000       .debug$S                   0000000180000000     kernel32:KERNEL32.dll
 0000:fffa7000       .debug$S                   0000000180000000     kernel32:KERNEL32.dll
 0000:fffa7000       .debug$S                   0000000180000000     kernel32:KERNEL32.dll
 0000:fffa7000       .debug$S                   0000000180000000     kernel32:KERNEL32.dll
 0000:fffa7000       .debug$S                   0000000180000000     kernel32:KERNEL32.dll
 0000:fffa7000       .debug$S                   0000000180000000     kernel32:KERNEL32.dll
 0000:fffa7000       .debug$S                   0000000180000000     kernel32:KERNEL32.dll
 0000:fffa7000       .debug$S                   0000000180000000     kernel32:KERNEL32.dll
 0000:fffa7000       .debug$S                   0000000180000000     kernel32:KERNEL32.dll
 0000:fffa7000       .debug$S                   0000000180000000     kernel32:KERNEL32.dll
 0000:fffa7000       .debug$S                   0000000180000000     kernel32:KERNEL32.dll
 0000:fffa7000       .debug$S                   0000000180000000     kernel32:KERNEL32.dll
 0000:fffa7000       .debug$S                   0000000180000000     kernel32:KERNEL32.dll
 0000:fffa7000       .debug$S                   0000000180000000     kernel32:KERNEL32.dll
 0000:fffa7000       .debug$S                   0000000180000000     kernel32:KERNEL32.dll
 0000:fffa7000       .debug$S                   0000000180000000     kernel32:KERNEL32.dll
 0000:fffa7000       .debug$S                   0000000180000000     kernel32:KERNEL32.dll
 0000:fffa7000       .debug$S                   0000000180000000     kernel32:KERNEL32.dll
 0000:fffa7000       .debug$S                   0000000180000000     kernel32:KERNEL32.dll
 0000:fffa7000       .debug$S                   0000000180000000     kernel32:KERNEL32.dll
 0000:fffa7000       .debug$S                   0000000180000000     kernel32:KERNEL32.dll
 0000:fffa7000       .debug$S                   0000000180000000     shell32:SHELL32.dll
 0002:fffcd000       .idata$6                   0000000180000000     shell32:SHELL32.dll
 0000:fffa7000       .debug$S                   0000000180000000     user32:USER32.dll
 0000:fffa7000       .debug$S                   0000000180000000     user32:USER32.dll
 0000:fffa7000       .debug$S                   0000000180000000     user32:USER32.dll
 0000:fffa7000       .debug$S                   0000000180000000     user32:USER32.dll
 0000:fffa7000       .debug$S                   0000000180000000     user32:USER32.dll
 0000:fffa7000       .debug$S                   0000000180000000     user32:USER32.dll
 0000:fffa7000       .debug$S                   0000000180000000     user32:USER32.dll
 0000:fffa7000       .debug$S                   0000000180000000     user32:USER32.dll
 0000:fffa7000       .debug$S                   0000000180000000     user32:USER32.dll
 0000:fffa7000       .debug$S                   0000000180000000     user32:USER32.dll
 0000:fffa7000       .debug$S                   0000000180000000     user32:USER32.dll
 0000:fffa7000       .debug$S                   0000000180000000     user32:USER32.dll
 0000:fffa7000       .debug$S                   0000000180000000     user32:USER32.dll
 0000:fffa7000       .debug$S                   0000000180000000     user32:USER32.dll
 0000:fffa7000       .debug$S                   0000000180000000     user32:USER32.dll
 0000:fffa7000       .debug$S                   0000000180000000     user32:USER32.dll
 0000:fffa7000       .debug$S                   0000000180000000     user32:USER32.dll
 0000:fffa7000       .debug$S                   0000000180000000     user32:USER32.dll
 0000:fffa7000       .debug$S                   0000000180000000     user32:USER32.dll
 0000:fffa7000       .debug$S                   0000000180000000     user32:USER32.dll
 0000:fffa7000       .debug$S                   0000000180000000     user32:USER32.dll
 0000:fffa7000       .debug$S                   0000000180000000     user32:USER32.dll
 0000:fffa7000       .debug$S                   0000000180000000     user32:USER32.dll
 0000:fffa7000       .debug$S                   0000000180000000     user32:USER32.dll
 0000:fffa7000       .debug$S                   0000000180000000     user32:USER32.dll
 0000:fffa7000       .debug$S                   0000000180000000     user32:USER32.dll
 0000:fffa7000       .debug$S                   0000000180000000     user32:USER32.dll
 0000:fffa7000       .debug$S                   0000000180000000     user32:USER32.dll
 0000:fffa7000       .debug$S                   0000000180000000     user32:USER32.dll
 0000:fffa7000       .debug$S                   0000000180000000     user32:USER32.dll
 0000:fffa7000       .debug$S                   0000000180000000     user32:USER32.dll
 0000:fffa7000       .debug$S                   0000000180000000     user32:USER32.dll
 0000:fffa7000       .debug$S                   0000000180000000     user32:USER32.dll
 0000:fffa7000       .debug$S                   0000000180000000     user32:USER32.dll
 0000:fffa7000       .debug$S                   0000000180000000     user32:USER32.dll
 0000:fffa7000       .debug$S                   0000000180000000     user32:USER32.dll
 0000:fffa7000       .debug$S                   0000000180000000     user32:USER32.dll
 0000:fffa7000       .debug$S                   0000000180000000     user32:USER32.dll
 0000:fffa7000       .debug$S                   0000000180000000     user32:USER32.dll
 0000:fffa7000       .debug$S                   0000000180000000     user32:USER32.dll
 0000:fffa7000       .debug$S                   0000000180000000     user32:USER32.dll
 0000:fffa7000       .debug$S                   0000000180000000     user32:USER32.dll
 0000:fffa7000       .debug$S                   0000000180000000     version:VERSION.dll
 0000:fffa7000       .debug$S                   0000000180000000     version:VERSION.dll
 0000:fffa7000       .debug$S                   0000000180000000     version:VERSION.dll
 0001:00000000       ??__EgsMapHelper@@YAXXZ    0000000180001000 f   common-user64:WConsoleEx.obj
 0001:000012bc       ?CallGuiMacroDlg@@YA_JPEAXHH0@Z 00000001800022bc f   ConEmuPlugin1900.obj
 0001:000014c4       ?CallGuiMacroProc@@YAXXZ   00000001800024c4 f   ConEmuPlugin1900.obj
 0001:00001cc4       ?GetFarSetting@@YAHPEAX_KPEB_W@Z 0000000180002cc4 f   ConEmuPlugin1900.obj
 0001:00003d84       ?CallGuiMacroDlg@@YA_JPEAX_J10@Z 0000000180004d84 f   ConEmuPlugin2800.obj
 0001:00003f98       ?CallGuiMacroProc@@YAXXZ   0000000180004f98 f   ConEmuPlugin2800.obj
 0001:000043c8       ?FreeMacroResult@@YAXPEAXPEAUFarMacroValue@@_K@Z 00000001800053c8 f   ConEmuPlugin2800.obj
 0001:00004564       ?GetFarSetting@@YAHPEAX_KPEB_W@Z 0000000180005564 f   ConEmuPlugin2800.obj
 0001:00006348       ?WExists@@YA_JAEBUWindowInfo@@AEBV?$MArray@UWindowInfo@@@@@Z 0000000180007348 f   ConEmuPlugin2800.obj
 0001:000063ac       ?WLoadWindows@@YA_JAEAV?$MArray@UWindowInfo@@@@H@Z 00000001800073ac f   ConEmuPlugin2800.obj
 0001:00006dbc       ?CallGuiMacroDlg@@YA_JPEAXHH_J@Z 0000000180007dbc f   ConEmuPlugin995.obj
 0001:00006fa4       ?CallGuiMacroProc@@YAXXZ   0000000180007fa4 f   ConEmuPlugin995.obj
 0001:000088b4       ?CallGuiMacroDlg@@YA_JPEAXHH_J@Z 00000001800098b4 f   ConEmuPluginA.obj
 0001:00008b2c       ?CallGuiMacroProc@@YAXXZ   0000000180009b2c f   ConEmuPluginA.obj
 0001:0000ca44       ?LoadFarVersion@@YA_NAEAUFarVersion@@AEAY0CAA@_W@Z 000000018000da44 f   ConEmuPluginBase.obj
 0001:0000cbf4       ?LoadModuleVersion@@YA_NPEB_WAEAUtagVS_FIXEDFILEINFO@@PEA_W_K@Z 000000018000dbf4 f   ConEmuPluginBase.obj
 0001:0001954c       initialize_environment     000000018001a54c f i libucrt:initialization.obj
 0001:0001954c       initialize_global_state_isolation 000000018001a54c f i libucrt:initialization.obj
 0001:0001954c       report_memory_leaks        000000018001a54c f i libucrt:initialization.obj
 0001:0001954c       uninitialize_c             000000018001a54c f i libucrt:initialization.obj
 0001:0001954c       uninitialize_global_state_isolation 000000018001a54c f i libucrt:initialization.obj
 0001:0001c7e0       $$000000                   000000018001d7e0     LIBCMT:amdsecgs.obj
 0001:0001c820       $$000000                   000000018001d820     LIBCMT:chkstk.obj
 0001:0001c92c       ?__scrt_initialize_thread_safe_statics@@YAHXZ 000000018001d92c f   LIBCMT:thread_safe_statics.obj
 0001:0001c9fc       ?__scrt_uninitialize_thread_safe_statics@@YAXXZ 000000018001d9fc f   LIBCMT:thread_safe_statics.obj
 0001:0001cb94       ?dllmain_crt_dispatch@@YAHQEAUHINSTANCE__@@KQEAX@Z 000000018001db94 f   LIBCMT:dll_dllmain.obj
 0001:0001cbe4       ?dllmain_crt_process_attach@@YAHQEAUHINSTANCE__@@QEAX@Z 000000018001dbe4 f   LIBCMT:dll_dllmain.obj
 0001:0001ccfc       ?dllmain_crt_process_detach@@YAH_N@Z 000000018001dcfc f   LIBCMT:dll_dllmain.obj
 0001:0001cd80       ?dllmain_dispatch@@YAHQEAUHINSTANCE__@@KQEAX@Z 000000018001dd80 f   LIBCMT:dll_dllmain.obj
 0001:0001d42c       capture_current_context    000000018001e42c f   LIBCMT:gs_report.obj
 0001:0001d49c       capture_previous_context   000000018001e49c f   LIBCMT:gs_report.obj
 0001:0001e150       $$000000                   000000018001f150     libvcruntime:memcpy.obj
 0001:0001ea90       $$000000                   000000018001fa90     libvcruntime:memset.obj
 0001:0001efc0       $$000000                   000000018001ffc0     libvcruntime:memcmp.obj
 0001:0001f7c8       ??$BuildCatchObjectHelperInternal@V__FrameHandler4@@@@YAHPEAUEHExceptionRecord@@PEAXPEAUHandlerType4@FH4@@PEBU_s_CatchableType@@@Z 00000001800207c8 f   libvcruntime:frame.obj
 0001:0001f9cc       ??$BuildCatchObjectInternal@V__FrameHandler4@@@@YAXPEAUEHExceptionRecord@@PEAXPEAUHandlerType4@FH4@@PEBU_s_CatchableType@@@Z 00000001800209cc f   libvcruntime:frame.obj
 0001:0001fa90       ??$CatchIt@V__FrameHandler4@@@@YAXPEAUEHExceptionRecord@@PEA_KPEAU_CONTEXT@@PEAU_xDISPATCHER_CONTEXT@@PEAUFuncInfo4@FH4@@PEAUHandlerType4@4@PEBU_s_CatchableType@@PEAUTryBlockMapEntry4@4@H1EE@Z 0000000180020a90 f   libvcruntime:frame.obj
 0001:0001fb64       ??$FindHandler@V__FrameHandler4@@@@YAXPEAUEHExceptionRecord@@PEA_KPEAU_CONTEXT@@PEAU_xDISPATCHER_CONTEXT@@PEAUFuncInfo4@FH4@@EH1@Z 0000000180020b64 f   libvcruntime:frame.obj
 0001:00020060       ??$FindHandlerForForeignException@V__FrameHandler4@@@@YAXPEAUEHExceptionRecord@@PEA_KPEAU_CONTEXT@@PEAU_xDISPATCHER_CONTEXT@@PEAUFuncInfo4@FH4@@HH1@Z 0000000180021060 f   libvcruntime:frame.obj
 0001:00020df0       ?ExFilterRethrow@@YAHPEAU_EXCEPTION_POINTERS@@PEAUEHExceptionRecord@@PEAH@Z 0000000180021df0 f   libvcruntime:frame.obj
 0001:00020e78       ?ExFilterRethrowFH4@@YAHPEAU_EXCEPTION_POINTERS@@PEAUEHExceptionRecord@@HPEAH@Z 0000000180021e78 f   libvcruntime:frame.obj
 0001:00021190       ?IsInExceptionSpec@@YAEPEAUEHExceptionRecord@@PEBU_s_ESTypeList@@@Z 0000000180022190 f   libvcruntime:frame.obj
 0001:00021280       ?Is_bad_exception_allowed@@YAEPEBU_s_ESTypeList@@@Z 0000000180022280 f   libvcruntime:frame.obj
 0001:00021560       $$000000                   0000000180022560     libvcruntime:notify.obj
 0001:00021648       ?try_get_function@@YAPEAXW4function_id@?A0x61a31dd3@@QEBDQEBW4module_id@2@2@Z 0000000180022648 f   libvcruntime:winapi_downlevel.obj
 0001:00021930       $$000000                   0000000180022930     libvcruntime:handlers.obj
 0001:00021a38       ??$common_vsprintf@Vstandard_base@__crt_stdio_output@@D@@YAH_KQEAD0QEBDQEAU__crt_locale_pointers@@1@Z 0000000180022a38 f   libucrt:output.obj
 0001:00021c04       ??$common_vsprintf@Vstandard_base@__crt_stdio_output@@_W@@YAH_KQEA_W0QEB_WQEAU__crt_locale_pointers@@QEAD@Z 0000000180022c04 f   libucrt:output.obj
 0001:000233c8       $LN17                      00000001800243c8     libucrt:output.obj
 0001:0002523c       ??$?RV<lambda_d80eeec6fff315bfe5c115232f3240e3>@@AEAV<lambda_6e4b09c48022b2350581041d5f6b0c4c>@@V<lambda_2358e3775559c9db80273638284d5e45>@@@?$__crt_seh_guarded_call@X@@QEAAX$$QEAV<lambda_d80eeec6fff315bfe5c115232f3240e3>@@AEAV<lambda_6e4b09c48022b2350581041d5f6b0c4c>@@$$QEAV<lambda_2358e3775559c9db80273638284d5e45>@@@Z 000000018002623c f   libucrt:exit.obj
 0001:00025274       ??R<lambda_6e4b09c48022b2350581041d5f6b0c4c>@@QEBA@XZ 0000000180026274 f   libucrt:exit.obj
 0001:00025338       ?atexit_exception_filter@@YAHK@Z 0000000180026338 f   libucrt:exit.obj
 0001:00025344       ?common_exit@@YAXHW4_crt_exit_cleanup_mode@@W4_crt_exit_return_mode@@@Z 0000000180026344 f   libucrt:exit.obj
 0001:00025400       ?exit_or_terminate_process@@YAXI@Z 0000000180026400 f   libucrt:exit.obj
 0001:0002544c       ?try_cor_exit_process@@YAXI@Z 000000018002644c f   libucrt:exit.obj
 0001:000254d4       ??$parse_command_line@D@@YAXPEADPEAPEAD0PEA_K2@Z 00000001800264d4 f   libucrt:argv_parsing.obj
 0001:0002587c       ??$common_initialize_environment_nolock@D@@YAHXZ 000000018002687c f   libucrt:environment_initialization.obj
 0001:000258e8       ??$create_environment@D@@YAQEAPEADQEAD@Z 00000001800268e8 f   libucrt:environment_initialization.obj
 0001:000259f0       ??$free_environment@D@@YAXQEAPEAD@Z 00000001800269f0 f   libucrt:environment_initialization.obj
 0001:000259f0       ??$free_environment@_W@@YAXQEAPEA_W@Z 00000001800269f0 f   libucrt:environment_initialization.obj
 0001:00025a34       ??$uninitialize_environment_internal@D@@YAXAEAPEAPEAD@Z 0000000180026a34 f   libucrt:environment_initialization.obj
 0001:00025a50       ??$uninitialize_environment_internal@_W@@YAXAEAPEAPEA_W@Z 0000000180026a50 f   libucrt:environment_initialization.obj
 0001:00025aac       ??$?RV<lambda_638799b9deba96c50f710eeac98168cd>@@AEAV<lambda_22ebabd17bc4fa466a2aca6d8deb888d>@@V<lambda_a6f7d7db0129f75315ebf26d50c089f1>@@@?$__crt_seh_guarded_call@H@@QEAAH$$QEAV<lambda_638799b9deba96c50f710eeac98168cd>@@AEAV<lambda_22ebabd17bc4fa466a2aca6d8deb888d>@@$$QEAV<lambda_a6f7d7db0129f75315ebf26d50c089f1>@@@Z 0000000180026aac f   libucrt:onexit.obj
 0001:00025ae8       ??$?RV<lambda_7777bce6b2f8c936911f934f8298dc43>@@AEAV<lambda_f03950bc5685219e0bcd2087efbe011e>@@V<lambda_3883c3dff614d5e0c5f61bb1ac94921c>@@@?$__crt_seh_guarded_call@H@@QEAAH$$QEAV<lambda_7777bce6b2f8c936911f934f8298dc43>@@AEAV<lambda_f03950bc5685219e0bcd2087efbe011e>@@$$QEAV<lambda_3883c3dff614d5e0c5f61bb1ac94921c>@@@Z 0000000180026ae8 f   libucrt:onexit.obj
 0001:00025b24       ??R<lambda_22ebabd17bc4fa466a2aca6d8deb888d>@@QEBAHXZ 0000000180026b24 f   libucrt:onexit.obj
 0001:00025cd4       ??R<lambda_f03950bc5685219e0bcd2087efbe011e>@@QEBAHXZ 0000000180026cd4 f   libucrt:onexit.obj
 0001:00025ea8       initialize_global_variables 0000000180026ea8 f   libucrt:initialization.obj
 0001:00025ebc       initialize_c               0000000180026ebc f   libucrt:initialization.obj
 0001:00025ee0       uninitialize_environment   0000000180026ee0 f   libucrt:initialization.obj
 0001:00025ef0       initialize_pointers        0000000180026ef0 f   libucrt:initialization.obj
 0001:00025f30       uninitialize_vcruntime     0000000180026f30 f   libucrt:initialization.obj
 0001:00025f38       uninitialize_allocated_memory 0000000180026f38 f   libucrt:initialization.obj
 0001:00025f78       uninitialize_allocated_io_buffers 0000000180026f78 f   libucrt:initialization.obj
 0001:00026150       $$000000                   0000000180027150     libucrt:strncmp.obj
 0001:000268cc       ??$?RV<lambda_0ae27a3a962d80f24befdcbee591983d>@@AEAV<lambda_8d0ee55de4b1038c4002e0adecdf1839>@@V<lambda_dc504788e8f1664fe9b84e20bfb512f2>@@@?$__crt_seh_guarded_call@X@@QEAAX$$QEAV<lambda_0ae27a3a962d80f24befdcbee591983d>@@AEAV<lambda_8d0ee55de4b1038c4002e0adecdf1839>@@$$QEAV<lambda_dc504788e8f1664fe9b84e20bfb512f2>@@@Z 00000001800278cc f   libucrt:per_thread_data.obj
 0001:0002690c       ??$?RV<lambda_2d41944a1d46af3157314b8a01080d33>@@AEAV<lambda_8f455de75cd7d7f24b4096f044d8b9e6>@@V<lambda_aa500f224e6afead328df44964fe2772>@@@?$__crt_seh_guarded_call@X@@QEAAX$$QEAV<lambda_2d41944a1d46af3157314b8a01080d33>@@AEAV<lambda_8f455de75cd7d7f24b4096f044d8b9e6>@@$$QEAV<lambda_aa500f224e6afead328df44964fe2772>@@@Z 000000018002790c f   libucrt:per_thread_data.obj
 0001:0002694c       ??$?RV<lambda_aa87e3671a710a21b5dc78c0bdf72e11>@@AEAV<lambda_92619d2358a28f41a33ba319515a20b9>@@V<lambda_6992ecaafeb10aed2b74cb1fae11a551>@@@?$__crt_seh_guarded_call@X@@QEAAX$$QEAV<lambda_aa87e3671a710a21b5dc78c0bdf72e11>@@AEAV<lambda_92619d2358a28f41a33ba319515a20b9>@@$$QEAV<lambda_6992ecaafeb10aed2b74cb1fae11a551>@@@Z 000000018002794c f   libucrt:per_thread_data.obj
 0001:00026994       ??$?RV<lambda_f2e299630e499de9f9a165e60fcd3db5>@@AEAV<lambda_2ae9d31cdba2644fcbeaf08da7c24588>@@V<lambda_40d01ff24d0e7b3814fdbdcee8eab3c7>@@@?$__crt_seh_guarded_call@X@@QEAAX$$QEAV<lambda_f2e299630e499de9f9a165e60fcd3db5>@@AEAV<lambda_2ae9d31cdba2644fcbeaf08da7c24588>@@$$QEAV<lambda_40d01ff24d0e7b3814fdbdcee8eab3c7>@@@Z 0000000180027994 f   libucrt:per_thread_data.obj
 0001:000269f4       ?construct_ptd_array@@YAXQEAU__acrt_ptd@@@Z 00000001800279f4 f   libucrt:per_thread_data.obj
 0001:00026ac4       ?destroy_fls@@YAXPEAX@Z    0000000180027ac4 f   libucrt:per_thread_data.obj
 0001:00026ae4       ?destroy_ptd_array@@YAXQEAU__acrt_ptd@@@Z 0000000180027ae4 f   libucrt:per_thread_data.obj
 0001:00026bdc       ?replace_current_thread_locale_nolock@@YAXQEAU__acrt_ptd@@QEAU__crt_locale_data@@@Z 0000000180027bdc f   libucrt:per_thread_data.obj
 0001:00026f98       ?fp_format_a@@YAHQEBNPEAD_KQEAD2H_NIQEAU__crt_locale_pointers@@W4__acrt_rounding_mode@@@Z 0000000180027f98 f   libucrt:cvt.obj
 0001:00027318       ?fp_format_e@@YAHQEBNQEAD_K12H_NIQEAU__crt_locale_pointers@@W4__acrt_rounding_mode@@@Z 0000000180028318 f   libucrt:cvt.obj
 0001:00027408       ?fp_format_e_internal@@YAHQEAD_KH_NIQEAU_strflt@@2QEAU__crt_locale_pointers@@@Z 0000000180028408 f   libucrt:cvt.obj
 0001:000275dc       ?fp_format_f_internal@@YAHQEAD_KHQEAU_strflt@@_NQEAU__crt_locale_pointers@@@Z 00000001800285dc f   libucrt:cvt.obj
 0001:00027744       ?fp_format_g@@YAHQEBNQEAD_K12H_NIW4__acrt_rounding_mode@@QEAU__crt_locale_pointers@@@Z 0000000180028744 f   libucrt:cvt.obj
 0001:0002788c       ?should_round_up@@YA_NQEBN_KFW4__acrt_rounding_mode@@@Z 000000018002888c f   libucrt:cvt.obj
 0001:00027eb0       ??$?RV<lambda_410d79af7f07d98d83a3f525b3859a53>@@AEAV<lambda_3e16ef9562a7dcce91392c22ab16ea36>@@V<lambda_38119f0e861e05405d8a144b9b982f0a>@@@?$__crt_seh_guarded_call@X@@QEAAX$$QEAV<lambda_410d79af7f07d98d83a3f525b3859a53>@@AEAV<lambda_3e16ef9562a7dcce91392c22ab16ea36>@@$$QEAV<lambda_38119f0e861e05405d8a144b9b982f0a>@@@Z 0000000180028eb0 f   libucrt:wsetlocale.obj
 0001:00027f5c       ?initialize_inherited_file_handles_nolock@@YAXXZ 0000000180028f5c f   libucrt:ioinit.obj
 0001:0002804c       ?initialize_stdio_handles_nolock@@YAXXZ 000000018002904c f   libucrt:ioinit.obj
 0001:000284e4       ?<lambda_invoker_cdecl>@<lambda_a1ce4c8ae42411fd470c77163914f50e>@@CAHPEBX0@Z 00000001800294e4 f   libucrt:argv_wildcards.obj
 0001:000287fc       ??$common_expand_argv_wildcards@D@@YAHQEAPEADQEAPEAPEAD@Z 00000001800297fc f   libucrt:argv_wildcards.obj
 0001:00028a08       ??$copy_and_add_argument_to_buffer@D@@YAHQEBD0_KAEAV?$argument_list@D@?A0x5f5c8891@@@Z 0000000180029a08 f   libucrt:argv_wildcards.obj
 0001:00028b90       ??$expand_argument_wildcards@D@@YAHQEAD0AEAV?$argument_list@D@?A0x5f5c8891@@@Z 0000000180029b90 f   libucrt:argv_wildcards.obj
 0001:000290dc       ??$?RV<lambda_efdfa57d1f175319df784efa44bb7b81>@@AEAV<lambda_5f0a4c1567f8adc6734073e5d1e1b35c>@@V<lambda_2e8a7d3640ea6ccb4c2413664c2db6fd>@@@?$__crt_seh_guarded_call@X@@QEAAX$$QEAV<lambda_efdfa57d1f175319df784efa44bb7b81>@@AEAV<lambda_5f0a4c1567f8adc6734073e5d1e1b35c>@@$$QEAV<lambda_2e8a7d3640ea6ccb4c2413664c2db6fd>@@@Z 000000018002a0dc f   libucrt:mbctype.obj
 0001:00029298       ?getSystemCP@@YAHH@Z       000000018002a298 f   libucrt:mbctype.obj
 0001:00029318       ?setSBCS@@YAXPEAU__crt_multibyte_data@@@Z 000000018002a318 f   libucrt:mbctype.obj
 0001:000293a8       ?setSBUpLow@@YAXPEAU__crt_multibyte_data@@@Z 000000018002a3a8 f   libucrt:mbctype.obj
 0001:0002958c       ?setmbcp_internal@@YAHH_NQEAU__acrt_ptd@@QEAPEAU__crt_multibyte_data@@@Z 000000018002a58c f   libucrt:mbctype.obj
 0001:0002974c       ?update_thread_multibyte_data_internal@@YAPEAU__crt_multibyte_data@@QEAU__acrt_ptd@@QEAPEAU1@@Z 000000018002a74c f   libucrt:mbctype.obj
 0001:00029b3c       ?x_ismbbtype_l@@YAHPEAU__crt_locale_pointers@@IHH@Z 000000018002ab3c f   libucrt:ismbbyte.obj
 0001:00029e98       ?try_get_function@@YAPEAXW4function_id@?A0x391cf84c@@QEBDQEBW4module_id@2@2@Z 000000018002ae98 f   libucrt:winapi_thunks.obj
 0001:0002a580       ??$?RV<lambda_450d765d439847d4c735a33c368b5fc0>@@AEAV<lambda_44731a7d0e6d81c3e6aa82d741081786>@@V<lambda_601a2a7da3b7a96e9554ac7215c4b07c>@@@?$__crt_seh_guarded_call@P6AXH@Z@@QEAAP6AXH@Z$$QEAV<lambda_450d765d439847d4c735a33c368b5fc0>@@AEAV<lambda_44731a7d0e6d81c3e6aa82d741081786>@@$$QEAV<lambda_601a2a7da3b7a96e9554ac7215c4b07c>@@@Z 000000018002b580 f   libucrt:signal.obj
 0001:0002a8dc       ??$?RV<lambda_842d9ff0dc9ef11c61343bbaebe7f885>@@AEAV<lambda_c5860995281e5c4ce005b3de8f5874ee>@@V<lambda_d90129c13df834fdcbf8d2b88dafcf2d>@@@?$__crt_seh_guarded_call@X@@QEAAX$$QEAV<lambda_842d9ff0dc9ef11c61343bbaebe7f885>@@AEAV<lambda_c5860995281e5c4ce005b3de8f5874ee>@@$$QEAV<lambda_d90129c13df834fdcbf8d2b88dafcf2d>@@@Z 000000018002b8dc f   libucrt:fflush.obj
 0001:0002a978       ??$?RV<lambda_886d6c58226a84441f68b9f2b8217b83>@@AEAV<lambda_ab61a845afdef5b7c387490eaf3616ee>@@V<lambda_f7f22ab5edc0698d5f6905b0d3f44752>@@@?$__crt_seh_guarded_call@X@@QEAAX$$QEAV<lambda_886d6c58226a84441f68b9f2b8217b83>@@AEAV<lambda_ab61a845afdef5b7c387490eaf3616ee>@@$$QEAV<lambda_f7f22ab5edc0698d5f6905b0d3f44752>@@@Z 000000018002b978 f   libucrt:fflush.obj
 0001:0002aa58       ?common_flush_all@@YAH_N@Z 000000018002ba58 f   libucrt:fflush.obj
 0001:0002ca20       memcpy_s                   000000018002da20 f   libucrt:cfout.obj
 0001:0002cd88       ?free_crt_array_internal@@YAXQEAPEBX_K@Z 000000018002dd88 f   libucrt:inittime.obj
 0001:0002d824       fallbackMethod             000000018002e824 f   libucrt:strpbrk.obj
 0001:0002dbdc       $LN78                      000000018002ebdc     libucrt:strpbrk.obj
 0001:0002dc18       $LN77                      000000018002ec18     libucrt:strpbrk.obj
 0001:0002dc58       $LN76                      000000018002ec58     libucrt:strpbrk.obj
 0001:0002dd34       ?__acrt_LCMapStringA_stat@@YAHPEAU__crt_locale_pointers@@PEB_WKPEBDHPEADHHH@Z 000000018002ed34 f   libucrt:lcmapstringa.obj
 0001:0002e0e4       ?initialize_multibyte@@YAHXZ 000000018002f0e4 f   libucrt:multibyte_initializer.obj
 0001:0002e264       ??$?RV<lambda_a37b2b86f63e897a80ea819b0eb08c01>@@AEAV<lambda_38ce7e780aa69e748d6df282ebc68efe>@@V<lambda_99fb1378e971ab6e7edea83e3a7a83a2>@@@?$__crt_seh_guarded_call@H@@QEAAH$$QEAV<lambda_a37b2b86f63e897a80ea819b0eb08c01>@@AEAV<lambda_38ce7e780aa69e748d6df282ebc68efe>@@$$QEAV<lambda_99fb1378e971ab6e7edea83e3a7a83a2>@@@Z 000000018002f264 f   libucrt:commit.obj
 0001:0002e384       ?write_double_translated_ansi_nolock@@YA?AUwrite_result@?A0x17268360@@HQEBDI@Z 000000018002f384 f   libucrt:write.obj
 0001:0002e870       ?write_text_ansi_nolock@@YA?AUwrite_result@?A0x17268360@@HQEBDI@Z 000000018002f870 f   libucrt:write.obj
 0001:0002e974       ?write_text_utf16le_nolock@@YA?AUwrite_result@?A0x17268360@@HQEBDI@Z 000000018002f974 f   libucrt:write.obj
 0001:0002ea90       ?write_text_utf8_nolock@@YA?AUwrite_result@?A0x17268360@@HQEBDI@Z 000000018002fa90 f   libucrt:write.obj
 0001:0002f390       $$000000                   0000000180030390     libucrt:log10.obj
 0001:0002fc5c       ??$common_lseek_nolock@_J@@YA_JH_JH@Z 0000000180030c5c f   libucrt:lseek.obj
 0001:0002ff08       common_control87           0000000180030f08 f   libucrt:ieee.obj
 0001:000301c8       _call_matherr              00000001800311c8 f   libucrt:libm_error.obj
 0001:00030230       _exception_enabled         0000000180031230 f   libucrt:libm_error.obj
 0001:000304c0       _log_special_common        00000001800314c0 f   libucrt:log_special.obj
 0001:00030558       ??$?RV<lambda_751a882b2c74d4b022dec766aa51a29a>@@AEAV<lambda_628dfdc04ba53c8bfc02c9951375f3f5>@@V<lambda_f6c7be5f7998530c34de24c7437d6b54>@@@?$__crt_seh_guarded_call@H@@QEAAH$$QEAV<lambda_751a882b2c74d4b022dec766aa51a29a>@@AEAV<lambda_628dfdc04ba53c8bfc02c9951375f3f5>@@$$QEAV<lambda_f6c7be5f7998530c34de24c7437d6b54>@@@Z 0000000180031558 f   libucrt:close.obj
 0001:00030880       $$000000                   0000000180031880     libucrt:fpsr.obj
 0001:000311b0       $$000000                   00000001800321b0     LIBCMT:guard_dispatch.obj
 0001:000311d0       $$000000                   00000001800321d0     LIBCMT:guard_xfg_dispatch.obj
 0001:000311f0       ?dtor$0@?0??RegisterBackground@@YAHPEAURegisterBackgroundArg@@@Z@4HA 00000001800321f0 f   ConEmuPlugin.obj
 0001:0003120d       ?catch$0@?0???$_Emplace_reallocate@AEBUWindowInfo@@@?$vector@UWindowInfo@@V?$MArrayAllocator@UWindowInfo@@@@@std@@QEAAPEAUWindowInfo@@QEAU2@AEBU2@@Z@4HA 000000018003220d f   ConEmuPlugin2800.obj
 0001:0003121a       __catch$??$_Emplace_reallocate@AEBUWindowInfo@@@?$vector@UWindowInfo@@V?$MArrayAllocator@UWindowInfo@@@@@std@@QEAAPEAUWindowInfo@@QEAU2@AEBU2@@Z$0 000000018003221a f   ConEmuPlugin2800.obj
 0001:0003123e       ?dtor$1@?0??Open@CPluginW2800@@UEAAPEAXPEBX@Z@4HA 000000018003223e f   ConEmuPlugin2800.obj
 0001:0003124a       ?dtor$0@?0??SetWindow@CPluginW2800@@UEAAXH@Z@4HA 000000018003224a f   ConEmuPlugin2800.obj
 0001:00031256       ?dtor$0@?0??UpdateConEmuTabsApi@CPluginW2800@@UEAA_NH@Z@4HA 0000000180032256 f   ConEmuPlugin2800.obj
 0001:00031276       ?dtor$1@?0??UpdateConEmuTabsApi@CPluginW2800@@UEAA_NH@Z@4HA 0000000180032276 f   ConEmuPlugin2800.obj
 0001:00031282       ?catch$0@?0??insert@?$vector@UWindowInfo@@V?$MArrayAllocator@UWindowInfo@@@@@std@@QEAA?AV?$_Vector_iterator@V?$_Vector_val@U?$_Simple_types@UWindowInfo@@@std@@@std@@@2@V?$_Vector_const_iterator@V?$_Vector_val@U?$_Simple_types@UWindowInfo@@@std@@@std@@@2@_KAEBUWindowInfo@@@Z@4HA 0000000180032282 f   ConEmuPlugin2800.obj
 0001:0003128f       __catch$?insert@?$vector@UWindowInfo@@V?$MArrayAllocator@UWindowInfo@@@@@std@@QEAA?AV?$_Vector_iterator@V?$_Vector_val@U?$_Simple_types@UWindowInfo@@@std@@@std@@@2@V?$_Vector_const_iterator@V?$_Vector_val@U?$_Simple_types@UWindowInfo@@@std@@@std@@@2@_KAEBUWindowInfo@@@Z$0 000000018003228f f   ConEmuPlugin2800.obj
 0001:000312b5       ?dtor$0@?0???0CPluginW995@@QEAA@XZ@4HA 00000001800322b5 f   ConEmuPlugin995.obj
 0001:000312b5       ?dtor$0@?0???0CPluginAnsi@@QEAA@XZ@4HA 00000001800322b5 f   ConEmuPluginA.obj
 0001:000312c1       ?dtor$0@?0??CheckConEmuDetached@CPluginBase@@SAXXZ@4HA 00000001800322c1 f   ConEmuPluginBase.obj
 0001:000312cd       ?dtor$0@?0??CreateTabs@CPluginBase@@SA_NH@Z@4HA 00000001800322cd f   ConEmuPluginBase.obj
 0001:000312cd       ?dtor$0@?0??IsCurrentTabModal@CPluginBase@@QEAA_NXZ@4HA 00000001800322cd f   ConEmuPluginBase.obj
 0001:000312cd       ?dtor$0@?0??SendTabs@CPluginBase@@SAXH_N@Z@4HA 00000001800322cd f   ConEmuPluginBase.obj
 0001:000312d9       ?dtor$0@?0??DllCheckUnique@CPluginBase@@KA_N_N@Z@4HA 00000001800322d9 f   ConEmuPluginBase.obj
 0001:000312d9       ?dtor$0@?0??ShowProtocolWarning@CPluginBase@@KAXXZ@4HA 00000001800322d9 f   ConEmuPluginBase.obj
 0001:000312e5       ?dtor$1@?0??DllCheckUnique@CPluginBase@@KA_N_N@Z@4HA 00000001800322e5 f   ConEmuPluginBase.obj
 0001:000312f1       ?dtor$0@?0??DllMain_ProcessAttach@CPluginBase@@KAXPEAUHINSTANCE__@@@Z@4HA 00000001800322f1 f   ConEmuPluginBase.obj
 0001:000312f1       ?dtor$1@?0??DllMain_ProcessAttach@CPluginBase@@KAXPEAUHINSTANCE__@@@Z@4HA 00000001800322f1 f   ConEmuPluginBase.obj
 0001:000312f1       ?dtor$0@?0???0CPluginBackground@@QEAA@XZ@4HA 00000001800322f1 f   PluginBackground.obj
 0001:0003130e       ?dtor$0@?0??MonitorThreadProcW@CPluginBase@@SAKPEAX@Z@4HA 000000018003230e f   ConEmuPluginBase.obj
 0001:0003130e       ?dtor$0@?0??RegisterSubplugin@CPluginBackground@@QEAAHPEAURegisterBackgroundArg@@@Z@4HA 000000018003230e f   PluginBackground.obj
 0001:0003131a       ?dtor$0@?0??Plugin@@YAPEAVCPluginBase@@XZ@4HA 000000018003231a f   ConEmuPluginBase.obj
 0001:00031337       ?dtor$1@?0??Plugin@@YAPEAVCPluginBase@@XZ@4HA 0000000180032337 f   ConEmuPluginBase.obj
 0001:00031337       ?dtor$2@?0??Plugin@@YAPEAVCPluginBase@@XZ@4HA 0000000180032337 f   ConEmuPluginBase.obj
 0001:00031337       ?dtor$3@?0??Plugin@@YAPEAVCPluginBase@@XZ@4HA 0000000180032337 f   ConEmuPluginBase.obj
 0001:00031354       ?dtor$0@?0??ProcessCommand@CPluginBase@@QEAA_NKHPEAXPEAPEAUCESERVER_REQ@@_N@Z@4HA 0000000180032354 f   ConEmuPluginBase.obj
 0001:00031360       ?dtor$0@?0??RunExternalProgram@CPluginBase@@QEAA_NPEA_W@Z@4HA 0000000180032360 f   ConEmuPluginBase.obj
 0001:00031360       ?dtor$0@?0??UpdateComspec@@YAXPEAUConEmuComspec@@_N@Z@4HA 0000000180032360 f   common-user64:WUser.obj
 0001:0003136c       ?dtor$1@?0??RunExternalProgram@CPluginBase@@QEAA_NPEA_W@Z@4HA 000000018003236c f   ConEmuPluginBase.obj
 0001:00031378       ?dtor$2@?0??RunExternalProgram@CPluginBase@@QEAA_NPEA_W@Z@4HA 0000000180032378 f   ConEmuPluginBase.obj
 0001:00031384       ?dtor$0@?0??RunExternalProgramW@CPluginBase@@SA_NPEA_W0_N@Z@4HA 0000000180032384 f   ConEmuPluginBase.obj
 0001:00031390       ?dtor$1@?0??RunExternalProgramW@CPluginBase@@SA_NPEA_W0_N@Z@4HA 0000000180032390 f   ConEmuPluginBase.obj
 0001:0003139c       ?dtor$0@?0??UpdateConEmuTabs@CPluginBase@@QEAA_N_N@Z@4HA 000000018003239c f   ConEmuPluginBase.obj
 0001:000313a8       ?dtor$0@?0??cmd_OpenEditorLine@CPluginBase@@QEAA_NPEAUCESERVER_REQ_FAREDITOR@@@Z@4HA 00000001800323a8 f   ConEmuPluginBase.obj
 0001:000313b4       ?filt$0@?0??GetTo@?$MFileMapping@UPanelViewSetMapping@@@@QEAA_NPEAUPanelViewSetMapping@@H@Z@4HA 00000001800323b4 f   PluginBackground.obj
 0001:000313d7       ?dtor$0@?0??LoadThSet@CPluginBackground@@IEAAHH@Z@4HA 00000001800323d7 f   PluginBackground.obj
 0001:000313e3       ?dtor$0@?0??UpdateBackground@CPluginBackground@@IEAAXXZ@4HA 00000001800323e3 f   PluginBackground.obj
 0001:000313ef       ?dtor$0@?0??PlugServerCommand@@YAHPEAXPEAUCESERVER_REQ@@AEAPEAU1@AEAK3_J@Z@4HA 00000001800323ef f   PluginSrv.obj
 0001:000313fb       ?dtor$1@?0??PlugServerCommand@@YAHPEAXPEAUCESERVER_REQ@@AEAPEAU1@AEAK3_J@Z@4HA 00000001800323fb f   PluginSrv.obj
 0001:00031407       ?dtor$0@?0??FindConEmuBaseDir@@YAHAEAY0BAF@_W0PEAUHINSTANCE__@@@Z@4HA 0000000180032407 f   common-user64:ConEmuCheckEx.obj
 0001:00031407       ?dtor$1@?0??FindConEmuBaseDir@@YAHAEAY0BAF@_W0PEAUHINSTANCE__@@@Z@4HA 0000000180032407 f   common-user64:ConEmuCheckEx.obj
 0001:00031413       ?dtor$0@?0??SearchAppPaths@@YA_NPEB_WAEAUCEStr@@_NPEAVCEnvRestorer@@@Z@4HA 0000000180032413 f   common-user64:WFiles.obj
 0001:0003141f       ?dtor$1@?0??SearchAppPaths@@YA_NPEB_WAEAUCEStr@@_NPEAVCEnvRestorer@@@Z@4HA 000000018003241f f   common-user64:WFiles.obj
 0001:0003142b       ?dtor$3@?0??SearchAppPaths@@YA_NPEB_WAEAUCEStr@@_NPEAVCEnvRestorer@@@Z@4HA 000000018003242b f   common-user64:WFiles.obj
 0001:0003142b       ?dtor$3@?0??UpdateComspec@@YAXPEAUConEmuComspec@@_N@Z@4HA 000000018003242b f   common-user64:WUser.obj
 0001:00031437       ?dtor$4@?0??SearchAppPaths@@YA_NPEB_WAEAUCEStr@@_NPEAVCEnvRestorer@@@Z@4HA 0000000180032437 f   common-user64:WFiles.obj
 0001:00031437       ?dtor$2@?0??UpdateComspec@@YAXPEAUConEmuComspec@@_N@Z@4HA 0000000180032437 f   common-user64:WUser.obj
 0001:00031443       ?dtor$5@?0??SearchAppPaths@@YA_NPEB_WAEAUCEStr@@_NPEAVCEnvRestorer@@@Z@4HA 0000000180032443 f   common-user64:WFiles.obj
 0001:0003144f       ?dtor$1@?0??UpdateComspec@@YAXPEAUConEmuComspec@@_N@Z@4HA 000000018003244f f   common-user64:WUser.obj
 0001:0003145b       ?fin$0@?0??dllmain_crt_process_attach@@YAHQEAUHINSTANCE__@@QEAX@Z@4HA 000000018003245b f   LIBCMT:dll_dllmain.obj
 0001:00031472       ?fin$0@?0??dllmain_crt_process_detach@@YAH_N@Z@4HA 0000000180032472 f   LIBCMT:dll_dllmain.obj
 0001:0003148b       ?fin$1@?0??dllmain_crt_process_detach@@YAH_N@Z@4HA 000000018003248b f   LIBCMT:dll_dllmain.obj
 0001:0003149f       ?filt$0@?0??dllmain_dispatch@@YAHQEAUHINSTANCE__@@KQEAX@Z@4HA 000000018003249f f   LIBCMT:dll_dllmain.obj
 0001:000314d5       __scrt_is_nonwritable_in_current_image$filt$0 00000001800324d5 f   LIBCMT:utility.obj
 0001:000314ed       ?filt$0@?0???$_CallSETranslator@V__FrameHandler4@@@@YAHPEAUEHExceptionRecord@@PEA_KPEAU_CONTEXT@@PEAU_xDISPATCHER_CONTEXT@@PEAUFuncInfo4@FH4@@K1H@Z@4HA 00000001800324ed f   libvcruntime:risctrnsctrl.obj
 0001:0003158c       __DestructExceptionObject$filt$0 000000018003258c f   libvcruntime:ehhelpers.obj
 0001:00031622       ?filt$0@?0??CxxCallCatchBlock@__FrameHandler4@@SAPEAXPEAU_EXCEPTION_RECORD@@@Z@4HA 0000000180032622 f   libvcruntime:frame.obj
 0001:00031651       ?fin$1@?0??CxxCallCatchBlock@__FrameHandler4@@SAPEAXPEAU_EXCEPTION_RECORD@@@Z@4HA 0000000180032651 f   libvcruntime:frame.obj
 0001:000316d4       ?filt$0@?0??FrameUnwindToState@__FrameHandler4@@SAXPEA_KPEAU_xDISPATCHER_CONTEXT@@PEAUFuncInfo4@FH4@@H@Z@4HA 00000001800326d4 f   libvcruntime:frame.obj
 0001:000316ea       ?fin$1@?0??FrameUnwindToState@__FrameHandler4@@SAXPEA_KPEAU_xDISPATCHER_CONTEXT@@PEAUFuncInfo4@FH4@@H@Z@4HA 00000001800326ea f   libvcruntime:frame.obj
 0001:0003170d       ?fin$0@?0???$?RV<lambda_0ae27a3a962d80f24befdcbee591983d>@@AEAV<lambda_8d0ee55de4b1038c4002e0adecdf1839>@@V<lambda_dc504788e8f1664fe9b84e20bfb512f2>@@@?$__crt_seh_guarded_call@X@@QEAAX$$QEAV<lambda_0ae27a3a962d80f24befdcbee591983d>@@AEAV<lambda_8d0ee55de4b1038c4002e0adecdf1839>@@$$QEAV<lambda_dc504788e8f1664fe9b84e20bfb512f2>@@@Z@4HA 000000018003270d f   libucrt:per_thread_data.obj
 0001:0003170d       ?fin$0@?0???$?RV<lambda_2d41944a1d46af3157314b8a01080d33>@@AEAV<lambda_8f455de75cd7d7f24b4096f044d8b9e6>@@V<lambda_aa500f224e6afead328df44964fe2772>@@@?$__crt_seh_guarded_call@X@@QEAAX$$QEAV<lambda_2d41944a1d46af3157314b8a01080d33>@@AEAV<lambda_8f455de75cd7d7f24b4096f044d8b9e6>@@$$QEAV<lambda_aa500f224e6afead328df44964fe2772>@@@Z@4HA 000000018003270d f   libucrt:per_thread_data.obj
 0001:0003170d       ?fin$0@?0???$?RV<lambda_aa87e3671a710a21b5dc78c0bdf72e11>@@AEAV<lambda_92619d2358a28f41a33ba319515a20b9>@@V<lambda_6992ecaafeb10aed2b74cb1fae11a551>@@@?$__crt_seh_guarded_call@X@@QEAAX$$QEAV<lambda_aa87e3671a710a21b5dc78c0bdf72e11>@@AEAV<lambda_92619d2358a28f41a33ba319515a20b9>@@$$QEAV<lambda_6992ecaafeb10aed2b74cb1fae11a551>@@@Z@4HA 000000018003270d f   libucrt:per_thread_data.obj
 0001:0003170d       ?fin$0@?0???$?RV<lambda_f2e299630e499de9f9a165e60fcd3db5>@@AEAV<lambda_2ae9d31cdba2644fcbeaf08da7c24588>@@V<lambda_40d01ff24d0e7b3814fdbdcee8eab3c7>@@@?$__crt_seh_guarded_call@X@@QEAAX$$QEAV<lambda_f2e299630e499de9f9a165e60fcd3db5>@@AEAV<lambda_2ae9d31cdba2644fcbeaf08da7c24588>@@$$QEAV<lambda_40d01ff24d0e7b3814fdbdcee8eab3c7>@@@Z@4HA 000000018003270d f   libucrt:per_thread_data.obj
 0001:0003170d       ?fin$0@?0???$?RV<lambda_efdfa57d1f175319df784efa44bb7b81>@@AEAV<lambda_5f0a4c1567f8adc6734073e5d1e1b35c>@@V<lambda_2e8a7d3640ea6ccb4c2413664c2db6fd>@@@?$__crt_seh_guarded_call@X@@QEAAX$$QEAV<lambda_efdfa57d1f175319df784efa44bb7b81>@@AEAV<lambda_5f0a4c1567f8adc6734073e5d1e1b35c>@@$$QEAV<lambda_2e8a7d3640ea6ccb4c2413664c2db6fd>@@@Z@4HA 000000018003270d f   libucrt:mbctype.obj
 0001:0003170d       ?fin$0@?0???$?RV<lambda_450d765d439847d4c735a33c368b5fc0>@@AEAV<lambda_44731a7d0e6d81c3e6aa82d741081786>@@V<lambda_601a2a7da3b7a96e9554ac7215c4b07c>@@@?$__crt_seh_guarded_call@P6AXH@Z@@QEAAP6AXH@Z$$QEAV<lambda_450d765d439847d4c735a33c368b5fc0>@@AEAV<lambda_44731a7d0e6d81c3e6aa82d741081786>@@$$QEAV<lambda_601a2a7da3b7a96e9554ac7215c4b07c>@@@Z@4HA 000000018003270d f   libucrt:signal.obj
 0001:0003170d       ?fin$0@?0???$?RV<lambda_d80eeec6fff315bfe5c115232f3240e3>@@AEAV<lambda_6e4b09c48022b2350581041d5f6b0c4c>@@V<lambda_2358e3775559c9db80273638284d5e45>@@@?$__crt_seh_guarded_call@X@@QEAAX$$QEAV<lambda_d80eeec6fff315bfe5c115232f3240e3>@@AEAV<lambda_6e4b09c48022b2350581041d5f6b0c4c>@@$$QEAV<lambda_2358e3775559c9db80273638284d5e45>@@@Z@4HA 000000018003270d f   libucrt:exit.obj
 0001:0003170d       ?fin$0@?0???$?RV<lambda_638799b9deba96c50f710eeac98168cd>@@AEAV<lambda_22ebabd17bc4fa466a2aca6d8deb888d>@@V<lambda_a6f7d7db0129f75315ebf26d50c089f1>@@@?$__crt_seh_guarded_call@H@@QEAAH$$QEAV<lambda_638799b9deba96c50f710eeac98168cd>@@AEAV<lambda_22ebabd17bc4fa466a2aca6d8deb888d>@@$$QEAV<lambda_a6f7d7db0129f75315ebf26d50c089f1>@@@Z@4HA 000000018003270d f   libucrt:onexit.obj
 0001:0003170d       ?fin$0@?0???$?RV<lambda_7777bce6b2f8c936911f934f8298dc43>@@AEAV<lambda_f03950bc5685219e0bcd2087efbe011e>@@V<lambda_3883c3dff614d5e0c5f61bb1ac94921c>@@@?$__crt_seh_guarded_call@H@@QEAAH$$QEAV<lambda_7777bce6b2f8c936911f934f8298dc43>@@AEAV<lambda_f03950bc5685219e0bcd2087efbe011e>@@$$QEAV<lambda_3883c3dff614d5e0c5f61bb1ac94921c>@@@Z@4HA 000000018003270d f   libucrt:onexit.obj
 0001:00031727       ?filt$0@?0???R<lambda_6e4b09c48022b2350581041d5f6b0c4c>@@QEBA@XZ@4HA 0000000180032727 f   libucrt:exit.obj
 0001:00031742       ?fin$0@?0???$?RV<lambda_410d79af7f07d98d83a3f525b3859a53>@@AEAV<lambda_3e16ef9562a7dcce91392c22ab16ea36>@@V<lambda_38119f0e861e05405d8a144b9b982f0a>@@@?$__crt_seh_guarded_call@X@@QEAAX$$QEAV<lambda_410d79af7f07d98d83a3f525b3859a53>@@AEAV<lambda_3e16ef9562a7dcce91392c22ab16ea36>@@$$QEAV<lambda_38119f0e861e05405d8a144b9b982f0a>@@@Z@4HA 0000000180032742 f   libucrt:wsetlocale.obj
 0001:0003175c       __acrt_initialize_lowio$fin$0 000000018003275c f   libucrt:ioinit.obj
 0001:0003175c       __acrt_lowio_ensure_fh_exists$fin$0 000000018003275c f   libucrt:osfinfo.obj
 0001:00031775       ?fin$0@?0??update_thread_multibyte_data_internal@@YAPEAU__crt_multibyte_data@@QEAU__acrt_ptd@@QEAPEAU1@@Z@4HA 0000000180032775 f   libucrt:mbctype.obj
 0001:0003178e       _query_new_handler$fin$0   000000018003278e f   libucrt:new_handler.obj
 0001:000317a4       raise$fin$0                00000001800327a4 f   libucrt:signal.obj
 0001:000317c5       ?fin$0@?0???$?RV<lambda_842d9ff0dc9ef11c61343bbaebe7f885>@@AEAV<lambda_c5860995281e5c4ce005b3de8f5874ee>@@V<lambda_d90129c13df834fdcbf8d2b88dafcf2d>@@@?$__crt_seh_guarded_call@X@@QEAAX$$QEAV<lambda_842d9ff0dc9ef11c61343bbaebe7f885>@@AEAV<lambda_c5860995281e5c4ce005b3de8f5874ee>@@$$QEAV<lambda_d90129c13df834fdcbf8d2b88dafcf2d>@@@Z@4HA 00000001800327c5 f   libucrt:fflush.obj
 0001:000317e0       ?fin$0@?0???$?RV<lambda_886d6c58226a84441f68b9f2b8217b83>@@AEAV<lambda_ab61a845afdef5b7c387490eaf3616ee>@@V<lambda_f7f22ab5edc0698d5f6905b0d3f44752>@@@?$__crt_seh_guarded_call@X@@QEAAX$$QEAV<lambda_886d6c58226a84441f68b9f2b8217b83>@@AEAV<lambda_ab61a845afdef5b7c387490eaf3616ee>@@$$QEAV<lambda_f7f22ab5edc0698d5f6905b0d3f44752>@@@Z@4HA 00000001800327e0 f   libucrt:fflush.obj
 0001:000317fd       __acrt_update_thread_locale_data$fin$0 00000001800327fd f   libucrt:locale_refcounting.obj
 0001:00031816       _fcloseall$fin$0           0000000180032816 f   libucrt:closeall.obj
 0001:0003182f       ?fin$0@?0???$?RV<lambda_751a882b2c74d4b022dec766aa51a29a>@@AEAV<lambda_628dfdc04ba53c8bfc02c9951375f3f5>@@V<lambda_f6c7be5f7998530c34de24c7437d6b54>@@@?$__crt_seh_guarded_call@H@@QEAAH$$QEAV<lambda_751a882b2c74d4b022dec766aa51a29a>@@AEAV<lambda_628dfdc04ba53c8bfc02c9951375f3f5>@@$$QEAV<lambda_f6c7be5f7998530c34de24c7437d6b54>@@@Z@4HA 000000018003282f f   libucrt:close.obj
 0001:0003182f       ?fin$0@?0???$?RV<lambda_a37b2b86f63e897a80ea819b0eb08c01>@@AEAV<lambda_38ce7e780aa69e748d6df282ebc68efe>@@V<lambda_99fb1378e971ab6e7edea83e3a7a83a2>@@@?$__crt_seh_guarded_call@H@@QEAAH$$QEAV<lambda_a37b2b86f63e897a80ea819b0eb08c01>@@AEAV<lambda_38ce7e780aa69e748d6df282ebc68efe>@@$$QEAV<lambda_99fb1378e971ab6e7edea83e3a7a83a2>@@@Z@4HA 000000018003282f f   libucrt:commit.obj
 0001:00031849       _write$fin$0               0000000180032849 f   libucrt:write.obj
 0001:00031860       fclose$fin$0               0000000180032860 f   libucrt:fclose.obj
 0001:00031878       _ctrlfp$filt$0             0000000180032878 f   libucrt:fpctrl.obj
 0001:00031878       common_control87$filt$0    0000000180032878 f   libucrt:ieee.obj
 0001:000318b0       _IsNonwritableInCurrentImage$filt$0 00000001800328b0 f   LIBCMT:pesect.obj
 0001:000318d0       ??__FgsMapHelper@@YAXXZ    00000001800328d0 f   common-user64:WConsoleEx.obj
 0002:00000690       ?gsMapHelper$initializer$@@3P6AXXZEA 0000000180033690     common-user64:WConsoleEx.obj
 0002:000006a8       ?__scrt_initialize_tss_var@@3P6AHXZEA 00000001800336a8     LIBCMT:thread_safe_statics.obj
 0002:00001190       ?_Fake_alloc@std@@3U_Fake_allocator@1@B 0000000180034190     ConEmuPlugin2800.obj
 0002:00003e40       ?ILLEGAL_CHARACTERS@?A0x78984006@@3QB_WB 0000000180036e40     common-kernel64:CmdLine.obj
 0002:00003e50       ?SPECIAL_CMD_CHARACTERS@?A0x78984006@@3QB_WB 0000000180036e50     common-kernel64:CmdLine.obj
 0002:00003e60       ?CMD_INTERNAL_COMMANDS@?A0x78984006@@3QBQEB_WB 0000000180036e60     common-kernel64:CmdLine.obj
 0002:00004892       ?ignore@std@@3U_Ignore@1@B 0000000180037892     common-kernel64:WObjects.obj
 0002:00004923       ?_Fake_alloc@std@@3U_Fake_allocator@1@B 0000000180037923     common-kernel64:MProcess.obj
 0002:00004da6       ?ignore@std@@3U_Ignore@1@B 0000000180037da6     common-user64:WRegistry.obj
 0002:00004da7       ?_Fake_alloc@std@@3U_Fake_allocator@1@B 0000000180037da7     common-user64:Monitors.obj
 0002:00004ec0       GS_ExceptionPointers       0000000180037ec0     LIBCMT:gs_report.obj
 0002:00004ef0       ?ExceptionTemplate@?1??UnwindNestedFrames@__FrameHandler4@@SAXPEA_KPEAUEHExceptionRecord@@PEAU_CONTEXT@@0PEAXPEAUFuncInfo4@FH4@@HHPEAUHandlerType4@6@PEAU_xDISPATCHER_CONTEXT@@E@Z@4U_EXCEPTION_RECORD@@B 0000000180037ef0     libvcruntime:risctrnsctrl.obj
 0002:00004fc0       ?tokenTable@@3QBUStringLiteral@@B 0000000180037fc0     libvcruntime:undname.obj
 0002:000050c0       ?nameTable@@3QBUStringLiteral@@B 00000001800380c0     libvcruntime:undname.obj
 0002:000055f0       ?rttiTable@@3QBUStringLiteral@@B 00000001800385f0     libvcruntime:undname.obj
 0002:00005640       ?IndirectionName@@3QBUStringLiteral@@B 0000000180038640     libvcruntime:undname.obj
 0002:000056a0       ?PrefixName@@3QBUStringLiteral@@B 00000001800386a0     libvcruntime:undname.obj
 0002:00005d78       ?module_names@?A0x61a31dd3@@3QBQEB_WB 0000000180038d78     libvcruntime:winapi_downlevel.obj
 0002:00005e38       ?candidate_modules@?1??try_get_FlsAlloc@@YAP6AKP6AXPEAX@Z@ZXZ@4QBW4module_id@?A0x61a31dd3@@B 0000000180038e38     libvcruntime:winapi_downlevel.obj
 0002:00005e50       ?candidate_modules@?1??try_get_FlsFree@@YAP6AHK@ZXZ@4QBW4module_id@?A0x61a31dd3@@B 0000000180038e50     libvcruntime:winapi_downlevel.obj
 0002:00005e60       ?candidate_modules@?1??try_get_FlsGetValue@@YAP6APEAXK@ZXZ@4QBW4module_id@?A0x61a31dd3@@B 0000000180038e60     libvcruntime:winapi_downlevel.obj
 0002:00005e78       ?candidate_modules@?1??try_get_FlsSetValue@@YAP6AHKPEAX@ZXZ@4QBW4module_id@?A0x61a31dd3@@B 0000000180038e78     libvcruntime:winapi_downlevel.obj
 0002:00005e90       ?candidate_modules@?1??try_get_InitializeCriticalSectionEx@@YAP6AHPEAU_RTL_CRITICAL_SECTION@@KK@ZXZ@4QBW4module_id@?A0x61a31dd3@@B 0000000180038e90     libvcruntime:winapi_downlevel.obj
 0002:000062e0       ?errtable@@3QBUerrentry@?A0x31fdb9ec@@B 00000001800392e0     libucrt:errno.obj
 0002:00006550       __acrt_initializers        0000000180039550     libucrt:initialization.obj
 0002:00006650       ?strings@?1??fp_format_nan_or_infinity@@YAHW4__acrt_fp_class@@_NPEAD_K1@Z@4QAY03QEBDA 0000000180039650     libucrt:cvt.obj
 0002:000075b8       ?_mb_locale_names@@3QBQEB_WB 000000018003a5b8     libucrt:mbctype.obj
 0002:00007620       ?module_names@?A0x391cf84c@@3QBQEB_WB 000000018003a620     libucrt:winapi_thunks.obj
 0002:00007b28       ?candidate_modules@?1??try_get_AreFileApisANSI@@YAP6AHXZXZ@4QBW4module_id@?A0x391cf84c@@B 000000018003ab28     libucrt:winapi_thunks.obj
 0002:00007b40       ?candidate_modules@?1??try_get_FlsAlloc@@YAP6AKP6AXPEAX@Z@ZXZ@4QBW4module_id@?A0x391cf84c@@B 000000018003ab40     libucrt:winapi_thunks.obj
 0002:00007b48       ?candidate_modules@?1??try_get_FlsFree@@YAP6AHK@ZXZ@4QBW4module_id@?A0x391cf84c@@B 000000018003ab48     libucrt:winapi_thunks.obj
 0002:00007b50       ?candidate_modules@?1??try_get_FlsGetValue@@YAP6APEAXK@ZXZ@4QBW4module_id@?A0x391cf84c@@B 000000018003ab50     libucrt:winapi_thunks.obj
 0002:00007b58       ?candidate_modules@?1??try_get_FlsSetValue@@YAP6AHKPEAX@ZXZ@4QBW4module_id@?A0x391cf84c@@B 000000018003ab58     libucrt:winapi_thunks.obj
 0002:00007b60       ?candidate_modules@?1??try_get_InitializeCriticalSectionEx@@YAP6AHPEAU_RTL_CRITICAL_SECTION@@KK@ZXZ@4QBW4module_id@?A0x391cf84c@@B 000000018003ab60     libucrt:winapi_thunks.obj
 0002:00007b68       ?candidate_modules@?1??try_get_LCMapStringEx@@YAP6AHPEB_WK0HPEA_WHPEAU_nlsversioninfo@@PEAX_J@ZXZ@4QBW4module_id@?A0x391cf84c@@B 000000018003ab68     libucrt:winapi_thunks.obj
 0002:00007b80       ?candidate_modules@?1??try_get_LocaleNameToLCID@@YAP6AKPEB_WK@ZXZ@4QBW4module_id@?A0x391cf84c@@B 000000018003ab80     libucrt:winapi_thunks.obj
 0002:00007b9c       ?candidate_modules@?1??try_get_AppPolicyGetProcessTerminationMethod@@YAP6AJPEAXPEAW4AppPolicyProcessTerminationMethod@@@ZXZ@4QBW4module_id@?A0x391cf84c@@B 000000018003ab9c     libucrt:winapi_thunks.obj
 0002:000085d0       ?LcidToLocaleNameTable@?A0x881e4c05@@3QBULcidToLocaleName@1@B 000000018003b5d0     libucrt:lcidtoname_downlevel.obj
 0002:0000a020       ?LocaleNameToIndexTable@?A0x881e4c05@@3QBULocaleNameIndex@1@B 000000018003d020     libucrt:lcidtoname_downlevel.obj
 0002:0000b8c0       __real_ninf                000000018003e8c0     libucrt:log10.obj
 0002:0000b8d0       __real_inf                 000000018003e8d0     libucrt:log10.obj
 0002:0000b8e0       __real_neg_qnan            000000018003e8e0     libucrt:log10.obj
 0002:0000b8f0       __real_qnanbit             000000018003e8f0     libucrt:log10.obj
 0002:0000b900       __int_1023                 000000018003e900     libucrt:log10.obj
 0002:0000b910       __mask_001                 000000018003e910     libucrt:log10.obj
 0002:0000b920       __mask_mant                000000018003e920     libucrt:log10.obj
 0002:0000b930       __mask_mant_top8           000000018003e930     libucrt:log10.obj
 0002:0000b940       __mask_mant9               000000018003e940     libucrt:log10.obj
 0002:0000b950       __real_log10_e             000000018003e950     libucrt:log10.obj
 0002:0000b960       __real_log10_e_lead        000000018003e960     libucrt:log10.obj
 0002:0000b970       __real_log10_e_tail        000000018003e970     libucrt:log10.obj
 0002:0000b980       __real_log10_2_lead        000000018003e980     libucrt:log10.obj
 0002:0000b990       __real_log10_2_tail        000000018003e990     libucrt:log10.obj
 0002:0000b9a0       __real_two                 000000018003e9a0     libucrt:log10.obj
 0002:0000b9b0       __real_one                 000000018003e9b0     libucrt:log10.obj
 0002:0000b9c0       __real_half                000000018003e9c0     libucrt:log10.obj
 0002:0000b9d0       __mask_100                 000000018003e9d0     libucrt:log10.obj
 0002:0000b9e0       __real_1_over_512          000000018003e9e0     libucrt:log10.obj
 0002:0000b9f0       __real_1_over_2            000000018003e9f0     libucrt:log10.obj
 0002:0000ba00       __real_1_over_3            000000018003ea00     libucrt:log10.obj
 0002:0000ba10       __real_1_over_4            000000018003ea10     libucrt:log10.obj
 0002:0000ba20       __real_1_over_5            000000018003ea20     libucrt:log10.obj
 0002:0000ba30       __real_1_over_6            000000018003ea30     libucrt:log10.obj
 0002:0000ba40       __real_neg_1023            000000018003ea40     libucrt:log10.obj
 0002:0000ba50       __mask_2045                000000018003ea50     libucrt:log10.obj
 0002:0000ba60       __real_threshold           000000018003ea60     libucrt:log10.obj
 0002:0000ba70       __real_near_one_lt         000000018003ea70     libucrt:log10.obj
 0002:0000ba80       __real_near_one_gt         000000018003ea80     libucrt:log10.obj
 0002:0000ba90       __real_min_norm            000000018003ea90     libucrt:log10.obj
 0002:0000baa0       __real_notsign             000000018003eaa0     libucrt:log10.obj
 0002:0000bab0       __real_ca1                 000000018003eab0     libucrt:log10.obj
 0002:0000bac0       __real_ca2                 000000018003eac0     libucrt:log10.obj
 0002:0000bad0       __real_ca3                 000000018003ead0     libucrt:log10.obj
 0002:0000bae0       __real_ca4                 000000018003eae0     libucrt:log10.obj
 0002:0000baf0       __mask_lower               000000018003eaf0     libucrt:log10.obj
 0002:0000bb00       __flag_x_zero              000000018003eb00     libucrt:log10.obj
 0002:0000bb04       __flag_x_neg               000000018003eb04     libucrt:log10.obj
 0002:0000bb08       __flag_x_nan               000000018003eb08     libucrt:log10.obj
 0002:0000d360       __real@433fffffffffffff    0000000180040360     libucrt:fpsr.obj
 0002:0000d368       __real@c33fffffffffffff    0000000180040368     libucrt:fpsr.obj
 0002:0000e4d0       $unwind$?StringCchVPrintfW@@YAJPEA_W_KPEB_WPEAD@Z 00000001800414d0     ConEmuInjects.obj
 0002:0000e4d0       $unwind$?WaitOverlapped@?$PipeServer@UCESERVER_REQ@@@@IEAAHPEAUPipeInst@1@PEAK@Z 00000001800414d0     PluginSrv.obj
 0002:0000e4d0       $unwind$??$create_environment@D@@YAQEAPEADQEAD@Z 00000001800414d0     libucrt:environment_initialization.obj
 0002:0000e4e8       $unwind$?StartupHooks@@YA_NPEAUHINSTANCE__@@@Z 00000001800414e8     ConEmuInjects.obj
 0002:0000e504       $unwind$?StartupConsoleHooks@@YAXXZ 0000000180041504     ConEmuInjects.obj
 0002:0000e504       $unwind$?ExitFAR@@YAXXZ    0000000180041504     ConEmuPlugin.obj
 0002:0000e504       $unwind$?ExitFARW3@@YAXPEAX@Z 0000000180041504     ConEmuPlugin.obj
 0002:0000e504       $unwind$ExitFARW           0000000180041504     ConEmuPlugin.obj
 0002:0000e504       $unwind$?ShowMessage@CPluginW995@@UEAAHPEB_WH_N@Z 0000000180041504     ConEmuPlugin995.obj
 0002:0000e504       $unwind$strtol             0000000180041504     libucrt:strtox.obj
 0002:0000e504       $unwind$wcstol             0000000180041504     libucrt:strtox.obj
 0002:0000e504       $unwind$_invalid_parameter_noinfo 0000000180041504     libucrt:invalid_parameter.obj
 0002:0000e504       $unwind$_log10_special     0000000180041504     libucrt:log_special.obj
 0002:0000e504       $unwind$?_Doraise@bad_alloc@stdext@@MEBAXXZ 0000000180041504     common-kernel64:CEStr.obj
 0002:0000e50c       $unwind$?ShutdownHooks@@YAXXZ 000000018004150c     ConEmuInjects.obj
 0002:0000e50c       $unwind$?insert@?$MArray@UWindowInfo@@@@QEAA_J_JAEBUWindowInfo@@0@Z 000000018004150c     ConEmuPlugin2800.obj
 0002:0000e50c       $unwind$?OnMainThreadActivated@CPluginBase@@QEAAXXZ 000000018004150c     ConEmuPluginBase.obj
 0002:0000e50c       $unwind$?UpdateBackground_Exec@CPluginBackground@@KAXPEAURegisterBackgroundArg@@PEAUPaintBackgroundArg@@@Z 000000018004150c     PluginBackground.obj
 0002:0000e518       $unwind$??$swprintf_c@$0EA@@@YAHAEAY0EA@_WPEB_WZZ 0000000180041518     ConEmuInjects.obj
 0002:0000e518       $unwind$??$swprintf_c@$0IA@@@YAHAEAY0IA@_WPEB_WZZ 0000000180041518     ConEmuInjects.obj
 0002:0000e518       $unwind$??$swprintf_c@$0PP@@@YAHAEAY0PP@_WPEB_WZZ 0000000180041518     ConEmuInjects.obj
 0002:0000e518       $unwind$??$swprintf_c@$0BAE@@@YAHAEAY0BAE@_WPEB_WZZ 0000000180041518     ConEmuPluginBase.obj
 0002:0000e518       $unwind$??$swprintf_c@$0DAM@@@YAHAEAY0DAM@_WPEB_WZZ 0000000180041518     ConEmuPluginBase.obj
 0002:0000e518       $unwind$??$swprintf_c@$0EAA@@@YAHAEAY0EAA@_WPEB_WZZ 0000000180041518     ConEmuPluginBase.obj
 0002:0000e518       $unwind$??$swprintf_c@$0MI@@@YAHAEAY0MI@_WPEB_WZZ 0000000180041518     ConEmuPluginBase.obj
 0002:0000e518       $unwind$??$swprintf_c@$09@@YAHAEAY09_WPEB_WZZ 0000000180041518     PluginSrv.obj
 0002:0000e518       $unwind$??$sprintf_c@$0CI@@@YAHAEAY0CI@DPEBDZZ 0000000180041518     common-kernel64:WThreads.obj
 0002:0000e518       $unwind$??$swprintf_c@$0FA@@@YAHAEAY0FA@_WPEB_WZZ 0000000180041518     common-user64:EmergencyShow.obj
 0002:0000e520       $unwind$?OpenPlugin@@YAPEAXH_J@Z 0000000180041520     ConEmuPlugin.obj
 0002:0000e520       $unwind$OpenPluginW        0000000180041520     ConEmuPlugin.obj
 0002:0000e520       $unwind$ProcessSynchroEventW 0000000180041520     ConEmuPlugin.obj
 0002:0000e520       $unwind$??_GCPluginW1900@@UEAAPEAXI@Z 0000000180041520     ConEmuPlugin1900.obj
 0002:0000e520       $unwind$?Open@CPluginW1900@@UEAAPEAXPEBX@Z 0000000180041520     ConEmuPlugin1900.obj
 0002:0000e520       $unwind$??_GCPluginW2800@@UEAAPEAXI@Z 0000000180041520     ConEmuPlugin2800.obj
 0002:0000e520       $unwind$??_Gbad_alloc@std@@UEAAPEAXI@Z 0000000180041520     ConEmuPlugin2800.obj
 0002:0000e520       $unwind$??_Gexception@std@@UEAAPEAXI@Z 0000000180041520     ConEmuPlugin2800.obj
 0002:0000e520       $unwind$??_GCPluginW995@@UEAAPEAXI@Z 0000000180041520     ConEmuPlugin995.obj
 0002:0000e520       $unwind$?LoadFarSettings@CPluginW995@@UEAAXPEAUCEFarInterfaceSettings@@PEAUCEFarPanelSettings@@@Z 0000000180041520     ConEmuPlugin995.obj
 0002:0000e520       $unwind$??_GCPluginAnsi@@UEAAPEAXI@Z 0000000180041520     ConEmuPluginA.obj
 0002:0000e520       $unwind$?GetPluginInfoPtr@CPluginAnsi@@UEAAXPEAX@Z 0000000180041520     ConEmuPluginA.obj
 0002:0000e520       $unwind$?LoadFarSettings@CPluginAnsi@@UEAAXPEAUCEFarInterfaceSettings@@PEAUCEFarPanelSettings@@@Z 0000000180041520     ConEmuPluginA.obj
 0002:0000e520       $unwind$?OutDataAlloc@CPluginBase@@SA_NK@Z 0000000180041520     ConEmuPluginBase.obj
 0002:0000e520       $unwind$?ProcessCommandLine@CPluginBase@@QEAA_NPEA_W@Z 0000000180041520     ConEmuPluginBase.obj
 0002:0000e520       $unwind$?ProcessSynchroEvent@CPluginBase@@QEAAHHPEAX@Z 0000000180041520     ConEmuPluginBase.obj
 0002:0000e520       $unwind$?StopThread@CPluginBase@@QEAAX_N@Z 0000000180041520     ConEmuPluginBase.obj
 0002:0000e520       $unwind$?cmd_GuiChanged@CPluginBase@@QEAAXPEAX@Z 0000000180041520     ConEmuPluginBase.obj
 0002:0000e520       $unwind$?IsParmChanged@CPluginBackground@@IEAA_NPEAUPaintBackgroundArg@@0@Z 0000000180041520     PluginBackground.obj
 0002:0000e520       $unwind$?_PipeServerThread@?$PipeServer@UCESERVER_REQ@@@@KAKPEAX@Z 0000000180041520     PluginSrv.obj
 0002:0000e520       $unwind$_RTC_Initialize    0000000180041520     LIBCMT:initsect.obj
 0002:0000e520       $unwind$_RTC_Terminate     0000000180041520     LIBCMT:initsect.obj
 0002:0000e520       $unwind$?__scrt_initialize_thread_safe_statics@@YAHXZ 0000000180041520     LIBCMT:thread_safe_statics.obj
 0002:0000e520       $unwind$??_Gbad_function_call@std@@UEAAPEAXI@Z 0000000180041520     libcpmt:xthrow.obj
 0002:0000e520       $unwind$??_Glength_error@std@@UEAAPEAXI@Z 0000000180041520     libcpmt:xthrow.obj
 0002:0000e520       $unwind$??_Glogic_error@std@@UEAAPEAXI@Z 0000000180041520     libcpmt:xthrow.obj
 0002:0000e520       $unwind$__FrameUnwindFilter 0000000180041520     libvcruntime:ehhelpers.obj
 0002:0000e520       $unwind$??_Gbad_exception@std@@UEAAPEAXI@Z 0000000180041520     libvcruntime:frame.obj
 0002:0000e520       $unwind$?ExFilterRethrowFH4@@YAHPEAU_EXCEPTION_POINTERS@@PEAUEHExceptionRecord@@HPEAH@Z 0000000180041520     libvcruntime:frame.obj
 0002:0000e520       $unwind$_FindAndUnlinkFrame 0000000180041520     libvcruntime:risctrnsctrl.obj
 0002:0000e520       $unwind$__vcrt_FlsSetValue 0000000180041520     libvcruntime:winapi_downlevel.obj
 0002:0000e520       $unwind$??$common_initialize_environment_nolock@D@@YAHXZ 0000000180041520     libucrt:environment_initialization.obj
 0002:0000e520       $unwind$_realloc_base      0000000180041520     libucrt:realloc_base.obj
 0002:0000e520       $unwind$?replace_current_thread_locale_nolock@@YAXQEAU__acrt_ptd@@QEAU__crt_locale_data@@@Z 0000000180041520     libucrt:per_thread_data.obj
 0002:0000e520       $unwind$__acrt_execute_uninitializers 0000000180041520     libucrt:shared_initialization.obj
 0002:0000e520       $unwind$__acrt_FlsSetValue 0000000180041520     libucrt:winapi_thunks.obj
 0002:0000e520       $unwind$__acrt_LocaleNameToLCID 0000000180041520     libucrt:winapi_thunks.obj
 0002:0000e520       $unwind$_updatetlocinfoEx_nolock 0000000180041520     libucrt:locale_refcounting.obj
 0002:0000e520       $unwind$_close_nolock      0000000180041520     libucrt:close.obj
 0002:0000e520       $unwind$__acrt_uninitialize_lowio 0000000180041520     libucrt:ioinit.obj
 0002:0000e520       $unwind$__acrt_errno_map_os_error 0000000180041520     libucrt:errno.obj
 0002:0000e520       $unwind$_initterm_e        0000000180041520     libucrt:initterm.obj
 0002:0000e520       $unwind$_fclose_nolock     0000000180041520     libucrt:fclose.obj
 0002:0000e520       $unwind$?type_case_n@?$output_processor@DV?$string_output_adapter@D@__crt_stdio_output@@V?$standard_base@DV?$string_output_adapter@D@__crt_stdio_output@@@2@@__crt_stdio_output@@AEAA_NXZ 0000000180041520     libucrt:output.obj
 0002:0000e520       $unwind$?type_case_n@?$output_processor@_WV?$string_output_adapter@_W@__crt_stdio_output@@V?$standard_base@_WV?$string_output_adapter@_W@__crt_stdio_output@@@2@@__crt_stdio_output@@AEAA_NXZ 0000000180041520     libucrt:output.obj
 0002:0000e520       $unwind$strncpy_s          0000000180041520     libucrt:strncpy_s.obj
 0002:0000e520       $unwind$??4CEStr@@QEAAAEAU0@$$QEAU0@@Z 0000000180041520     common-kernel64:CEStr.obj
 0002:0000e520       $unwind$?PointToName@@YAPEB_WPEB_W@Z 0000000180041520     common-kernel64:CmdLine.obj
 0002:0000e520       $unwind$?isConsoleClass@@YA_NPEB_W@Z 0000000180041520     common-kernel64:ConEmuCheck.obj
 0002:0000e520       $unwind$?myGetConsoleWindow@@YAPEAUHWND__@@XZ 0000000180041520     common-kernel64:ConEmuCheck.obj
 0002:0000e520       $unwind$??0?$MToolHelp@UtagPROCESSENTRY32W@@$1?Process32FirstW@@YAHPEAXPEAU1@@Z$1?Process32NextW@@YAH01@Z@@QEAA@KK@Z 0000000180041520     common-kernel64:MProcess.obj
 0002:0000e520       $unwind$??_G?$MToolHelp@UtagPROCESSENTRY32W@@$1?Process32FirstW@@YAHPEAXPEAU1@@Z$1?Process32NextW@@YAH01@Z@@UEAAPEAXI@Z 0000000180041520     common-kernel64:MProcess.obj
 0002:0000e520       $unwind$??_GMToolHelpProcess@@UEAAPEAXI@Z 0000000180041520     common-kernel64:MProcess.obj
 0002:0000e520       $unwind$?Next@?$MToolHelp@UtagPROCESSENTRY32W@@$1?Process32FirstW@@YAHPEAXPEAU1@@Z$1?Process32NextW@@YAH01@Z@@QEAA_NAEAUtagPROCESSENTRY32W@@@Z 0000000180041520     common-kernel64:MProcess.obj
 0002:0000e520       $unwind$?Open@?$MToolHelp@UtagPROCESSENTRY32W@@$1?Process32FirstW@@YAHPEAXPEAU1@@Z$1?Process32NextW@@YAH01@Z@@QEAA_NXZ 0000000180041520     common-kernel64:MProcess.obj
 0002:0000e520       $unwind$?getNext@?$MToolHelp@UtagPROCESSENTRY32W@@$1?Process32FirstW@@YAHPEAXPEAU1@@Z$1?Process32NextW@@YAH01@Z@@IEAA_NXZ 0000000180041520     common-kernel64:MProcess.obj
 0002:0000e520       $unwind$??0MSection@@QEAA@XZ 0000000180041520     common-kernel64:MSection.obj
 0002:0000e520       $unwind$??1MSection@@QEAA@XZ 0000000180041520     common-kernel64:MSection.obj
 0002:0000e520       $unwind$?Unlock@MSection@@IEAAXH@Z 0000000180041520     common-kernel64:MSection.obj
 0002:0000e520       $unwind$??_GMNullDesc@@QEAAPEAXI@Z 0000000180041520     common-kernel64:MSecurity.obj
 0002:0000e520       $unwind$??4?$function@$$A6AXPEAX@Z@std@@QEAAAEAV01@$$QEAV01@@Z 0000000180041520     common-kernel64:WObjects.obj
 0002:0000e52c       $unwind$?GetFarHWND2@@YAPEAUHWND__@@H@Z 000000018004152c     ConEmuPlugin.obj
 0002:0000e52c       $unwind$?GetPluginInfo@@YAXPEAX@Z 000000018004152c     ConEmuPlugin.obj
 0002:0000e52c       $unwind$?GetPluginInfoW@@YAXPEAX@Z 000000018004152c     ConEmuPlugin.obj
 0002:0000e52c       $unwind$?IsConsoleActive@@YAHXZ 000000018004152c     ConEmuPlugin.obj
 0002:0000e52c       $unwind$?OpenW@@YAPEAXPEBX@Z 000000018004152c     ConEmuPlugin.obj
 0002:0000e52c       $unwind$?ProcessEditorEvent@@YAHHPEAX@Z 000000018004152c     ConEmuPlugin.obj
 0002:0000e52c       $unwind$?ProcessEditorEventW3@@YA_JPEAX@Z 000000018004152c     ConEmuPlugin.obj
 0002:0000e52c       $unwind$?ProcessEditorInput@@YAHPEBU_INPUT_RECORD@@@Z 000000018004152c     ConEmuPlugin.obj
 0002:0000e52c       $unwind$?ProcessSynchroEventW3@@YA_JPEAX@Z 000000018004152c     ConEmuPlugin.obj
 0002:0000e52c       $unwind$?ProcessViewerEvent@@YAHHPEAX@Z 000000018004152c     ConEmuPlugin.obj
 0002:0000e52c       $unwind$?ProcessViewerEventW3@@YA_JPEAX@Z 000000018004152c     ConEmuPlugin.obj
 0002:0000e52c       $unwind$?SetStartupInfo@@YAXPEAX@Z 000000018004152c     ConEmuPlugin.obj
 0002:0000e52c       $unwind$ProcessEditorEventW 000000018004152c     ConEmuPlugin.obj
 0002:0000e52c       $unwind$ProcessEditorInputW 000000018004152c     ConEmuPlugin.obj
 0002:0000e52c       $unwind$ProcessViewerEventW 000000018004152c     ConEmuPlugin.obj
 0002:0000e52c       $unwind$SetStartupInfoW    000000018004152c     ConEmuPlugin.obj
 0002:0000e52c       $unwind$?GetFarRect@CPluginW1900@@UEAA_NAEAU_SMALL_RECT@@@Z 000000018004152c     ConEmuPlugin1900.obj
 0002:0000e52c       $unwind$?GetPluginInfoPtr@CPluginW1900@@UEAAXPEAX@Z 000000018004152c     ConEmuPlugin1900.obj
 0002:0000e52c       $unwind$?ProcessSynchroEventPtr@CPluginW1900@@UEAAHPEAX@Z 000000018004152c     ConEmuPlugin1900.obj
 0002:0000e52c       $unwind$??0bad_alloc@std@@QEAA@AEBV01@@Z 000000018004152c     ConEmuPlugin2800.obj
 0002:0000e52c       $unwind$??0exception@std@@QEAA@AEBV01@@Z 000000018004152c     ConEmuPlugin2800.obj
 0002:0000e52c       $unwind$?GetFarRect@CPluginW2800@@UEAA_NAEAU_SMALL_RECT@@@Z 000000018004152c     ConEmuPlugin2800.obj
 0002:0000e52c       $unwind$?GetPluginInfoPtr@CPluginW2800@@UEAAXPEAX@Z 000000018004152c     ConEmuPlugin2800.obj
 0002:0000e52c       $unwind$?ProcessSynchroEventPtr@CPluginW2800@@UEAAHPEAX@Z 000000018004152c     ConEmuPlugin2800.obj
 0002:0000e52c       $unwind$?push_back@?$MArray@UWindowInfo@@@@QEAA_JAEBUWindowInfo@@@Z 000000018004152c     ConEmuPlugin2800.obj
 0002:0000e52c       $unwind$?GetFarRect@CPluginW995@@UEAA_NAEAU_SMALL_RECT@@@Z 000000018004152c     ConEmuPlugin995.obj
 0002:0000e52c       $unwind$?GetPluginInfoPtr@CPluginW995@@UEAAXPEAX@Z 000000018004152c     ConEmuPlugin995.obj
 0002:0000e52c       $unwind$?PanelControlApi@CPluginW995@@UEAA_JPEAXH_J0@Z 000000018004152c     ConEmuPlugin995.obj
 0002:0000e52c       $unwind$??_GCPluginBase@@UEAAPEAXI@Z 000000018004152c     ConEmuPluginBase.obj
 0002:0000e52c       $unwind$?BackgroundMacroError@CPluginBase@@SAKPEAX@Z 000000018004152c     ConEmuPluginBase.obj
 0002:0000e52c       $unwind$?CheckBufferEnabled@CPluginBase@@QEAA_NXZ 000000018004152c     ConEmuPluginBase.obj
 0002:0000e52c       $unwind$?CloseMap@?$MFileMapping@UCESERVER_CONSOLE_MAPPING_HDR@@@@QEAAXXZ 000000018004152c     ConEmuPluginBase.obj
 0002:0000e52c       $unwind$?DllMain_ProcessDetach@CPluginBase@@KAXXZ 000000018004152c     ConEmuPluginBase.obj
 0002:0000e52c       $unwind$?ExecuteSynchro@CPluginBase@@QEAAXXZ 000000018004152c     ConEmuPluginBase.obj
 0002:0000e52c       $unwind$?ExitFarCommon@CPluginBase@@QEAAX_N@Z 000000018004152c     ConEmuPluginBase.obj
 0002:0000e52c       $unwind$?OnConsolePeekInput@CPluginBase@@SAHPEAUHookCallbackArg@@@Z 000000018004152c     ConEmuPluginBase.obj
 0002:0000e52c       $unwind$?OnConsoleReadInputWork@CPluginBase@@SAHPEAUHookCallbackArg@@@Z 000000018004152c     ConEmuPluginBase.obj
 0002:0000e52c       $unwind$?OnShellExecuteExW_Except@CPluginBase@@SAHPEAUHookCallbackArg@@@Z 000000018004152c     ConEmuPluginBase.obj
 0002:0000e52c       $unwind$?ReloadFarInfoApi@CPluginBase@@IEAA_NXZ 000000018004152c     ConEmuPluginBase.obj
 0002:0000e52c       $unwind$?SwitchTabCommand@CPluginBase@@QEAAXW4PluginMenuCommands@@@Z 000000018004152c     ConEmuPluginBase.obj
 0002:0000e52c       $unwind$?isMacroActive@CPluginBase@@QEAA_NAEAH@Z 000000018004152c     ConEmuPluginBase.obj
 0002:0000e52c       $unwind$?pcc_Disabled@CPluginBase@@SA_NW4PluginMenuCommands@@@Z 000000018004152c     ConEmuPluginBase.obj
 0002:0000e52c       $unwind$?pcc_Selected@CPluginBase@@SA_NW4PluginMenuCommands@@@Z 000000018004152c     ConEmuPluginBase.obj
 0002:0000e52c       $unwind$?CloseMap@?$MFileMapping@UPanelViewSetMapping@@@@QEAAXXZ 000000018004152c     PluginBackground.obj
 0002:0000e52c       $unwind$?MonitorBackground@CPluginBackground@@QEAAXXZ 000000018004152c     PluginBackground.obj
 0002:0000e52c       $unwind$?OnMainThreadActivated@CPluginBackground@@QEAAXHH@Z 000000018004152c     PluginBackground.obj
 0002:0000e52c       $unwind$?PlugServerStop@@YAX_N@Z 000000018004152c     PluginSrv.obj
 0002:0000e52c       $unwind$__raise_securityfailure 000000018004152c     LIBCMT:gs_report.obj
 0002:0000e52c       $unwind$??_Gtype_info@@UEAAPEAXI@Z 000000018004152c     LIBCMT:std_type_info_static.obj
 0002:0000e52c       $unwind$_Init_thread_footer 000000018004152c     LIBCMT:thread_safe_statics.obj
 0002:0000e52c       $unwind$_Init_thread_header 000000018004152c     LIBCMT:thread_safe_statics.obj
 0002:0000e52c       $unwind$_Init_thread_wait  000000018004152c     LIBCMT:thread_safe_statics.obj
 0002:0000e52c       $unwind$__scrt_initialize_crt 000000018004152c     LIBCMT:utility.obj
 0002:0000e52c       $unwind$__scrt_initialize_onexit_tables 000000018004152c     LIBCMT:utility.obj
 0002:0000e52c       $unwind$__scrt_release_startup_lock 000000018004152c     LIBCMT:utility.obj
 0002:0000e52c       $unwind$__scrt_uninitialize_crt 000000018004152c     LIBCMT:utility.obj
 0002:0000e52c       $unwind$_onexit            000000018004152c     LIBCMT:utility.obj
 0002:0000e52c       $unwind$??0bad_function_call@std@@QEAA@AEBV01@@Z 000000018004152c     libcpmt:xthrow.obj
 0002:0000e52c       $unwind$??0length_error@std@@QEAA@AEBV01@@Z 000000018004152c     libcpmt:xthrow.obj
 0002:0000e52c       $unwind$??0logic_error@std@@QEAA@AEBV01@@Z 000000018004152c     libcpmt:xthrow.obj
 0002:0000e52c       $unwind$_IsExceptionObjectToBeDestroyed 000000018004152c     libvcruntime:ehhelpers.obj
 0002:0000e52c       $unwind$??0HandlerMap4@FH4@@QEAA@PEBUTryBlockMapEntry4@1@_KH@Z 000000018004152c     libvcruntime:frame.obj
 0002:0000e52c       $unwind$??0bad_exception@std@@QEAA@AEBV01@@Z 000000018004152c     libvcruntime:frame.obj
 0002:0000e52c       $unwind$?ExFilterRethrow@@YAHPEAU_EXCEPTION_POINTERS@@PEAUEHExceptionRecord@@PEAH@Z 000000018004152c     libvcruntime:frame.obj
 0002:0000e52c       $unwind$__vcrt_uninitialize_locks 000000018004152c     libvcruntime:locks.obj
 0002:0000e52c       $unwind$__vcrt_freeptd     000000018004152c     libvcruntime:per_thread_data.obj
 0002:0000e52c       $unwind$_CreateFrameInfo   000000018004152c     libvcruntime:risctrnsctrl.obj
 0002:0000e52c       $unwind$_SetImageBase      000000018004152c     libvcruntime:risctrnsctrl.obj
 0002:0000e52c       $unwind$_SetThrowImageBase 000000018004152c     libvcruntime:risctrnsctrl.obj
 0002:0000e52c       $unwind$__std_exception_destroy 000000018004152c     libvcruntime:std_exception.obj
 0002:0000e52c       $unwind$__std_type_info_destroy_list 000000018004152c     libvcruntime:std_type_info.obj
 0002:0000e52c       $unwind$__vcrt_FlsAlloc    000000018004152c     libvcruntime:winapi_downlevel.obj
 0002:0000e52c       $unwind$__vcrt_FlsFree     000000018004152c     libvcruntime:winapi_downlevel.obj
 0002:0000e52c       $unwind$__vcrt_FlsGetValue 000000018004152c     libvcruntime:winapi_downlevel.obj
 0002:0000e52c       $unwind$_calloc_base       000000018004152c     libucrt:calloc_base.obj
 0002:0000e52c       $unwind$_malloc_base       000000018004152c     libucrt:malloc_base.obj
 0002:0000e52c       $unwind$_callnewh          000000018004152c     libucrt:new_handler.obj
 0002:0000e52c       $unwind$initialize_pointers 000000018004152c     libucrt:initialization.obj
 0002:0000e52c       $unwind$uninitialize_allocated_memory 000000018004152c     libucrt:initialization.obj
 0002:0000e52c       $unwind$__acrt_initialize_locks 000000018004152c     libucrt:locks.obj
 0002:0000e52c       $unwind$__acrt_uninitialize_locks 000000018004152c     libucrt:locks.obj
 0002:0000e52c       $unwind$__acrt_freeptd     000000018004152c     libucrt:per_thread_data.obj
 0002:0000e52c       $unwind$__acrt_getptd_head 000000018004152c     libucrt:per_thread_data.obj
 0002:0000e52c       $unwind$__acrt_get_process_end_policy 000000018004152c     libucrt:win_policies.obj
 0002:0000e52c       $unwind$__acrt_AppPolicyGetProcessTerminationMethodInternal 000000018004152c     libucrt:winapi_thunks.obj
 0002:0000e52c       $unwind$__acrt_FlsAlloc    000000018004152c     libucrt:winapi_thunks.obj
 0002:0000e52c       $unwind$__acrt_FlsFree     000000018004152c     libucrt:winapi_thunks.obj
 0002:0000e52c       $unwind$__acrt_FlsGetValue 000000018004152c     libucrt:winapi_thunks.obj
 0002:0000e52c       $unwind$__acrt_uninitialize_winapi_thunks 000000018004152c     libucrt:winapi_thunks.obj
 0002:0000e52c       $unwind$__acrt_update_locale_info 000000018004152c     libucrt:locale_update.obj
 0002:0000e52c       $unwind$__acrt_update_multibyte_info 000000018004152c     libucrt:locale_update.obj
 0002:0000e52c       $unwind$__acrt_allocate_buffer_for_argv 000000018004152c     libucrt:argv_parsing.obj
 0002:0000e52c       $unwind$?exit_or_terminate_process@@YAXI@Z 000000018004152c     libucrt:exit.obj
 0002:0000e52c       $unwind$?try_cor_exit_process@@YAXI@Z 000000018004152c     libucrt:exit.obj
 0002:0000e52c       $unwind$__acrt_uninitialize_stdio 000000018004152c     libucrt:_file.obj
 0002:0000e52c       $unwind$__acrt_stdio_free_buffer_nolock 000000018004152c     libucrt:_freebuf.obj
 0002:0000e52c       $unwind$_fflush_nolock     000000018004152c     libucrt:fflush.obj
 0002:0000e52c       $unwind$?state_case_normal@?$output_processor@DV?$string_output_adapter@D@__crt_stdio_output@@V?$standard_base@DV?$string_output_adapter@D@__crt_stdio_output@@@2@@__crt_stdio_output@@AEAA_NXZ 000000018004152c     libucrt:output.obj
 0002:0000e52c       $unwind$?type_case_s@?$output_processor@DV?$string_output_adapter@D@__crt_stdio_output@@V?$standard_base@DV?$string_output_adapter@D@__crt_stdio_output@@@2@@__crt_stdio_output@@AEAA_NXZ 000000018004152c     libucrt:output.obj
 0002:0000e52c       $unwind$strcpy_s           000000018004152c     libucrt:strcpy_s.obj
 0002:0000e52c       $unwind$_clrfp             000000018004152c     libucrt:fpctrl.obj
 0002:0000e52c       $unwind$_set_statfp        000000018004152c     libucrt:fpctrl.obj
 0002:0000e52c       $unwind$_clearfp           000000018004152c     libucrt:ieee.obj
 0002:0000e52c       $unwind$_controlfp_s       000000018004152c     libucrt:contrlfp.obj
 0002:0000e52c       $unwind$fegetenv           000000018004152c     libucrt:fegetenv.obj
 0002:0000e52c       $unwind$feholdexcept       000000018004152c     libucrt:feholdexcept.obj
 0002:0000e52c       $unwind$fesetenv           000000018004152c     libucrt:fesetenv.obj
 0002:0000e52c       $unwind$??0CEStr@@QEAA@$$QEAPEA_W@Z 000000018004152c     common-kernel64:CEStr.obj
 0002:0000e52c       $unwind$??4CEStr@@QEAAAEAU0@PEB_W@Z 000000018004152c     common-kernel64:CEStr.obj
 0002:0000e52c       $unwind$??_Gbad_alloc@stdext@@UEAAPEAXI@Z 000000018004152c     common-kernel64:CEStr.obj
 0002:0000e52c       $unwind$??_Gexception@stdext@@UEAAPEAXI@Z 000000018004152c     common-kernel64:CEStr.obj
 0002:0000e52c       $unwind$?GetMaxCount@CEStr@@QEAA_JXZ 000000018004152c     common-kernel64:CEStr.obj
 0002:0000e52c       $unwind$?IsEnvBlockVariableValid@@YA_NPEB_W@Z 000000018004152c     common-kernel64:Common.obj
 0002:0000e52c       $unwind$?CloseMap@?$MFileMapping@UConEmuGuiMapping@@@@QEAAXXZ 000000018004152c     common-kernel64:ConEmuCheck.obj
 0002:0000e52c       $unwind$??1CEnvStrings@@QEAA@XZ 000000018004152c     common-kernel64:EnvVar.obj
 0002:0000e52c       $unwind$?Clear@CEnvRestorer@@QEAAXXZ 000000018004152c     common-kernel64:EnvVar.obj
 0002:0000e52c       $unwind$?SavePathVar@CEnvRestorer@@QEAAXPEB_W@Z 000000018004152c     common-kernel64:EnvVar.obj
 0002:0000e52c       $unwind$?Free@MModule@@QEAAXXZ 000000018004152c     common-kernel64:MModule.obj
 0002:0000e52c       $unwind$??0MSectionThread@@QEAA@PEAVMSection@@@Z 000000018004152c     common-kernel64:MSection.obj
 0002:0000e52c       $unwind$??1MSectionLock@@QEAA@XZ 000000018004152c     common-kernel64:MSection.obj
 0002:0000e52c       $unwind$?Lock@MSectionLock@@QEAAHPEAVMSection@@HK@Z 000000018004152c     common-kernel64:MSection.obj
 0002:0000e52c       $unwind$?Unlock@MSectionLock@@QEAAXXZ 000000018004152c     common-kernel64:MSection.obj
 0002:0000e52c       $unwind$??0MSectionSimple@@QEAA@_N@Z 000000018004152c     common-kernel64:MSectionSimple.obj
 0002:0000e52c       $unwind$??1MSectionSimple@@QEAA@XZ 000000018004152c     common-kernel64:MSectionSimple.obj
 0002:0000e52c       $unwind$?Close@MSectionSimple@@QEAAXXZ 000000018004152c     common-kernel64:MSectionSimple.obj
 0002:0000e52c       $unwind$?Init@MSectionSimple@@QEAAXXZ 000000018004152c     common-kernel64:MSectionSimple.obj
 0002:0000e52c       $unwind$?TryEnter@MSectionSimple@@QEAA_NXZ 000000018004152c     common-kernel64:MSectionSimple.obj
 0002:0000e52c       $unwind$?LoadAdvApi@MNullDesc@@IEAAHXZ 000000018004152c     common-kernel64:MSecurity.obj
 0002:0000e52c       $unwind$?GetAllMonitorsWorkspace@@YA?AUtagRECT@@XZ 000000018004152c     common-user64:Monitors.obj
 0002:0000e52c       $unwind$?SetConEmuEnvVarChild@@YAXPEAUHWND__@@0@Z 000000018004152c     common-user64:SetEnvVar.obj
 0002:0000e534       $unwind$?RegisterPanelView@@YAHPEAUPanelViewInit@@@Z 0000000180041534     ConEmuPlugin.obj
 0002:0000e550       $unwind$?RegisterBackground@@YAHPEAURegisterBackgroundArg@@@Z 0000000180041550     ConEmuPlugin.obj
 0002:0000e560       $cppxdata$?RegisterBackground@@YAHPEAURegisterBackgroundArg@@@Z 0000000180041560     ConEmuPlugin.obj
 0002:0000e569       $stateUnwindMap$?RegisterBackground@@YAHPEAURegisterBackgroundArg@@@Z 0000000180041569     ConEmuPlugin.obj
 0002:0000e56f       $ip2state$?RegisterBackground@@YAHPEAURegisterBackgroundArg@@@Z 000000018004156f     ConEmuPlugin.obj
 0002:0000e574       $unwind$?dtor$0@?0??RegisterBackground@@YAHPEAURegisterBackgroundArg@@@Z@4HA 0000000180041574     ConEmuPlugin.obj
 0002:0000e574       $unwind$?dtor$0@?0??UpdateConEmuTabsApi@CPluginW2800@@UEAA_NH@Z@4HA 0000000180041574     ConEmuPlugin2800.obj
 0002:0000e574       $unwind$?dtor$0@?0??DllMain_ProcessAttach@CPluginBase@@KAXPEAUHINSTANCE__@@@Z@4HA 0000000180041574     ConEmuPluginBase.obj
 0002:0000e574       $unwind$?dtor$0@?0??Plugin@@YAPEAVCPluginBase@@XZ@4HA 0000000180041574     ConEmuPluginBase.obj
 0002:0000e574       $unwind$?dtor$1@?0??DllMain_ProcessAttach@CPluginBase@@KAXPEAUHINSTANCE__@@@Z@4HA 0000000180041574     ConEmuPluginBase.obj
 0002:0000e574       $unwind$?dtor$1@?0??Plugin@@YAPEAVCPluginBase@@XZ@4HA 0000000180041574     ConEmuPluginBase.obj
 0002:0000e574       $unwind$?dtor$2@?0??Plugin@@YAPEAVCPluginBase@@XZ@4HA 0000000180041574     ConEmuPluginBase.obj
 0002:0000e574       $unwind$?dtor$3@?0??Plugin@@YAPEAVCPluginBase@@XZ@4HA 0000000180041574     ConEmuPluginBase.obj
 0002:0000e574       $unwind$?dtor$0@?0???0CPluginBackground@@QEAA@XZ@4HA 0000000180041574     PluginBackground.obj
 0002:0000e574       $unwind$?filt$0@?0??GetTo@?$MFileMapping@UPanelViewSetMapping@@@@QEAA_NPEAUPanelViewSetMapping@@H@Z@4HA 0000000180041574     PluginBackground.obj
 0002:0000e574       $unwind$?fin$0@?0??dllmain_crt_process_attach@@YAHQEAUHINSTANCE__@@QEAX@Z@4HA 0000000180041574     LIBCMT:dll_dllmain.obj
 0002:0000e574       $unwind$?fin$0@?0??dllmain_crt_process_detach@@YAH_N@Z@4HA 0000000180041574     LIBCMT:dll_dllmain.obj
 0002:0000e574       $unwind$?fin$1@?0??dllmain_crt_process_detach@@YAH_N@Z@4HA 0000000180041574     LIBCMT:dll_dllmain.obj
 0002:0000e574       $unwind$_IsNonwritableInCurrentImage$filt$0 0000000180041574     LIBCMT:pesect.obj
 0002:0000e574       $unwind$?filt$0@?0??CxxCallCatchBlock@__FrameHandler4@@SAPEAXPEAU_EXCEPTION_RECORD@@@Z@4HA 0000000180041574     libvcruntime:frame.obj
 0002:0000e574       $unwind$_query_new_handler$fin$0 0000000180041574     libucrt:new_handler.obj
 0002:0000e574       $unwind$?fin$0@?0???$?RV<lambda_0ae27a3a962d80f24befdcbee591983d>@@AEAV<lambda_8d0ee55de4b1038c4002e0adecdf1839>@@V<lambda_dc504788e8f1664fe9b84e20bfb512f2>@@@?$__crt_seh_guarded_call@X@@QEAAX$$QEAV<lambda_0ae27a3a962d80f24befdcbee591983d>@@AEAV<lambda_8d0ee55de4b1038c4002e0adecdf1839>@@$$QEAV<lambda_dc504788e8f1664fe9b84e20bfb512f2>@@@Z@4HA 0000000180041574     libucrt:per_thread_data.obj
 0002:0000e574       $unwind$?fin$0@?0???$?RV<lambda_2d41944a1d46af3157314b8a01080d33>@@AEAV<lambda_8f455de75cd7d7f24b4096f044d8b9e6>@@V<lambda_aa500f224e6afead328df44964fe2772>@@@?$__crt_seh_guarded_call@X@@QEAAX$$QEAV<lambda_2d41944a1d46af3157314b8a01080d33>@@AEAV<lambda_8f455de75cd7d7f24b4096f044d8b9e6>@@$$QEAV<lambda_aa500f224e6afead328df44964fe2772>@@@Z@4HA 0000000180041574     libucrt:per_thread_data.obj
 0002:0000e574       $unwind$?fin$0@?0???$?RV<lambda_aa87e3671a710a21b5dc78c0bdf72e11>@@AEAV<lambda_92619d2358a28f41a33ba319515a20b9>@@V<lambda_6992ecaafeb10aed2b74cb1fae11a551>@@@?$__crt_seh_guarded_call@X@@QEAAX$$QEAV<lambda_aa87e3671a710a21b5dc78c0bdf72e11>@@AEAV<lambda_92619d2358a28f41a33ba319515a20b9>@@$$QEAV<lambda_6992ecaafeb10aed2b74cb1fae11a551>@@@Z@4HA 0000000180041574     libucrt:per_thread_data.obj
 0002:0000e574       $unwind$?fin$0@?0???$?RV<lambda_f2e299630e499de9f9a165e60fcd3db5>@@AEAV<lambda_2ae9d31cdba2644fcbeaf08da7c24588>@@V<lambda_40d01ff24d0e7b3814fdbdcee8eab3c7>@@@?$__crt_seh_guarded_call@X@@QEAAX$$QEAV<lambda_f2e299630e499de9f9a165e60fcd3db5>@@AEAV<lambda_2ae9d31cdba2644fcbeaf08da7c24588>@@$$QEAV<lambda_40d01ff24d0e7b3814fdbdcee8eab3c7>@@@Z@4HA 0000000180041574     libucrt:per_thread_data.obj
 0002:0000e574       $unwind$__acrt_update_thread_locale_data$fin$0 0000000180041574     libucrt:locale_refcounting.obj
 0002:0000e574       $unwind$?fin$0@?0???$?RV<lambda_410d79af7f07d98d83a3f525b3859a53>@@AEAV<lambda_3e16ef9562a7dcce91392c22ab16ea36>@@V<lambda_38119f0e861e05405d8a144b9b982f0a>@@@?$__crt_seh_guarded_call@X@@QEAAX$$QEAV<lambda_410d79af7f07d98d83a3f525b3859a53>@@AEAV<lambda_3e16ef9562a7dcce91392c22ab16ea36>@@$$QEAV<lambda_38119f0e861e05405d8a144b9b982f0a>@@@Z@4HA 0000000180041574     libucrt:wsetlocale.obj
 0002:0000e574       $unwind$?fin$0@?0???$?RV<lambda_751a882b2c74d4b022dec766aa51a29a>@@AEAV<lambda_628dfdc04ba53c8bfc02c9951375f3f5>@@V<lambda_f6c7be5f7998530c34de24c7437d6b54>@@@?$__crt_seh_guarded_call@H@@QEAAH$$QEAV<lambda_751a882b2c74d4b022dec766aa51a29a>@@AEAV<lambda_628dfdc04ba53c8bfc02c9951375f3f5>@@$$QEAV<lambda_f6c7be5f7998530c34de24c7437d6b54>@@@Z@4HA 0000000180041574     libucrt:close.obj
 0002:0000e574       $unwind$?fin$0@?0???$?RV<lambda_a37b2b86f63e897a80ea819b0eb08c01>@@AEAV<lambda_38ce7e780aa69e748d6df282ebc68efe>@@V<lambda_99fb1378e971ab6e7edea83e3a7a83a2>@@@?$__crt_seh_guarded_call@H@@QEAAH$$QEAV<lambda_a37b2b86f63e897a80ea819b0eb08c01>@@AEAV<lambda_38ce7e780aa69e748d6df282ebc68efe>@@$$QEAV<lambda_99fb1378e971ab6e7edea83e3a7a83a2>@@@Z@4HA 0000000180041574     libucrt:commit.obj
 0002:0000e574       $unwind$__acrt_initialize_lowio$fin$0 0000000180041574     libucrt:ioinit.obj
 0002:0000e574       $unwind$__acrt_lowio_ensure_fh_exists$fin$0 0000000180041574     libucrt:osfinfo.obj
 0002:0000e574       $unwind$_write$fin$0       0000000180041574     libucrt:write.obj
 0002:0000e574       $unwind$?fin$0@?0???$?RV<lambda_efdfa57d1f175319df784efa44bb7b81>@@AEAV<lambda_5f0a4c1567f8adc6734073e5d1e1b35c>@@V<lambda_2e8a7d3640ea6ccb4c2413664c2db6fd>@@@?$__crt_seh_guarded_call@X@@QEAAX$$QEAV<lambda_efdfa57d1f175319df784efa44bb7b81>@@AEAV<lambda_5f0a4c1567f8adc6734073e5d1e1b35c>@@$$QEAV<lambda_2e8a7d3640ea6ccb4c2413664c2db6fd>@@@Z@4HA 0000000180041574     libucrt:mbctype.obj
 0002:0000e574       $unwind$?fin$0@?0??update_thread_multibyte_data_internal@@YAPEAU__crt_multibyte_data@@QEAU__acrt_ptd@@QEAPEAU1@@Z@4HA 0000000180041574     libucrt:mbctype.obj
 0002:0000e574       $unwind$?fin$0@?0???$?RV<lambda_450d765d439847d4c735a33c368b5fc0>@@AEAV<lambda_44731a7d0e6d81c3e6aa82d741081786>@@V<lambda_601a2a7da3b7a96e9554ac7215c4b07c>@@@?$__crt_seh_guarded_call@P6AXH@Z@@QEAAP6AXH@Z$$QEAV<lambda_450d765d439847d4c735a33c368b5fc0>@@AEAV<lambda_44731a7d0e6d81c3e6aa82d741081786>@@$$QEAV<lambda_601a2a7da3b7a96e9554ac7215c4b07c>@@@Z@4HA 0000000180041574     libucrt:signal.obj
 0002:0000e574       $unwind$raise$fin$0        0000000180041574     libucrt:signal.obj
 0002:0000e574       $unwind$?filt$0@?0???R<lambda_6e4b09c48022b2350581041d5f6b0c4c>@@QEBA@XZ@4HA 0000000180041574     libucrt:exit.obj
 0002:0000e574       $unwind$?fin$0@?0???$?RV<lambda_d80eeec6fff315bfe5c115232f3240e3>@@AEAV<lambda_6e4b09c48022b2350581041d5f6b0c4c>@@V<lambda_2358e3775559c9db80273638284d5e45>@@@?$__crt_seh_guarded_call@X@@QEAAX$$QEAV<lambda_d80eeec6fff315bfe5c115232f3240e3>@@AEAV<lambda_6e4b09c48022b2350581041d5f6b0c4c>@@$$QEAV<lambda_2358e3775559c9db80273638284d5e45>@@@Z@4HA 0000000180041574     libucrt:exit.obj
 0002:0000e574       $unwind$?fin$0@?0???$?RV<lambda_638799b9deba96c50f710eeac98168cd>@@AEAV<lambda_22ebabd17bc4fa466a2aca6d8deb888d>@@V<lambda_a6f7d7db0129f75315ebf26d50c089f1>@@@?$__crt_seh_guarded_call@H@@QEAAH$$QEAV<lambda_638799b9deba96c50f710eeac98168cd>@@AEAV<lambda_22ebabd17bc4fa466a2aca6d8deb888d>@@$$QEAV<lambda_a6f7d7db0129f75315ebf26d50c089f1>@@@Z@4HA 0000000180041574     libucrt:onexit.obj
 0002:0000e574       $unwind$?fin$0@?0???$?RV<lambda_7777bce6b2f8c936911f934f8298dc43>@@AEAV<lambda_f03950bc5685219e0bcd2087efbe011e>@@V<lambda_3883c3dff614d5e0c5f61bb1ac94921c>@@@?$__crt_seh_guarded_call@H@@QEAAH$$QEAV<lambda_7777bce6b2f8c936911f934f8298dc43>@@AEAV<lambda_f03950bc5685219e0bcd2087efbe011e>@@$$QEAV<lambda_3883c3dff614d5e0c5f61bb1ac94921c>@@@Z@4HA 0000000180041574     libucrt:onexit.obj
 0002:0000e574       $unwind$_fcloseall$fin$0   0000000180041574     libucrt:closeall.obj
 0002:0000e574       $unwind$fclose$fin$0       0000000180041574     libucrt:fclose.obj
 0002:0000e574       $unwind$?fin$0@?0???$?RV<lambda_842d9ff0dc9ef11c61343bbaebe7f885>@@AEAV<lambda_c5860995281e5c4ce005b3de8f5874ee>@@V<lambda_d90129c13df834fdcbf8d2b88dafcf2d>@@@?$__crt_seh_guarded_call@X@@QEAAX$$QEAV<lambda_842d9ff0dc9ef11c61343bbaebe7f885>@@AEAV<lambda_c5860995281e5c4ce005b3de8f5874ee>@@$$QEAV<lambda_d90129c13df834fdcbf8d2b88dafcf2d>@@@Z@4HA 0000000180041574     libucrt:fflush.obj
 0002:0000e574       $unwind$?fin$0@?0???$?RV<lambda_886d6c58226a84441f68b9f2b8217b83>@@AEAV<lambda_ab61a845afdef5b7c387490eaf3616ee>@@V<lambda_f7f22ab5edc0698d5f6905b0d3f44752>@@@?$__crt_seh_guarded_call@X@@QEAAX$$QEAV<lambda_886d6c58226a84441f68b9f2b8217b83>@@AEAV<lambda_ab61a845afdef5b7c387490eaf3616ee>@@$$QEAV<lambda_f7f22ab5edc0698d5f6905b0d3f44752>@@@Z@4HA 0000000180041574     libucrt:fflush.obj
 0002:0000e574       $unwind$_ctrlfp$filt$0     0000000180041574     libucrt:fpctrl.obj
 0002:0000e574       $unwind$common_control87$filt$0 0000000180041574     libucrt:ieee.obj
 0002:0000e57c       $unwind$?SyncExecute@@YAHPEAUHINSTANCE__@@P6AX_J@Z1@Z 000000018004157c     ConEmuPlugin.obj
 0002:0000e584       $unwind$?ActivateConsole@@YAHXZ 0000000180041584     ConEmuPlugin.obj
 0002:0000e598       $unwind$?GetMinFarVersion@@YAHXZ 0000000180041598     ConEmuPlugin.obj
 0002:0000e598       $unwind$DllMain            0000000180041598     ConEmuPlugin.obj
 0002:0000e598       $unwind$?CheckPanelExist@CPluginW1900@@UEAA_NXZ 0000000180041598     ConEmuPlugin1900.obj
 0002:0000e598       $unwind$?ExecuteSynchroApi@CPluginW1900@@UEAA_NXZ 0000000180041598     ConEmuPlugin1900.obj
 0002:0000e598       $unwind$?GetActiveWindowType@CPluginW1900@@UEAAHXZ 0000000180041598     ConEmuPlugin1900.obj
 0002:0000e598       $unwind$?IsMacroActive@CPluginW1900@@UEAA_NXZ 0000000180041598     ConEmuPlugin1900.obj
 0002:0000e598       $unwind$?ProcessEditorInputPtr@CPluginW1900@@UEAAHPEBX@Z 0000000180041598     ConEmuPlugin1900.obj
 0002:0000e598       $unwind$?RedrawAll@CPluginW1900@@UEAAXXZ 0000000180041598     ConEmuPlugin1900.obj
 0002:0000e598       $unwind$?SetWindow@CPluginW1900@@UEAAXH@Z 0000000180041598     ConEmuPlugin1900.obj
 0002:0000e598       $unwind$?ShowUserScreen@CPluginW1900@@UEAAX_N@Z 0000000180041598     ConEmuPlugin1900.obj
 0002:0000e598       $unwind$?CheckPanelExist@CPluginW2800@@UEAA_NXZ 0000000180041598     ConEmuPlugin2800.obj
 0002:0000e598       $unwind$?ExecuteSynchroApi@CPluginW2800@@UEAA_NXZ 0000000180041598     ConEmuPlugin2800.obj
 0002:0000e598       $unwind$?GetActiveWindowType@CPluginW2800@@UEAAHXZ 0000000180041598     ConEmuPlugin2800.obj
 0002:0000e598       $unwind$?IsMacroActive@CPluginW2800@@UEAA_NXZ 0000000180041598     ConEmuPlugin2800.obj
 0002:0000e598       $unwind$?ProcessEditorInputPtr@CPluginW2800@@UEAAHPEBX@Z 0000000180041598     ConEmuPlugin2800.obj
 0002:0000e598       $unwind$?RedrawAll@CPluginW2800@@UEAAXXZ 0000000180041598     ConEmuPlugin2800.obj
 0002:0000e598       $unwind$?ShowUserScreen@CPluginW2800@@UEAAX_N@Z 0000000180041598     ConEmuPlugin2800.obj
 0002:0000e598       $unwind$?_Xlength@?$vector@UWindowInfo@@V?$MArrayAllocator@UWindowInfo@@@@@std@@CAXXZ 0000000180041598     ConEmuPlugin2800.obj
 0002:0000e598       $unwind$?deallocate@?$MArrayAllocator@UWindowInfo@@@@QEAAXPEAUWindowInfo@@_K@Z 0000000180041598     ConEmuPlugin2800.obj
 0002:0000e598       $unwind$?CheckPanelExist@CPluginW995@@UEAA_NXZ 0000000180041598     ConEmuPlugin995.obj
 0002:0000e598       $unwind$?ExecuteSynchroApi@CPluginW995@@UEAA_NXZ 0000000180041598     ConEmuPlugin995.obj
 0002:0000e598       $unwind$?ProcessEditorInputPtr@CPluginW995@@UEAAHPEBX@Z 0000000180041598     ConEmuPlugin995.obj
 0002:0000e598       $unwind$?RedrawAll@CPluginW995@@UEAAXXZ 0000000180041598     ConEmuPlugin995.obj
 0002:0000e598       $unwind$?SetWindow@CPluginW995@@UEAAXH@Z 0000000180041598     ConEmuPlugin995.obj
 0002:0000e598       $unwind$?ShowUserScreen@CPluginW995@@UEAAX_N@Z 0000000180041598     ConEmuPlugin995.obj
 0002:0000e598       $unwind$?StopWaitEndSynchro@CPluginW995@@UEAAXXZ 0000000180041598     ConEmuPlugin995.obj
 0002:0000e598       $unwind$?CheckPanelExist@CPluginAnsi@@UEAA_NXZ 0000000180041598     ConEmuPluginA.obj
 0002:0000e598       $unwind$?ExitFar@CPluginAnsi@@UEAAXXZ 0000000180041598     ConEmuPluginA.obj
 0002:0000e598       $unwind$?PanelControlApi@CPluginAnsi@@UEAA_JPEAXH_J0@Z 0000000180041598     ConEmuPluginA.obj
 0002:0000e598       $unwind$?RedrawAll@CPluginAnsi@@UEAAXXZ 0000000180041598     ConEmuPluginA.obj
 0002:0000e598       $unwind$?SetWindow@CPluginAnsi@@UEAAXH@Z 0000000180041598     ConEmuPluginA.obj
 0002:0000e598       $unwind$?ShowUserScreen@CPluginAnsi@@UEAAX_N@Z 0000000180041598     ConEmuPluginA.obj
 0002:0000e598       $unwind$??1?$MFileMapping@UCESERVER_CONSOLE_MAPPING_HDR@@@@QEAA@XZ 0000000180041598     ConEmuPluginBase.obj
 0002:0000e598       $unwind$?CloseMapHeader@CPluginBase@@SAXXZ 0000000180041598     ConEmuPluginBase.obj
 0002:0000e598       $unwind$?EmergencyShow@CPluginBase@@KAXXZ 0000000180041598     ConEmuPluginBase.obj
 0002:0000e598       $unwind$?OnConsolePeekInputPost@CPluginBase@@SAHPEAUHookCallbackArg@@@Z 0000000180041598     ConEmuPluginBase.obj
 0002:0000e598       $unwind$?OnConsoleWasAttached@CPluginBase@@SAHPEAUHookCallbackArg@@@Z 0000000180041598     ConEmuPluginBase.obj
 0002:0000e598       $unwind$?OnCurDirChanged@CPluginBase@@SAXXZ 0000000180041598     ConEmuPluginBase.obj
 0002:0000e598       $unwind$?OnGetNumberOfConsoleInputEventsPost@CPluginBase@@SAHPEAUHookCallbackArg@@@Z 0000000180041598     ConEmuPluginBase.obj
 0002:0000e598       $unwind$?TouchReadPeekConsoleInputs@CPluginBase@@SAXH@Z 0000000180041598     ConEmuPluginBase.obj
 0002:0000e598       $unwind$??1?$MFileMapping@UPanelViewSetMapping@@@@QEAA@XZ 0000000180041598     PluginBackground.obj
 0002:0000e598       $unwind$?cmd_FarSetChanged@@YAXPEAUFAR_REQ_FARSETCHANGED@@@Z 0000000180041598     PluginSrv.obj
 0002:0000e598       $unwind$__scrt_initialize_default_local_stdio_options 0000000180041598     LIBCMT:default_local_stdio_options.obj
 0002:0000e598       $unwind$?dllmain_crt_dispatch@@YAHQEAUHINSTANCE__@@KQEAX@Z 0000000180041598     LIBCMT:dll_dllmain.obj
 0002:0000e598       $unwind$__report_rangecheckfailure 0000000180041598     LIBCMT:gs_report.obj
 0002:0000e598       $unwind$__GSHandlerCheck   0000000180041598     LIBCMT:gshandler.obj
 0002:0000e598       $unwind$?__scrt_uninitialize_thread_safe_statics@@YAXXZ 0000000180041598     LIBCMT:thread_safe_statics.obj
 0002:0000e598       $unwind$_Init_thread_notify 0000000180041598     LIBCMT:thread_safe_statics.obj
 0002:0000e598       $unwind$__scrt_acquire_startup_lock 0000000180041598     LIBCMT:utility.obj
 0002:0000e598       $unwind$__scrt_dllmain_after_initialize_c 0000000180041598     LIBCMT:utility.obj
 0002:0000e598       $unwind$__scrt_dllmain_before_initialize_c 0000000180041598     LIBCMT:utility.obj
 0002:0000e598       $unwind$__scrt_dllmain_crt_thread_attach 0000000180041598     LIBCMT:utility.obj
 0002:0000e598       $unwind$__scrt_dllmain_crt_thread_detach 0000000180041598     LIBCMT:utility.obj
 0002:0000e598       $unwind$__scrt_dllmain_uninitialize_c 0000000180041598     LIBCMT:utility.obj
 0002:0000e598       $unwind$__scrt_dllmain_uninitialize_critical 0000000180041598     LIBCMT:utility.obj
 0002:0000e598       $unwind$atexit             0000000180041598     LIBCMT:utility.obj
 0002:0000e598       $unwind$__std_terminate    0000000180041598     libvcruntime:ehhelpers.obj
 0002:0000e598       $unwind$__vcrt_initialize  0000000180041598     libvcruntime:initialization.obj
 0002:0000e598       $unwind$__vcrt_thread_attach 0000000180041598     libvcruntime:initialization.obj
 0002:0000e598       $unwind$__vcrt_thread_detach 0000000180041598     libvcruntime:initialization.obj
 0002:0000e598       $unwind$__vcrt_uninitialize 0000000180041598     libvcruntime:initialization.obj
 0002:0000e598       $unwind$__vcrt_uninitialize_critical 0000000180041598     libvcruntime:initialization.obj
 0002:0000e598       $unwind$__vcrt_initialize_locks 0000000180041598     libvcruntime:locks.obj
 0002:0000e598       $unwind$__vcrt_freefls     0000000180041598     libvcruntime:per_thread_data.obj
 0002:0000e598       $unwind$__vcrt_getptd      0000000180041598     libvcruntime:per_thread_data.obj
 0002:0000e598       $unwind$__vcrt_initialize_ptd 0000000180041598     libvcruntime:per_thread_data.obj
 0002:0000e598       $unwind$__vcrt_uninitialize_ptd 0000000180041598     libvcruntime:per_thread_data.obj
 0002:0000e598       $unwind$_purecall          0000000180041598     libvcruntime:purevirt.obj
 0002:0000e598       $unwind$?FrameUnwindToEmptyState@__FrameHandler4@@SAXPEA_KPEAU_xDISPATCHER_CONTEXT@@PEAUFuncInfo4@FH4@@@Z 0000000180041598     libvcruntime:risctrnsctrl.obj
 0002:0000e598       $unwind$_GetImageBase      0000000180041598     libvcruntime:risctrnsctrl.obj
 0002:0000e598       $unwind$_GetThrowImageBase 0000000180041598     libvcruntime:risctrnsctrl.obj
 0002:0000e598       $unwind$__dcrt_terminate_console_output 0000000180041598     libucrt:initcon.obj
 0002:0000e598       $unwind$??$uninitialize_environment_internal@D@@YAXAEAPEAPEAD@Z 0000000180041598     libucrt:environment_initialization.obj
 0002:0000e598       $unwind$??$uninitialize_environment_internal@_W@@YAXAEAPEAPEA_W@Z 0000000180041598     libucrt:environment_initialization.obj
 0002:0000e598       $unwind$__dcrt_uninitialize_environments_nolock 0000000180041598     libucrt:environment_initialization.obj
 0002:0000e598       $unwind$?__c32rtomb_utf8@__crt_mbstring@@YA_KPEAD_UPEAU_Mbstatet@@@Z 0000000180041598     libucrt:c32rtomb.obj
 0002:0000e598       $unwind$__acrt_initialize_heap 0000000180041598     libucrt:heap_handle.obj
 0002:0000e598       $unwind$_msize_base        0000000180041598     libucrt:msize.obj
 0002:0000e598       $unwind$?initialize_multibyte@@YAHXZ 0000000180041598     libucrt:multibyte_initializer.obj
 0002:0000e598       $unwind$__acrt_thread_attach 0000000180041598     libucrt:initialization.obj
 0002:0000e598       $unwind$__acrt_thread_detach 0000000180041598     libucrt:initialization.obj
 0002:0000e598       $unwind$__acrt_uninitialize 0000000180041598     libucrt:initialization.obj
 0002:0000e598       $unwind$__acrt_uninitialize_critical 0000000180041598     libucrt:initialization.obj
 0002:0000e598       $unwind$initialize_c       0000000180041598     libucrt:initialization.obj
 0002:0000e598       $unwind$uninitialize_allocated_io_buffers 0000000180041598     libucrt:initialization.obj
 0002:0000e598       $unwind$uninitialize_environment 0000000180041598     libucrt:initialization.obj
 0002:0000e598       $unwind$__acrt_initialize_ptd 0000000180041598     libucrt:per_thread_data.obj
 0002:0000e598       $unwind$__acrt_uninitialize_ptd 0000000180041598     libucrt:per_thread_data.obj
 0002:0000e598       $unwind$__acrt_AreFileApisANSI 0000000180041598     libucrt:winapi_thunks.obj
 0002:0000e598       $unwind$__pctype_func      0000000180041598     libucrt:ctype.obj
 0002:0000e598       $unwind$__acrt_release_locale_ref 0000000180041598     libucrt:locale_refcounting.obj
 0002:0000e598       $unwind$_isatty            0000000180041598     libucrt:isatty.obj
 0002:0000e598       $unwind$_get_osfhandle     0000000180041598     libucrt:osfinfo.obj
 0002:0000e598       $unwind$__acrt_initialize_multibyte 0000000180041598     libucrt:mbctype.obj
 0002:0000e598       $unwind$__acrt_update_thread_multibyte_data 0000000180041598     libucrt:mbctype.obj
 0002:0000e598       $unwind$__doserrno         0000000180041598     libucrt:errno.obj
 0002:0000e598       $unwind$_errno             0000000180041598     libucrt:errno.obj
 0002:0000e598       $unwind$_invoke_watson     0000000180041598     libucrt:invalid_parameter.obj
 0002:0000e598       $unwind$abort              0000000180041598     libucrt:abort.obj
 0002:0000e598       $unwind$__acrt_initialize_command_line 0000000180041598     libucrt:argv_data.obj
 0002:0000e598       $unwind$_fileno            0000000180041598     libucrt:fileno.obj
 0002:0000e598       $unwind$?state_case_normal_tchar@?$output_processor@DV?$string_output_adapter@D@__crt_stdio_output@@V?$standard_base@DV?$string_output_adapter@D@__crt_stdio_output@@@2@@__crt_stdio_output@@AEAA_ND@Z 0000000180041598     libucrt:output.obj
 0002:0000e598       $unwind$?state_case_size@?$output_processor@DV?$string_output_adapter@D@__crt_stdio_output@@V?$standard_base@DV?$string_output_adapter@D@__crt_stdio_output@@@2@@__crt_stdio_output@@AEAA_NXZ 0000000180041598     libucrt:output.obj
 0002:0000e598       $unwind$?state_case_size@?$output_processor@_WV?$string_output_adapter@_W@__crt_stdio_output@@V?$standard_base@_WV?$string_output_adapter@_W@__crt_stdio_output@@@2@@__crt_stdio_output@@AEAA_NXZ 0000000180041598     libucrt:output.obj
 0002:0000e598       $unwind$_statfp            0000000180041598     libucrt:fpctrl.obj
 0002:0000e598       $unwind$fegetround         0000000180041598     libucrt:fegetround.obj
 0002:0000e598       $unwind$_set_errno_from_matherr 0000000180041598     libucrt:fpexcept.obj
 0002:0000e598       $unwind$?Clear@CEStr@@QEAAXXZ 0000000180041598     common-kernel64:CEStr.obj
 0002:0000e598       $unwind$?Release@CEStr@@QEAAXXZ 0000000180041598     common-kernel64:CEStr.obj
 0002:0000e598       $unwind$?PointToExt@@YAPEB_WPEB_W@Z 0000000180041598     common-kernel64:CmdLine.obj
 0002:0000e598       $unwind$?ExecuteFreeResult@@YAXAEAPEAUCESERVER_REQ@@@Z 0000000180041598     common-kernel64:ConEmuCheck.obj
 0002:0000e598       $unwind$?_Delete_this@?$_Func_impl_no_alloc@V<lambda_217d18733db987cb8fc0adfd68028951>@@_NAEBUtagPROCESSENTRY32W@@@std@@EEAAX_N@Z 0000000180041598     common-kernel64:MProcess.obj
 0002:0000e598       $unwind$?_Xlength@?$vector@UtagPROCESSENTRY32W@@V?$MArrayAllocator@UtagPROCESSENTRY32W@@@@@std@@CAXXZ 0000000180041598     common-kernel64:MProcess.obj
 0002:0000e598       $unwind$?LocalSecurity@@YAPEAU_SECURITY_ATTRIBUTES@@XZ 0000000180041598     common-kernel64:MSecurity.obj
 0002:0000e598       $unwind$?ShutdownSecurity@@YAXXZ 0000000180041598     common-kernel64:MSecurity.obj
 0002:0000e598       $unwind$??2@YAPEAX_K@Z     0000000180041598     common-kernel64:Memory.obj
 0002:0000e598       $unwind$?HeapDeinitialize@@YAXXZ 0000000180041598     common-kernel64:Memory.obj
 0002:0000e598       $unwind$?HeapInitialize@@YA_NXZ 0000000180041598     common-kernel64:Memory.obj
 0002:0000e598       $unwind$?xf_calloc@@YAPEAX_K0@Z 0000000180041598     common-kernel64:Memory.obj
 0002:0000e598       $unwind$?xf_free@@YAXPEAX@Z 0000000180041598     common-kernel64:Memory.obj
 0002:0000e598       $unwind$?xf_malloc@@YAPEAX_K@Z 0000000180041598     common-kernel64:Memory.obj
 0002:0000e598       $unwind$?IsWin6@@YA_NXZ    0000000180041598     common-kernel64:WObjects.obj
 0002:0000e598       $unwind$?IsWin7@@YA_NXZ    0000000180041598     common-kernel64:WObjects.obj
 0002:0000e598       $unwind$?_Delete_this@?$_Func_impl_no_alloc@P6AHPEAX@ZXPEAX@std@@EEAAX_N@Z 0000000180041598     common-kernel64:WObjects.obj
 0002:0000e598       $unwind$??1?$MFileMapping@UConEmuGuiMapping@@@@QEAA@XZ 0000000180041598     common-user64:ConEmuCheckEx.obj
 0002:0000e598       $unwind$??__FgsMapHelper@@YAXXZ 0000000180041598     common-user64:WConsoleEx.obj
 0002:0000e598       $unwind$?apiShowWindow@@YA_NPEAUHWND__@@H@Z 0000000180041598     common-user64:WUser.obj
 0002:0000e598       $unwind$?apiShowWindowAsync@@YA_NPEAUHWND__@@H@Z 0000000180041598     common-user64:WUser.obj
 0002:0000e5a0       $unwind$?SetupExportsFar3@@YAXXZ 00000001800415a0     ConEmuPlugin.obj
 0002:0000e5a0       $unwind$?StopPipeServer@?$PipeServer@UCESERVER_REQ@@@@QEAAX_NAEA_N@Z 00000001800415a0     PluginSrv.obj
 0002:0000e5bc       $unwind$?Color2FgIndex@Far3Color@@SAXKAEAGPEBK@Z 00000001800415bc     ConEmuPlugin1900.obj
 0002:0000e5bc       $unwind$?StringCchCatW@@YAJPEA_W_KPEB_W@Z 00000001800415bc     ConEmuPluginBase.obj
 0002:0000e5bc       $unwind$??$type_case_integer_parse_into_buffer@I@?$output_processor@DV?$string_output_adapter@D@__crt_stdio_output@@V?$standard_base@DV?$string_output_adapter@D@__crt_stdio_output@@@2@@__crt_stdio_output@@AEAAXII_N@Z 00000001800415bc     libucrt:output.obj
 0002:0000e5bc       $unwind$??$type_case_integer_parse_into_buffer@I@?$output_processor@_WV?$string_output_adapter@_W@__crt_stdio_output@@V?$standard_base@_WV?$string_output_adapter@_W@__crt_stdio_output@@@2@@__crt_stdio_output@@AEAAXII_N@Z 00000001800415bc     libucrt:output.obj
 0002:0000e5bc       $unwind$??$type_case_integer_parse_into_buffer@_K@?$output_processor@DV?$string_output_adapter@D@__crt_stdio_output@@V?$standard_base@DV?$string_output_adapter@D@__crt_stdio_output@@@2@@__crt_stdio_output@@AEAAX_KI_N@Z 00000001800415bc     libucrt:output.obj
 0002:0000e5bc       $unwind$??$type_case_integer_parse_into_buffer@_K@?$output_processor@_WV?$string_output_adapter@_W@__crt_stdio_output@@V?$standard_base@_WV?$string_output_adapter@_W@__crt_stdio_output@@@2@@__crt_stdio_output@@AEAAX_KI_N@Z 00000001800415bc     libucrt:output.obj
 0002:0000e5c4       $unwind$?Color2BgIndex@Far3Color@@SAXKHAEAGPEBK@Z 00000001800415c4     ConEmuPlugin1900.obj
 0002:0000e5c4       $unwind$?SetDcPanelRect@CPluginBackground@@IEAAXPEAUtagRECT@@PEAUBkPanelInfo@@PEAUPaintBackgroundArg@@@Z 00000001800415c4     PluginBackground.obj
 0002:0000e5d0       $unwind$?FarColor_3_2@@YAEAEBUFarColor@@_N@Z 00000001800415d0     ConEmuPlugin1900.obj
 0002:0000e5e4       $unwind$??0CPluginW1900@@QEAA@XZ 00000001800415e4     ConEmuPlugin1900.obj
 0002:0000e5e4       $unwind$??0CPluginW2800@@QEAA@XZ 00000001800415e4     ConEmuPlugin2800.obj
 0002:0000e5f4       $unwind$?ExitFar@CPluginW1900@@UEAAXXZ 00000001800415f4     ConEmuPlugin1900.obj
 0002:0000e5f4       $unwind$?ExitFar@CPluginW2800@@UEAAXXZ 00000001800415f4     ConEmuPlugin2800.obj
 0002:0000e5f4       $unwind$?ExitFar@CPluginW995@@UEAAXXZ 00000001800415f4     ConEmuPlugin995.obj
 0002:0000e5f4       $unwind$??0length_error@std@@QEAA@PEBD@Z 00000001800415f4     libcpmt:xthrow.obj
 0002:0000e5f4       $unwind$?__mbrtowc_utf8@__crt_mbstring@@YA_KPEA_WPEBD_KPEAU_Mbstatet@@@Z 00000001800415f4     libucrt:mbrtowc.obj
 0002:0000e5f4       $unwind$?type_case_c_tchar@?$output_processor@DV?$string_output_adapter@D@__crt_stdio_output@@V?$standard_base@DV?$string_output_adapter@D@__crt_stdio_output@@@2@@__crt_stdio_output@@AEAA_ND@Z 00000001800415f4     libucrt:output.obj
 0002:0000e5fc       $unwind$?GetEditorModifiedState@CPluginW1900@@UEAAKXZ 00000001800415fc     ConEmuPlugin1900.obj
 0002:0000e5fc       $unwind$?GetEditorModifiedState@CPluginAnsi@@UEAAKXZ 00000001800415fc     ConEmuPluginA.obj
 0002:0000e60c       $unwind$?GetMsg@CPluginW1900@@UEAAPEB_WHPEA_W_K@Z 000000018004160c     ConEmuPlugin1900.obj
 0002:0000e60c       $unwind$?LoadFarColors@CPluginW1900@@UEAAXAEAY0BAA@E@Z 000000018004160c     ConEmuPlugin1900.obj
 0002:0000e60c       $unwind$?GetMsg@CPluginW2800@@UEAAPEB_WHPEA_W_K@Z 000000018004160c     ConEmuPlugin2800.obj
 0002:0000e60c       $unwind$?LoadFarColors@CPluginW2800@@UEAAXAEAY0BAA@E@Z 000000018004160c     ConEmuPlugin2800.obj
 0002:0000e60c       $unwind$?GetMsg@CPluginW995@@UEAAPEB_WHPEA_W_K@Z 000000018004160c     ConEmuPlugin995.obj
 0002:0000e60c       $unwind$??0MWow64Disable@@QEAA@XZ 000000018004160c     ConEmuPluginBase.obj
 0002:0000e60c       $unwind$?FillLoadedParm@CPluginBase@@SAXPEAUConEmuLoadedArg@@PEAUHINSTANCE__@@H@Z 000000018004160c     ConEmuPluginBase.obj
 0002:0000e60c       $unwind$?OutDataRealloc@CPluginBase@@SA_NK@Z 000000018004160c     ConEmuPluginBase.obj
 0002:0000e60c       $unwind$?OutDataWrite@CPluginBase@@SA_NPEAXK@Z 000000018004160c     ConEmuPluginBase.obj
 0002:0000e60c       $unwind$?ProcessEditorViewerEvent@CPluginBase@@QEAAHHH@Z 000000018004160c     ConEmuPluginBase.obj
 0002:0000e60c       $unwind$?SetRootRegKey@CPluginBase@@IEAAXPEA_W@Z 000000018004160c     ConEmuPluginBase.obj
 0002:0000e60c       $unwind$?ToOem@CPluginBase@@SAPEADPEB_W@Z 000000018004160c     ConEmuPluginBase.obj
 0002:0000e60c       $unwind$?cmd_SetWindow@CPluginBase@@QEAA_NPEAX_N@Z 000000018004160c     ConEmuPluginBase.obj
 0002:0000e60c       $unwind$?CheckPanelFolders@CPluginBackground@@IEAAXH@Z 000000018004160c     PluginBackground.obj
 0002:0000e60c       $unwind$?ReallocItems@CPluginBackground@@IEAAXH@Z 000000018004160c     PluginBackground.obj
 0002:0000e60c       $unwind$_DllMainCRTStartup 000000018004160c     LIBCMT:dll_dllmain.obj
 0002:0000e60c       $unwind$__vcrt_getptd_noexit 000000018004160c     libvcruntime:per_thread_data.obj
 0002:0000e60c       $unwind$__vcrt_InitializeCriticalSectionEx 000000018004160c     libvcruntime:winapi_downlevel.obj
 0002:0000e60c       $unwind$memcpy_s           000000018004160c     libucrt:cfout.obj
 0002:0000e60c       $unwind$__acrt_getptd      000000018004160c     libucrt:per_thread_data.obj
 0002:0000e60c       $unwind$__acrt_getptd_noexit 000000018004160c     libucrt:per_thread_data.obj
 0002:0000e60c       $unwind$__acrt_execute_initializers 000000018004160c     libucrt:shared_initialization.obj
 0002:0000e60c       $unwind$__acrt_InitializeCriticalSectionEx 000000018004160c     libucrt:winapi_thunks.obj
 0002:0000e60c       $unwind$?free_crt_array_internal@@YAXQEAPEBX_K@Z 000000018004160c     libucrt:inittime.obj
 0002:0000e60c       $unwind$??$common_lseek_nolock@_J@@YA_JH_JH@Z 000000018004160c     libucrt:lseek.obj
 0002:0000e60c       $unwind$__acrt_stdio_flush_nolock 000000018004160c     libucrt:fflush.obj
 0002:0000e60c       $unwind$??0_LocaleUpdate@@QEAA@QEAU__crt_locale_pointers@@@Z 000000018004160c     libucrt:output.obj
 0002:0000e60c       $unwind$?type_case_Z@?$output_processor@_WV?$string_output_adapter@_W@__crt_stdio_output@@V?$standard_base@_WV?$string_output_adapter@_W@__crt_stdio_output@@@2@@__crt_stdio_output@@AEAA_NXZ 000000018004160c     libucrt:output.obj
 0002:0000e60c       $unwind$?type_case_s@?$output_processor@_WV?$string_output_adapter@_W@__crt_stdio_output@@V?$standard_base@_WV?$string_output_adapter@_W@__crt_stdio_output@@@2@@__crt_stdio_output@@AEAA_NXZ 000000018004160c     libucrt:output.obj
 0002:0000e60c       $unwind$_exception_enabled 000000018004160c     libucrt:libm_error.obj
 0002:0000e60c       $unwind$?AttachInt@CEStr@@AEAAPEB_WAEAPEA_W@Z 000000018004160c     common-kernel64:CEStr.obj
 0002:0000e60c       $unwind$?Unquote@@YAPEB_WPEA_W_N@Z 000000018004160c     common-kernel64:CmdLine.obj
 0002:0000e60c       $unwind$?IsEnvBlockVariableValid@@YA_NPEB_WAEAPEB_W@Z 000000018004160c     common-kernel64:Common.obj
 0002:0000e60c       $unwind$?apiGetCurrentConsoleFontEx@@YAHPEAXHPEAUMY_CONSOLE_FONT_INFOEX@@@Z 000000018004160c     common-kernel64:WConsole.obj
 0002:0000e60c       $unwind$?apiSetCurrentConsoleFontEx@@YAHPEAXHPEAUMY_CONSOLE_FONT_INFOEX@@@Z 000000018004160c     common-kernel64:WConsole.obj
 0002:0000e60c       $unwind$??0MHandle@@QEAA@PEAXV?$function@$$A6AXPEAX@Z@std@@@Z 000000018004160c     common-kernel64:WObjects.obj
 0002:0000e60c       $unwind$?SetHandle@MHandle@@QEAA_NPEAXV?$function@$$A6AXPEAX@Z@std@@@Z 000000018004160c     common-kernel64:WObjects.obj
 0002:0000e61c       $unwind$?GetPanelInfo@CPluginW1900@@UEAA_NKPEAUCEPanelInfo@@@Z 000000018004161c     ConEmuPlugin1900.obj
 0002:0000e61c       $unwind$?GetPanelInfo@CPluginW2800@@UEAA_NKPEAUCEPanelInfo@@@Z 000000018004161c     ConEmuPlugin2800.obj
 0002:0000e63c       $unwind$?GetPanelItemInfo@CPluginW1900@@UEAA_NAEBUCEPanelInfo@@_N_JAEAU_WIN32_FIND_DATAW@@PEAPEA_W@Z 000000018004163c     ConEmuPlugin1900.obj
 0002:0000e650       $unwind$?GetPanelDir@CPluginW1900@@UEAAPEA_WKPEA_WH@Z 0000000180041650     ConEmuPlugin1900.obj
 0002:0000e650       $unwind$?GetPanelDir@CPluginW2800@@UEAAPEA_WKPEA_WH@Z 0000000180041650     ConEmuPlugin2800.obj
 0002:0000e670       $unwind$?InputBox@CPluginW1900@@UEAA_NPEB_W000AEAPEA_W@Z 0000000180041670     ConEmuPlugin1900.obj
 0002:0000e670       $unwind$?InputBox@CPluginW2800@@UEAA_NPEB_W000AEAPEA_W@Z 0000000180041670     ConEmuPlugin2800.obj
 0002:0000e670       $unwind$?IsWinVerOrHigher@@YA_NG@Z 0000000180041670     common-kernel64:WObjects.obj
 0002:0000e684       $unwind$?LoadFarSettings@CPluginW1900@@UEAAXPEAUCEFarInterfaceSettings@@PEAUCEFarPanelSettings@@@Z 0000000180041684     ConEmuPlugin1900.obj
 0002:0000e684       $unwind$?LoadFarSettings@CPluginW2800@@UEAAXPEAUCEFarInterfaceSettings@@PEAUCEFarPanelSettings@@@Z 0000000180041684     ConEmuPlugin2800.obj
 0002:0000e698       $unwind$?OpenEditor@CPluginW1900@@UEAA_NPEB_W_N11HH@Z 0000000180041698     ConEmuPlugin1900.obj
 0002:0000e698       $unwind$?OpenEditor@CPluginW2800@@UEAA_NPEB_W_N11HH@Z 0000000180041698     ConEmuPlugin2800.obj
 0002:0000e698       $unwind$?OpenEditor@CPluginW995@@UEAA_NPEB_W_N11HH@Z 0000000180041698     ConEmuPlugin995.obj
 0002:0000e6a8       $unwind$?PanelControlApi@CPluginW1900@@UEAA_JPEAXH_J0@Z 00000001800416a8     ConEmuPlugin1900.obj
 0002:0000e6a8       $unwind$?PanelControlApi@CPluginW2800@@UEAA_JPEAXH_J0@Z 00000001800416a8     ConEmuPlugin2800.obj
 0002:0000e6a8       $unwind$__GSHandlerCheckCommon 00000001800416a8     LIBCMT:gshandler.obj
 0002:0000e6b0       $unwind$?PostMacroApi@CPluginW1900@@UEAAXPEB_WPEAU_INPUT_RECORD@@_N@Z 00000001800416b0     ConEmuPlugin1900.obj
 0002:0000e6d4       $unwind$?SetStartupInfoPtr@CPluginW1900@@UEAAXPEAX@Z 00000001800416d4     ConEmuPlugin1900.obj
 0002:0000e6d4       $unwind$?SetStartupInfoPtr@CPluginW2800@@UEAAXPEAX@Z 00000001800416d4     ConEmuPlugin2800.obj
 0002:0000e6f0       $unwind$?ShowMessage@CPluginW1900@@UEAAHPEB_WH_N@Z 00000001800416f0     ConEmuPlugin1900.obj
 0002:0000e6f0       $unwind$?ShowMessage@CPluginW2800@@UEAAHPEB_WH_N@Z 00000001800416f0     ConEmuPlugin2800.obj
 0002:0000e6f0       $unwind$?ToOem@CPluginBase@@SAXPEB_WPEAD_J@Z 00000001800416f0     ConEmuPluginBase.obj
 0002:0000e6f0       $unwind$?_Xbad_function_call@std@@YAXXZ 00000001800416f0     libcpmt:xthrow.obj
 0002:0000e6f0       $unwind$?_Xlength_error@std@@YAXPEBD@Z 00000001800416f0     libcpmt:xthrow.obj
 0002:0000e6f0       $unwind$_raise_exc         00000001800416f0     libucrt:fpexcept.obj
 0002:0000e6f8       $unwind$?ShowPluginMenu@CPluginW1900@@UEAAHPEAUConEmuPluginMenuItem@@HH@Z 00000001800416f8     ConEmuPlugin1900.obj
 0002:0000e6f8       $unwind$?ShowPluginMenu@CPluginW2800@@UEAAHPEAUConEmuPluginMenuItem@@HH@Z 00000001800416f8     ConEmuPlugin2800.obj
 0002:0000e710       $unwind$?UpdateConEmuTabsApi@CPluginW1900@@UEAA_NH@Z 0000000180041710     ConEmuPlugin1900.obj
 0002:0000e738       $unwind$?GetFarSetting@@YAHPEAX_KPEB_W@Z 0000000180041738     ConEmuPlugin1900.obj
 0002:0000e738       $unwind$?GetFarSetting@@YAHPEAX_KPEB_W@Z 0000000180041738     ConEmuPlugin2800.obj
 0002:0000e738       $unwind$_call_matherr      0000000180041738     libucrt:libm_error.obj
 0002:0000e740       $unwind$?CallGuiMacroDlg@@YA_JPEAXHH0@Z 0000000180041740     ConEmuPlugin1900.obj
 0002:0000e760       $unwind$?CallGuiMacroProc@@YAXXZ 0000000180041760     ConEmuPlugin1900.obj
 0002:0000e77c       $unwind$GetGlobalInfoW     000000018004177c     ConEmuPlugin2800.obj
 0002:0000e784       $unwind$?GetEditorModifiedState@CPluginW2800@@UEAAKXZ 0000000180041784     ConEmuPlugin2800.obj
 0002:0000e794       $unwind$?GetPanelItemInfo@CPluginW2800@@UEAA_NAEBUCEPanelInfo@@_N_JAEAU_WIN32_FIND_DATAW@@PEAPEA_W@Z 0000000180041794     ConEmuPlugin2800.obj
 0002:0000e7ac       $unwind$?Open@CPluginW2800@@UEAAPEAXPEBX@Z 00000001800417ac     ConEmuPlugin2800.obj
 0002:0000e7c4       $cppxdata$?Open@CPluginW2800@@UEAAPEAXPEBX@Z 00000001800417c4     ConEmuPlugin2800.obj
 0002:0000e7cd       $stateUnwindMap$?Open@CPluginW2800@@UEAAPEAXPEBX@Z 00000001800417cd     ConEmuPlugin2800.obj
 0002:0000e7d4       $ip2state$?Open@CPluginW2800@@UEAAPEAXPEBX@Z 00000001800417d4     ConEmuPlugin2800.obj
 0002:0000e7e0       $unwind$?PostMacroApi@CPluginW2800@@UEAAXPEB_WPEAU_INPUT_RECORD@@_N@Z 00000001800417e0     ConEmuPlugin2800.obj
 0002:0000e804       $unwind$?SetWindow@CPluginW2800@@UEAAXH@Z 0000000180041804     ConEmuPlugin2800.obj
 0002:0000e81c       $cppxdata$?SetWindow@CPluginW2800@@UEAAXH@Z 000000018004181c     ConEmuPlugin2800.obj
 0002:0000e825       $stateUnwindMap$?SetWindow@CPluginW2800@@UEAAXH@Z 0000000180041825     ConEmuPlugin2800.obj
 0002:0000e831       $ip2state$?SetWindow@CPluginW2800@@UEAAXH@Z 0000000180041831     ConEmuPlugin2800.obj
 0002:0000e83c       $unwind$?UpdateConEmuTabsApi@CPluginW2800@@UEAA_NH@Z 000000018004183c     ConEmuPlugin2800.obj
 0002:0000e88c       $cppxdata$?UpdateConEmuTabsApi@CPluginW2800@@UEAA_NH@Z 000000018004188c     ConEmuPlugin2800.obj
 0002:0000e895       $stateUnwindMap$?UpdateConEmuTabsApi@CPluginW2800@@UEAA_NH@Z 0000000180041895     ConEmuPlugin2800.obj
 0002:0000e8a7       $ip2state$?UpdateConEmuTabsApi@CPluginW2800@@UEAA_NH@Z 00000001800418a7     ConEmuPlugin2800.obj
 0002:0000e8b8       $unwind$?insert@?$vector@UWindowInfo@@V?$MArrayAllocator@UWindowInfo@@@@@std@@QEAA?AV?$_Vector_iterator@V?$_Vector_val@U?$_Simple_types@UWindowInfo@@@std@@@std@@@2@V?$_Vector_const_iterator@V?$_Vector_val@U?$_Simple_types@UWindowInfo@@@std@@@std@@@2@_KAEBUWindowInfo@@@Z 00000001800418b8     ConEmuPlugin2800.obj
 0002:0000e8d4       $cppxdata$?insert@?$vector@UWindowInfo@@V?$MArrayAllocator@UWindowInfo@@@@@std@@QEAA?AV?$_Vector_iterator@V?$_Vector_val@U?$_Simple_types@UWindowInfo@@@std@@@std@@@2@V?$_Vector_const_iterator@V?$_Vector_val@U?$_Simple_types@UWindowInfo@@@std@@@std@@@2@_KAEBUWindowInfo@@@Z 00000001800418d4     ConEmuPlugin2800.obj
 0002:0000e8e1       $stateUnwindMap$??$_Emplace_reallocate@AEBUWindowInfo@@@?$vector@UWindowInfo@@V?$MArrayAllocator@UWindowInfo@@@@@std@@QEAAPEAUWindowInfo@@QEAU2@AEBU2@@Z 00000001800418e1     ConEmuPlugin2800.obj
 0002:0000e8e1       $stateUnwindMap$?insert@?$vector@UWindowInfo@@V?$MArrayAllocator@UWindowInfo@@@@@std@@QEAA?AV?$_Vector_iterator@V?$_Vector_val@U?$_Simple_types@UWindowInfo@@@std@@@std@@@2@V?$_Vector_const_iterator@V?$_Vector_val@U?$_Simple_types@UWindowInfo@@@std@@@std@@@2@_KAEBUWindowInfo@@@Z 00000001800418e1     ConEmuPlugin2800.obj
 0002:0000e8e4       $tryMap$?insert@?$vector@UWindowInfo@@V?$MArrayAllocator@UWindowInfo@@@@@std@@QEAA?AV?$_Vector_iterator@V?$_Vector_val@U?$_Simple_types@UWindowInfo@@@std@@@std@@@2@V?$_Vector_const_iterator@V?$_Vector_val@U?$_Simple_types@UWindowInfo@@@std@@@std@@@2@_KAEBUWindowInfo@@@Z 00000001800418e4     ConEmuPlugin2800.obj
 0002:0000e8ec       $handlerMap$?insert@?$vector@UWindowInfo@@V?$MArrayAllocator@UWindowInfo@@@@@std@@QEAA?AV?$_Vector_iterator@V?$_Vector_val@U?$_Simple_types@UWindowInfo@@@std@@@std@@@2@V?$_Vector_const_iterator@V?$_Vector_val@U?$_Simple_types@UWindowInfo@@@std@@@std@@@2@_KAEBUWindowInfo@@@Z 00000001800418ec     ConEmuPlugin2800.obj
 0002:0000e8f3       $ip2state$?insert@?$vector@UWindowInfo@@V?$MArrayAllocator@UWindowInfo@@@@@std@@QEAA?AV?$_Vector_iterator@V?$_Vector_val@U?$_Simple_types@UWindowInfo@@@std@@@std@@@2@V?$_Vector_const_iterator@V?$_Vector_val@U?$_Simple_types@UWindowInfo@@@std@@@std@@@2@_KAEBUWindowInfo@@@Z 00000001800418f3     ConEmuPlugin2800.obj
 0002:0000e8f8       $unwind$?catch$0@?0???$_Emplace_reallocate@AEBUWindowInfo@@@?$vector@UWindowInfo@@V?$MArrayAllocator@UWindowInfo@@@@@std@@QEAAPEAUWindowInfo@@QEAU2@AEBU2@@Z@4HA 00000001800418f8     ConEmuPlugin2800.obj
 0002:0000e8f8       $unwind$?catch$0@?0??insert@?$vector@UWindowInfo@@V?$MArrayAllocator@UWindowInfo@@@@@std@@QEAA?AV?$_Vector_iterator@V?$_Vector_val@U?$_Simple_types@UWindowInfo@@@std@@@std@@@2@V?$_Vector_const_iterator@V?$_Vector_val@U?$_Simple_types@UWindowInfo@@@std@@@std@@@2@_KAEBUWindowInfo@@@Z@4HA 00000001800418f8     ConEmuPlugin2800.obj
 0002:0000e900       $unwind$?erase@?$MArray@UWindowInfo@@@@QEAAX_J0@Z 0000000180041900     ConEmuPlugin2800.obj
 0002:0000e910       $unwind$??1?$MArray@UWindowInfo@@@@QEAA@XZ 0000000180041910     ConEmuPlugin2800.obj
 0002:0000e920       $cppxdata$??1?$MArray@UWindowInfo@@@@QEAA@XZ 0000000180041920     ConEmuPlugin2800.obj
 0002:0000e929       $stateUnwindMap$??1?$MArray@UWindowInfo@@@@QEAA@XZ 0000000180041929     ConEmuPlugin2800.obj
 0002:0000e92f       $ip2state$??1?$MArray@UWindowInfo@@@@QEAA@XZ 000000018004192f     ConEmuPlugin2800.obj
 0002:0000e934       $unwind$?WLoadWindows@@YA_JAEAV?$MArray@UWindowInfo@@@@H@Z 0000000180041934     ConEmuPlugin2800.obj
 0002:0000e94c       $unwind$?CallGuiMacroDlg@@YA_JPEAX_J10@Z 000000018004194c     ConEmuPlugin2800.obj
 0002:0000e96c       $unwind$?CallGuiMacroProc@@YAXXZ 000000018004196c     ConEmuPlugin2800.obj
 0002:0000e990       $unwind$??$_Emplace_reallocate@AEBUWindowInfo@@@?$vector@UWindowInfo@@V?$MArrayAllocator@UWindowInfo@@@@@std@@QEAAPEAUWindowInfo@@QEAU2@AEBU2@@Z 0000000180041990     ConEmuPlugin2800.obj
 0002:0000e9ac       $cppxdata$??$_Emplace_reallocate@AEBUWindowInfo@@@?$vector@UWindowInfo@@V?$MArrayAllocator@UWindowInfo@@@@@std@@QEAAPEAUWindowInfo@@QEAU2@AEBU2@@Z 00000001800419ac     ConEmuPlugin2800.obj
 0002:0000e9b9       $tryMap$??$_Emplace_reallocate@AEBUWindowInfo@@@?$vector@UWindowInfo@@V?$MArrayAllocator@UWindowInfo@@@@@std@@QEAAPEAUWindowInfo@@QEAU2@AEBU2@@Z 00000001800419b9     ConEmuPlugin2800.obj
 0002:0000e9c1       $handlerMap$??$_Emplace_reallocate@AEBUWindowInfo@@@?$vector@UWindowInfo@@V?$MArrayAllocator@UWindowInfo@@@@@std@@QEAAPEAUWindowInfo@@QEAU2@AEBU2@@Z 00000001800419c1     ConEmuPlugin2800.obj
 0002:0000e9c8       $ip2state$??$_Emplace_reallocate@AEBUWindowInfo@@@?$vector@UWindowInfo@@V?$MArrayAllocator@UWindowInfo@@@@@std@@QEAAPEAUWindowInfo@@QEAU2@AEBU2@@Z 00000001800419c8     ConEmuPlugin2800.obj
 0002:0000e9cc       $unwind$??0CPluginW995@@QEAA@XZ 00000001800419cc     ConEmuPlugin995.obj
 0002:0000e9e8       $cppxdata$??0CPluginW995@@QEAA@XZ 00000001800419e8     ConEmuPlugin995.obj
 0002:0000e9f1       $stateUnwindMap$??0CPluginW995@@QEAA@XZ 00000001800419f1     ConEmuPlugin995.obj
 0002:0000e9f1       $stateUnwindMap$??0CPluginAnsi@@QEAA@XZ 00000001800419f1     ConEmuPluginA.obj
 0002:0000e9f8       $ip2state$??0CPluginW995@@QEAA@XZ 00000001800419f8     ConEmuPlugin995.obj
 0002:0000ea00       $unwind$?GetActiveWindowType@CPluginW995@@UEAAHXZ 0000000180041a00     ConEmuPlugin995.obj
 0002:0000ea00       $unwind$?GetMacroArea@CPluginW995@@UEAAHXZ 0000000180041a00     ConEmuPlugin995.obj
 0002:0000ea00       $unwind$?IsMacroActive@CPluginW995@@UEAA_NXZ 0000000180041a00     ConEmuPlugin995.obj
 0002:0000ea00       $unwind$?PostMacroApi@CPluginW995@@UEAAXPEB_WPEAU_INPUT_RECORD@@_N@Z 0000000180041a00     ConEmuPlugin995.obj
 0002:0000ea00       $unwind$?IsMacroActive@CPluginAnsi@@UEAA_NXZ 0000000180041a00     ConEmuPluginA.obj
 0002:0000ea00       $unwind$fallbackMethod     0000000180041a00     libucrt:strpbrk.obj
 0002:0000ea10       $unwind$?GetEditorModifiedState@CPluginW995@@UEAAKXZ 0000000180041a10     ConEmuPlugin995.obj
 0002:0000ea20       $unwind$?GetPanelInfo@CPluginW995@@UEAA_NKPEAUCEPanelInfo@@@Z 0000000180041a20     ConEmuPlugin995.obj
 0002:0000ea3c       $unwind$?GetPanelItemInfo@CPluginW995@@UEAA_NAEBUCEPanelInfo@@_N_JAEAU_WIN32_FIND_DATAW@@PEAPEA_W@Z 0000000180041a3c     ConEmuPlugin995.obj
 0002:0000ea50       $unwind$?GetPanelDir@CPluginW995@@UEAAPEA_WKPEA_WH@Z 0000000180041a50     ConEmuPlugin995.obj
 0002:0000ea6c       $unwind$?InputBox@CPluginW995@@UEAA_NPEB_W000AEAPEA_W@Z 0000000180041a6c     ConEmuPlugin995.obj
 0002:0000ea84       $unwind$?LoadFarColors@CPluginW995@@UEAAXAEAY0BAA@E@Z 0000000180041a84     ConEmuPlugin995.obj
 0002:0000ea84       $unwind$?LoadFarColors@CPluginAnsi@@UEAAXAEAY0BAA@E@Z 0000000180041a84     ConEmuPluginA.obj
 0002:0000ea9c       $unwind$?SetStartupInfoPtr@CPluginW995@@UEAAXPEAX@Z 0000000180041a9c     ConEmuPlugin995.obj
 0002:0000ea9c       $unwind$?SetStartupInfoPtr@CPluginAnsi@@UEAAXPEAX@Z 0000000180041a9c     ConEmuPluginA.obj
 0002:0000eab0       $unwind$?ShowPluginMenu@CPluginW995@@UEAAHPEAUConEmuPluginMenuItem@@HH@Z 0000000180041ab0     ConEmuPlugin995.obj
 0002:0000eac8       $unwind$?UpdateConEmuTabsApi@CPluginW995@@UEAA_NH@Z 0000000180041ac8     ConEmuPlugin995.obj
 0002:0000eaec       $unwind$?WaitEndSynchro@CPluginW995@@UEAAXXZ 0000000180041aec     ConEmuPlugin995.obj
 0002:0000eb04       $unwind$?CallGuiMacroDlg@@YA_JPEAXHH_J@Z 0000000180041b04     ConEmuPlugin995.obj
 0002:0000eb20       $unwind$?CallGuiMacroProc@@YAXXZ 0000000180041b20     ConEmuPlugin995.obj
 0002:0000eb3c       $unwind$??0CPluginAnsi@@QEAA@XZ 0000000180041b3c     ConEmuPluginA.obj
 0002:0000eb4c       $cppxdata$??0CPluginAnsi@@QEAA@XZ 0000000180041b4c     ConEmuPluginA.obj
 0002:0000eb55       $ip2state$??0CPluginAnsi@@QEAA@XZ 0000000180041b55     ConEmuPluginA.obj
 0002:0000eb5c       $unwind$?GetActiveWindowType@CPluginAnsi@@UEAAHXZ 0000000180041b5c     ConEmuPluginA.obj
 0002:0000eb70       $unwind$?GetMsg@CPluginAnsi@@UEAAPEB_WHPEA_W_K@Z 0000000180041b70     ConEmuPluginA.obj
 0002:0000eb70       $unwind$?GetPanelItemInfo@CPluginAnsi@@UEAA_NAEBUCEPanelInfo@@_N_JAEAU_WIN32_FIND_DATAW@@PEAPEA_W@Z 0000000180041b70     ConEmuPluginA.obj
 0002:0000eb70       $unwind$?ToUnicode@CPluginBase@@SAPEA_WPEBD@Z 0000000180041b70     ConEmuPluginBase.obj
 0002:0000eb70       $unwind$?getStateFromIterators@UWMap4@FH4@@SAHAEBViterator@12@H0H0@Z 0000000180041b70     libvcruntime:frame.obj
 0002:0000eb70       $unwind$?_VerifyVersionInfo@@YA_NPEAU_OSVERSIONINFOEXW@@K_K@Z 0000000180041b70     common-kernel64:WObjects.obj
 0002:0000eb80       $unwind$?GetPanelDir@CPluginAnsi@@UEAAPEA_WKPEA_WH@Z 0000000180041b80     ConEmuPluginA.obj
 0002:0000eb9c       $unwind$?GetPanelInfo@CPluginAnsi@@UEAA_NKPEAUCEPanelInfo@@@Z 0000000180041b9c     ConEmuPluginA.obj
 0002:0000ebc0       $unwind$?InputBox@CPluginAnsi@@UEAA_NPEB_W000AEAPEA_W@Z 0000000180041bc0     ConEmuPluginA.obj
 0002:0000ebe4       $unwind$?OpenEditor@CPluginAnsi@@UEAA_NPEB_W_N11HH@Z 0000000180041be4     ConEmuPluginA.obj
 0002:0000ec00       $unwind$?PostMacroApi@CPluginAnsi@@UEAAXPEB_WPEAU_INPUT_RECORD@@_N@Z 0000000180041c00     ConEmuPluginA.obj
 0002:0000ec14       $unwind$?ShowMessage@CPluginAnsi@@UEAAHPEB_WH_N@Z 0000000180041c14     ConEmuPluginA.obj
 0002:0000ec14       $unwind$?ActivatePlugin@CPluginBase@@QEAA_NKPEAXK@Z 0000000180041c14     ConEmuPluginBase.obj
 0002:0000ec14       $unwind$?OnWriteConsoleOutput@CPluginBase@@SAHPEAUHookCallbackArg@@@Z 0000000180041c14     ConEmuPluginBase.obj
 0002:0000ec14       $unwind$?PanelControl@CPluginBase@@QEAA_JPEAXH_J0@Z 0000000180041c14     ConEmuPluginBase.obj
 0002:0000ec14       $unwind$??$__acrt_mbs_to_wcs_cp@U__crt_win32_buffer_internal_dynamic_resizing@@@@YAHQEBDAEAV?$__crt_win32_buffer@_WU__crt_win32_buffer_internal_dynamic_resizing@@@@I@Z 0000000180041c14     libucrt:argv_wildcards.obj
 0002:0000ec14       $unwind$?StringCchVPrintfA@@YAJPEAD_KPEBD0@Z 0000000180041c14     common-kernel64:MStrSafe.obj
 0002:0000ec14       $unwind$?apiCreateThread@@YAPEAXP6AKPEAX@Z0PEAKPEBDH@Z 0000000180041c14     common-kernel64:WThreads.obj
 0002:0000ec14       $unwind$?IsConEmuExeExist@@YAHPEB_WAEAY0BAF@_W@Z 0000000180041c14     common-user64:ConEmuCheckEx.obj
 0002:0000ec2c       $unwind$?ShowPluginMenu@CPluginAnsi@@UEAAHPEAUConEmuPluginMenuItem@@HH@Z 0000000180041c2c     ConEmuPluginA.obj
 0002:0000ec48       $unwind$?UpdateConEmuTabsApi@CPluginAnsi@@UEAA_NH@Z 0000000180041c48     ConEmuPluginA.obj
 0002:0000ec70       $unwind$?CallGuiMacroDlg@@YA_JPEAXHH_J@Z 0000000180041c70     ConEmuPluginA.obj
 0002:0000ec8c       $unwind$?CallGuiMacroProc@@YAXXZ 0000000180041c8c     ConEmuPluginA.obj
 0002:0000ecac       $unwind$?InitRootRegKey@CPluginBase@@IEAAXXZ 0000000180041cac     ConEmuPluginBase.obj
 0002:0000ecc8       $unwind$?DllMain_ProcessAttach@CPluginBase@@KAXPEAUHINSTANCE__@@@Z 0000000180041cc8     ConEmuPluginBase.obj
 0002:0000ecd8       $cppxdata$?DllMain_ProcessAttach@CPluginBase@@KAXPEAUHINSTANCE__@@@Z 0000000180041cd8     ConEmuPluginBase.obj
 0002:0000ece1       $stateUnwindMap$?DllMain_ProcessAttach@CPluginBase@@KAXPEAUHINSTANCE__@@@Z 0000000180041ce1     ConEmuPluginBase.obj
 0002:0000ecec       $ip2state$?DllMain_ProcessAttach@CPluginBase@@KAXPEAUHINSTANCE__@@@Z 0000000180041cec     ConEmuPluginBase.obj
 0002:0000ecf8       $unwind$?DllCheckUnique@CPluginBase@@KA_N_N@Z 0000000180041cf8     ConEmuPluginBase.obj
 0002:0000ed24       $cppxdata$?DllCheckUnique@CPluginBase@@KA_N_N@Z 0000000180041d24     ConEmuPluginBase.obj
 0002:0000ed2d       $stateUnwindMap$?DllCheckUnique@CPluginBase@@KA_N_N@Z 0000000180041d2d     ConEmuPluginBase.obj
 0002:0000ed3a       $ip2state$?DllCheckUnique@CPluginBase@@KA_N_N@Z 0000000180041d3a     ConEmuPluginBase.obj
 0002:0000ed48       $unwind$?ShowProtocolWarning@CPluginBase@@KAXXZ 0000000180041d48     ConEmuPluginBase.obj
 0002:0000ed60       $cppxdata$?ShowProtocolWarning@CPluginBase@@KAXXZ 0000000180041d60     ConEmuPluginBase.obj
 0002:0000ed69       $stateUnwindMap$?ShowProtocolWarning@CPluginBase@@KAXXZ 0000000180041d69     ConEmuPluginBase.obj
 0002:0000ed70       $ip2state$?ShowProtocolWarning@CPluginBase@@KAXXZ 0000000180041d70     ConEmuPluginBase.obj
 0002:0000ed78       $unwind$?ShowMessageBox@CPluginBase@@KAHPEB_WI@Z 0000000180041d78     ConEmuPluginBase.obj
 0002:0000ed94       $unwind$?ShowMessageGui@CPluginBase@@QEAAHHH@Z 0000000180041d94     ConEmuPluginBase.obj
 0002:0000edac       $unwind$?UpdatePanelDirs@CPluginBase@@QEAAXXZ 0000000180041dac     ConEmuPluginBase.obj
 0002:0000edcc       $unwind$?StorePanelDirs@CPluginBase@@QEAA_NPEB_W0@Z 0000000180041dcc     ConEmuPluginBase.obj
 0002:0000edcc       $unwind$?try_get_function@@YAPEAXW4function_id@?A0x61a31dd3@@QEBDQEBW4module_id@2@2@Z 0000000180041dcc     libvcruntime:winapi_downlevel.obj
 0002:0000edcc       $unwind$?try_get_function@@YAPEAXW4function_id@?A0x391cf84c@@QEBDQEBW4module_id@2@2@Z 0000000180041dcc     libucrt:winapi_thunks.obj
 0002:0000ede8       $unwind$?RunExternalProgram@CPluginBase@@QEAA_NPEA_W@Z 0000000180041de8     ConEmuPluginBase.obj
 0002:0000ee08       $cppxdata$?RunExternalProgram@CPluginBase@@QEAA_NPEA_W@Z 0000000180041e08     ConEmuPluginBase.obj
 0002:0000ee11       $stateUnwindMap$?RunExternalProgram@CPluginBase@@QEAA_NPEA_W@Z 0000000180041e11     ConEmuPluginBase.obj
 0002:0000ee24       $ip2state$?RunExternalProgram@CPluginBase@@QEAA_NPEA_W@Z 0000000180041e24     ConEmuPluginBase.obj
 0002:0000ee30       $unwind$?ShowPluginMenu@CPluginBase@@QEAAXW4PluginCallCommands@@@Z 0000000180041e30     ConEmuPluginBase.obj
 0002:0000ee50       $unwind$?ShowConsoleInfo@CPluginBase@@QEAAXXZ 0000000180041e50     ConEmuPluginBase.obj
 0002:0000ee78       $unwind$?StartDebugger@CPluginBase@@QEAA_NXZ 0000000180041e78     ConEmuPluginBase.obj
 0002:0000ee9c       $unwind$?Attach2Gui@CPluginBase@@QEAA_N_N@Z 0000000180041e9c     ConEmuPluginBase.obj
 0002:0000eec0       $unwind$?FindServerCmd@CPluginBase@@QEAA_NKAEAK_N@Z 0000000180041ec0     ConEmuPluginBase.obj
 0002:0000eedc       $unwind$?ShowMessage@CPluginBase@@QEAAHHH@Z 0000000180041edc     ConEmuPluginBase.obj
 0002:0000eef4       $unwind$?UpdateConEmuTabs@CPluginBase@@QEAA_N_N@Z 0000000180041ef4     ConEmuPluginBase.obj
 0002:0000ef18       $cppxdata$?UpdateConEmuTabs@CPluginBase@@QEAA_N_N@Z 0000000180041f18     ConEmuPluginBase.obj
 0002:0000ef21       $stateUnwindMap$?UpdateConEmuTabs@CPluginBase@@QEAA_N_N@Z 0000000180041f21     ConEmuPluginBase.obj
 0002:0000ef28       $ip2state$?UpdateConEmuTabs@CPluginBase@@QEAA_N_N@Z 0000000180041f28     ConEmuPluginBase.obj
 0002:0000ef30       $unwind$?CheckResources@CPluginBase@@QEAAX_N@Z 0000000180041f30     ConEmuPluginBase.obj
 0002:0000ef4c       $unwind$?InitResources@CPluginBase@@QEAAXXZ 0000000180041f4c     ConEmuPluginBase.obj
 0002:0000ef70       $unwind$?OpenPluginCommon@CPluginBase@@QEAAPEAXH_J_N@Z 0000000180041f70     ConEmuPluginBase.obj
 0002:0000ef88       $unwind$?ProcessSetWindowCommand@CPluginBase@@QEAAXXZ 0000000180041f88     ConEmuPluginBase.obj
 0002:0000ef9c       $unwind$?CommonPluginStartup@CPluginBase@@QEAAXXZ 0000000180041f9c     ConEmuPluginBase.obj
 0002:0000efb0       $unwind$?ProcessCommand@CPluginBase@@QEAA_NKHPEAXPEAPEAUCESERVER_REQ@@_N@Z 0000000180041fb0     ConEmuPluginBase.obj
 0002:0000efd4       $cppxdata$?ProcessCommand@CPluginBase@@QEAA_NKHPEAXPEAPEAUCESERVER_REQ@@_N@Z 0000000180041fd4     ConEmuPluginBase.obj
 0002:0000efdd       $stateUnwindMap$?ProcessCommand@CPluginBase@@QEAA_NKHPEAXPEAPEAUCESERVER_REQ@@_N@Z 0000000180041fdd     ConEmuPluginBase.obj
 0002:0000efe4       $ip2state$?ProcessCommand@CPluginBase@@QEAA_NKHPEAXPEAPEAUCESERVER_REQ@@_N@Z 0000000180041fe4     ConEmuPluginBase.obj
 0002:0000eff0       $unwind$?FarSetConsoleSize@CPluginBase@@SA_NFF@Z 0000000180041ff0     ConEmuPluginBase.obj
 0002:0000f00c       $unwind$?ReloadFarInfo@CPluginBase@@QEAA_N_N@Z 000000018004200c     ConEmuPluginBase.obj
 0002:0000f02c       $unwind$?FillUpdateBackground@CPluginBase@@QEAAXPEAUPaintBackgroundArg@@@Z 000000018004202c     ConEmuPluginBase.obj
 0002:0000f044       $unwind$?GetPanelInfo@CPluginBase@@QEAA_NKPEAUBkPanelInfo@@@Z 0000000180042044     ConEmuPluginBase.obj
 0002:0000f05c       $unwind$?ProcessDragFrom@CPluginBase@@QEAAXXZ 000000018004205c     ConEmuPluginBase.obj
 0002:0000f084       $unwind$?ProcessDragTo@CPluginBase@@QEAAXXZ 0000000180042084     ConEmuPluginBase.obj
 0002:0000f0a8       $unwind$?IsCurrentTabModal@CPluginBase@@QEAA_NXZ 00000001800420a8     ConEmuPluginBase.obj
 0002:0000f0b8       $cppxdata$?IsCurrentTabModal@CPluginBase@@QEAA_NXZ 00000001800420b8     ConEmuPluginBase.obj
 0002:0000f0c1       $stateUnwindMap$?CreateTabs@CPluginBase@@SA_NH@Z 00000001800420c1     ConEmuPluginBase.obj
 0002:0000f0c1       $stateUnwindMap$?IsCurrentTabModal@CPluginBase@@QEAA_NXZ 00000001800420c1     ConEmuPluginBase.obj
 0002:0000f0c1       $stateUnwindMap$?SendTabs@CPluginBase@@SAXH_N@Z 00000001800420c1     ConEmuPluginBase.obj
 0002:0000f0c8       $ip2state$?IsCurrentTabModal@CPluginBase@@QEAA_NXZ 00000001800420c8     ConEmuPluginBase.obj
 0002:0000f0d0       $unwind$?ShowTabsList@CPluginBase@@QEAAXXZ 00000001800420d0     ConEmuPluginBase.obj
 0002:0000f0e4       $unwind$?ShowPanelsList@CPluginBase@@QEAAXXZ 00000001800420e4     ConEmuPluginBase.obj
 0002:0000f0fc       $unwind$?EditViewConsoleOutput@CPluginBase@@QEAAX_N@Z 00000001800420fc     ConEmuPluginBase.obj
 0002:0000f0fc       $unwind$?x_ismbbtype_l@@YAHPEAU__crt_locale_pointers@@IHH@Z 00000001800420fc     libucrt:ismbbyte.obj
 0002:0000f10c       $unwind$?PrintText@CPluginBase@@QEAA_NPEB_W@Z 000000018004210c     ConEmuPluginBase.obj
 0002:0000f124       $unwind$?cmd_OpenEditorLine@CPluginBase@@QEAA_NPEAUCESERVER_REQ_FAREDITOR@@@Z 0000000180042124     ConEmuPluginBase.obj
 0002:0000f140       $cppxdata$?cmd_OpenEditorLine@CPluginBase@@QEAA_NPEAUCESERVER_REQ_FAREDITOR@@@Z 0000000180042140     ConEmuPluginBase.obj
 0002:0000f149       $stateUnwindMap$?cmd_OpenEditorLine@CPluginBase@@QEAA_NPEAUCESERVER_REQ_FAREDITOR@@@Z 0000000180042149     ConEmuPluginBase.obj
 0002:0000f150       $ip2state$?cmd_OpenEditorLine@CPluginBase@@QEAA_NPEAUCESERVER_REQ_FAREDITOR@@@Z 0000000180042150     ConEmuPluginBase.obj
 0002:0000f158       $unwind$?cmd_RedrawFarCall@CPluginBase@@QEAA_NAEAPEAUCESERVER_REQ@@PEAPEAU2@@Z 0000000180042158     ConEmuPluginBase.obj
 0002:0000f158       $unwind$_invalid_parameter 0000000180042158     libucrt:invalid_parameter.obj
 0002:0000f16c       $unwind$?cmd_LeftClickSync@CPluginBase@@QEAAXPEAX@Z 000000018004216c     ConEmuPluginBase.obj
 0002:0000f180       $unwind$?cmd_EMenu@CPluginBase@@QEAAXPEAX@Z 0000000180042180     ConEmuPluginBase.obj
 0002:0000f19c       $unwind$?cmd_ExternalCallback@CPluginBase@@QEAA_NPEAX@Z 000000018004219c     ConEmuPluginBase.obj
 0002:0000f1ac       $unwind$?cmd_ConSetFont@CPluginBase@@QEAAXPEAX@Z 00000001800421ac     ConEmuPluginBase.obj
 0002:0000f1bc       $unwind$?OnPanelViewCallbacks@CPluginBase@@SA_NPEAUHookCallbackArg@@P6AHPEAXPEAU_INPUT_RECORD@@KPEAKPEAH@Z5@Z 00000001800421bc     ConEmuPluginBase.obj
 0002:0000f1d4       $unwind$?OnConsoleReadInputPost@CPluginBase@@SAHPEAUHookCallbackArg@@@Z 00000001800421d4     ConEmuPluginBase.obj
 0002:0000f1f4       $unwind$?OnConsoleDetaching@CPluginBase@@SAHPEAUHookCallbackArg@@@Z 00000001800421f4     ConEmuPluginBase.obj
 0002:0000f204       $unwind$?OnLibraryLoaded@CPluginBase@@SAXPEAUHINSTANCE__@@@Z 0000000180042204     ConEmuPluginBase.obj
 0002:0000f214       $unwind$?NotifyConEmuUnloaded@CPluginBase@@SAXXZ 0000000180042214     ConEmuPluginBase.obj
 0002:0000f230       $unwind$?LoadFarVersion@CPluginBase@@SA_NXZ 0000000180042230     ConEmuPluginBase.obj
 0002:0000f248       $unwind$?UngetDummyMouseEvent@CPluginBase@@SA_N_NPEAUHookCallbackArg@@@Z 0000000180042248     ConEmuPluginBase.obj
 0002:0000f25c       $unwind$?OnConsolePeekReadInput@CPluginBase@@SAX_N@Z 000000018004225c     ConEmuPluginBase.obj
 0002:0000f274       $unwind$?WaitPluginActivation@CPluginBase@@SAKKPEAPEAXHK@Z 0000000180042274     ConEmuPluginBase.obj
 0002:0000f290       $unwind$?MonitorThreadProcW@CPluginBase@@SAKPEAX@Z 0000000180042290     ConEmuPluginBase.obj
 0002:0000f2b8       $cppxdata$?MonitorThreadProcW@CPluginBase@@SAKPEAX@Z 00000001800422b8     ConEmuPluginBase.obj
 0002:0000f2c1       $stateUnwindMap$?MonitorThreadProcW@CPluginBase@@SAKPEAX@Z 00000001800422c1     ConEmuPluginBase.obj
 0002:0000f2c1       $stateUnwindMap$?RegisterSubplugin@CPluginBackground@@QEAAHPEAURegisterBackgroundArg@@@Z 00000001800422c1     PluginBackground.obj
 0002:0000f2c8       $ip2state$?MonitorThreadProcW@CPluginBase@@SAKPEAX@Z 00000001800422c8     ConEmuPluginBase.obj
 0002:0000f2d4       $unwind$?CheckConEmuDetached@CPluginBase@@SAXXZ 00000001800422d4     ConEmuPluginBase.obj
 0002:0000f2f4       $cppxdata$?CheckConEmuDetached@CPluginBase@@SAXXZ 00000001800422f4     ConEmuPluginBase.obj
 0002:0000f2fd       $stateUnwindMap$?CheckConEmuDetached@CPluginBase@@SAXXZ 00000001800422fd     ConEmuPluginBase.obj
 0002:0000f304       $ip2state$?CheckConEmuDetached@CPluginBase@@SAXXZ 0000000180042304     ConEmuPluginBase.obj
 0002:0000f30c       $unwind$?OpenMapHeader@CPluginBase@@SAHXZ 000000018004230c     ConEmuPluginBase.obj
 0002:0000f30c       $unwind$?write_stored_string_tchar@?$output_processor@_WV?$string_output_adapter@_W@__crt_stdio_output@@V?$standard_base@_WV?$string_output_adapter@_W@__crt_stdio_output@@@2@@__crt_stdio_output@@AEAA_N_W@Z 000000018004230c     libucrt:output.obj
 0002:0000f320       $unwind$?InitHWND@CPluginBase@@SAXXZ 0000000180042320     ConEmuPluginBase.obj
 0002:0000f334       $unwind$?GetMainThreadId@CPluginBase@@SAKXZ 0000000180042334     ConEmuPluginBase.obj
 0002:0000f34c       $unwind$?RunExternalProgramW@CPluginBase@@SA_NPEA_W0_N@Z 000000018004234c     ConEmuPluginBase.obj
 0002:0000f36c       $cppxdata$?RunExternalProgramW@CPluginBase@@SA_NPEA_W0_N@Z 000000018004236c     ConEmuPluginBase.obj
 0002:0000f375       $stateUnwindMap$?RunExternalProgramW@CPluginBase@@SA_NPEA_W0_N@Z 0000000180042375     ConEmuPluginBase.obj
 0002:0000f387       $ip2state$?RunExternalProgramW@CPluginBase@@SA_NPEA_W0_N@Z 0000000180042387     ConEmuPluginBase.obj
 0002:0000f398       $unwind$?CreateTabs@CPluginBase@@SA_NH@Z 0000000180042398     ConEmuPluginBase.obj
 0002:0000f3a8       $cppxdata$?CreateTabs@CPluginBase@@SA_NH@Z 00000001800423a8     ConEmuPluginBase.obj
 0002:0000f3b1       $ip2state$?CreateTabs@CPluginBase@@SA_NH@Z 00000001800423b1     ConEmuPluginBase.obj
 0002:0000f3b8       $unwind$?AddTab@CPluginBase@@QEAA_NAEAHH_N1HPEB_W2HHHH@Z 00000001800423b8     ConEmuPluginBase.obj
 0002:0000f3dc       $unwind$?SendTabs@CPluginBase@@SAXH_N@Z 00000001800423dc     ConEmuPluginBase.obj
 0002:0000f3f0       $cppxdata$?SendTabs@CPluginBase@@SAXH_N@Z 00000001800423f0     ConEmuPluginBase.obj
 0002:0000f3f9       $ip2state$?SendTabs@CPluginBase@@SAXH_N@Z 00000001800423f9     ConEmuPluginBase.obj
 0002:0000f404       $unwind$?CloseTabs@CPluginBase@@SAXXZ 0000000180042404     ConEmuPluginBase.obj
 0002:0000f414       $unwind$?LoadPanelTabsFromRegistry@CPluginBase@@IEAAXXZ 0000000180042414     ConEmuPluginBase.obj
 0002:0000f420       $unwind$?Plugin@@YAPEAVCPluginBase@@XZ 0000000180042420     ConEmuPluginBase.obj
 0002:0000f430       $cppxdata$?Plugin@@YAPEAVCPluginBase@@XZ 0000000180042430     ConEmuPluginBase.obj
 0002:0000f439       $stateUnwindMap$?Plugin@@YAPEAVCPluginBase@@XZ 0000000180042439     ConEmuPluginBase.obj
 0002:0000f44e       $ip2state$?Plugin@@YAPEAVCPluginBase@@XZ 000000018004244e     ConEmuPluginBase.obj
 0002:0000f464       $unwind$?LoadModuleVersion@@YA_NPEB_WAEAUtagVS_FIXEDFILEINFO@@PEA_W_K@Z 0000000180042464     ConEmuPluginBase.obj
 0002:0000f484       $unwind$?LoadFarVersion@@YA_NAEAUFarVersion@@AEAY0CAA@_W@Z 0000000180042484     ConEmuPluginBase.obj
 0002:0000f4a0       $unwind$??1MWow64Disable@@QEAA@XZ 00000001800424a0     ConEmuPluginBase.obj
 0002:0000f4b0       $cppxdata$??1MWow64Disable@@QEAA@XZ 00000001800424b0     ConEmuPluginBase.obj
 0002:0000f4b5       $ip2state$??1MWow64Disable@@QEAA@XZ 00000001800424b5     ConEmuPluginBase.obj
 0002:0000f4b8       $unwind$?InternalOpenCreate@?$MFileMapping@UCESERVER_CONSOLE_MAPPING_HDR@@@@IEAAPEAUCESERVER_CONSOLE_MAPPING_HDR@@_N0H@Z 00000001800424b8     ConEmuPluginBase.obj
 0002:0000f4b8       $unwind$?InternalOpenCreate@?$MFileMapping@UPanelViewSetMapping@@@@IEAAPEAUPanelViewSetMapping@@_N0H@Z 00000001800424b8     PluginBackground.obj
 0002:0000f4b8       $unwind$__C_specific_handler 00000001800424b8     libvcruntime:riscchandler.obj
 0002:0000f4b8       $unwind$?InternalOpenCreate@?$MFileMapping@UConEmuGuiMapping@@@@IEAAPEAUConEmuGuiMapping@@_N0H@Z 00000001800424b8     common-kernel64:ConEmuCheck.obj
 0002:0000f4d4       $unwind$?LoadThSet@CPluginBackground@@IEAAHH@Z 00000001800424d4     PluginBackground.obj
 0002:0000f500       $cppxdata$?LoadThSet@CPluginBackground@@IEAAHH@Z 0000000180042500     PluginBackground.obj
 0002:0000f509       $stateUnwindMap$?LoadThSet@CPluginBackground@@IEAAHH@Z 0000000180042509     PluginBackground.obj
 0002:0000f510       $ip2state$?LoadThSet@CPluginBackground@@IEAAHH@Z 0000000180042510     PluginBackground.obj
 0002:0000f518       $unwind$?UpdateBackground@CPluginBackground@@IEAAXXZ 0000000180042518     PluginBackground.obj
 0002:0000f544       $cppxdata$?UpdateBackground@CPluginBackground@@IEAAXXZ 0000000180042544     PluginBackground.obj
 0002:0000f54d       $stateUnwindMap$?UpdateBackground@CPluginBackground@@IEAAXXZ 000000018004254d     PluginBackground.obj
 0002:0000f554       $ip2state$?UpdateBackground@CPluginBackground@@IEAAXXZ 0000000180042554     PluginBackground.obj
 0002:0000f560       $unwind$??0CPluginBackground@@QEAA@XZ 0000000180042560     PluginBackground.obj
 0002:0000f57c       $cppxdata$??0CPluginBackground@@QEAA@XZ 000000018004257c     PluginBackground.obj
 0002:0000f585       $stateUnwindMap$??0CPluginBackground@@QEAA@XZ 0000000180042585     PluginBackground.obj
 0002:0000f58b       $ip2state$??0CPluginBackground@@QEAA@XZ 000000018004258b     PluginBackground.obj
 0002:0000f594       $unwind$??1CPluginBackground@@QEAA@XZ 0000000180042594     PluginBackground.obj
 0002:0000f5ac       $cppxdata$??1CPluginBackground@@QEAA@XZ 00000001800425ac     PluginBackground.obj
 0002:0000f5b1       $ip2state$??1CPluginBackground@@QEAA@XZ 00000001800425b1     PluginBackground.obj
 0002:0000f5b4       $unwind$?RegisterSubplugin@CPluginBackground@@QEAAHPEAURegisterBackgroundArg@@@Z 00000001800425b4     PluginBackground.obj
 0002:0000f5d0       $cppxdata$?RegisterSubplugin@CPluginBackground@@QEAAHPEAURegisterBackgroundArg@@@Z 00000001800425d0     PluginBackground.obj
 0002:0000f5d9       $ip2state$?RegisterSubplugin@CPluginBackground@@QEAAHPEAURegisterBackgroundArg@@@Z 00000001800425d9     PluginBackground.obj
 0002:0000f5e4       $unwind$?GetTo@?$MFileMapping@UPanelViewSetMapping@@@@QEAA_NPEAUPanelViewSetMapping@@H@Z 00000001800425e4     PluginBackground.obj
 0002:0000f604       $unwind$?PlugServerStart@@YA_NXZ 0000000180042604     PluginSrv.obj
 0002:0000f60c       $unwind$?PlugServerCommand@@YAHPEAXPEAUCESERVER_REQ@@AEAPEAU1@AEAK3_J@Z 000000018004260c     PluginSrv.obj
 0002:0000f630       $cppxdata$?PlugServerCommand@@YAHPEAXPEAUCESERVER_REQ@@AEAPEAU1@AEAK3_J@Z 0000000180042630     PluginSrv.obj
 0002:0000f639       $stateUnwindMap$?PlugServerCommand@@YAHPEAXPEAUCESERVER_REQ@@AEAPEAU1@AEAK3_J@Z 0000000180042639     PluginSrv.obj
 0002:0000f646       $ip2state$?PlugServerCommand@@YAHPEAXPEAUCESERVER_REQ@@AEAPEAU1@AEAK3_J@Z 0000000180042646     PluginSrv.obj
 0002:0000f654       $unwind$?PlugServerFree@@YAXPEAUCESERVER_REQ@@_J@Z 0000000180042654     PluginSrv.obj
 0002:0000f654       $unwind$_putwch_nolock     0000000180042654     libucrt:putwch.obj
 0002:0000f65c       $unwind$?DumpError@?$PipeServer@UCESERVER_REQ@@@@IEAAXPEAUPipeInst@1@PEB_WH@Z 000000018004265c     PluginSrv.obj
 0002:0000f678       $unwind$?PipeServerRead@?$PipeServer@UCESERVER_REQ@@@@IEAAHPEAUPipeInst@1@@Z 0000000180042678     PluginSrv.obj
 0002:0000f69c       $unwind$?PipeServerWrite@?$PipeServer@UCESERVER_REQ@@@@IEAAHPEAUPipeInst@1@PEBXKPEAKH@Z 000000018004269c     PluginSrv.obj
 0002:0000f6b8       $unwind$?WaitForClient@?$PipeServer@UCESERVER_REQ@@@@IEAA_NPEAUPipeInst@1@AEAH1@Z 00000001800426b8     PluginSrv.obj
 0002:0000f6d4       $unwind$?WriteDummyAnswer@?$PipeServer@UCESERVER_REQ@@@@IEAAHPEAUPipeInst@1@@Z 00000001800426d4     PluginSrv.obj
 0002:0000f6e8       $unwind$?PipeServerThread@?$PipeServer@UCESERVER_REQ@@@@IEAAKPEAUPipeInst@1@@Z 00000001800426e8     PluginSrv.obj
 0002:0000f700       $unwind$?StartPipeInstance@?$PipeServer@UCESERVER_REQ@@@@IEAA_NPEAUPipeInst@1@@Z 0000000180042700     PluginSrv.obj
 0002:0000f718       $unwind$?StartPipeServer@?$PipeServer@UCESERVER_REQ@@@@QEAA_N_NPEB_W_JPEAU_SECURITY_ATTRIBUTES@@P6AHPEAXPEAUCESERVER_REQ@@AEAPEAU3@AEAK72@ZP6AX52@ZP6AH42@ZP6AH42@ZP6AH42@Z@Z 0000000180042718     PluginSrv.obj
 0002:0000f718       $unwind$__GSHandlerCheck_EH4 0000000180042718     LIBCMT:gshandlereh4.obj
 0002:0000f718       $unwind$__GSHandlerCheck_SEH 0000000180042718     LIBCMT:gshandlerseh.obj
 0002:0000f718       $unwind$??$TypeMatchHelper@V__FrameHandler3@@@@YAHPEBU_s_HandlerType@@PEBU_s_CatchableType@@PEBU_s_ThrowInfo@@@Z 0000000180042718     libvcruntime:frame.obj
 0002:0000f718       $unwind$??$TypeMatchHelper@V__FrameHandler4@@@@YAHPEAUHandlerType4@FH4@@PEBU_s_CatchableType@@PEBU_s_ThrowInfo@@@Z 0000000180042718     libvcruntime:frame.obj
 0002:0000f718       $unwind$?initialize_stdio_handles_nolock@@YAXXZ 0000000180042718     libucrt:ioinit.obj
 0002:0000f718       $unwind$__acrt_initialize_stdio 0000000180042718     libucrt:_file.obj
 0002:0000f718       $unwind$?process@?$output_processor@_WV?$string_output_adapter@_W@__crt_stdio_output@@V?$standard_base@_WV?$string_output_adapter@_W@__crt_stdio_output@@@2@@__crt_stdio_output@@QEAAHXZ 0000000180042718     libucrt:output.obj
 0002:0000f718       $unwind$?type_case_integer@?$output_processor@DV?$string_output_adapter@D@__crt_stdio_output@@V?$standard_base@DV?$string_output_adapter@D@__crt_stdio_output@@@2@@__crt_stdio_output@@AEAA_NI_N@Z 0000000180042718     libucrt:output.obj
 0002:0000f718       $unwind$?type_case_integer@?$output_processor@_WV?$string_output_adapter@_W@__crt_stdio_output@@V?$standard_base@_WV?$string_output_adapter@_W@__crt_stdio_output@@@2@@__crt_stdio_output@@AEAA_NI_N@Z 0000000180042718     libucrt:output.obj
 0002:0000f718       $unwind$?ExecuteNewCmd@@YA_NAEAPEAUCESERVER_REQ@@AEAKK_K@Z 0000000180042718     common-kernel64:ConEmuCheck.obj
 0002:0000f718       $unwind$?WaitUnlocked@MSection@@IEAAXKK@Z 0000000180042718     common-kernel64:MSection.obj
 0002:0000f730       $unwind$?GetConEmuHWND@@YAPEAUHWND__@@H@Z 0000000180042730     common-kernel64:ConEmuCheck.obj
 0002:0000f74c       $unwind$?isConsoleWindow@@YA_NPEAUHWND__@@@Z 000000018004274c     common-kernel64:ConEmuCheck.obj
 0002:0000f764       $unwind$?GuiMessageBox@@YAHPEAUHWND__@@PEB_W1H@Z 0000000180042764     common-kernel64:ConEmuCheck.obj
 0002:0000f784       $unwind$?ExecuteOpenPipe@@YAPEAXPEB_WAEAY0CAI@_W0KKHPEAXH@Z 0000000180042784     common-kernel64:ConEmuCheck.obj
 0002:0000f79c       $unwind$__scrt_dllmain_exception_filter 000000018004279c     LIBCMT:utility.obj
 0002:0000f79c       $unwind$?Is_bad_exception_allowed@@YAEPEBU_s_ESTypeList@@@Z 000000018004279c     libvcruntime:frame.obj
 0002:0000f79c       $unwind$_ischartype_l      000000018004279c     libucrt:strtox.obj
 0002:0000f79c       $unwind$_recalloc_base     000000018004279c     libucrt:recalloc.obj
 0002:0000f79c       $unwind$__acrt_free_locale 000000018004279c     libucrt:locale_refcounting.obj
 0002:0000f79c       $unwind$__acrt_lowio_create_handle_array 000000018004279c     libucrt:osfinfo.obj
 0002:0000f79c       $unwind$?setSBCS@@YAXPEAU__crt_multibyte_data@@@Z 000000018004279c     libucrt:mbctype.obj
 0002:0000f79c       $unwind$_seh_filter_exe    000000018004279c     libucrt:exception_filter.obj
 0002:0000f79c       $unwind$_initterm          000000018004279c     libucrt:initterm.obj
 0002:0000f79c       $unwind$??$ensure_buffer_is_big_enough@D@formatting_buffer@__crt_stdio_output@@QEAA_N_K@Z 000000018004279c     libucrt:output.obj
 0002:0000f79c       $unwind$??$ensure_buffer_is_big_enough@_W@formatting_buffer@__crt_stdio_output@@QEAA_N_K@Z 000000018004279c     libucrt:output.obj
 0002:0000f79c       $unwind$?Set@CEStr@@QEAAPEB_WPEB_W_J@Z 000000018004279c     common-kernel64:CEStr.obj
 0002:0000f79c       $unwind$?SetAt@CEStr@@QEAA_W_J_W@Z 000000018004279c     common-kernel64:CEStr.obj
 0002:0000f79c       $unwind$?ExecuteNewCmd@@YAPEAUCESERVER_REQ@@K_K@Z 000000018004279c     common-kernel64:ConEmuCheck.obj
 0002:0000f79c       $unwind$?Init@HkFunc@@QEAA_NPEB_WPEAUHINSTANCE__@@@Z 000000018004279c     common-kernel64:HkFunc.obj
 0002:0000f79c       $unwind$?AddRef@MSection@@IEAAXK@Z 000000018004279c     common-kernel64:MSection.obj
 0002:0000f79c       $unwind$?Lock@MSection@@IEAAHHK@Z 000000018004279c     common-kernel64:MSection.obj
 0002:0000f79c       $unwind$?ReleaseRef@MSection@@IEAAHK@Z 000000018004279c     common-kernel64:MSection.obj
 0002:0000f79c       $unwind$?lstrdup@@YAPEA_WPEB_W_K@Z 000000018004279c     common-kernel64:MStrDup.obj
 0002:0000f79c       $unwind$?IsModuleValid@@YA_NPEAUHINSTANCE__@@H@Z 000000018004279c     common-kernel64:WModuleCheck.obj
 0002:0000f7b0       $unwind$??$free_environment@D@@YAXQEAPEAD@Z 00000001800427b0     libucrt:environment_initialization.obj
 0002:0000f7b0       $unwind$??$free_environment@_W@@YAXQEAPEA_W@Z 00000001800427b0     libucrt:environment_initialization.obj
 0002:0000f7b0       $unwind$?SetCommand@CESERVER_REQ_NEWCMD@@QEAAXPEB_W@Z 00000001800427b0     common-kernel64:Common.obj
 0002:0000f7b0       $unwind$?ExecutePrepareCmd@@YAXPEAUCESERVER_REQ@@K_K@Z 00000001800427b0     common-kernel64:ConEmuCheck.obj
 0002:0000f7b0       $unwind$?ExecutePrepareCmd@@YAXPEAUCESERVER_REQ_HDR@@K_K@Z 00000001800427b0     common-kernel64:ConEmuCheck.obj
 0002:0000f7bc       $unwind$?ExecuteGuiCmd@@YAPEAUCESERVER_REQ@@PEAUHWND__@@PEAU1@0H@Z 00000001800427bc     common-kernel64:ConEmuCheck.obj
 0002:0000f7dc       $unwind$?ExecuteSrvCmd@@YAPEAUCESERVER_REQ@@KPEAU1@PEAUHWND__@@HKH@Z 00000001800427dc     common-kernel64:ConEmuCheck.obj
 0002:0000f800       $unwind$?ExecuteCmd@@YAPEAUCESERVER_REQ@@PEB_WPEAU1@KPEAUHWND__@@HKH@Z 0000000180042800     common-kernel64:ConEmuCheck.obj
 0002:0000f824       $unwind$?LoadSrvMapping@@YAHPEAUHWND__@@AEAUCESERVER_CONSOLE_MAPPING_HDR@@@Z 0000000180042824     common-kernel64:ConEmuCheck.obj
 0002:0000f844       $unwind$?ModuleName@@YAPEB_WPEB_W@Z 0000000180042844     common-kernel64:ConEmuCheck.obj
 0002:0000f858       $unwind$?sprintf_c@@YAHPEAD_JPEBDZZ 0000000180042858     common-kernel64:MStrSafe.obj
 0002:0000f858       $unwind$?swprintf_c@@YAHPEA_W_JPEB_WZZ 0000000180042858     common-kernel64:MStrSafe.obj
 0002:0000f864       $unwind$?msprintf@@YAPEB_WPEA_W_KPEB_WZZ 0000000180042864     common-kernel64:MStrSafe.obj
 0002:0000f86c       $unwind$?mvsprintf@@YAPEB_WPEA_W_KPEB_WPEAD@Z 000000018004286c     common-kernel64:MStrSafe.obj
 0002:0000f88c       $unwind$?lstrcmpni@@YAHPEB_W0H@Z 000000018004288c     common-kernel64:MStrSafe.obj
 0002:0000f8a8       $unwind$?IsFilePath@@YA_NPEB_W_N@Z 00000001800428a8     common-kernel64:CmdLine.obj
 0002:0000f8c0       $unwind$?apiTerminateThreadEx@@YAHPEAXKPEBDH@Z 00000001800428c0     common-kernel64:WThreads.obj
 0002:0000f8dc       $unwind$?SetThreadName@@YAXKPEAD@Z 00000001800428dc     common-kernel64:WThreads.obj
 0002:0000f8fc       $unwind$?apiThreadHelper@@YAKPEAX@Z 00000001800428fc     common-kernel64:WThreads.obj
 0002:0000f910       $unwind$?lstrmerge@@YAPEA_WPEB_W00000000@Z 0000000180042910     common-kernel64:MStrDup.obj
 0002:0000f930       $unwind$?lstrmerge@@YA_NPEAPEA_WPEB_W1111111@Z 0000000180042930     common-kernel64:MStrDup.obj
 0002:0000f93c       $unwind$__std_exception_copy 000000018004293c     libvcruntime:std_exception.obj
 0002:0000f93c       $unwind$_free_osfhnd       000000018004293c     libucrt:osfinfo.obj
 0002:0000f93c       $unwind$?GetBuffer@CEStr@@QEAAPEA_W_J@Z 000000018004293c     common-kernel64:CEStr.obj
 0002:0000f950       $unwind$?type_case_a@?$output_processor@DV?$string_output_adapter@D@__crt_stdio_output@@V?$standard_base@DV?$string_output_adapter@D@__crt_stdio_output@@@2@@__crt_stdio_output@@AEAA_NXZ 0000000180042950     libucrt:output.obj
 0002:0000f950       $unwind$??0CEStr@@QEAA@PEB_W00000000@Z 0000000180042950     common-kernel64:CEStr.obj
 0002:0000f95c       $unwind$?ExpandEnvStr@@YA?AUCEStr@@PEB_W@Z 000000018004295c     common-kernel64:EnvVar.obj
 0002:0000f978       $unwind$?GetEnvVar@@YA?AUCEStr@@PEB_W@Z 0000000180042978     common-kernel64:EnvVar.obj
 0002:0000f990       $unwind$?SetEnvStrings@CESERVER_REQ_NEWCMD@@QEAAXPEB_WK@Z 0000000180042990     common-kernel64:Common.obj
 0002:0000f9ac       $unwind$?LocalSecurity@MNullDesc@@QEAAPEAU_SECURITY_ATTRIBUTES@@XZ 00000001800429ac     common-kernel64:MSecurity.obj
 0002:0000f9c8       $unwind$iswctype           00000001800429c8     libucrt:iswctype.obj
 0002:0000f9c8       $unwind$?Close@MHandle@@QEAAXXZ 00000001800429c8     common-kernel64:WObjects.obj
 0002:0000f9d4       $unwind$?FileExists@@YA_NPEB_WPEA_K@Z 00000001800429d4     common-kernel64:WObjects.obj
 0002:0000f9f8       $unwind$?isTerminalMode@@YA_NXZ 00000001800429f8     common-kernel64:MProcess.obj
 0002:0000fa10       $unwind$__dcrt_lowio_ensure_console_output_initialized 0000000180042a10     libucrt:initcon.obj
 0002:0000fa10       $unwind$_isleadbyte_l      0000000180042a10     libucrt:_wctype.obj
 0002:0000fa10       $unwind$?getSystemCP@@YAHH@Z 0000000180042a10     libucrt:mbctype.obj
 0002:0000fa10       $unwind$?Close@?$MToolHelp@UtagPROCESSENTRY32W@@$1?Process32FirstW@@YAHPEAXPEAU1@@Z$1?Process32NextW@@YAH01@Z@@QEAAXXZ 0000000180042a10     common-kernel64:MProcess.obj
 0002:0000fa18       $unwind$?Find@?$MToolHelp@UtagPROCESSENTRY32W@@$1?Process32FirstW@@YAHPEAXPEAU1@@Z$1?Process32NextW@@YAH01@Z@@QEAA_NAEBV?$function@$$A6A_NAEBUtagPROCESSENTRY32W@@@Z@std@@AEAUtagPROCESSENTRY32W@@@Z 0000000180042a18     common-kernel64:MProcess.obj
 0002:0000fa30       $unwind$?Find@MToolHelpProcess@@QEAA_NKAEAUtagPROCESSENTRY32W@@@Z 0000000180042a30     common-kernel64:MProcess.obj
 0002:0000fa40       $unwind$??$_Emplace_reallocate@AEBUtagPROCESSENTRY32W@@@?$vector@UtagPROCESSENTRY32W@@V?$MArrayAllocator@UtagPROCESSENTRY32W@@@@@std@@QEAAPEAUtagPROCESSENTRY32W@@QEAU2@AEBU2@@Z 0000000180042a40     common-kernel64:MProcess.obj
 0002:0000fa5c       $unwind$?should_round_up@@YA_NQEBN_KFW4__acrt_rounding_mode@@@Z 0000000180042a5c     libucrt:cvt.obj
 0002:0000fa5c       $unwind$??$parse_command_line@D@@YAXPEADPEAPEAD0PEA_K2@Z 0000000180042a5c     libucrt:argv_parsing.obj
 0002:0000fa5c       $unwind$?MyEnterCriticalSection@MSection@@IEAA_NK@Z 0000000180042a5c     common-kernel64:MSection.obj
 0002:0000fa5c       $unwind$?CheckCallbackPtr@@YA_NPEAUHINSTANCE__@@_KPEAP6A_JXZHHH@Z 0000000180042a5c     common-kernel64:WModuleCheck.obj
 0002:0000fa78       $unwind$?RecreateAndLock@MSectionSimple@@QEAA_NXZ 0000000180042a78     common-kernel64:MSectionSimple.obj
 0002:0000fa80       $unwind$?SetConEmuEnvVar@@YAXPEAUHWND__@@@Z 0000000180042a80     common-user64:SetEnvVar.obj
 0002:0000fa90       $unwind$?SetConEmuEnvHWND@@YAXPEB_WPEAUHWND__@@@Z 0000000180042a90     common-user64:SetEnvVar.obj
 0002:0000faa0       $unwind$?FindConEmuBaseDir@@YAHAEAY0BAF@_W0PEAUHINSTANCE__@@@Z 0000000180042aa0     common-user64:ConEmuCheckEx.obj
 0002:0000fac8       $cppxdata$?FindConEmuBaseDir@@YAHAEAY0BAF@_W0PEAUHINSTANCE__@@@Z 0000000180042ac8     common-user64:ConEmuCheckEx.obj
 0002:0000fad1       $stateUnwindMap$?FindConEmuBaseDir@@YAHAEAY0BAF@_W0PEAUHINSTANCE__@@@Z 0000000180042ad1     common-user64:ConEmuCheckEx.obj
 0002:0000fade       $ip2state$?FindConEmuBaseDir@@YAHAEAY0BAF@_W0PEAUHINSTANCE__@@@Z 0000000180042ade     common-user64:ConEmuCheckEx.obj
 0002:0000faec       $unwind$?EvaluateDefaultFontWidth@@YAHHPEB_W@Z 0000000180042aec     common-user64:EmergencyShow.obj
 0002:0000fb08       $unwind$?SetUserFriendlyFont@@YAXPEAUHWND__@@HH@Z 0000000180042b08     common-user64:EmergencyShow.obj
 0002:0000fb2c       $unwind$?CorrectConsolePos@@YAXPEAUHWND__@@@Z 0000000180042b2c     common-user64:EmergencyShow.obj
 0002:0000fb44       $unwind$?EmergencyShow@@YAXPEAUHWND__@@HH@Z 0000000180042b44     common-user64:EmergencyShow.obj
 0002:0000fb60       $unwind$?SearchAppPaths@@YA_NPEB_WAEAUCEStr@@_NPEAVCEnvRestorer@@@Z 0000000180042b60     common-user64:WFiles.obj
 0002:0000fb88       $cppxdata$?SearchAppPaths@@YA_NPEB_WAEAUCEStr@@_NPEAVCEnvRestorer@@@Z 0000000180042b88     common-user64:WFiles.obj
 0002:0000fb91       $stateUnwindMap$?SearchAppPaths@@YA_NPEB_WAEAUCEStr@@_NPEAVCEnvRestorer@@@Z 0000000180042b91     common-user64:WFiles.obj
 0002:0000fbb4       $ip2state$?SearchAppPaths@@YA_NPEB_WAEAUCEStr@@_NPEAVCEnvRestorer@@@Z 0000000180042bb4     common-user64:WFiles.obj
 0002:0000fbcc       $unwind$?SetConsoleInfo@@YAHPEAUHWND__@@PEAUCONSOLE_INFO@@@Z 0000000180042bcc     common-user64:WConsoleEx.obj
 0002:0000fbe8       $unwind$?GetConsoleSizeInfo@@YAXPEAUCONSOLE_INFO@@@Z 0000000180042be8     common-user64:WConsoleEx.obj
 0002:0000fbf8       $unwind$?SetConsoleFontSizeTo@@YAXPEAUHWND__@@HHPEB_WGG@Z 0000000180042bf8     common-user64:WConsoleEx.obj
 0002:0000fc18       $unwind$?UpdateComspec@@YAXPEAUConEmuComspec@@_N@Z 0000000180042c18     common-user64:WUser.obj
 0002:0000fc40       $cppxdata$?UpdateComspec@@YAXPEAUConEmuComspec@@_N@Z 0000000180042c40     common-user64:WUser.obj
 0002:0000fc49       $stateUnwindMap$?UpdateComspec@@YAXPEAUConEmuComspec@@_N@Z 0000000180042c49     common-user64:WUser.obj
 0002:0000fc63       $ip2state$?UpdateComspec@@YAXPEAUConEmuComspec@@_N@Z 0000000180042c63     common-user64:WUser.obj
 0002:0000fc74       $unwind$?write_string@?$string_output_adapter@D@__crt_stdio_output@@QEBAXQEBDHQEAHAEAV__crt_deferred_errno_cache@@@Z 0000000180042c74     libucrt:output.obj
 0002:0000fc74       $unwind$?SetEnvVarExpanded@@YAXPEB_W0@Z 0000000180042c74     common-user64:WUser.obj
 0002:0000fc8c       $unwind$?RegGetStringValue@@YAHPEAUHKEY__@@PEB_W1AEAUCEStr@@K@Z 0000000180042c8c     common-user64:WRegistry.obj
 0002:0000fca8       $xdatasym                  0000000180042ca8     LIBCMT:amdsecgs.obj
 0002:0000fcb0       $xdatasym                  0000000180042cb0     LIBCMT:chkstk.obj
 0002:0000fcb8       $unwind$?dllmain_crt_process_attach@@YAHQEAUHINSTANCE__@@QEAX@Z 0000000180042cb8     LIBCMT:dll_dllmain.obj
 0002:0000fcf4       $unwind$?dllmain_crt_process_detach@@YAH_N@Z 0000000180042cf4     LIBCMT:dll_dllmain.obj
 0002:0000fd48       $unwind$?dllmain_dispatch@@YAHQEAUHINSTANCE__@@KQEAX@Z 0000000180042d48     LIBCMT:dll_dllmain.obj
 0002:0000fd70       $unwind$?filt$0@?0??dllmain_dispatch@@YAHQEAUHINSTANCE__@@KQEAX@Z@4HA 0000000180042d70     LIBCMT:dll_dllmain.obj
 0002:0000fd70       $unwind$?filt$0@?0??FrameUnwindToState@__FrameHandler4@@SAXPEA_KPEAU_xDISPATCHER_CONTEXT@@PEAUFuncInfo4@FH4@@H@Z@4HA 0000000180042d70     libvcruntime:frame.obj
 0002:0000fd70       $unwind$?fin$1@?0??FrameUnwindToState@__FrameHandler4@@SAXPEA_KPEAU_xDISPATCHER_CONTEXT@@PEAUFuncInfo4@FH4@@H@Z@4HA 0000000180042d70     libvcruntime:frame.obj
 0002:0000fd78       $unwind$__scrt_is_nonwritable_in_current_image 0000000180042d78     LIBCMT:utility.obj
 0002:0000fd98       $unwind$__scrt_is_nonwritable_in_current_image$filt$0 0000000180042d98     LIBCMT:utility.obj
 0002:0000fda0       $unwind$__report_securityfailure 0000000180042da0     LIBCMT:gs_report.obj
 0002:0000fda8       $unwind$__report_gsfailure 0000000180042da8     LIBCMT:gs_report.obj
 0002:0000fdb0       $unwind$capture_current_context 0000000180042db0     LIBCMT:gs_report.obj
 0002:0000fdbc       $unwind$capture_previous_context 0000000180042dbc     LIBCMT:gs_report.obj
 0002:0000fdc8       $unwind$__scrt_fastfail    0000000180042dc8     LIBCMT:utility_desktop.obj
 0002:0000fdd8       $unwind$__security_init_cookie 0000000180042dd8     LIBCMT:gs_support.obj
 0002:0000fde4       $unwind$__isa_available_init 0000000180042de4     LIBCMT:cpu_disp.obj
 0002:0000fdf8       $xdatasym                  0000000180042df8     LIBCMT:guard_dispatch.obj
 0002:0000fe00       $xdatasym                  0000000180042e00     LIBCMT:guard_xfg_dispatch.obj
 0002:0000fe04       $unwind$?DecompFuncInfo@FH4@@YA_JPEAEAEAUFuncInfo4@1@_KH_N@Z 0000000180042e04     libvcruntime:risctrnsctrl.obj
 0002:0000fe1c       $unwind$?UnwindNestedFrames@__FrameHandler4@@SAXPEA_KPEAUEHExceptionRecord@@PEAU_CONTEXT@@0PEAXPEAUFuncInfo4@FH4@@HHPEAUHandlerType4@5@PEAU_xDISPATCHER_CONTEXT@@E@Z 0000000180042e1c     libvcruntime:risctrnsctrl.obj
 0002:0000fe30       $unwind$?GetRangeOfTrysToCheck@__FrameHandler4@@SA?AU?$pair@Viterator@TryBlockMap4@FH4@@V123@@std@@AEAVTryBlockMap4@FH4@@HPEAU_xDISPATCHER_CONTEXT@@PEAUFuncInfo4@5@H@Z 0000000180042e30     libvcruntime:risctrnsctrl.obj
 0002:0000fe4c       $unwind$__CxxFrameHandler4 0000000180042e4c     libvcruntime:risctrnsctrl.obj
 0002:0000fe60       $unwind$??$_CallSETranslator@V__FrameHandler4@@@@YAHPEAUEHExceptionRecord@@PEA_KPEAU_CONTEXT@@PEAU_xDISPATCHER_CONTEXT@@PEAUFuncInfo4@FH4@@K1H@Z 0000000180042e60     libvcruntime:risctrnsctrl.obj
 0002:0000fe80       $unwind$?filt$0@?0???$_CallSETranslator@V__FrameHandler4@@@@YAHPEAUEHExceptionRecord@@PEA_KPEAU_CONTEXT@@PEAU_xDISPATCHER_CONTEXT@@PEAUFuncInfo4@FH4@@K1H@Z@4HA 0000000180042e80     libvcruntime:risctrnsctrl.obj
 0002:0000fe90       $xdatasym                  0000000180042e90     libvcruntime:memcpy.obj
 0002:0000fea0       $unwind$wcsstr             0000000180042ea0     libvcruntime:wcsstr.obj
 0002:0000feb8       $xdatasym                  0000000180042eb8     libvcruntime:memset.obj
 0002:0000fec8       $unwind$__DestructExceptionObject 0000000180042ec8     libvcruntime:ehhelpers.obj
 0002:0000fee8       $unwind$__DestructExceptionObject$filt$0 0000000180042ee8     libvcruntime:ehhelpers.obj
 0002:0000fee8       $unwind$?fin$1@?0??CxxCallCatchBlock@__FrameHandler4@@SAPEAXPEAU_EXCEPTION_RECORD@@@Z@4HA 0000000180042ee8     libvcruntime:frame.obj
 0002:0000fef4       $unwind$_CxxThrowException 0000000180042ef4     libvcruntime:throw.obj
 0002:0000ff08       $xdatasym                  0000000180042f08     libvcruntime:memcmp.obj
 0002:0000ff0c       $unwind$?StateFromIp@__FrameHandler4@@SAHPEAUFuncInfo4@FH4@@PEAU_xDISPATCHER_CONTEXT@@_K@Z 0000000180042f0c     libvcruntime:ehstate.obj
 0002:0000ff20       $unwind$?getStartStop@UWMap4@FH4@@QEAAXHHAEAViterator@12@0@Z 0000000180042f20     libvcruntime:frame.obj
 0002:0000ff38       $unwind$?FrameUnwindToState@__FrameHandler4@@SAXPEA_KPEAU_xDISPATCHER_CONTEXT@@PEAUFuncInfo4@FH4@@H@Z 0000000180042f38     libvcruntime:frame.obj
 0002:0000ff80       $unwind$?CxxCallCatchBlock@__FrameHandler4@@SAPEAXPEAU_EXCEPTION_RECORD@@@Z 0000000180042f80     libvcruntime:frame.obj
 0002:0000ffdc       $unwind$?IsInExceptionSpec@@YAEPEAUEHExceptionRecord@@PEBU_s_ESTypeList@@@Z 0000000180042fdc     libvcruntime:frame.obj
 0002:0000fff8       $unwind$??$__InternalCxxFrameHandler@V__FrameHandler4@@@@YA?AW4_EXCEPTION_DISPOSITION@@PEAUEHExceptionRecord@@PEA_KPEAU_CONTEXT@@PEAU_xDISPATCHER_CONTEXT@@PEAUFuncInfo4@FH4@@H1E@Z 0000000180042ff8     libvcruntime:frame.obj
 0002:00010010       $unwind$??$BuildCatchObjectHelperInternal@V__FrameHandler4@@@@YAHPEAUEHExceptionRecord@@PEAXPEAUHandlerType4@FH4@@PEBU_s_CatchableType@@@Z 0000000180043010     libvcruntime:frame.obj
 0002:00010050       $unwind$??$BuildCatchObjectInternal@V__FrameHandler4@@@@YAXPEAUEHExceptionRecord@@PEAXPEAUHandlerType4@FH4@@PEBU_s_CatchableType@@@Z 0000000180043050     libvcruntime:frame.obj
 0002:0001007c       $unwind$??$FindHandler@V__FrameHandler4@@@@YAXPEAUEHExceptionRecord@@PEA_KPEAU_CONTEXT@@PEAU_xDISPATCHER_CONTEXT@@PEAUFuncInfo4@FH4@@EH1@Z 000000018004307c     libvcruntime:frame.obj
 0002:0001009c       $unwind$??$CatchIt@V__FrameHandler4@@@@YAXPEAUEHExceptionRecord@@PEA_KPEAU_CONTEXT@@PEAU_xDISPATCHER_CONTEXT@@PEAUFuncInfo4@FH4@@PEAUHandlerType4@4@PEBU_s_CatchableType@@PEAUTryBlockMapEntry4@4@H1EE@Z 000000018004309c     libvcruntime:frame.obj
 0002:000100b4       $unwind$??$FindHandlerForForeignException@V__FrameHandler4@@@@YAXPEAUEHExceptionRecord@@PEA_KPEAU_CONTEXT@@PEAU_xDISPATCHER_CONTEXT@@PEAUFuncInfo4@FH4@@HH1@Z 00000001800430b4     libvcruntime:frame.obj
 0002:000100d8       $xdatasym                  00000001800430d8     libvcruntime:notify.obj
 0002:000100e8       $xdatasym                  00000001800430e8     libvcruntime:handlers.obj
 0002:00010108       $unwind$??$common_vsprintf@Vstandard_base@__crt_stdio_output@@D@@YAH_KQEAD0QEBDQEAU__crt_locale_pointers@@1@Z 0000000180043108     libucrt:output.obj
 0002:00010108       $unwind$??$common_vsprintf@Vstandard_base@__crt_stdio_output@@_W@@YAH_KQEA_W0QEB_WQEAU__crt_locale_pointers@@QEAD@Z 0000000180043108     libucrt:output.obj
 0002:00010128       $unwind$?process@?$output_processor@DV?$string_output_adapter@D@__crt_stdio_output@@V?$standard_base@DV?$string_output_adapter@D@__crt_stdio_output@@@2@@__crt_stdio_output@@QEAAHXZ 0000000180043128     libucrt:output.obj
 0002:00010138       $unwind$?parse_int_from_format_string@?$output_processor@DV?$string_output_adapter@D@__crt_stdio_output@@V?$standard_base@DV?$string_output_adapter@D@__crt_stdio_output@@@2@@__crt_stdio_output@@AEAA_NQEAH@Z 0000000180043138     libucrt:output.obj
 0002:0001014c       $unwind$?state_case_type@?$output_processor@DV?$string_output_adapter@D@__crt_stdio_output@@V?$standard_base@DV?$string_output_adapter@D@__crt_stdio_output@@@2@@__crt_stdio_output@@AEAA_NXZ 000000018004314c     libucrt:output.obj
 0002:00010164       $unwind$?write_stored_string_tchar@?$output_processor@DV?$string_output_adapter@D@__crt_stdio_output@@V?$standard_base@DV?$string_output_adapter@D@__crt_stdio_output@@@2@@__crt_stdio_output@@AEAA_ND@Z 0000000180043164     libucrt:output.obj
 0002:0001017c       $unwind$?write_string@?$string_output_adapter@_W@__crt_stdio_output@@QEBAXQEB_WHQEAHAEAV__crt_deferred_errno_cache@@@Z 000000018004317c     libucrt:output.obj
 0002:00010194       $unwind$?parse_int_from_format_string@?$output_processor@_WV?$string_output_adapter@_W@__crt_stdio_output@@V?$standard_base@_WV?$string_output_adapter@_W@__crt_stdio_output@@@2@@__crt_stdio_output@@AEAA_NQEAH@Z 0000000180043194     libucrt:output.obj
 0002:000101a8       $unwind$?state_case_type@?$output_processor@_WV?$string_output_adapter@_W@__crt_stdio_output@@V?$standard_base@_WV?$string_output_adapter@_W@__crt_stdio_output@@@2@@__crt_stdio_output@@AEAA_NXZ 00000001800431a8     libucrt:output.obj
 0002:000101cc       $unwind$?type_case_c_tchar@?$output_processor@_WV?$string_output_adapter@_W@__crt_stdio_output@@V?$standard_base@_WV?$string_output_adapter@_W@__crt_stdio_output@@@2@@__crt_stdio_output@@AEAA_N_W@Z 00000001800431cc     libucrt:output.obj
 0002:000101dc       $unwind$?type_case_a@?$output_processor@_WV?$string_output_adapter@_W@__crt_stdio_output@@V?$standard_base@_WV?$string_output_adapter@_W@__crt_stdio_output@@@2@@__crt_stdio_output@@AEAA_NXZ 00000001800431dc     libucrt:output.obj
 0002:000101ec       $unwind$??$write_multiple_characters@V?$string_output_adapter@D@__crt_stdio_output@@D@__crt_stdio_output@@YAXAEBV?$string_output_adapter@D@0@DHQEAH@Z 00000001800431ec     libucrt:output.obj
 0002:000101ec       $unwind$??$write_multiple_characters@V?$string_output_adapter@_W@__crt_stdio_output@@D@__crt_stdio_output@@YAXAEBV?$string_output_adapter@_W@0@DHQEAH@Z 00000001800431ec     libucrt:output.obj
 0002:000101f8       $unwind$??$parse_integer@KV?$c_string_character_source@D@__crt_strtox@@@__crt_strtox@@YAKQEAU__crt_locale_pointers@@V?$c_string_character_source@D@0@H_N@Z 00000001800431f8     libucrt:strtox.obj
 0002:00010214       $unwind$??$parse_integer@KV?$c_string_character_source@_W@__crt_strtox@@@__crt_strtox@@YAKQEAU__crt_locale_pointers@@V?$c_string_character_source@_W@0@H_N@Z 0000000180043214     libucrt:strtox.obj
 0002:0001022c       $unwind$__acrt_call_reportfault 000000018004322c     libucrt:invalid_parameter.obj
 0002:0001024c       $unwind$?common_exit@@YAXHW4_crt_exit_cleanup_mode@@W4_crt_exit_return_mode@@@Z 000000018004324c     libucrt:exit.obj
 0002:00010258       $unwind$??R<lambda_6e4b09c48022b2350581041d5f6b0c4c>@@QEBA@XZ 0000000180043258     libucrt:exit.obj
 0002:00010278       $unwind$??$?RV<lambda_d80eeec6fff315bfe5c115232f3240e3>@@AEAV<lambda_6e4b09c48022b2350581041d5f6b0c4c>@@V<lambda_2358e3775559c9db80273638284d5e45>@@@?$__crt_seh_guarded_call@X@@QEAAX$$QEAV<lambda_d80eeec6fff315bfe5c115232f3240e3>@@AEAV<lambda_6e4b09c48022b2350581041d5f6b0c4c>@@$$QEAV<lambda_2358e3775559c9db80273638284d5e45>@@@Z 0000000180043278     libucrt:exit.obj
 0002:0001029c       $unwind$_configure_narrow_argv 000000018004329c     libucrt:argv_parsing.obj
 0002:000102b0       $unwind$_register_onexit_function 00000001800432b0     libucrt:onexit.obj
 0002:000102b8       $unwind$_execute_onexit_table 00000001800432b8     libucrt:onexit.obj
 0002:000102c0       $unwind$??R<lambda_22ebabd17bc4fa466a2aca6d8deb888d>@@QEBAHXZ 00000001800432c0     libucrt:onexit.obj
 0002:000102d8       $unwind$__acrt_fp_strflt_to_string 00000001800432d8     libucrt:_fptostr.obj
 0002:000102d8       $unwind$__acrt_DownlevelLocaleNameToLCID 00000001800432d8     libucrt:lcidtoname_downlevel.obj
 0002:000102d8       $unwind$??R<lambda_f03950bc5685219e0bcd2087efbe011e>@@QEBAHXZ 00000001800432d8     libucrt:onexit.obj
 0002:000102f0       $unwind$??$?RV<lambda_638799b9deba96c50f710eeac98168cd>@@AEAV<lambda_22ebabd17bc4fa466a2aca6d8deb888d>@@V<lambda_a6f7d7db0129f75315ebf26d50c089f1>@@@?$__crt_seh_guarded_call@H@@QEAAH$$QEAV<lambda_638799b9deba96c50f710eeac98168cd>@@AEAV<lambda_22ebabd17bc4fa466a2aca6d8deb888d>@@$$QEAV<lambda_a6f7d7db0129f75315ebf26d50c089f1>@@@Z 00000001800432f0     libucrt:onexit.obj
 0002:00010314       $unwind$??$?RV<lambda_7777bce6b2f8c936911f934f8298dc43>@@AEAV<lambda_f03950bc5685219e0bcd2087efbe011e>@@V<lambda_3883c3dff614d5e0c5f61bb1ac94921c>@@@?$__crt_seh_guarded_call@H@@QEAAH$$QEAV<lambda_7777bce6b2f8c936911f934f8298dc43>@@AEAV<lambda_f03950bc5685219e0bcd2087efbe011e>@@$$QEAV<lambda_3883c3dff614d5e0c5f61bb1ac94921c>@@@Z 0000000180043314     libucrt:onexit.obj
 0002:00010338       $unwind$terminate          0000000180043338     libucrt:terminate.obj
 0002:00010358       $xdatasym                  0000000180043358     libucrt:strncmp.obj
 0002:0001035c       $unwind$_free_base         000000018004335c     libucrt:free_base.obj
 0002:0001035c       $unwind$?destroy_fls@@YAXPEAX@Z 000000018004335c     libucrt:per_thread_data.obj
 0002:0001035c       $unwind$__acrt_locale_free_numeric 000000018004335c     libucrt:initnum.obj
 0002:0001035c       $unwind$__acrt_locale_free_lc_time_if_unreferenced 000000018004335c     libucrt:locale_refcounting.obj
 0002:00010364       $unwind$?fp_format_e@@YAHQEBNQEAD_K12H_NIQEAU__crt_locale_pointers@@W4__acrt_rounding_mode@@@Z 0000000180043364     libucrt:cvt.obj
 0002:00010364       $unwind$_mbtowc_l          0000000180043364     libucrt:mbtowc.obj
 0002:00010364       $unwind$__acrt_LCMapStringEx 0000000180043364     libucrt:winapi_thunks.obj
 0002:00010378       $unwind$_wctomb_s_l        0000000180043378     libucrt:wctomb.obj
 0002:00010388       $unwind$?construct_ptd_array@@YAXQEAU__acrt_ptd@@@Z 0000000180043388     libucrt:per_thread_data.obj
 0002:00010390       $unwind$?destroy_ptd_array@@YAXQEAU__acrt_ptd@@@Z 0000000180043390     libucrt:per_thread_data.obj
 0002:00010398       $unwind$??$?RV<lambda_0ae27a3a962d80f24befdcbee591983d>@@AEAV<lambda_8d0ee55de4b1038c4002e0adecdf1839>@@V<lambda_dc504788e8f1664fe9b84e20bfb512f2>@@@?$__crt_seh_guarded_call@X@@QEAAX$$QEAV<lambda_0ae27a3a962d80f24befdcbee591983d>@@AEAV<lambda_8d0ee55de4b1038c4002e0adecdf1839>@@$$QEAV<lambda_dc504788e8f1664fe9b84e20bfb512f2>@@@Z 0000000180043398     libucrt:per_thread_data.obj
 0002:000103bc       $unwind$??$?RV<lambda_aa87e3671a710a21b5dc78c0bdf72e11>@@AEAV<lambda_92619d2358a28f41a33ba319515a20b9>@@V<lambda_6992ecaafeb10aed2b74cb1fae11a551>@@@?$__crt_seh_guarded_call@X@@QEAAX$$QEAV<lambda_aa87e3671a710a21b5dc78c0bdf72e11>@@AEAV<lambda_92619d2358a28f41a33ba319515a20b9>@@$$QEAV<lambda_6992ecaafeb10aed2b74cb1fae11a551>@@@Z 00000001800433bc     libucrt:per_thread_data.obj
 0002:000103e0       $unwind$??$?RV<lambda_f2e299630e499de9f9a165e60fcd3db5>@@AEAV<lambda_2ae9d31cdba2644fcbeaf08da7c24588>@@V<lambda_40d01ff24d0e7b3814fdbdcee8eab3c7>@@@?$__crt_seh_guarded_call@X@@QEAAX$$QEAV<lambda_f2e299630e499de9f9a165e60fcd3db5>@@AEAV<lambda_2ae9d31cdba2644fcbeaf08da7c24588>@@$$QEAV<lambda_40d01ff24d0e7b3814fdbdcee8eab3c7>@@@Z 00000001800433e0     libucrt:per_thread_data.obj
 0002:00010404       $unwind$??$?RV<lambda_2d41944a1d46af3157314b8a01080d33>@@AEAV<lambda_8f455de75cd7d7f24b4096f044d8b9e6>@@V<lambda_aa500f224e6afead328df44964fe2772>@@@?$__crt_seh_guarded_call@X@@QEAAX$$QEAV<lambda_2d41944a1d46af3157314b8a01080d33>@@AEAV<lambda_8f455de75cd7d7f24b4096f044d8b9e6>@@$$QEAV<lambda_aa500f224e6afead328df44964fe2772>@@@Z 0000000180043404     libucrt:per_thread_data.obj
 0002:00010428       $unwind$__acrt_fp_format   0000000180043428     libucrt:cvt.obj
 0002:00010440       $unwind$?fp_format_e_internal@@YAHQEAD_KH_NIQEAU_strflt@@2QEAU__crt_locale_pointers@@@Z 0000000180043440     libucrt:cvt.obj
 0002:00010458       $unwind$?fp_format_a@@YAHQEBNPEAD_KQEAD2H_NIQEAU__crt_locale_pointers@@W4__acrt_rounding_mode@@@Z 0000000180043458     libucrt:cvt.obj
 0002:00010474       $unwind$__dcrt_get_narrow_environment_from_os 0000000180043474     libucrt:get_environment_from_os.obj
 0002:00010474       $unwind$?fp_format_f_internal@@YAHQEAD_KHQEAU_strflt@@_NQEAU__crt_locale_pointers@@@Z 0000000180043474     libucrt:cvt.obj
 0002:00010474       $unwind$??$__acrt_wcs_to_mbs_cp@U__crt_win32_buffer_internal_dynamic_resizing@@@@YAHQEB_WAEAV?$__crt_win32_buffer@DU__crt_win32_buffer_internal_dynamic_resizing@@@@I@Z 0000000180043474     libucrt:argv_wildcards.obj
 0002:0001048c       $unwind$?fp_format_g@@YAHQEBNQEAD_K12H_NIW4__acrt_rounding_mode@@QEAU__crt_locale_pointers@@@Z 000000018004348c     libucrt:cvt.obj
 0002:000104a0       $unwind$__acrt_uninitialize_locale 00000001800434a0     libucrt:wsetlocale.obj
 0002:000104a0       $unwind$__acrt_get_sigabrt_handler 00000001800434a0     libucrt:signal.obj
 0002:000104a8       $unwind$??$?RV<lambda_410d79af7f07d98d83a3f525b3859a53>@@AEAV<lambda_3e16ef9562a7dcce91392c22ab16ea36>@@V<lambda_38119f0e861e05405d8a144b9b982f0a>@@@?$__crt_seh_guarded_call@X@@QEAAX$$QEAV<lambda_410d79af7f07d98d83a3f525b3859a53>@@AEAV<lambda_3e16ef9562a7dcce91392c22ab16ea36>@@$$QEAV<lambda_38119f0e861e05405d8a144b9b982f0a>@@@Z 00000001800434a8     libucrt:wsetlocale.obj
 0002:000104d0       $unwind$__acrt_initialize_lowio 00000001800434d0     libucrt:ioinit.obj
 0002:000104f0       $unwind$?initialize_inherited_file_handles_nolock@@YAXXZ 00000001800434f0     libucrt:ioinit.obj
 0002:0001050c       $unwind$_isctype_l         000000018004350c     libucrt:isctype.obj
 0002:00010528       $unwind$??$common_expand_argv_wildcards@D@@YAHQEAPEADQEAPEAPEAD@Z 0000000180043528     libucrt:argv_wildcards.obj
 0002:00010540       $unwind$??$copy_and_add_argument_to_buffer@D@@YAHQEBD0_KAEAV?$argument_list@D@?A0x5f5c8891@@@Z 0000000180043540     libucrt:argv_wildcards.obj
 0002:0001055c       $unwind$??$expand_argument_wildcards@D@@YAHQEAD0AEAV?$argument_list@D@?A0x5f5c8891@@@Z 000000018004355c     libucrt:argv_wildcards.obj
 0002:00010580       $unwind$__acrt_GetModuleFileNameA 0000000180043580     libucrt:getmodulefilenamea.obj
 0002:0001059c       $unwind$__dcrt_write_console 000000018004359c     libucrt:initcon.obj
 0002:0001059c       $unwind$??$__acrt_wcs_to_mbs_cp@U__crt_win32_buffer_no_resizing@@@@YAHQEB_WAEAV?$__crt_win32_buffer@DU__crt_win32_buffer_no_resizing@@@@I@Z 000000018004359c     libucrt:getmodulefilenamea.obj
 0002:000105b0       $unwind$_setmbcp_nolock    00000001800435b0     libucrt:mbctype.obj
 0002:000105d0       $unwind$?update_thread_multibyte_data_internal@@YAPEAU__crt_multibyte_data@@QEAU__acrt_ptd@@QEAPEAU1@@Z 00000001800435d0     libucrt:mbctype.obj
 0002:000105f8       $unwind$?setmbcp_internal@@YAHH_NQEAU__acrt_ptd@@QEAPEAU__crt_multibyte_data@@@Z 00000001800435f8     libucrt:mbctype.obj
 0002:00010608       $unwind$?setSBUpLow@@YAXPEAU__crt_multibyte_data@@@Z 0000000180043608     libucrt:mbctype.obj
 0002:00010624       $unwind$??$?RV<lambda_efdfa57d1f175319df784efa44bb7b81>@@AEAV<lambda_5f0a4c1567f8adc6734073e5d1e1b35c>@@V<lambda_2e8a7d3640ea6ccb4c2413664c2db6fd>@@@?$__crt_seh_guarded_call@X@@QEAAX$$QEAV<lambda_efdfa57d1f175319df784efa44bb7b81>@@AEAV<lambda_5f0a4c1567f8adc6734073e5d1e1b35c>@@$$QEAV<lambda_2e8a7d3640ea6ccb4c2413664c2db6fd>@@@Z 0000000180043624     libucrt:mbctype.obj
 0002:00010648       $unwind$__acrt_WideCharToMultiByte 0000000180043648     libucrt:widechartomultibyte.obj
 0002:00010654       $unwind$__acrt_initialize_winapi_thunks 0000000180043654     libucrt:winapi_thunks.obj
 0002:0001065c       $unwind$_query_new_handler 000000018004365c     libucrt:new_handler.obj
 0002:0001067c       $unwind$raise              000000018004367c     libucrt:signal.obj
 0002:000106b8       $unwind$??$?RV<lambda_450d765d439847d4c735a33c368b5fc0>@@AEAV<lambda_44731a7d0e6d81c3e6aa82d741081786>@@V<lambda_601a2a7da3b7a96e9554ac7215c4b07c>@@@?$__crt_seh_guarded_call@P6AXH@Z@@QEAAP6AXH@Z$$QEAV<lambda_450d765d439847d4c735a33c368b5fc0>@@AEAV<lambda_44731a7d0e6d81c3e6aa82d741081786>@@$$QEAV<lambda_601a2a7da3b7a96e9554ac7215c4b07c>@@@Z 00000001800436b8     libucrt:signal.obj
 0002:000106dc       $unwind$?common_flush_all@@YAH_N@Z 00000001800436dc     libucrt:fflush.obj
 0002:000106e4       $unwind$??$?RV<lambda_842d9ff0dc9ef11c61343bbaebe7f885>@@AEAV<lambda_c5860995281e5c4ce005b3de8f5874ee>@@V<lambda_d90129c13df834fdcbf8d2b88dafcf2d>@@@?$__crt_seh_guarded_call@X@@QEAAX$$QEAV<lambda_842d9ff0dc9ef11c61343bbaebe7f885>@@AEAV<lambda_c5860995281e5c4ce005b3de8f5874ee>@@$$QEAV<lambda_d90129c13df834fdcbf8d2b88dafcf2d>@@@Z 00000001800436e4     libucrt:fflush.obj
 0002:00010708       $unwind$??$?RV<lambda_886d6c58226a84441f68b9f2b8217b83>@@AEAV<lambda_ab61a845afdef5b7c387490eaf3616ee>@@V<lambda_f7f22ab5edc0698d5f6905b0d3f44752>@@@?$__crt_seh_guarded_call@X@@QEAAX$$QEAV<lambda_886d6c58226a84441f68b9f2b8217b83>@@AEAV<lambda_ab61a845afdef5b7c387490eaf3616ee>@@$$QEAV<lambda_f7f22ab5edc0698d5f6905b0d3f44752>@@@Z 0000000180043708     libucrt:fflush.obj
 0002:00010730       $unwind$?__mbsrtowcs_utf8@__crt_mbstring@@YA_KPEA_WPEAPEBD_KPEAU_Mbstatet@@@Z 0000000180043730     libucrt:mbrtowc.obj
 0002:00010748       $unwind$__acrt_update_thread_locale_data 0000000180043748     libucrt:locale_refcounting.obj
 0002:0001076c       $unwind$__acrt_fltout      000000018004376c     libucrt:cfout.obj
 0002:0001078c       $unwind$?divide@__crt_strtox@@YA_KAEAUbig_integer@1@AEBU21@@Z 000000018004378c     libucrt:cfout.obj
 0002:000107a4       $chain$0$?divide@__crt_strtox@@YA_KAEAUbig_integer@1@AEBU21@@Z 00000001800437a4     libucrt:cfout.obj
 0002:000107b8       $chain$1$?divide@__crt_strtox@@YA_KAEAUbig_integer@1@AEBU21@@Z 00000001800437b8     libucrt:cfout.obj
 0002:000107c8       $unwind$_fcloseall         00000001800437c8     libucrt:closeall.obj
 0002:000107ec       $unwind$__acrt_locale_free_monetary 00000001800437ec     libucrt:initmon.obj
 0002:000107f4       $unwind$__acrt_locale_free_time 00000001800437f4     libucrt:inittime.obj
 0002:00010804       $unwind$__acrt_GetStringTypeA 0000000180043804     libucrt:getstringtypea.obj
 0002:0001082c       $unwind$__acrt_lowio_destroy_handle_array 000000018004382c     libucrt:osfinfo.obj
 0002:0001083c       $unwind$__acrt_lowio_ensure_fh_exists 000000018004383c     libucrt:osfinfo.obj
 0002:00010868       $unwind$qsort              0000000180043868     libucrt:qsort.obj
 0002:00010880       $chain$4$qsort             0000000180043880     libucrt:qsort.obj
 0002:000108a4       $chain$5$qsort             00000001800438a4     libucrt:qsort.obj
 0002:000108b4       $unwind$strpbrk            00000001800438b4     libucrt:strpbrk.obj
 0002:000108c4       $unwind$_mbsdec_l          00000001800438c4     libucrt:mbsdec.obj
 0002:000108d0       $unwind$__acrt_LCMapStringA 00000001800438d0     libucrt:lcmapstringa.obj
 0002:000108e0       $unwind$?__acrt_LCMapStringA_stat@@YAHPEAU__crt_locale_pointers@@PEB_WKPEBDHPEADHHH@Z 00000001800438e0     libucrt:lcmapstringa.obj
 0002:00010908       $unwind$_close             0000000180043908     libucrt:close.obj
 0002:00010908       $unwind$_commit            0000000180043908     libucrt:commit.obj
 0002:00010910       $unwind$??$?RV<lambda_a37b2b86f63e897a80ea819b0eb08c01>@@AEAV<lambda_38ce7e780aa69e748d6df282ebc68efe>@@V<lambda_99fb1378e971ab6e7edea83e3a7a83a2>@@@?$__crt_seh_guarded_call@H@@QEAAH$$QEAV<lambda_a37b2b86f63e897a80ea819b0eb08c01>@@AEAV<lambda_38ce7e780aa69e748d6df282ebc68efe>@@$$QEAV<lambda_99fb1378e971ab6e7edea83e3a7a83a2>@@@Z 0000000180043910     libucrt:commit.obj
 0002:00010934       $unwind$_write             0000000180043934     libucrt:write.obj
 0002:00010964       $unwind$_write_nolock      0000000180043964     libucrt:write.obj
 0002:0001097c       $unwind$?write_double_translated_ansi_nolock@@YA?AUwrite_result@?A0x17268360@@HQEBDI@Z 000000018004397c     libucrt:write.obj
 0002:000109a0       $unwind$?write_text_ansi_nolock@@YA?AUwrite_result@?A0x17268360@@HQEBDI@Z 00000001800439a0     libucrt:write.obj
 0002:000109a0       $unwind$?write_text_utf16le_nolock@@YA?AUwrite_result@?A0x17268360@@HQEBDI@Z 00000001800439a0     libucrt:write.obj
 0002:000109c0       $unwind$?write_text_utf8_nolock@@YA?AUwrite_result@?A0x17268360@@HQEBDI@Z 00000001800439c0     libucrt:write.obj
 0002:000109e4       $unwind$?__mbrtoc32_utf8@__crt_mbstring@@YA_KPEA_UPEBD_KPEAU_Mbstatet@@@Z 00000001800439e4     libucrt:mbrtoc32.obj
 0002:00010a00       $xdatasym                  0000000180043a00     libucrt:log10.obj
 0002:00010a0c       $unwind$__acrt_fenv_set_control 0000000180043a0c     libucrt:_fenvutils.obj
 0002:00010a1c       $unwind$fclose             0000000180043a1c     libucrt:fclose.obj
 0002:00010a40       $unwind$common_control87   0000000180043a40     libucrt:ieee.obj
 0002:00010a6c       $unwind$_handle_error      0000000180043a6c     libucrt:libm_error.obj
 0002:00010a8c       $unwind$__acrt_initialize_fma3 0000000180043a8c     libucrt:fma3_available.obj
 0002:00010a94       $unwind$_log_special_common 0000000180043a94     libucrt:log_special.obj
 0002:00010aa0       $unwind$??$?RV<lambda_751a882b2c74d4b022dec766aa51a29a>@@AEAV<lambda_628dfdc04ba53c8bfc02c9951375f3f5>@@V<lambda_f6c7be5f7998530c34de24c7437d6b54>@@@?$__crt_seh_guarded_call@H@@QEAAH$$QEAV<lambda_751a882b2c74d4b022dec766aa51a29a>@@AEAV<lambda_628dfdc04ba53c8bfc02c9951375f3f5>@@$$QEAV<lambda_f6c7be5f7998530c34de24c7437d6b54>@@@Z 0000000180043aa0     libucrt:close.obj
 0002:00010ac8       $xdatasym                  0000000180043ac8     libucrt:fpsr.obj
 0002:00010ad0       $unwind$_raise_exc_ex      0000000180043ad0     libucrt:fpexcept.obj
 0002:00010ae4       $unwind$_ctrlfp            0000000180043ae4     libucrt:fpctrl.obj
 0002:00010b0c       $unwind$?apiGetConsoleFontSize@@YAHPEAXAEAH1AEAY0CA@_W@Z 0000000180043b0c     common-kernel64:WConsole.obj
 0002:00010b28       $unwind$?apiSetConsoleFontSize@@YAHPEAXHHPEB_W@Z 0000000180043b28     common-kernel64:WConsole.obj
 0002:00010b44       $unwind$_IsNonwritableInCurrentImage 0000000180043b44     LIBCMT:pesect.obj
 0002:00010dd0       .edata                     0000000180043dd0     ConEmu.x64.exp
 0002:00010df8       rgpv                       0000000180043df8     ConEmu.x64.exp
 0002:00010e64       rgszName                   0000000180043e64     ConEmu.x64.exp
 0002:00010ed0       rgwOrd                     0000000180043ed0     ConEmu.x64.exp
 0002:00010f06       szName                     0000000180043f06     ConEmu.x64.exp
 0002:00010f15       $N00001                    0000000180043f15     ConEmu.x64.exp
 0002:00010f25       $N00002                    0000000180043f25     ConEmu.x64.exp
 0002:00010f2d       $N00003                    0000000180043f2d     ConEmu.x64.exp
 0002:00010f39       $N00004                    0000000180043f39     ConEmu.x64.exp
 0002:00010f44       $N00005                    0000000180043f44     ConEmu.x64.exp
 0002:00010f52       $N00006                    0000000180043f52     ConEmu.x64.exp
 0002:00010f63       $N00007                    0000000180043f63     ConEmu.x64.exp
 0002:00010f71       $N00008                    0000000180043f71     ConEmu.x64.exp
 0002:00010f80       $N00009                    0000000180043f80     ConEmu.x64.exp
 0002:00010f90       $N00010                    0000000180043f90     ConEmu.x64.exp
 0002:00010f9b       $N00011                    0000000180043f9b     ConEmu.x64.exp
 0002:00010fa1       $N00012                    0000000180043fa1     ConEmu.x64.exp
 0002:00010fb4       $N00013                    0000000180043fb4     ConEmu.x64.exp
 0002:00010fc7       $N00014                    0000000180043fc7     ConEmu.x64.exp
 0002:00010fda       $N00015                    0000000180043fda     ConEmu.x64.exp
 0002:00010fed       $N00016                    0000000180043fed     ConEmu.x64.exp
 0002:00010fff       $N00017                    0000000180043fff     ConEmu.x64.exp
 0002:0001100e       $N00018                    000000018004400e     ConEmu.x64.exp
 0002:0001101a       $N00019                    000000018004401a     ConEmu.x64.exp
 0002:00011023       $N00020                    0000000180044023     ConEmu.x64.exp
 0002:00011032       $N00021                    0000000180044032     ConEmu.x64.exp
 0002:00011044       $N00022                    0000000180044044     ConEmu.x64.exp
 0002:00011050       $N00023                    0000000180044050     ConEmu.x64.exp
 0002:00011064       $N00024                    0000000180044064     ConEmu.x64.exp
 0002:00011078       $N00025                    0000000180044078     ConEmu.x64.exp
 0002:0001108d       $N00026                    000000018004408d     ConEmu.x64.exp
 0002:000110a1       $N00027                    00000001800440a1     ConEmu.x64.exp
 0002:000117d2       .idata$6                   00000001800447d2     version:VERSION.dll
 0002:00011d0c       .idata$6                   0000000180044d0c     kernel32:KERNEL32.dll
 0002:00011e1a       .idata$6                   0000000180044e1a     user32:USER32.dll
 0002:00011eba       .idata$6                   0000000180044eba     gdi32:GDI32.dll
 0002:00011ef6       .idata$6                   0000000180044ef6     advapi32:ADVAPI32.dll
 0003:00000140       ?val@?CE@??Open@CPluginW2800@@UEAAPEAXPEBX@Z@4UFarMacroValue@@A 0000000180046140     ConEmuPlugin2800.obj
 0003:000002a0       ?__vcrt_flsindex@@3KA      00000001800462a0     libvcruntime:per_thread_data.obj
 0003:000002b0       ?errno_no_memory@@3HA      00000001800462b0     libucrt:errno.obj
 0003:000002b4       ?doserrno_no_memory@@3KA   00000001800462b4     libucrt:errno.obj
 0003:000002c0       ?__acrt_flsindex@@3KA      00000001800462c0     libucrt:per_thread_data.obj
 0003:00000790       _mbctypes                  0000000180046790     libucrt:mbctype.obj
 0003:000008a0       _mbcasemaps                00000001800468a0     libucrt:mbctype.obj
 0003:000009a0       ?__rgctypeflag@@3PADA      00000001800469a0     libucrt:mbctype.obj
 0003:000009b0       ?__rgcode_page_info@@3PAUcode_page_info@@A 00000001800469b0     libucrt:mbctype.obj
 0003:00000c50       ?dazSupported@?1??common_control87@@9@9 0000000180046c50     libucrt:ieee.obj
 0003:00000c60       ?__dcrt_lowio_console_output_handle@@3PEAXEA 0000000180046c60     libucrt:initcon.obj
 0003:00000c70       ?dazSupported@?1??_ctrlfp@@9@9 0000000180046c70     libucrt:fpctrl.obj
 0003:00001170       ?store@?M@??GetPanelInfo@CPluginW1900@@UEAA_NKPEAUCEPanelInfo@@@Z@4UPanelInfo@@A 0000000180047170     ConEmuPlugin1900.obj
 0003:000011e0       ?szMenu@?1??GetPluginInfoPtr@CPluginW1900@@UEAAXPEAX@Z@4PAPEA_WA 00000001800471e0     ConEmuPlugin1900.obj
 0003:000011f0       ?szMenu1@?1??GetPluginInfoPtr@CPluginW1900@@UEAAXPEAX@Z@4PA_WA 00000001800471f0     ConEmuPlugin1900.obj
 0003:000013f0       ?WLastActive@?1??UpdateConEmuTabsApi@CPluginW1900@@UEAA_NH@Z@4UWindowInfo@@A 00000001800473f0     ConEmuPlugin1900.obj
 0003:00001438       ?pwList@@3PEAV?$MArray@UWindowInfo@@@@EA 0000000180047438     ConEmuPlugin2800.obj
 0003:00001440       ?store@?M@??GetPanelInfo@CPluginW2800@@UEAA_NKPEAUCEPanelInfo@@@Z@4UPanelInfo@@A 0000000180047440     ConEmuPlugin2800.obj
 0003:000014a8       ?szMenu@?1??GetPluginInfoPtr@CPluginW2800@@UEAAXPEAX@Z@4PAPEA_WA 00000001800474a8     ConEmuPlugin2800.obj
 0003:000014b0       ?szMenu1@?1??GetPluginInfoPtr@CPluginW2800@@UEAAXPEAX@Z@4PA_WA 00000001800474b0     ConEmuPlugin2800.obj
 0003:000016b0       ?WLastActive@?1??UpdateConEmuTabsApi@CPluginW2800@@UEAA_NH@Z@4UWindowInfo@@A 00000001800476b0     ConEmuPlugin2800.obj
 0003:000016f8       ?rc@?CE@??Open@CPluginW2800@@UEAAPEAXPEBX@Z@4UFarMacroCall@@A 00000001800476f8     ConEmuPlugin2800.obj
 0003:00001730       ?ghSyncDlg@@3PEAXEA        0000000180047730     ConEmuPlugin995.obj
 0003:00001740       ?store@?M@??GetPanelInfo@CPluginW995@@UEAA_NKPEAUCEPanelInfo@@@Z@4UPanelInfo@@A 0000000180047740     ConEmuPlugin995.obj
 0003:00001788       ?szMenu@?1??GetPluginInfoPtr@CPluginW995@@UEAAXPEAX@Z@4PAPEA_WA 0000000180047788     ConEmuPlugin995.obj
 0003:00001790       ?szMenu1@?1??GetPluginInfoPtr@CPluginW995@@UEAAXPEAX@Z@4PA_WA 0000000180047790     ConEmuPlugin995.obj
 0003:000019a0       ?store@?M@??GetPanelInfo@CPluginAnsi@@UEAA_NKPEAUCEPanelInfo@@@Z@4UPanelInfo@@A 00000001800479a0     ConEmuPluginA.obj
 0003:00001ba0       ?szMenu@?1??GetPluginInfoPtr@CPluginAnsi@@UEAAXPEAX@Z@4PAPEADA 0000000180047ba0     ConEmuPluginA.obj
 0003:00001bb0       ?szMenu1@?1??GetPluginInfoPtr@CPluginAnsi@@UEAAXPEAX@Z@4PADA 0000000180047bb0     ConEmuPluginA.obj
 0003:00002f2c       ?gbTryOpenMapHeader@@3HA   0000000180048f2c     ConEmuPluginBase.obj
 0003:00002f30       ?gbStartupHooksAfterMap@@3HA 0000000180048f30     ConEmuPluginBase.obj
 0003:00002f34       ?siEnabled@?1??CheckBufferEnabled@CPluginBase@@QEAA_NXZ@4HA 0000000180048f34     ConEmuPluginBase.obj
 0003:00002f38       ?dwLastTickCount@?7??CheckResources@CPluginBase@@QEAAX_N@Z@4KA 0000000180048f38     ConEmuPluginBase.obj
 0003:00002f3c       ?$TSS0@?7??CheckResources@CPluginBase@@QEAAX_N@Z@4HA 0000000180048f3c     ConEmuPluginBase.obj
 0003:00002f40       ?dwLastTickCount@?9??OnConsolePeekReadInput@CPluginBase@@SAX_N@Z@4KA 0000000180048f40     ConEmuPluginBase.obj
 0003:000031a8       ?gHeapInit@?A0x8f3601b8@@3U?$atomic@H@std@@A 00000001800491a8     common-kernel64:Memory.obj
 0003:000031ac       ?gHeapCounter@?A0x8f3601b8@@3U?$atomic@H@std@@A 00000001800491ac     common-kernel64:Memory.obj
 0003:000031b0       ?ghHeap@?A0x8f3601b8@@3PEAXEA 00000001800491b0     common-kernel64:Memory.obj
 0003:000031d0       ?szFile@?1??ModuleName@@YAPEB_WPEB_W@Z@4PA_WA 00000001800491d0     common-kernel64:ConEmuCheck.obj
 0003:00003220       ?g_Threads@@3PAUConEmuThreadInfo@@A 0000000180049220     common-kernel64:WThreads.obj
 0003:0000ba20       ?gh_UnknownTerminatedThread@@3PEAXEA 0000000180051a20     common-kernel64:WThreads.obj
 0003:0000ba2c       ?szNil@?1??GetCommand@CESERVER_REQ_NEWCMD@@QEAAPEA_WXZ@4PA_WA 0000000180051a2c     common-kernel64:Common.obj
 0003:0000ba40       ?rtlVerifyVersionInfo@?1??_VerifyVersionInfo@@YA_NPEAU_OSVERSIONINFOEXW@@K_K@Z@4P6AH0K1@ZEA 0000000180051a40     common-kernel64:WObjects.obj
 0003:0000ba48       ?hasRtl@?1??_VerifyVersionInfo@@YA_NPEAU_OSVERSIONINFOEXW@@K_K@Z@4HA 0000000180051a48     common-kernel64:WObjects.obj
 0003:0000ba4c       ?ibIsWin6@?1??IsWin6@@YA_NXZ@4HA 0000000180051a4c     common-kernel64:WObjects.obj
 0003:0000ba50       ?ibIsWin7@?1??IsWin7@@YA_NXZ@4HA 0000000180051a50     common-kernel64:WObjects.obj
 0003:0000ba54       ?is64bitOs@?1??IsWindows64@@YA_NXZ@4_NA 0000000180051a54     common-kernel64:WObjects.obj
 0003:0000ba55       ?isOsChecked@?1??IsWindows64@@YA_NXZ@4_NA 0000000180051a55     common-kernel64:WObjects.obj
 0003:0000ba5c       ?terminalMode@?1??isTerminalMode@@YA_NXZ@4_NA 0000000180051a5c     common-kernel64:MProcess.obj
 0003:0000ba5d       ?terminalChecked@?1??isTerminalMode@@YA_NXZ@4_NA 0000000180051a5d     common-kernel64:MProcess.obj
 0003:0000ba5e       ?bSysInfoRetrieved@?1??IsModuleValid@@YA_NPEAUHINSTANCE__@@H@Z@4_NA 0000000180051a5e     common-kernel64:WModuleCheck.obj
 0003:0000ba60       ?si@?1??IsModuleValid@@YA_NPEAUHINSTANCE__@@H@Z@4U_SYSTEM_INFO@@A 0000000180051a60     common-kernel64:WModuleCheck.obj
 0003:0000baa8       ?g_tss_cv@@3U_RTL_CONDITION_VARIABLE@@A 0000000180051aa8     LIBCMT:thread_safe_statics.obj
 0003:0000bab0       ?g_tss_event@@3PEAXEA      0000000180051ab0     LIBCMT:thread_safe_statics.obj
 0003:0000bab8       ?g_tss_mutex@@3U_RTL_CRITICAL_SECTION@@A 0000000180051ab8     LIBCMT:thread_safe_statics.obj
 0003:0000bae0       ?g_sleep_condition_variable_cs@@3P6AHPEAU_RTL_CONDITION_VARIABLE@@PEAU_RTL_CRITICAL_SECTION@@K@ZEA 0000000180051ae0     LIBCMT:thread_safe_statics.obj
 0003:0000bae8       ?g_wake_all_condition_variable@@3P6AXPEAU_RTL_CONDITION_VARIABLE@@@ZEA 0000000180051ae8     LIBCMT:thread_safe_statics.obj
 0003:0000baf0       ?__proc_attached@@3HA      0000000180051af0     LIBCMT:dll_dllmain.obj
 0003:0000bb08       ?is_initialized_as_dll@@3_NA 0000000180051b08     LIBCMT:utility.obj
 0003:0000bb09       ?module_local_atexit_table_initialized@@3_NA 0000000180051b09     LIBCMT:utility.obj
 0003:0000bb10       ?module_local_atexit_table@@3U_onexit_table_t@@A 0000000180051b10     LIBCMT:utility.obj
 0003:0000bb28       ?module_local_at_quick_exit_table@@3U_onexit_table_t@@A 0000000180051b28     LIBCMT:utility.obj
 0003:0000bb40       GS_ExceptionRecord         0000000180051b40     LIBCMT:gs_report.obj
 0003:0000bbe0       GS_ContextRecord           0000000180051be0     LIBCMT:gs_report.obj
 0003:0000c0f0       ?__vcrt_startup_thread_ptd@@3U__vcrt_ptd@@A 00000001800520f0     libvcruntime:per_thread_data.obj
 0003:0000c178       __vcrt_lock_table          0000000180052178     libvcruntime:locks.obj
 0003:0000c1a0       __vcrt_locks_initialized   00000001800521a0     libvcruntime:locks.obj
 0003:0000c1e8       ?heap@@3V_HeapManager@@A   00000001800521e8     libvcruntime:undname.obj
 0003:0000c210       ?module_handles@@3PAPEAUHINSTANCE__@@A 0000000180052210     libvcruntime:winapi_downlevel.obj
 0003:0000c228       ?function_pointers@@3PAPEAXA 0000000180052228     libvcruntime:winapi_downlevel.obj
 0003:0000c250       ?__acrt_invalid_parameter_handler@@3V?$dual_state_global@P6AXPEB_W00I_K@Z@__crt_state_management@@A 0000000180052250     libucrt:invalid_parameter.obj
 0003:0000c258       ?c_termination_complete@@3JA 0000000180052258     libucrt:exit.obj
 0003:0000c260       ?thread_local_exit_callback_func@@3P6AXPEAXK0@ZEA 0000000180052260     libucrt:exit.obj
 0003:0000c270       ?program_name@?1???$common_configure_argv@D@@YAHW4_crt_argv_mode@@@Z@4PADA 0000000180052270     libucrt:argv_parsing.obj
 0003:0000c3c8       ?internal_state@?1??_mbtowc_l@@9@4U_Mbstatet@@A 00000001800523c8     libucrt:mbtowc.obj
 0003:0000c3e0       ?enable_percent_n@@3_KA    00000001800523e0     libucrt:printf_count_output.obj
 0003:0000c820       ?__acrt_lock_table@@3PAU_RTL_CRITICAL_SECTION@@A 0000000180052820     libucrt:locks.obj
 0003:0000ca50       ?__acrt_locks_initialized@@3IA 0000000180052a50     libucrt:locks.obj
 0003:0000ca70       ?fSystemSet@@3HA           0000000180052a70     libucrt:mbctype.obj
 0003:0000ca74       ?initialized@?1??__acrt_initialize_multibyte@@9@4_NA 0000000180052a74     libucrt:mbctype.obj
 0003:0000cab0       ?module_handles@@3PAPEAUHINSTANCE__@@A 0000000180052ab0     libucrt:winapi_thunks.obj
 0003:0000cb50       ?encoded_function_pointers@@3PAPEAXA 0000000180052b50     libucrt:winapi_thunks.obj
 0003:0000cc68       ?__acrt_new_handler@@3V?$dual_state_global@P6AH_K@Z@__crt_state_management@@A 0000000180052c68     libucrt:new_handler.obj
 0003:0000cc70       ?ctrlc_action@@3V?$dual_state_global@P6AXH@Z@__crt_state_management@@A 0000000180052c70     libucrt:signal.obj
 0003:0000cc78       ?ctrlbreak_action@@3V?$dual_state_global@P6AXH@Z@__crt_state_management@@A 0000000180052c78     libucrt:signal.obj
 0003:0000cc80       ?abort_action@@3V?$dual_state_global@P6AXH@Z@__crt_state_management@@A 0000000180052c80     libucrt:signal.obj
 0003:0000cc88       ?term_action@@3V?$dual_state_global@P6AXH@Z@__crt_state_management@@A 0000000180052c88     libucrt:signal.obj
 0003:0000cc90       ?user_matherr@@3V?$dual_state_global@P6AHPEAU_exception@@@Z@__crt_state_management@@A 0000000180052c90     libucrt:matherr.obj
 0003:0000cc98       ?__acrt_global_new_mode@@3V?$dual_state_global@J@__crt_state_management@@A 0000000180052c98     libucrt:new_mode.obj
 0003:0000cca8       ?internal_pst@?1??__mbrtoc32_utf8@__crt_mbstring@@YA_KPEA_UPEBD_KPEAU_Mbstatet@@@Z@4U3@A 0000000180052ca8     libucrt:mbrtoc32.obj
 0003:0000ccb0       ?__acrt_app_type@@3W4_crt_app_type@@A 0000000180052cb0     libucrt:report_runtime_error.obj
 0003:0000cd14       ?gbPauseConsoleWasRequested@@3_NA 0000000180052d14     common-kernel64:WConsole.obj
 0003:0000cd18       ?GetCurrentConsoleFontEx@?1??apiGetCurrentConsoleFontEx@@YAHPEAXHPEAUMY_CONSOLE_FONT_INFOEX@@@Z@4P6AH0H1@ZEA 0000000180052d18     common-kernel64:WConsole.obj
 0003:0000cd20       ?bFuncChecked@?1??apiGetCurrentConsoleFontEx@@YAHPEAXHPEAUMY_CONSOLE_FONT_INFOEX@@@Z@4_NA 0000000180052d20     common-kernel64:WConsole.obj
 0003:0000cd28       ?SetCurrentConsoleFontEx@?1??apiSetCurrentConsoleFontEx@@YAHPEAXHPEAUMY_CONSOLE_FONT_INFOEX@@@Z@4P6AH0H1@ZEA 0000000180052d28     common-kernel64:WConsole.obj
 0003:0000cd30       ?bFuncChecked@?1??apiSetCurrentConsoleFontEx@@YAHPEAXHPEAUMY_CONSOLE_FONT_INFOEX@@@Z@4_NA 0000000180052d30     common-kernel64:WConsole.obj
 0005:00000000       MoveSmall                  0000000180056000     libvcruntime:memcpy.obj
 0005:00000040       MoveSmallYmm               0000000180056040     libvcruntime:memcpy.obj
 0005:00000064       MoveSmallYmmNT             0000000180056064     libvcruntime:memcpy.obj
 0005:00000088       MoveSmallXmm               0000000180056088     libvcruntime:memcpy.obj
 0005:000000b0       MsetTab                    00000001800560b0     libvcruntime:memset.obj
 0006:000000a0       $R000000                   00000001800570a0     ConEmu.res
 0006:000003b0       $R000310                   00000001800573b0     ConEmu.res
